
futes_vezerlo.elf:     file format elf32-avr

Sections:
Idx Name          Size      VMA       LMA       File off  Algn
  0 .data         0000075e  00800100  00006846  000068fa  2**0
                  CONTENTS, ALLOC, LOAD, DATA
  1 .text         00006846  00000000  00000000  000000b4  2**1
                  CONTENTS, ALLOC, LOAD, READONLY, CODE
  2 .bss          0000025e  0080085e  0080085e  00007058  2**0
                  ALLOC
  3 .eeprom       0000008e  00810000  00810000  00007058  2**0
                  CONTENTS, ALLOC, LOAD, DATA
  4 .comment      0000005c  00000000  00000000  000070e6  2**0
                  CONTENTS, READONLY
  5 .note.gnu.avr.deviceinfo 0000003c  00000000  00000000  00007144  2**2
                  CONTENTS, READONLY
  6 .debug_aranges 00000878  00000000  00000000  00007180  2**3
                  CONTENTS, READONLY, DEBUGGING
  7 .debug_info   0000d589  00000000  00000000  000079f8  2**0
                  CONTENTS, READONLY, DEBUGGING
  8 .debug_abbrev 000020b5  00000000  00000000  00014f81  2**0
                  CONTENTS, READONLY, DEBUGGING
  9 .debug_line   0000594e  00000000  00000000  00017036  2**0
                  CONTENTS, READONLY, DEBUGGING
 10 .debug_frame  0000166c  00000000  00000000  0001c984  2**2
                  CONTENTS, READONLY, DEBUGGING
 11 .debug_str    000021ef  00000000  00000000  0001dff0  2**0
                  CONTENTS, READONLY, DEBUGGING
 12 .debug_loc    0000903f  00000000  00000000  000201df  2**0
                  CONTENTS, READONLY, DEBUGGING
 13 .debug_ranges 00000a30  00000000  00000000  0002921e  2**0
                  CONTENTS, READONLY, DEBUGGING

Disassembly of section .text:

00000000 <__vectors>:
       0:	79 c4       	rjmp	.+2290   	; 0x8f4 <__ctors_end>
       2:	00 00       	nop
       4:	94 c4       	rjmp	.+2344   	; 0x92e <__bad_interrupt>
       6:	00 00       	nop
       8:	92 c4       	rjmp	.+2340   	; 0x92e <__bad_interrupt>
       a:	00 00       	nop
       c:	90 c4       	rjmp	.+2336   	; 0x92e <__bad_interrupt>
       e:	00 00       	nop
      10:	8e c4       	rjmp	.+2332   	; 0x92e <__bad_interrupt>
      12:	00 00       	nop
      14:	8c c4       	rjmp	.+2328   	; 0x92e <__bad_interrupt>
      16:	00 00       	nop
      18:	8a c4       	rjmp	.+2324   	; 0x92e <__bad_interrupt>
      1a:	00 00       	nop
      1c:	88 c4       	rjmp	.+2320   	; 0x92e <__bad_interrupt>
      1e:	00 00       	nop
      20:	86 c4       	rjmp	.+2316   	; 0x92e <__bad_interrupt>
      22:	00 00       	nop
      24:	84 c4       	rjmp	.+2312   	; 0x92e <__bad_interrupt>
      26:	00 00       	nop
      28:	0c 94 c4 09 	jmp	0x1388	; 0x1388 <__vector_10>
      2c:	80 c4       	rjmp	.+2304   	; 0x92e <__bad_interrupt>
      2e:	00 00       	nop
      30:	0c 94 8d 09 	jmp	0x131a	; 0x131a <__vector_12>
      34:	7c c4       	rjmp	.+2296   	; 0x92e <__bad_interrupt>
      36:	00 00       	nop
      38:	7a c4       	rjmp	.+2292   	; 0x92e <__bad_interrupt>
      3a:	00 00       	nop
      3c:	0c 94 a0 09 	jmp	0x1340	; 0x1340 <__vector_15>
      40:	76 c4       	rjmp	.+2284   	; 0x92e <__bad_interrupt>
      42:	00 00       	nop
      44:	74 c4       	rjmp	.+2280   	; 0x92e <__bad_interrupt>
      46:	00 00       	nop
      48:	0c 94 ac 2c 	jmp	0x5958	; 0x5958 <__vector_18>
      4c:	0c 94 d8 2c 	jmp	0x59b0	; 0x59b0 <__vector_19>
      50:	6e c4       	rjmp	.+2268   	; 0x92e <__bad_interrupt>
      52:	00 00       	nop
      54:	6c c4       	rjmp	.+2264   	; 0x92e <__bad_interrupt>
      56:	00 00       	nop
      58:	6a c4       	rjmp	.+2260   	; 0x92e <__bad_interrupt>
      5a:	00 00       	nop
      5c:	68 c4       	rjmp	.+2256   	; 0x92e <__bad_interrupt>
      5e:	00 00       	nop
      60:	66 c4       	rjmp	.+2252   	; 0x92e <__bad_interrupt>
      62:	00 00       	nop
      64:	64 c4       	rjmp	.+2248   	; 0x92e <__bad_interrupt>
      66:	00 00       	nop
      68:	62 c4       	rjmp	.+2244   	; 0x92e <__bad_interrupt>
      6a:	00 00       	nop
      6c:	60 c4       	rjmp	.+2240   	; 0x92e <__bad_interrupt>
      6e:	00 00       	nop
      70:	5e c4       	rjmp	.+2236   	; 0x92e <__bad_interrupt>
      72:	00 00       	nop
      74:	5c c4       	rjmp	.+2232   	; 0x92e <__bad_interrupt>
      76:	00 00       	nop
      78:	0c 94 4a 2d 	jmp	0x5a94	; 0x5a94 <__vector_30>
      7c:	0c 94 78 2d 	jmp	0x5af0	; 0x5af0 <__vector_31>
      80:	56 c4       	rjmp	.+2220   	; 0x92e <__bad_interrupt>
      82:	00 00       	nop
      84:	54 c4       	rjmp	.+2216   	; 0x92e <__bad_interrupt>
      86:	00 00       	nop
      88:	52 c4       	rjmp	.+2212   	; 0x92e <__bad_interrupt>
      8a:	00 00       	nop
      8c:	11 09       	sbc	r17, r1
      8e:	0a 09       	sbc	r16, r10
      90:	0a 09       	sbc	r16, r10
      92:	0a 09       	sbc	r16, r10
      94:	0a 09       	sbc	r16, r10
      96:	0a 09       	sbc	r16, r10
      98:	0a 09       	sbc	r16, r10
      9a:	0a 09       	sbc	r16, r10
      9c:	13 09       	sbc	r17, r3
      9e:	0a 09       	sbc	r16, r10
      a0:	0a 09       	sbc	r16, r10
      a2:	0a 09       	sbc	r16, r10
      a4:	15 09       	sbc	r17, r5
      a6:	0a 09       	sbc	r16, r10
      a8:	0a 09       	sbc	r16, r10
      aa:	0a 09       	sbc	r16, r10
      ac:	0a 09       	sbc	r16, r10
      ae:	0a 09       	sbc	r16, r10
      b0:	17 09       	sbc	r17, r7
      b2:	0a 09       	sbc	r16, r10
      b4:	19 09       	sbc	r17, r9
      b6:	09 09       	sbc	r16, r9
      b8:	0a 09       	sbc	r16, r10
      ba:	0a 09       	sbc	r16, r10
      bc:	0a 09       	sbc	r16, r10
      be:	0b 09       	sbc	r16, r11
      c0:	0d 09       	sbc	r16, r13
      c2:	0f 09       	sbc	r16, r15
      c4:	0a 09       	sbc	r16, r10
      c6:	0a 09       	sbc	r16, r10
      c8:	0a 09       	sbc	r16, r10
      ca:	0a 09       	sbc	r16, r10
      cc:	11 09       	sbc	r17, r1
      ce:	0a 09       	sbc	r16, r10
      d0:	0a 09       	sbc	r16, r10
      d2:	0a 09       	sbc	r16, r10
      d4:	0a 09       	sbc	r16, r10
      d6:	0a 09       	sbc	r16, r10
      d8:	0a 09       	sbc	r16, r10
      da:	0a 09       	sbc	r16, r10
      dc:	13 09       	sbc	r17, r3
      de:	0a 09       	sbc	r16, r10
      e0:	0a 09       	sbc	r16, r10
      e2:	0a 09       	sbc	r16, r10
      e4:	15 09       	sbc	r17, r5
      e6:	0a 09       	sbc	r16, r10
      e8:	0a 09       	sbc	r16, r10
      ea:	0a 09       	sbc	r16, r10
      ec:	0a 09       	sbc	r16, r10
      ee:	0a 09       	sbc	r16, r10
      f0:	17 09       	sbc	r17, r7
      f2:	0a 09       	sbc	r16, r10
      f4:	19 09       	sbc	r17, r9
      f6:	09 09       	sbc	r16, r9
      f8:	0a 09       	sbc	r16, r10
      fa:	0a 09       	sbc	r16, r10
      fc:	0a 09       	sbc	r16, r10
      fe:	0b 09       	sbc	r16, r11
     100:	0d 09       	sbc	r16, r13
     102:	0f 09       	sbc	r16, r15
     104:	29 0b       	sbc	r18, r25
     106:	38 0b       	sbc	r19, r24
     108:	c4 0b       	sbc	r28, r20
     10a:	d1 0b       	sbc	r29, r17
     10c:	88 0c       	add	r8, r8
     10e:	15 0b       	sbc	r17, r21
     110:	1f 0b       	sbc	r17, r31
     112:	96 0e       	add	r9, r22
     114:	90 0e       	add	r9, r16
     116:	8a 0e       	add	r8, r26
     118:	84 0e       	add	r8, r20
     11a:	7e 0e       	add	r7, r30
     11c:	78 0e       	add	r7, r24
     11e:	9c 0e       	add	r9, r28
     120:	00 16       	cp	r0, r16
     122:	09 16       	cp	r0, r25
     124:	00 16       	cp	r0, r16
     126:	10 16       	cp	r1, r16
     128:	00 16       	cp	r0, r16
     12a:	10 16       	cp	r1, r16
     12c:	00 16       	cp	r0, r16
     12e:	00 16       	cp	r0, r16
     130:	10 16       	cp	r1, r16
     132:	00 16       	cp	r0, r16
     134:	10 16       	cp	r1, r16
     136:	00 16       	cp	r0, r16
     138:	66 18       	sub	r6, r6
     13a:	6a 18       	sub	r6, r10
     13c:	6e 18       	sub	r6, r14
     13e:	72 18       	sub	r7, r2
     140:	76 18       	sub	r7, r6
     142:	5e 18       	sub	r5, r14
     144:	62 18       	sub	r6, r2
     146:	f0 20       	and	r15, r0
     148:	0a 21       	and	r16, r10
     14a:	34 21       	and	r19, r4
     14c:	47 21       	and	r20, r7
     14e:	57 21       	and	r21, r7
     150:	c9 20       	and	r12, r9
     152:	d8 20       	and	r13, r8

00000154 <__trampolines_end>:
     154:	02 04       	cpc	r0, r2
     156:	0e 01       	movw	r0, r28
     158:	0f 11       	cpse	r16, r15
     15a:	0f 00       	.word	0x000f	; ????
     15c:	02 04       	cpc	r0, r2
     15e:	0e 11       	cpse	r16, r14
     160:	1f 10       	cpse	r1, r15
     162:	0e 00       	.word	0x000e	; ????
     164:	02 04       	cpc	r0, r2
     166:	00 0c       	add	r0, r0
     168:	04 04       	cpc	r0, r4
     16a:	0e 00       	.word	0x000e	; ????
     16c:	02 04       	cpc	r0, r2
     16e:	0e 11       	cpse	r16, r14
     170:	11 11       	cpse	r17, r1
     172:	0e 00       	.word	0x000e	; ????
     174:	05 0a       	sbc	r0, r21
     176:	0e 11       	cpse	r16, r14
     178:	11 11       	cpse	r17, r1
     17a:	0e 00       	.word	0x000e	; ????
     17c:	02 04       	cpc	r0, r2
     17e:	00 11       	cpse	r16, r0
     180:	11 13       	cpse	r17, r17
     182:	0d 00       	.word	0x000d	; ????
     184:	05 0a       	sbc	r0, r21
     186:	00 11       	cpse	r16, r0
     188:	11 13       	cpse	r17, r17
     18a:	0d 00       	.word	0x000d	; ????

0000018c <__c.3298>:
     18c:	20 64 62 00                                          db.

00000190 <__c.3296>:
     190:	44 53 31 38 42 32 30 3a 20 00                       DS18B20: .

0000019a <__c.3294>:
     19a:	20 44 53 31 38 42 32 30 20 73 65 6e 73 6f 72 73      DS18B20 sensors
     1aa:	0a 00                                               ..

000001ac <__c.3292>:
     1ac:	46 6f 75 6e 64 20 00                                Found .

000001b3 <__c.3290>:
     1b3:	49 6e 74 65 72 72 75 70 74 20 65 6e 61 62 6c 65     Interrupt enable
     1c3:	64 0d 0a 00                                         d...

000001c7 <__c.3288>:
     1c7:	4d 65 67 73 7a 61 6b ed 74 e1 73 6f 6b 20 65 6e     Megszak.t.sok en
     1d7:	67 2e 00                                            g..

000001da <__c.3286>:
     1da:	49 32 43 20 69 6e 64 ed 74 e1 73 00                 I2C ind.t.s.

000001e6 <__c.3280>:
     1e6:	41 6c 61 70 e1 6c 6c 61 70 6f 74 62 61 20 e1 6c     Alap.llapotba .l
     1f6:	6c e1 73 00                                         l.s.

000001fa <__c.3278>:
     1fa:	46 fb 74 e9 73 20 76 65 7a e9 72 6c e9 73 20 76     F.t.s vez.rl.s v
     20a:	30 2e 39 34 00                                      0.94.

0000020f <__c.3253>:
     20f:	0d 0a 00                                            ...

00000212 <__c.3248>:
     212:	3a 20 00                                            : .

00000215 <__c.3246>:
     215:	53 00                                               S.

00000217 <__c.3244>:
     217:	42 75 73 20 65 72 72 6f 72 0a 00                    Bus error..

00000222 <__c.3241>:
     222:	4e 6f 20 73 65 6e 73 6f 72 20 66 6f 75 6e 64 0a     No sensor found.
	...

00000233 <__c.3239>:
     233:	42 75 73 20 73 63 61 6e 6e 69 6e 67 20 2e 2e 2e     Bus scanning ...
     243:	0a 00                                               ..

00000245 <__c.3230>:
     245:	0d 0a 00                                            ...

00000248 <__c.3228>:
     248:	53 39 39 3b 00                                      S99;.

0000024d <__c.3211>:
     24d:	46 f6 6c 64 2f 45 6d 65 6c 20 00                    F.ld/Emel .

00000258 <__c.3209>:
     258:	20 56 70 20 00                                       Vp .

0000025d <__c.3207>:
     25d:	50 75 66 66 65 72 20 73 7a 2f 70 20 00              Puffer sz/p .

0000026a <__c.3205>:
     26a:	20 4d 20 00                                          M .

0000026e <__c.3203>:
     26e:	47 e1 7a 20 72 65 6c e9 20 00                       G.z rel. .

00000278 <__c.3201>:
     278:	48 4d 56 20 73 7a 20 00                             HMV sz .

00000280 <__c.3199>:
     280:	76 61 73 e1 72 6e 61 70 00                          vas.rnap.

00000289 <__c.3196>:
     289:	73 7a 6f 6d 62 61 74 00                             szombat.

00000291 <__c.3193>:
     291:	70 e9 6e 74 65 6b 00                                p.ntek.

00000298 <__c.3190>:
     298:	63 73 fc 74 00                                      cs.t.

0000029d <__c.3187>:
     29d:	73 7a 65 72 64 61 00                                szerda.

000002a4 <__c.3184>:
     2a4:	6b 65 64 64 00                                      kedd.

000002a9 <__c.3180>:
     2a9:	68 e9 74 66 f5 00                                   h.tf..

000002af <__c.3177>:
     2af:	2e 00                                               ..

000002b1 <__c.3175>:
     2b1:	2e 00                                               ..

000002b3 <__c.3173>:
     2b3:	3a 00                                               :.

000002b5 <__c.3171>:
     2b5:	20 43 00                                             C.

000002b8 <__c.3169>:
     2b8:	2e 00                                               ..

000002ba <__c.3167>:
     2ba:	56 69 73 73 7a 61 74 e9 72 f5 20 00                 Visszat.r. .

000002c6 <__c.3165>:
     2c6:	20 43 00                                             C.

000002c9 <__c.3163>:
     2c9:	2e 00                                               ..

000002cb <__c.3161>:
     2cb:	45 6c f5 72 65 6d 65 6e f5 20 00                    El.remen. .

000002d6 <__c.3159>:
     2d6:	20 43 00                                             C.

000002d9 <__c.3157>:
     2d9:	2e 00                                               ..

000002db <__c.3155>:
     2db:	45 6d 65 6c 65 74 20 00                             Emelet .

000002e3 <__c.3153>:
     2e3:	20 43 00                                             C.

000002e6 <__c.3151>:
     2e6:	2e 00                                               ..

000002e8 <__c.3149>:
     2e8:	50 61 64 6c f3 20 00                                Padl. .

000002ef <__c.3147>:
     2ef:	20 43 00                                             C.

000002f2 <__c.3145>:
     2f2:	2e 00                                               ..

000002f4 <__c.3143>:
     2f4:	4e 61 70 70 61 6c 69 20 00                          Nappali .

000002fd <__c.3141>:
     2fd:	20 43 00                                             C.

00000300 <__c.3139>:
     300:	2e 00                                               ..

00000302 <__c.3137>:
     302:	47 61 72 e1 7a 73 20 00                             Gar.zs .

0000030a <__c.3135>:
     30a:	20 43 00                                             C.

0000030d <__c.3133>:
     30d:	2e 00                                               ..

0000030f <__c.3131>:
     30f:	20 56 20 00                                          V .

00000313 <__c.3129>:
     313:	20 43 00                                             C.

00000316 <__c.3127>:
     316:	4b fc 6c 20 00                                      K.l .

0000031b <__c.3125>:
     31b:	20 43 00                                             C.

0000031e <__c.3123>:
     31e:	2e 00                                               ..

00000320 <__c.3121>:
     320:	47 e9 70 68 e1 7a 20 00                             G.ph.z .

00000328 <__c.3119>:
     328:	20 43 00                                             C.

0000032b <__c.3117>:
     32b:	2e 00                                               ..

0000032d <__c.3115>:
     32d:	50 75 66 66 65 72 20 00                             Puffer .

00000335 <__c.3113>:
     335:	20 43 00                                             C.

00000338 <__c.3111>:
     338:	2e 00                                               ..

0000033a <__c.3109>:
     33a:	48 4d 56 20 00                                      HMV .

0000033f <__c.3106>:
     33f:	0a 00                                               ..

00000341 <__c.3104>:
     341:	2e 00                                               ..

00000343 <__c.3102>:
     343:	53 31 38 3b 00                                      S18;.

00000348 <__c.3100>:
     348:	0d 00                                               ..

0000034a <__c.3098>:
     34a:	2e 00                                               ..

0000034c <__c.3096>:
     34c:	53 31 37 3b 00                                      S17;.

00000351 <__c.3094>:
     351:	0d 00                                               ..

00000353 <__c.3092>:
     353:	53 31 36 3b 00                                      S16;.

00000358 <__c.3090>:
     358:	0d 00                                               ..

0000035a <__c.3088>:
     35a:	2e 00                                               ..

0000035c <__c.3086>:
     35c:	53 31 35 3b 00                                      S15;.

00000361 <__c.3084>:
     361:	0d 00                                               ..

00000363 <__c.3082>:
     363:	2e 00                                               ..

00000365 <__c.3080>:
     365:	53 31 34 3b 00                                      S14;.

0000036a <__c.3078>:
     36a:	0d 00                                               ..

0000036c <__c.3076>:
     36c:	2e 00                                               ..

0000036e <__c.3074>:
     36e:	53 31 33 3b 00                                      S13;.

00000373 <__c.3071>:
     373:	0a 00                                               ..

00000375 <__c.3069>:
     375:	53 31 32 3b 00                                      S12;.

0000037a <__c.3067>:
     37a:	0d 00                                               ..

0000037c <__c.3065>:
     37c:	53 31 31 3b 00                                      S11;.

00000381 <__c.3063>:
     381:	0d 00                                               ..

00000383 <__c.3061>:
     383:	2e 00                                               ..

00000385 <__c.3059>:
     385:	53 31 30 3b 00                                      S10;.

0000038a <__c.3057>:
     38a:	0d 00                                               ..

0000038c <__c.3055>:
     38c:	2e 00                                               ..

0000038e <__c.3053>:
     38e:	53 39 3b 00                                         S9;.

00000392 <__c.3051>:
     392:	0d 00                                               ..

00000394 <__c.3049>:
     394:	2e 00                                               ..

00000396 <__c.3047>:
     396:	53 38 3b 00                                         S8;.

0000039a <__c.3044>:
     39a:	0a 00                                               ..

0000039c <__c.3042>:
     39c:	2e 00                                               ..

0000039e <__c.3040>:
     39e:	53 37 3b 00                                         S7;.

000003a2 <__c.3038>:
     3a2:	0d 00                                               ..

000003a4 <__c.3036>:
     3a4:	2e 00                                               ..

000003a6 <__c.3034>:
     3a6:	53 36 3b 00                                         S6;.

000003aa <__c.3032>:
     3aa:	0d 00                                               ..

000003ac <__c.3030>:
     3ac:	2e 00                                               ..

000003ae <__c.3028>:
     3ae:	53 35 3b 00                                         S5;.

000003b2 <__c.3026>:
     3b2:	0d 00                                               ..

000003b4 <__c.3024>:
     3b4:	2e 00                                               ..

000003b6 <__c.3022>:
     3b6:	53 34 3b 00                                         S4;.

000003ba <__c.3020>:
     3ba:	0d 00                                               ..

000003bc <__c.3018>:
     3bc:	2e 00                                               ..

000003be <__c.3016>:
     3be:	53 33 3b 00                                         S3;.

000003c2 <__c.3009>:
     3c2:	0d 00                                               ..

000003c4 <__c.3007>:
     3c4:	2e 00                                               ..

000003c6 <__c.3005>:
     3c6:	3b 00                                               ;.

000003c8 <__c.3003>:
     3c8:	53 00                                               S.

000003ca <__c.2999>:
     3ca:	0d 00                                               ..

000003cc <__c.2997>:
     3cc:	53 31 32 3b 00                                      S12;.

000003d1 <__c.2995>:
     3d1:	0d 00                                               ..

000003d3 <__c.2993>:
     3d3:	53 31 31 3b 00                                      S11;.

000003d8 <fraccel_lookup>:
     3d8:	00 01 01 02 03 03 04 04 05 06 06 07 08 08 09 09     ................

000003e8 <magyar_betuk>:
     3e8:	02 04 0e 01 0f 11 0f 00 02 04 0e 11 1f 10 0e 00     ................
     3f8:	02 04 00 0c 04 04 0e 00 02 04 0e 11 11 11 0e 00     ................
     408:	05 0a 0e 11 11 11 0e 00 02 04 00 11 11 13 0d 00     ................
     418:	05 0a 00 11 11 13 0d 00                             ........

00000420 <__c.3644>:
     420:	da 6a 72 61 69 6e 64 75 6c e1 73 6f 6b 00           .jraindul.sok.

0000042e <__c.3629>:
     42e:	3a 00                                               :.

00000430 <__c.3627>:
     430:	4d 61 78 20 69 64 f5 00                             Max id..

00000438 <__c.3613>:
     438:	3a 00                                               :.

0000043a <__c.3611>:
     43a:	4d 69 6e 20 69 64 f5 00                             Min id..

00000442 <__c.3596>:
     442:	4b 6f 6d 66 6f 72 74 20 65 6c f5 72 65 6d 65 6e     Komfort el.remen
     452:	f5 00                                               ..

00000454 <__c.3582>:
     454:	4b 6f 6d 66 6f 72 74 20 68 f5 6d 00                 Komfort h.m.

00000460 <__c.3566>:
     460:	4d 69 6e 64 6b e9 74 20 73 7a 69 6e 74 00           Mindk.t szint.

0000046e <__c.3564>:
     46e:	46 65 6c 73 f5 20 73 7a 69 6e 74 00                 Fels. szint.

0000047a <__c.3562>:
     47a:	41 6c 73 f3 20 73 7a 69 6e 74 00                    Als. szint.

00000485 <__c.3560>:
     485:	4b 69 6b 61 70 63 73 6f 6c 76 61 00                 Kikapcsolva.

00000491 <__c.3558>:
     491:	4b 6f 6d 66 6f 72 74 20 6d f3 64 00                 Komfort m.d.

0000049d <__c.3543>:
     49d:	76 61 73 e1 72 6e 61 70 00                          vas.rnap.

000004a6 <__c.3540>:
     4a6:	73 7a 6f 6d 62 61 74 00                             szombat.

000004ae <__c.3537>:
     4ae:	70 e9 6e 74 65 6b 00                                p.ntek.

000004b5 <__c.3534>:
     4b5:	63 73 fc 74 f6 72 74 f6 6b 00                       cs.t.rt.k.

000004bf <__c.3531>:
     4bf:	73 7a 65 72 64 61 00                                szerda.

000004c6 <__c.3528>:
     4c6:	6b 65 64 64 00                                      kedd.

000004cb <__c.3524>:
     4cb:	68 e9 74 66 f5 00                                   h.tf..

000004d1 <__c.3521>:
     4d1:	6e 61 70 20 6e e9 76 00                             nap n.v.

000004d9 <__c.3506>:
     4d9:	6e 61 70 00                                         nap.

000004dd <__c.3491>:
     4dd:	68 f3 6e 61 70 00                                   h.nap.

000004e3 <__c.3476>:
     4e3:	e9 76 00                                            .v.

000004e6 <__c.3461>:
     4e6:	70 65 72 63 00                                      perc.

000004eb <__c.3446>:
     4eb:	f3 72 61 00                                         .ra.

000004ef <__c.3431>:
     4ef:	47 e1 7a 20 4f 54 20 65 6c f5 72 65 00              G.z OT el.re.

000004fc <__c.3416>:
     4fc:	53 7a 69 76 61 74 74 79 fa 20 75 74 e1 6e 66 75     Szivatty. ut.nfu
     50c:	74 e1 73 00                                         t.s.

00000510 <__c.3401>:
     510:	4c 43 44 20 68 e1 74 74 e9 72 00                    LCD h.tt.r.

0000051b <__c.3386>:
     51b:	4d 65 6e fc 20 69 64 f5 7a ed 74 f5 20 28 6d 70     Men. id.z.t. (mp
     52b:	29 00                                               ).

0000052d <__c.3372>:
     52d:	48 69 62 61 6b 65 72 65 73 e9 73 00                 Hibakeres.s.

00000539 <__c.3369>:
     539:	4d 61 6e 75 e1 6c 69 73 00                          Manu.lis.

00000542 <__c.3365>:
     542:	41 75 74 6f 6d 61 74 69 6b 75 73 00                 Automatikus.

0000054e <__c.3362>:
     54e:	54 65 73 7a 74 fc 7a 65 6d 00                       Teszt.zem.

00000558 <__c.3342>:
     558:	4b 65 76 65 72 74 20 73 7a 65 6e 7a 6f 72 20 49     Kevert szenzor I
     568:	44 00                                               D.

0000056a <__c.3337>:
     56a:	20 43 00                                             C.

0000056d <__c.3335>:
     56d:	2e 00                                               ..

0000056f <__c.3333>:
     56f:	4b 65 76 65 72 74 20 61 6b 74 20 68 f5 6d 00        Kevert akt h.m.

0000057e <__c.3314>:
     57e:	56 69 73 73 7a 61 20 73 7a 65 6e 7a 6f 72 20 49     Vissza szenzor I
     58e:	44 00                                               D.

00000590 <__c.3309>:
     590:	20 43 00                                             C.

00000593 <__c.3307>:
     593:	2e 00                                               ..

00000595 <__c.3305>:
     595:	56 69 73 73 7a 61 74 e9 72 f5 20 61 6b 74 20 68     Visszat.r. akt h
     5a5:	f5 6d 00                                            .m.

000005a8 <__c.3286>:
     5a8:	45 6c f5 72 65 20 73 7a 65 6e 7a 6f 72 20 49 44     El.re szenzor ID
	...

000005b9 <__c.3281>:
     5b9:	20 43 00                                             C.

000005bc <__c.3279>:
     5bc:	2e 00                                               ..

000005be <__c.3277>:
     5be:	45 6c f5 72 65 20 61 6b 74 20 68 f5 6d 00           El.re akt h.m.

000005cc <__c.3258>:
     5cc:	56 69 73 73 7a 61 20 73 7a 65 6e 7a 6f 72 20 49     Vissza szenzor I
     5dc:	44 00                                               D.

000005de <__c.3253>:
     5de:	20 43 00                                             C.

000005e1 <__c.3251>:
     5e1:	2e 00                                               ..

000005e3 <__c.3249>:
     5e3:	56 69 73 73 7a 61 74 e9 72 f5 20 61 6b 74 20 68     Visszat.r. akt h
     5f3:	f5 6d 00                                            .m.

000005f6 <__c.3230>:
     5f6:	45 6c f5 72 65 20 73 7a 65 6e 7a 6f 72 20 49 44     El.re szenzor ID
	...

00000607 <__c.3225>:
     607:	20 43 00                                             C.

0000060a <__c.3223>:
     60a:	2e 00                                               ..

0000060c <__c.3221>:
     60c:	45 6c f5 72 65 20 61 6b 74 20 68 f5 6d 00           El.re akt h.m.

0000061a <__c.3202>:
     61a:	50 61 64 6c f3 20 73 7a 65 6e 7a 6f 72 20 49 44     Padl. szenzor ID
	...

0000062b <__c.3197>:
     62b:	20 43 00                                             C.

0000062e <__c.3195>:
     62e:	2f 00                                               /.

00000630 <__c.3192>:
     630:	20 43 00                                             C.

00000633 <__c.3190>:
     633:	2e 00                                               ..

00000635 <__c.3188>:
     635:	50 61 64 6c f3 20 61 6b 74 20 68 f5 6d 00           Padl. akt h.m.

00000643 <__c.3169>:
     643:	4e 61 70 70 61 6c 69 20 73 7a 65 6e 7a 6f 72 20     Nappali szenzor 
     653:	49 44 00                                            ID.

00000656 <__c.3164>:
     656:	20 43 00                                             C.

00000659 <__c.3162>:
     659:	2f 00                                               /.

0000065b <__c.3159>:
     65b:	20 43 00                                             C.

0000065e <__c.3157>:
     65e:	2e 00                                               ..

00000660 <__c.3155>:
     660:	4e 61 70 70 61 6c 69 20 61 6b 74 20 68 f5 6d 00     Nappali akt h.m.

00000670 <__c.3136>:
     670:	47 61 72 e1 7a 73 20 73 7a 65 6e 7a 6f 72 20 49     Gar.zs szenzor I
     680:	44 00                                               D.

00000682 <__c.3131>:
     682:	20 43 00                                             C.

00000685 <__c.3129>:
     685:	2f 00                                               /.

00000687 <__c.3126>:
     687:	20 43 00                                             C.

0000068a <__c.3124>:
     68a:	2e 00                                               ..

0000068c <__c.3122>:
     68c:	47 61 72 e1 7a 73 20 61 6b 74 20 68 f5 6d 00        Gar.zs akt h.m.

0000069b <__c.3107>:
     69b:	4b 69 00                                            Ki.

0000069e <__c.3105>:
     69e:	42 65 00                                            Be.

000006a1 <__c.3103>:
     6a1:	47 e1 7a 20 e1 6c 6c 61 70 6f 74 00                 G.z .llapot.

000006ad <__c.3089>:
     6ad:	4b 69 00                                            Ki.

000006b0 <__c.3087>:
     6b0:	42 65 00                                            Be.

000006b3 <__c.3085>:
     6b3:	50 75 66 66 65 72 20 73 7a 69 76 61 74 74 79 fa     Puffer szivatty.
	...

000006c4 <__c.3071>:
     6c4:	47 e1 7a 00                                         G.z.

000006c8 <__c.3069>:
     6c8:	50 75 66 66 65 72 00                                Puffer.

000006cf <__c.3067>:
     6cf:	50 75 66 66 65 72 20 2f 20 67 e1 7a 20 73 7a 65     Puffer / g.z sze
     6df:	6c 65 70 00                                         lep.

000006e3 <__c.3053>:
     6e3:	4b 69 00                                            Ki.

000006e6 <__c.3051>:
     6e6:	42 65 00                                            Be.

000006e9 <__c.3049>:
     6e9:	45 6d 65 6c 65 74 69 20 73 7a 69 76 61 74 74 79     Emeleti szivatty
     6f9:	fa 00                                               ..

000006fb <__c.3035>:
     6fb:	4b 69 00                                            Ki.

000006fe <__c.3033>:
     6fe:	42 65 00                                            Be.

00000701 <__c.3031>:
     701:	46 f6 6c 64 73 7a 69 6e 74 69 20 73 7a 69 76 61     F.ldszinti sziva
     711:	74 74 79 fa 00                                      tty..

00000716 <__c.3017>:
     716:	4b 69 00                                            Ki.

00000719 <__c.3015>:
     719:	42 65 00                                            Be.

0000071c <__c.3013>:
     71c:	48 4d 56 20 73 7a 65 6c 65 70 20 e1 6c 6c 61 70     HMV szelep .llap
     72c:	6f 74 00                                            ot.

0000072f <__c.2993>:
     72f:	47 e9 70 68 e1 7a 20 73 7a 65 6e 7a 6f 72 20 49     G.ph.z szenzor I
     73f:	44 00                                               D.

00000741 <__c.2979>:
     741:	47 e9 70 68 e1 7a 20 6b ed 76 e1 6e 74 20 68 f5     G.ph.z k.v.nt h.
     751:	6d 00                                               m.

00000753 <__c.2964>:
     753:	47 e9 70 68 e1 7a 20 6d 69 6e 20 68 f5 6d 00        G.ph.z min h.m.

00000762 <__c.2958>:
     762:	20 43 00                                             C.

00000765 <__c.2956>:
     765:	2f 00                                               /.

00000767 <__c.2953>:
     767:	20 43 00                                             C.

0000076a <__c.2951>:
     76a:	2e 00                                               ..

0000076c <__c.2949>:
     76c:	47 e9 70 68 e1 7a 20 61 6b 74 20 68 f5 6d 00        G.ph.z akt h.m.

0000077b <__c.2929>:
     77b:	50 75 66 66 65 72 20 73 7a 65 6e 7a 6f 72 20 49     Puffer szenzor I
     78b:	44 00                                               D.

0000078d <__c.2915>:
     78d:	50 75 66 66 65 72 20 6d 61 78 20 68 f5 6d 00        Puffer max h.m.

0000079c <__c.2900>:
     79c:	45 6c f5 72 65 6d 65 6e f5 20 68 f5 6d 00           El.remen. h.m.

000007aa <__c.2894>:
     7aa:	20 43 00                                             C.

000007ad <__c.2892>:
     7ad:	2f 00                                               /.

000007af <__c.2889>:
     7af:	20 43 00                                             C.

000007b2 <__c.2887>:
     7b2:	2e 00                                               ..

000007b4 <__c.2885>:
     7b4:	50 75 66 66 65 72 20 61 6b 74 20 68 f5 6d 00        Puffer akt h.m.

000007c3 <__c.2850>:
     7c3:	49 44 00                                            ID.

000007c6 <__c.2847>:
     7c6:	20 43 00                                             C.

000007c9 <__c.2845>:
     7c9:	30 2e 00                                            0..

000007cc <__c.2843>:
     7cc:	68 69 73 7a 74 2e 00                                hiszt..

000007d3 <__c.2840>:
     7d3:	6b 69 6b 61 70 63 73 6f 6c 76 61 00                 kikapcsolva.

000007df <__c.2838>:
     7df:	62 65 6b 61 70 63 73 6f 6c 76 61 00                 bekapcsolva.

000007eb <__c.2836>:
     7eb:	74 65 72 6d 2e 00                                   term..

000007f1 <__c.2833>:
     7f1:	6b ed 76 e1 6e 74 00                                k.v.nt.

000007f8 <__c.2829>:
     7f8:	20 43 00                                             C.

000007fb <__c.2827>:
     7fb:	2e 00                                               ..

000007fd <__c.2825>:
     7fd:	68 f5 6d 00                                         h.m.

00000801 <__c.2820>:
     801:	46 65 6c 73 f5 20 73 7a 69 6e 74 00                 Fels. szint.

0000080d <__c.2804>:
     80d:	3a 00                                               :.

0000080f <__c.2802>:
     80f:	4d 61 78 20 69 64 f5 00                             Max id..

00000817 <__c.2788>:
     817:	3a 00                                               :.

00000819 <__c.2786>:
     819:	4d 69 6e 20 69 64 f5 00                             Min id..

00000821 <__c.2767>:
     821:	48 4d 56 20 73 7a 65 6e 7a 6f 72 20 49 44 00        HMV szenzor ID.

00000830 <__c.2753>:
     830:	48 4d 56 20 6d 69 6e 20 68 f5 6d 00                 HMV min h.m.

0000083c <__c.2738>:
     83c:	48 4d 56 20 6b ed 76 e1 6e 74 20 68 f5 6d 00        HMV k.v.nt h.m.

0000084b <__c.2732>:
     84b:	20 43 00                                             C.

0000084e <__c.2730>:
     84e:	2f 00                                               /.

00000850 <__c.2727>:
     850:	20 43 00                                             C.

00000853 <__c.2725>:
     853:	2e 00                                               ..

00000855 <__c.2723>:
     855:	48 4d 56 20 61 6b 74 20 68 f5 6d 00                 HMV akt h.m.

00000861 <__c.2683>:
     861:	49 44 00                                            ID.

00000864 <__c.2680>:
     864:	68 f5 6d 20 72 2e 00                                h.m r..

0000086b <__c.2677>:
     86b:	72 e1 72 61 6b 00                                   r.rak.

00000871 <__c.2674>:
     871:	6e 79 6f 6d 20 72 00                                nyom r.

00000878 <__c.2671>:
     878:	20 43 00                                             C.

0000087b <__c.2669>:
     87b:	73 7a 69 76 20 64 74 00                             sziv dt.

00000883 <__c.2666>:
     883:	75 74 e1 6e 00                                      ut.n.

00000888 <__c.2664>:
     888:	65 6c f5 74 74 00                                   el.tt.

0000088e <__c.2662>:
     88e:	6e 79 6f 6d e1 73 00                                nyom.s.

00000895 <__c.2658>:
     895:	20 43 00                                             C.

00000898 <__c.2656>:
     898:	2e 00                                               ..

0000089a <__c.2654>:
     89a:	68 f5 6d 00                                         h.m.

0000089e <__c.2651>:
     89e:	56 65 67 79 65 73 20 6b 61 7a e1 6e 20 00           Vegyes kaz.n .

000008ac <__c.2635>:
     8ac:	4b fc 6c 73 f5 20 6d 69 6e 20 68 f5 6d 00           K.ls. min h.m.

000008ba <__c.2621>:
     8ba:	6c 65 74 69 6c 74 76 61 00                          letiltva.

000008c3 <__c.2619>:
     8c3:	61 6b 74 ed 76 00                                   akt.v.

000008c9 <__c.2617>:
     8c9:	4b fc 6c 73 f5 20 68 f5 6d 20 74 69 6c 74 e1 73     K.ls. h.m tilt.s
	...

000008da <__c.2612>:
     8da:	48 49 48 78 78 78 78 20 70 e1 72 61 00              HIHxxxx p.ra.

000008e7 <__c.2607>:
     8e7:	48 49 48 78 78 78 78 20 68 f5 6d 00 00              HIHxxxx h.m..

000008f4 <__ctors_end>:
     8f4:	11 24       	eor	r1, r1
     8f6:	1f be       	out	0x3f, r1	; 63
     8f8:	cf ef       	ldi	r28, 0xFF	; 255
     8fa:	d0 e1       	ldi	r29, 0x10	; 16
     8fc:	de bf       	out	0x3e, r29	; 62
     8fe:	cd bf       	out	0x3d, r28	; 61

00000900 <__do_copy_data>:
     900:	18 e0       	ldi	r17, 0x08	; 8
     902:	a0 e0       	ldi	r26, 0x00	; 0
     904:	b1 e0       	ldi	r27, 0x01	; 1
     906:	e6 e4       	ldi	r30, 0x46	; 70
     908:	f8 e6       	ldi	r31, 0x68	; 104
     90a:	02 c0       	rjmp	.+4      	; 0x910 <__do_copy_data+0x10>
     90c:	05 90       	lpm	r0, Z+
     90e:	0d 92       	st	X+, r0
     910:	ae 35       	cpi	r26, 0x5E	; 94
     912:	b1 07       	cpc	r27, r17
     914:	d9 f7       	brne	.-10     	; 0x90c <__do_copy_data+0xc>

00000916 <__do_clear_bss>:
     916:	2a e0       	ldi	r18, 0x0A	; 10
     918:	ae e5       	ldi	r26, 0x5E	; 94
     91a:	b8 e0       	ldi	r27, 0x08	; 8
     91c:	01 c0       	rjmp	.+2      	; 0x920 <.do_clear_bss_start>

0000091e <.do_clear_bss_loop>:
     91e:	1d 92       	st	X+, r1

00000920 <.do_clear_bss_start>:
     920:	ac 3b       	cpi	r26, 0xBC	; 188
     922:	b2 07       	cpc	r27, r18
     924:	e1 f7       	brne	.-8      	; 0x91e <.do_clear_bss_loop>
     926:	0e 94 e4 14 	call	0x29c8	; 0x29c8 <main>
     92a:	0c 94 21 34 	jmp	0x6842	; 0x6842 <_exit>

0000092e <__bad_interrupt>:
     92e:	68 cb       	rjmp	.-2352   	; 0x0 <__vectors>

00000930 <crc8>:
	uint8_t  data;
	uint8_t  feedback_bit;
	
	crc = CRC8INIT;

	for (loop_count = 0; loop_count != number_of_bytes_to_read; loop_count++)
     930:	61 15       	cp	r22, r1
     932:	71 05       	cpc	r23, r1
     934:	d1 f0       	breq	.+52     	; 0x96a <crc8+0x3a>
     936:	fc 01       	movw	r30, r24
     938:	68 0f       	add	r22, r24
     93a:	79 1f       	adc	r23, r25
     93c:	80 e0       	ldi	r24, 0x00	; 0
		bit_counter = 8;
		do {
			feedback_bit = (crc ^ data) & 0x01;
	
			if ( feedback_bit == 0x01 ) {
				crc = crc ^ CRC8POLY;
     93e:	48 e1       	ldi	r20, 0x18	; 24
	
	crc = CRC8INIT;

	for (loop_count = 0; loop_count != number_of_bytes_to_read; loop_count++)
	{
		data = data_in[loop_count];
     940:	21 91       	ld	r18, Z+
     942:	98 e0       	ldi	r25, 0x08	; 8
     944:	04 c0       	rjmp	.+8      	; 0x94e <crc8+0x1e>
			feedback_bit = (crc ^ data) & 0x01;
	
			if ( feedback_bit == 0x01 ) {
				crc = crc ^ CRC8POLY;
			}
			crc = (crc >> 1) & 0x7F;
     946:	86 95       	lsr	r24
			if ( feedback_bit == 0x01 ) {
				crc = crc | 0x80;
			}
		
			data = data >> 1;
     948:	26 95       	lsr	r18
     94a:	91 50       	subi	r25, 0x01	; 1
			bit_counter--;
		
		} while (bit_counter > 0);
     94c:	51 f0       	breq	.+20     	; 0x962 <crc8+0x32>
		
		bit_counter = 8;
		do {
			feedback_bit = (crc ^ data) & 0x01;
	
			if ( feedback_bit == 0x01 ) {
     94e:	38 2f       	mov	r19, r24
     950:	32 27       	eor	r19, r18
     952:	30 ff       	sbrs	r19, 0
     954:	f8 cf       	rjmp	.-16     	; 0x946 <crc8+0x16>
				crc = crc ^ CRC8POLY;
     956:	84 27       	eor	r24, r20
			}
			crc = (crc >> 1) & 0x7F;
     958:	86 95       	lsr	r24
			if ( feedback_bit == 0x01 ) {
				crc = crc | 0x80;
     95a:	80 68       	ori	r24, 0x80	; 128
			}
		
			data = data >> 1;
     95c:	26 95       	lsr	r18
     95e:	91 50       	subi	r25, 0x01	; 1
			bit_counter--;
		
		} while (bit_counter > 0);
     960:	b1 f7       	brne	.-20     	; 0x94e <crc8+0x1e>
	uint8_t  data;
	uint8_t  feedback_bit;
	
	crc = CRC8INIT;

	for (loop_count = 0; loop_count != number_of_bytes_to_read; loop_count++)
     962:	6e 17       	cp	r22, r30
     964:	7f 07       	cpc	r23, r31
     966:	61 f7       	brne	.-40     	; 0x940 <crc8+0x10>
     968:	08 95       	ret
	uint16_t loop_count;
	uint8_t  bit_counter;
	uint8_t  data;
	uint8_t  feedback_bit;
	
	crc = CRC8INIT;
     96a:	80 e0       	ldi	r24, 0x00	; 0
			bit_counter--;
		
		} while (bit_counter > 0);
	}
	
	return crc;
     96c:	08 95       	ret

0000096e <DS18X20_meas_to_cel>:
    ow_reset();
    ow_command(DS18X20_READ_POWER_SUPPLY, id);
    pstat=ow_bit_io(1); // pstat 0=is parasite/ !=0 ext. powered
    ow_reset();
	return (pstat) ? DS18X20_POWER_EXTERN:DS18X20_POWER_PARASITE;
}
     96e:	0f 93       	push	r16
     970:	1f 93       	push	r17
     972:	db 01       	movw	r26, r22
     974:	ed 91       	ld	r30, X+
     976:	fc 91       	ld	r31, X
     978:	11 97       	sbiw	r26, 0x01	; 1
     97a:	80 31       	cpi	r24, 0x10	; 16
     97c:	19 f1       	breq	.+70     	; 0x9c4 <DS18X20_meas_to_cel+0x56>
     97e:	f7 fd       	sbrc	r31, 7
     980:	2f c0       	rjmp	.+94     	; 0x9e0 <DS18X20_meas_to_cel+0x72>
     982:	da 01       	movw	r26, r20
     984:	1c 92       	st	X, r1
     986:	88 32       	cpi	r24, 0x28	; 40
     988:	81 f0       	breq	.+32     	; 0x9aa <DS18X20_meas_to_cel+0x3c>
     98a:	cf 01       	movw	r24, r30
     98c:	92 95       	swap	r25
     98e:	82 95       	swap	r24
     990:	8f 70       	andi	r24, 0x0F	; 15
     992:	89 27       	eor	r24, r25
     994:	9f 70       	andi	r25, 0x0F	; 15
     996:	89 27       	eor	r24, r25
     998:	d9 01       	movw	r26, r18
     99a:	8c 93       	st	X, r24
     99c:	ef 70       	andi	r30, 0x0F	; 15
     99e:	d8 01       	movw	r26, r16
     9a0:	ec 93       	st	X, r30
     9a2:	80 e0       	ldi	r24, 0x00	; 0
     9a4:	1f 91       	pop	r17
     9a6:	0f 91       	pop	r16
     9a8:	08 95       	ret
     9aa:	db 01       	movw	r26, r22
     9ac:	14 96       	adiw	r26, 0x04	; 4
     9ae:	8c 91       	ld	r24, X
     9b0:	98 2f       	mov	r25, r24
     9b2:	90 76       	andi	r25, 0x60	; 96
     9b4:	90 36       	cpi	r25, 0x60	; 96
     9b6:	49 f3       	breq	.-46     	; 0x98a <DS18X20_meas_to_cel+0x1c>
     9b8:	86 fd       	sbrc	r24, 6
     9ba:	19 c0       	rjmp	.+50     	; 0x9ee <DS18X20_meas_to_cel+0x80>
     9bc:	85 fd       	sbrc	r24, 5
     9be:	19 c0       	rjmp	.+50     	; 0x9f2 <DS18X20_meas_to_cel+0x84>
     9c0:	e8 7f       	andi	r30, 0xF8	; 248
     9c2:	e3 cf       	rjmp	.-58     	; 0x98a <DS18X20_meas_to_cel+0x1c>
     9c4:	ee 7f       	andi	r30, 0xFE	; 254
     9c6:	ee 0f       	add	r30, r30
     9c8:	ff 1f       	adc	r31, r31
     9ca:	ee 0f       	add	r30, r30
     9cc:	ff 1f       	adc	r31, r31
     9ce:	ee 0f       	add	r30, r30
     9d0:	ff 1f       	adc	r31, r31
     9d2:	16 96       	adiw	r26, 0x06	; 6
     9d4:	9c 91       	ld	r25, X
     9d6:	e9 1b       	sub	r30, r25
     9d8:	f1 09       	sbc	r31, r1
     9da:	3c 96       	adiw	r30, 0x0c	; 12
     9dc:	f7 ff       	sbrs	r31, 7
     9de:	d1 cf       	rjmp	.-94     	; 0x982 <DS18X20_meas_to_cel+0x14>
     9e0:	91 e0       	ldi	r25, 0x01	; 1
     9e2:	da 01       	movw	r26, r20
     9e4:	9c 93       	st	X, r25
     9e6:	f1 95       	neg	r31
     9e8:	e1 95       	neg	r30
     9ea:	f1 09       	sbc	r31, r1
     9ec:	cc cf       	rjmp	.-104    	; 0x986 <DS18X20_meas_to_cel+0x18>
     9ee:	ee 7f       	andi	r30, 0xFE	; 254
     9f0:	cc cf       	rjmp	.-104    	; 0x98a <DS18X20_meas_to_cel+0x1c>
     9f2:	ec 7f       	andi	r30, 0xFC	; 252
     9f4:	ca cf       	rjmp	.-108    	; 0x98a <DS18X20_meas_to_cel+0x1c>

000009f6 <DS18X20_find_sensor>:
     9f6:	0f 93       	push	r16
     9f8:	1f 93       	push	r17
     9fa:	cf 93       	push	r28
     9fc:	df 93       	push	r29
     9fe:	8c 01       	movw	r16, r24
     a00:	eb 01       	movw	r28, r22
     a02:	fc 01       	movw	r30, r24
     a04:	80 81       	ld	r24, Z
     a06:	05 c0       	rjmp	.+10     	; 0xa12 <DS18X20_find_sensor+0x1c>
     a08:	98 81       	ld	r25, Y
     a0a:	98 32       	cpi	r25, 0x28	; 40
     a0c:	51 f0       	breq	.+20     	; 0xa22 <DS18X20_find_sensor+0x2c>
     a0e:	90 31       	cpi	r25, 0x10	; 16
     a10:	41 f0       	breq	.+16     	; 0xa22 <DS18X20_find_sensor+0x2c>
     a12:	be 01       	movw	r22, r28
     a14:	46 d1       	rcall	.+652    	; 0xca2 <ow_rom_search>
     a16:	f8 01       	movw	r30, r16
     a18:	80 83       	st	Z, r24
     a1a:	9f ef       	ldi	r25, 0xFF	; 255
     a1c:	98 0f       	add	r25, r24
     a1e:	9d 3f       	cpi	r25, 0xFD	; 253
     a20:	98 f3       	brcs	.-26     	; 0xa08 <DS18X20_find_sensor+0x12>
     a22:	df 91       	pop	r29
     a24:	cf 91       	pop	r28
     a26:	1f 91       	pop	r17
     a28:	0f 91       	pop	r16
     a2a:	08 95       	ret

00000a2c <DS18X20_start_meas>:

/* start measurement (CONVERT_T) for all sensors if input id==NULL
   or for single sensor. then id is the rom-code */
uint8_t DS18X20_start_meas( uint8_t with_power_extern, uint8_t id[])
{
     a2c:	0f 93       	push	r16
     a2e:	1f 93       	push	r17
     a30:	cf 93       	push	r28
     a32:	c8 2f       	mov	r28, r24
     a34:	8b 01       	movw	r16, r22
	ow_reset(); //**
     a36:	86 d0       	rcall	.+268    	; 0xb44 <ow_reset>
	if( ow_input_pin_state() ) { // only send if bus is "idle" = high
     a38:	69 d0       	rcall	.+210    	; 0xb0c <ow_input_pin_state>
     a3a:	81 11       	cpse	r24, r1
     a3c:	05 c0       	rjmp	.+10     	; 0xa48 <DS18X20_start_meas+0x1c>
     a3e:	82 e0       	ldi	r24, 0x02	; 2
		return DS18X20_OK;
	}
	else {
		#ifdef DS18X20_VERBOSE
		#endif
		return DS18X20_START_FAIL;
     a40:	cf 91       	pop	r28
	}
}
     a42:	1f 91       	pop	r17
     a44:	0f 91       	pop	r16
     a46:	08 95       	ret
     a48:	b8 01       	movw	r22, r16
   or for single sensor. then id is the rom-code */
uint8_t DS18X20_start_meas( uint8_t with_power_extern, uint8_t id[])
{
	ow_reset(); //**
	if( ow_input_pin_state() ) { // only send if bus is "idle" = high
		ow_command( DS18X20_CONVERT_T, id );
     a4a:	84 e4       	ldi	r24, 0x44	; 68
     a4c:	7f d1       	rcall	.+766    	; 0xd4c <ow_command>
     a4e:	c1 30       	cpi	r28, 0x01	; 1
		if (with_power_extern != DS18X20_POWER_EXTERN)
     a50:	31 f0       	breq	.+12     	; 0xa5e <DS18X20_start_meas+0x32>
     a52:	65 d0       	rcall	.+202    	; 0xb1e <ow_parasite_enable>
			ow_parasite_enable();
     a54:	80 e0       	ldi	r24, 0x00	; 0
     a56:	cf 91       	pop	r28
		return DS18X20_OK;
     a58:	1f 91       	pop	r17
	else {
		#ifdef DS18X20_VERBOSE
		#endif
		return DS18X20_START_FAIL;
	}
}
     a5a:	0f 91       	pop	r16
     a5c:	08 95       	ret
     a5e:	80 e0       	ldi	r24, 0x00	; 0
     a60:	ef cf       	rjmp	.-34     	; 0xa40 <DS18X20_start_meas+0x14>

00000a62 <DS18X20_read_meas>:
	ow_reset(); //**
	if( ow_input_pin_state() ) { // only send if bus is "idle" = high
		ow_command( DS18X20_CONVERT_T, id );
		if (with_power_extern != DS18X20_POWER_EXTERN)
			ow_parasite_enable();
		return DS18X20_OK;
     a62:	6f 92       	push	r6
     a64:	7f 92       	push	r7
   output: subzero==1 if temp.<0, cel: full celsius, mcel: frac
   in millicelsius*0.1
   i.e.: subzero=1, cel=18, millicel=5000 = -18,5000°C */
uint8_t DS18X20_read_meas(uint8_t id[], uint8_t *subzero,
	uint8_t *cel, uint8_t *cel_frac_bits)
{
     a66:	8f 92       	push	r8
     a68:	9f 92       	push	r9
     a6a:	af 92       	push	r10
     a6c:	bf 92       	push	r11
     a6e:	cf 92       	push	r12
     a70:	df 92       	push	r13
     a72:	ef 92       	push	r14
     a74:	ff 92       	push	r15
     a76:	0f 93       	push	r16
     a78:	1f 93       	push	r17
     a7a:	cf 93       	push	r28
     a7c:	df 93       	push	r29
     a7e:	cd b7       	in	r28, 0x3d	; 61
     a80:	de b7       	in	r29, 0x3e	; 62
     a82:	29 97       	sbiw	r28, 0x09	; 9
     a84:	0f b6       	in	r0, 0x3f	; 63
     a86:	f8 94       	cli
     a88:	de bf       	out	0x3e, r29	; 62
     a8a:	0f be       	out	0x3f, r0	; 63
     a8c:	cd bf       	out	0x3d, r28	; 61
     a8e:	5c 01       	movw	r10, r24
     a90:	4b 01       	movw	r8, r22
     a92:	3a 01       	movw	r6, r20
     a94:	89 01       	movw	r16, r18
	uint8_t i;
	uint8_t sp[DS18X20_SP_SIZE];

	ow_reset(); //**
     a96:	56 d0       	rcall	.+172    	; 0xb44 <ow_reset>
	ow_command(DS18X20_READ, id);
     a98:	b5 01       	movw	r22, r10
     a9a:	8e eb       	ldi	r24, 0xBE	; 190
     a9c:	57 d1       	rcall	.+686    	; 0xd4c <ow_command>
     a9e:	ce 01       	movw	r24, r28
     aa0:	01 96       	adiw	r24, 0x01	; 1
     aa2:	7c 01       	movw	r14, r24
     aa4:	6e 01       	movw	r12, r28
     aa6:	9a e0       	ldi	r25, 0x0A	; 10
     aa8:	c9 0e       	add	r12, r25
	for ( i=0 ; i< DS18X20_SP_SIZE; i++ ) sp[i]=ow_byte_rd();
     aaa:	d1 1c       	adc	r13, r1
     aac:	f8 d0       	rcall	.+496    	; 0xc9e <ow_byte_rd>
     aae:	f7 01       	movw	r30, r14
     ab0:	81 93       	st	Z+, r24
     ab2:	7f 01       	movw	r14, r30
     ab4:	ec 15       	cp	r30, r12
     ab6:	fd 05       	cpc	r31, r13
     ab8:	c9 f7       	brne	.-14     	; 0xaac <DS18X20_read_meas+0x4a>
	if ( crc8( &sp[0], DS18X20_SP_SIZE ) )
     aba:	69 e0       	ldi	r22, 0x09	; 9
     abc:	70 e0       	ldi	r23, 0x00	; 0
     abe:	ce 01       	movw	r24, r28
     ac0:	01 96       	adiw	r24, 0x01	; 1
     ac2:	36 df       	rcall	.-404    	; 0x930 <crc8>
     ac4:	f8 2e       	mov	r15, r24
     ac6:	88 23       	and	r24, r24
     ac8:	c1 f0       	breq	.+48     	; 0xafa <DS18X20_read_meas+0x98>
		return DS18X20_ERROR_CRC;
     aca:	83 e0       	ldi	r24, 0x03	; 3
     acc:	f8 2e       	mov	r15, r24
	DS18X20_meas_to_cel(id[0], sp, subzero, cel, cel_frac_bits);
	return DS18X20_OK;
}
     ace:	8f 2d       	mov	r24, r15
     ad0:	29 96       	adiw	r28, 0x09	; 9
     ad2:	0f b6       	in	r0, 0x3f	; 63
     ad4:	f8 94       	cli
     ad6:	de bf       	out	0x3e, r29	; 62
     ad8:	0f be       	out	0x3f, r0	; 63
     ada:	cd bf       	out	0x3d, r28	; 61
     adc:	df 91       	pop	r29
     ade:	cf 91       	pop	r28
     ae0:	1f 91       	pop	r17
     ae2:	0f 91       	pop	r16
     ae4:	ff 90       	pop	r15
     ae6:	ef 90       	pop	r14
     ae8:	df 90       	pop	r13
     aea:	cf 90       	pop	r12
     aec:	bf 90       	pop	r11
     aee:	af 90       	pop	r10
     af0:	9f 90       	pop	r9
     af2:	8f 90       	pop	r8
     af4:	7f 90       	pop	r7
     af6:	6f 90       	pop	r6
     af8:	08 95       	ret
	ow_reset(); //**
	ow_command(DS18X20_READ, id);
	for ( i=0 ; i< DS18X20_SP_SIZE; i++ ) sp[i]=ow_byte_rd();
	if ( crc8( &sp[0], DS18X20_SP_SIZE ) )
		return DS18X20_ERROR_CRC;
	DS18X20_meas_to_cel(id[0], sp, subzero, cel, cel_frac_bits);
     afa:	93 01       	movw	r18, r6
     afc:	a4 01       	movw	r20, r8
     afe:	be 01       	movw	r22, r28
     b00:	6f 5f       	subi	r22, 0xFF	; 255
     b02:	7f 4f       	sbci	r23, 0xFF	; 255
     b04:	f5 01       	movw	r30, r10
     b06:	80 81       	ld	r24, Z
     b08:	32 df       	rcall	.-412    	; 0x96e <DS18X20_meas_to_cel>
	return DS18X20_OK;
     b0a:	e1 cf       	rjmp	.-62     	; 0xace <DS18X20_read_meas+0x6c>

00000b0c <ow_input_pin_state>:
}

void ow_parasite_disable(void)
{
    OW_OUT_LOW();
	OW_DIR_IN();
     b0c:	e0 91 06 09 	lds	r30, 0x0906	; 0x800906 <OW_IN>
     b10:	f0 91 07 09 	lds	r31, 0x0907	; 0x800907 <OW_IN+0x1>
     b14:	90 81       	ld	r25, Z
     b16:	80 91 05 09 	lds	r24, 0x0905	; 0x800905 <OW_PIN_MASK>
     b1a:	89 23       	and	r24, r25
     b1c:	08 95       	ret

00000b1e <ow_parasite_enable>:
     b1e:	e0 91 03 09 	lds	r30, 0x0903	; 0x800903 <OW_OUT>
     b22:	f0 91 04 09 	lds	r31, 0x0904	; 0x800904 <OW_OUT+0x1>
     b26:	90 81       	ld	r25, Z
     b28:	80 91 05 09 	lds	r24, 0x0905	; 0x800905 <OW_PIN_MASK>
     b2c:	89 2b       	or	r24, r25
     b2e:	80 83       	st	Z, r24
     b30:	e0 91 08 09 	lds	r30, 0x0908	; 0x800908 <OW_DDR>
     b34:	f0 91 09 09 	lds	r31, 0x0909	; 0x800909 <OW_DDR+0x1>
     b38:	90 81       	ld	r25, Z
     b3a:	80 91 05 09 	lds	r24, 0x0905	; 0x800905 <OW_PIN_MASK>
     b3e:	89 2b       	or	r24, r25
     b40:	80 83       	st	Z, r24
     b42:	08 95       	ret

00000b44 <ow_reset>:
uint8_t ow_reset(void)
{
	uint8_t err;
	uint8_t sreg;
	
	OW_OUT_LOW(); // disable internal pull-up (maybe on from parasite)
     b44:	e0 91 03 09 	lds	r30, 0x0903	; 0x800903 <OW_OUT>
     b48:	f0 91 04 09 	lds	r31, 0x0904	; 0x800904 <OW_OUT+0x1>
     b4c:	90 81       	ld	r25, Z
     b4e:	80 91 05 09 	lds	r24, 0x0905	; 0x800905 <OW_PIN_MASK>
     b52:	80 95       	com	r24
     b54:	89 23       	and	r24, r25
     b56:	80 83       	st	Z, r24
	OW_DIR_OUT(); // pull OW-Pin low for 480us
     b58:	e0 91 08 09 	lds	r30, 0x0908	; 0x800908 <OW_DDR>
     b5c:	f0 91 09 09 	lds	r31, 0x0909	; 0x800909 <OW_DDR+0x1>
     b60:	90 81       	ld	r25, Z
     b62:	80 91 05 09 	lds	r24, 0x0905	; 0x800905 <OW_PIN_MASK>
     b66:	89 2b       	or	r24, r25
     b68:	80 83       	st	Z, r24
/* delay function for microsec
   4 cpu cycles per loop + 1 cycles(?) overhead 
   when a constant is passed. */
static inline void delayloop16(uint16_t count)
{
	asm volatile (  "cp  %A0,__zero_reg__ \n\t"  \
     b6a:	8f e8       	ldi	r24, 0x8F	; 143
     b6c:	97 e0       	ldi	r25, 0x07	; 7
     b6e:	81 15       	cp	r24, r1
     b70:	91 05       	cpc	r25, r1
     b72:	11 f0       	breq	.+4      	; 0xb78 <L_Exit_69>

00000b74 <L_LOOP_69>:
     b74:	01 97       	sbiw	r24, 0x01	; 1
     b76:	f1 f7       	brne	.-4      	; 0xb74 <L_LOOP_69>

00000b78 <L_Exit_69>:
	
	delay_us(480);
		
	sreg=SREG;
     b78:	2f b7       	in	r18, 0x3f	; 63
	cli();
     b7a:	f8 94       	cli
	
	// set Pin as input - wait for clients to pull low
	OW_DIR_IN(); // input
     b7c:	e0 91 08 09 	lds	r30, 0x0908	; 0x800908 <OW_DDR>
     b80:	f0 91 09 09 	lds	r31, 0x0909	; 0x800909 <OW_DDR+0x1>
     b84:	90 81       	ld	r25, Z
     b86:	80 91 05 09 	lds	r24, 0x0905	; 0x800905 <OW_PIN_MASK>
     b8a:	80 95       	com	r24
     b8c:	89 23       	and	r24, r25
     b8e:	80 83       	st	Z, r24
     b90:	89 e0       	ldi	r24, 0x09	; 9
     b92:	91 e0       	ldi	r25, 0x01	; 1
     b94:	81 15       	cp	r24, r1
     b96:	91 05       	cpc	r25, r1
     b98:	11 f0       	breq	.+4      	; 0xb9e <L_Exit_86>

00000b9a <L_LOOP_86>:
     b9a:	01 97       	sbiw	r24, 0x01	; 1
     b9c:	f1 f7       	brne	.-4      	; 0xb9a <L_LOOP_86>

00000b9e <L_Exit_86>:
	
	delay_us(66);
	err = OW_GET_IN();		// no presence detect
     b9e:	e0 91 06 09 	lds	r30, 0x0906	; 0x800906 <OW_IN>
     ba2:	f0 91 07 09 	lds	r31, 0x0907	; 0x800907 <OW_IN+0x1>
     ba6:	30 81       	ld	r19, Z
     ba8:	80 91 05 09 	lds	r24, 0x0905	; 0x800905 <OW_PIN_MASK>
	// nobody pulled to low, still high
	
	SREG=sreg; // sei()
     bac:	2f bf       	out	0x3f, r18	; 63
     bae:	e5 e8       	ldi	r30, 0x85	; 133
     bb0:	f6 e0       	ldi	r31, 0x06	; 6
     bb2:	e1 15       	cp	r30, r1
     bb4:	f1 05       	cpc	r31, r1
     bb6:	11 f0       	breq	.+4      	; 0xbbc <L_Exit_99>

00000bb8 <L_LOOP_99>:
     bb8:	31 97       	sbiw	r30, 0x01	; 1
     bba:	f1 f7       	brne	.-4      	; 0xbb8 <L_LOOP_99>

00000bbc <L_Exit_99>:
	
	// after a delay the clients should release the line
	// and input-pin gets back to high due to pull-up-resistor
	delay_us(480-66);
	if( OW_GET_IN() == 0 )		// short circuit
     bbc:	e0 91 06 09 	lds	r30, 0x0906	; 0x800906 <OW_IN>
     bc0:	f0 91 07 09 	lds	r31, 0x0907	; 0x800907 <OW_IN+0x1>
     bc4:	20 81       	ld	r18, Z
     bc6:	90 91 05 09 	lds	r25, 0x0905	; 0x800905 <OW_PIN_MASK>
     bca:	92 23       	and	r25, r18
     bcc:	11 f4       	brne	.+4      	; 0xbd2 <L_Exit_99+0x16>
		err = 1;
     bce:	81 e0       	ldi	r24, 0x01	; 1
	
	return err;
}
     bd0:	08 95       	ret
	
	// set Pin as input - wait for clients to pull low
	OW_DIR_IN(); // input
	
	delay_us(66);
	err = OW_GET_IN();		// no presence detect
     bd2:	83 23       	and	r24, r19
     bd4:	08 95       	ret

00000bd6 <ow_set_bus>:
void ow_set_bus(volatile uint8_t* in,
	volatile uint8_t* out,
	volatile uint8_t* ddr,
	uint8_t pin)
{
	OW_DDR=ddr;
     bd6:	50 93 09 09 	sts	0x0909, r21	; 0x800909 <OW_DDR+0x1>
     bda:	40 93 08 09 	sts	0x0908, r20	; 0x800908 <OW_DDR>
	OW_OUT=out;
     bde:	70 93 04 09 	sts	0x0904, r23	; 0x800904 <OW_OUT+0x1>
     be2:	60 93 03 09 	sts	0x0903, r22	; 0x800903 <OW_OUT>
	OW_IN=in;
     be6:	90 93 07 09 	sts	0x0907, r25	; 0x800907 <OW_IN+0x1>
     bea:	80 93 06 09 	sts	0x0906, r24	; 0x800906 <OW_IN>
	OW_PIN_MASK=(1<<pin);
     bee:	81 e0       	ldi	r24, 0x01	; 1
     bf0:	01 c0       	rjmp	.+2      	; 0xbf4 <ow_set_bus+0x1e>
     bf2:	88 0f       	add	r24, r24
     bf4:	2a 95       	dec	r18
     bf6:	ea f7       	brpl	.-6      	; 0xbf2 <ow_set_bus+0x1c>
     bf8:	80 93 05 09 	sts	0x0905, r24	; 0x800905 <OW_PIN_MASK>
	ow_reset();
     bfc:	a3 cf       	rjmp	.-186    	; 0xb44 <ow_reset>

00000bfe <ow_bit_io>:
   but around 14 cyles in configureable bus (us-Delay is 4 cyles per uS) */
uint8_t ow_bit_io( uint8_t b )
{
	uint8_t sreg;
	
	sreg=SREG;
     bfe:	3f b7       	in	r19, 0x3f	; 63
	cli();
     c00:	f8 94       	cli
	
	OW_DIR_OUT(); // drive bus low
     c02:	e0 91 08 09 	lds	r30, 0x0908	; 0x800908 <OW_DDR>
     c06:	f0 91 09 09 	lds	r31, 0x0909	; 0x800909 <OW_DDR+0x1>
     c0a:	20 81       	ld	r18, Z
     c0c:	90 91 05 09 	lds	r25, 0x0905	; 0x800905 <OW_PIN_MASK>
     c10:	92 2b       	or	r25, r18
     c12:	90 83       	st	Z, r25
     c14:	e3 e0       	ldi	r30, 0x03	; 3
     c16:	f0 e0       	ldi	r31, 0x00	; 0
     c18:	e1 15       	cp	r30, r1
     c1a:	f1 05       	cpc	r31, r1
     c1c:	11 f0       	breq	.+4      	; 0xc22 <L_Exit_168>

00000c1e <L_LOOP_168>:
     c1e:	31 97       	sbiw	r30, 0x01	; 1
     c20:	f1 f7       	brne	.-4      	; 0xc1e <L_LOOP_168>

00000c22 <L_Exit_168>:
	
	delay_us(1); // Recovery-Time wuffwuff was 1
	if ( b ) OW_DIR_IN(); // if bit is 1 set bus high (by ext. pull-up)
     c22:	88 23       	and	r24, r24
     c24:	51 f0       	breq	.+20     	; 0xc3a <L_Exit_168+0x18>
     c26:	e0 91 08 09 	lds	r30, 0x0908	; 0x800908 <OW_DDR>
     c2a:	f0 91 09 09 	lds	r31, 0x0909	; 0x800909 <OW_DDR+0x1>
     c2e:	20 81       	ld	r18, Z
     c30:	90 91 05 09 	lds	r25, 0x0905	; 0x800905 <OW_PIN_MASK>
     c34:	90 95       	com	r25
     c36:	92 23       	and	r25, r18
     c38:	90 83       	st	Z, r25
     c3a:	e8 e3       	ldi	r30, 0x38	; 56
     c3c:	f0 e0       	ldi	r31, 0x00	; 0
     c3e:	e1 15       	cp	r30, r1
     c40:	f1 05       	cpc	r31, r1
     c42:	11 f0       	breq	.+4      	; 0xc48 <L_Exit_187>

00000c44 <L_LOOP_187>:
     c44:	31 97       	sbiw	r30, 0x01	; 1
     c46:	f1 f7       	brne	.-4      	; 0xc44 <L_LOOP_187>

00000c48 <L_Exit_187>:
		
	// wuffwuff delay was 15uS-1 see comment above
	delay_us(15-1-OW_CONF_DELAYOFFSET);
		
	if( OW_GET_IN() == 0 ) b = 0;  // sample at end of read-timeslot
     c48:	e0 91 06 09 	lds	r30, 0x0906	; 0x800906 <OW_IN>
     c4c:	f0 91 07 09 	lds	r31, 0x0907	; 0x800907 <OW_IN+0x1>
     c50:	20 81       	ld	r18, Z
     c52:	90 91 05 09 	lds	r25, 0x0905	; 0x800905 <OW_PIN_MASK>
     c56:	29 23       	and	r18, r25
     c58:	09 f4       	brne	.+2      	; 0xc5c <L_Exit_187+0x14>
     c5a:	80 e0       	ldi	r24, 0x00	; 0
     c5c:	e5 eb       	ldi	r30, 0xB5	; 181
     c5e:	f0 e0       	ldi	r31, 0x00	; 0
     c60:	e1 15       	cp	r30, r1
     c62:	f1 05       	cpc	r31, r1
     c64:	11 f0       	breq	.+4      	; 0xc6a <L_Exit_207>

00000c66 <L_LOOP_207>:
     c66:	31 97       	sbiw	r30, 0x01	; 1
     c68:	f1 f7       	brne	.-4      	; 0xc66 <L_LOOP_207>

00000c6a <L_Exit_207>:
	
	delay_us(60-15);
	OW_DIR_IN();
     c6a:	e0 91 08 09 	lds	r30, 0x0908	; 0x800908 <OW_DDR>
     c6e:	f0 91 09 09 	lds	r31, 0x0909	; 0x800909 <OW_DDR+0x1>
     c72:	20 81       	ld	r18, Z
     c74:	90 95       	com	r25
     c76:	92 23       	and	r25, r18
     c78:	90 83       	st	Z, r25
	
	SREG=sreg; // sei();
     c7a:	3f bf       	out	0x3f, r19	; 63
	
	return b;
}
     c7c:	08 95       	ret

00000c7e <ow_byte_wr>:


uint8_t ow_byte_wr( uint8_t b )
{
     c7e:	cf 93       	push	r28
     c80:	df 93       	push	r29
     c82:	c8 2f       	mov	r28, r24
     c84:	d8 e0       	ldi	r29, 0x08	; 8
	uint8_t i = 8, j;
	
	do {
		j = ow_bit_io( b & 1 );
     c86:	8c 2f       	mov	r24, r28
     c88:	81 70       	andi	r24, 0x01	; 1
     c8a:	b9 df       	rcall	.-142    	; 0xbfe <ow_bit_io>
		b >>= 1;
     c8c:	c6 95       	lsr	r28
		if( j ) b |= 0x80;
     c8e:	81 11       	cpse	r24, r1
     c90:	c0 68       	ori	r28, 0x80	; 128
     c92:	d1 50       	subi	r29, 0x01	; 1
	} while( --i );
     c94:	c1 f7       	brne	.-16     	; 0xc86 <ow_byte_wr+0x8>
	
	return b;
}
     c96:	8c 2f       	mov	r24, r28
     c98:	df 91       	pop	r29
     c9a:	cf 91       	pop	r28
     c9c:	08 95       	ret

00000c9e <ow_byte_rd>:


uint8_t ow_byte_rd( void )
{
  // read by sending 0xff (a dontcare?)
  return ow_byte_wr( 0xFF ); 
     c9e:	8f ef       	ldi	r24, 0xFF	; 255
     ca0:	ee cf       	rjmp	.-36     	; 0xc7e <ow_byte_wr>

00000ca2 <ow_rom_search>:
}


uint8_t ow_rom_search( uint8_t diff, uint8_t *id )
{
     ca2:	df 92       	push	r13
     ca4:	ef 92       	push	r14
     ca6:	ff 92       	push	r15
     ca8:	0f 93       	push	r16
     caa:	1f 93       	push	r17
     cac:	cf 93       	push	r28
     cae:	df 93       	push	r29
     cb0:	d8 2e       	mov	r13, r24
     cb2:	8b 01       	movw	r16, r22
	uint8_t i, j, next_diff;
	uint8_t b;
	
	if( ow_reset() ) return OW_PRESENCE_ERR;	// error, no device found
     cb4:	47 df       	rcall	.-370    	; 0xb44 <ow_reset>
     cb6:	88 23       	and	r24, r24
     cb8:	49 f0       	breq	.+18     	; 0xccc <ow_rom_search+0x2a>
     cba:	8f ef       	ldi	r24, 0xFF	; 255
		id++;					// next byte
	
	} while( i );
	
	return next_diff;				// to continue search
}
     cbc:	df 91       	pop	r29
     cbe:	cf 91       	pop	r28
     cc0:	1f 91       	pop	r17
     cc2:	0f 91       	pop	r16
     cc4:	ff 90       	pop	r15
     cc6:	ef 90       	pop	r14
     cc8:	df 90       	pop	r13
     cca:	08 95       	ret
	uint8_t i, j, next_diff;
	uint8_t b;
	
	if( ow_reset() ) return OW_PRESENCE_ERR;	// error, no device found
	
	ow_byte_wr( OW_SEARCH_ROM );			// ROM search command
     ccc:	80 ef       	ldi	r24, 0xF0	; 240
     cce:	d7 df       	rcall	.-82     	; 0xc7e <ow_byte_wr>
	next_diff = OW_LAST_DEVICE;			// unchanged on last device
     cd0:	e1 2c       	mov	r14, r1
	
	i = OW_ROMCODE_SIZE * 8;					// 8 bytes
     cd2:	c0 e4       	ldi	r28, 0x40	; 64
     cd4:	88 ef       	ldi	r24, 0xF8	; 248
     cd6:	f8 2e       	mov	r15, r24
     cd8:	fc 0e       	add	r15, r28
     cda:	0b c0       	rjmp	.+22     	; 0xcf2 <ow_rom_search+0x50>
	do {
		j = 8;					// 8 bits
		do {
			b = ow_bit_io( 1 );			// read bit
			if( ow_bit_io( 1 ) ) {			// read complement bit
				if( b )					// 11
     cdc:	d1 11       	cpse	r29, r1
					b = 1;				// now 1
					next_diff = i;			// next pass 0
					}
				}
			}
			ow_bit_io( b );     			// write bit
     cde:	2d c0       	rjmp	.+90     	; 0xd3a <ow_rom_search+0x98>
     ce0:	80 e0       	ldi	r24, 0x00	; 0
     ce2:	8d df       	rcall	.-230    	; 0xbfe <ow_bit_io>
			*id >>= 1;
     ce4:	f8 01       	movw	r30, r16
     ce6:	90 81       	ld	r25, Z
     ce8:	96 95       	lsr	r25
     cea:	90 83       	st	Z, r25
			if( b ) *id |= 0x80;			// store bit
			
			i--;
     cec:	c1 50       	subi	r28, 0x01	; 1
			
		} while( --j );
     cee:	fc 16       	cp	r15, r28
	i = OW_ROMCODE_SIZE * 8;					// 8 bytes
	
	do {
		j = 8;					// 8 bits
		do {
			b = ow_bit_io( 1 );			// read bit
     cf0:	e9 f0       	breq	.+58     	; 0xd2c <ow_rom_search+0x8a>
     cf2:	81 e0       	ldi	r24, 0x01	; 1
     cf4:	84 df       	rcall	.-248    	; 0xbfe <ow_bit_io>
			if( ow_bit_io( 1 ) ) {			// read complement bit
     cf6:	d8 2f       	mov	r29, r24
     cf8:	81 e0       	ldi	r24, 0x01	; 1
     cfa:	81 df       	rcall	.-254    	; 0xbfe <ow_bit_io>
     cfc:	81 11       	cpse	r24, r1
     cfe:	ee cf       	rjmp	.-36     	; 0xcdc <ow_rom_search+0x3a>
				if( b )					// 11
				return OW_DATA_ERR;			// data error
			}
			else {
				if( !b ) {				// 00 = 2 devices
     d00:	d1 11       	cpse	r29, r1
     d02:	0a c0       	rjmp	.+20     	; 0xd18 <ow_rom_search+0x76>
					if( diff > i || ((*id & 1) && diff != i) ) {
     d04:	cd 15       	cp	r28, r13
     d06:	30 f0       	brcs	.+12     	; 0xd14 <ow_rom_search+0x72>
     d08:	f8 01       	movw	r30, r16
     d0a:	80 81       	ld	r24, Z
     d0c:	80 ff       	sbrs	r24, 0
     d0e:	e8 cf       	rjmp	.-48     	; 0xce0 <ow_rom_search+0x3e>
     d10:	cd 15       	cp	r28, r13
     d12:	31 f3       	breq	.-52     	; 0xce0 <ow_rom_search+0x3e>
					b = 1;				// now 1
     d14:	ec 2e       	mov	r14, r28
					next_diff = i;			// next pass 0
					}
				}
			}
			ow_bit_io( b );     			// write bit
     d16:	d1 e0       	ldi	r29, 0x01	; 1
     d18:	8d 2f       	mov	r24, r29
     d1a:	71 df       	rcall	.-286    	; 0xbfe <ow_bit_io>
			*id >>= 1;
			if( b ) *id |= 0x80;			// store bit
     d1c:	f8 01       	movw	r30, r16
     d1e:	90 81       	ld	r25, Z
     d20:	96 95       	lsr	r25
     d22:	90 68       	ori	r25, 0x80	; 128
     d24:	90 83       	st	Z, r25
			
			i--;
     d26:	c1 50       	subi	r28, 0x01	; 1
			
		} while( --j );
     d28:	fc 12       	cpse	r15, r28
     d2a:	e3 cf       	rjmp	.-58     	; 0xcf2 <ow_rom_search+0x50>
		
		id++;					// next byte
     d2c:	0f 5f       	subi	r16, 0xFF	; 255
     d2e:	1f 4f       	sbci	r17, 0xFF	; 255
     d30:	cf 2d       	mov	r28, r15
	
	} while( i );
     d32:	f1 10       	cpse	r15, r1
     d34:	cf cf       	rjmp	.-98     	; 0xcd4 <ow_rom_search+0x32>
     d36:	8e 2d       	mov	r24, r14
     d38:	c1 cf       	rjmp	.-126    	; 0xcbc <ow_rom_search+0x1a>
		j = 8;					// 8 bits
		do {
			b = ow_bit_io( 1 );			// read bit
			if( ow_bit_io( 1 ) ) {			// read complement bit
				if( b )					// 11
				return OW_DATA_ERR;			// data error
     d3a:	8e ef       	ldi	r24, 0xFE	; 254
		id++;					// next byte
	
	} while( i );
	
	return next_diff;				// to continue search
}
     d3c:	df 91       	pop	r29
     d3e:	cf 91       	pop	r28
     d40:	1f 91       	pop	r17
     d42:	0f 91       	pop	r16
     d44:	ff 90       	pop	r15
     d46:	ef 90       	pop	r14
     d48:	df 90       	pop	r13
     d4a:	08 95       	ret

00000d4c <ow_command>:


void ow_command( uint8_t command, uint8_t *id )
{
     d4c:	ff 92       	push	r15
     d4e:	0f 93       	push	r16
     d50:	1f 93       	push	r17
     d52:	cf 93       	push	r28
     d54:	df 93       	push	r29
     d56:	f8 2e       	mov	r15, r24
     d58:	eb 01       	movw	r28, r22
	uint8_t i;

	ow_reset();
     d5a:	f4 de       	rcall	.-536    	; 0xb44 <ow_reset>

	if( id ) {
     d5c:	20 97       	sbiw	r28, 0x00	; 0
     d5e:	89 f0       	breq	.+34     	; 0xd82 <ow_command+0x36>
		ow_byte_wr( OW_MATCH_ROM );			// to a single device
     d60:	85 e5       	ldi	r24, 0x55	; 85
     d62:	8d df       	rcall	.-230    	; 0xc7e <ow_byte_wr>
     d64:	8e 01       	movw	r16, r28
     d66:	08 5f       	subi	r16, 0xF8	; 248
     d68:	1f 4f       	sbci	r17, 0xFF	; 255
		i = OW_ROMCODE_SIZE;
		do {
			ow_byte_wr( *id );
     d6a:	89 91       	ld	r24, Y+
     d6c:	88 df       	rcall	.-240    	; 0xc7e <ow_byte_wr>
     d6e:	c0 17       	cp	r28, r16
			id++;
		} while( --i );
     d70:	d1 07       	cpc	r29, r17
     d72:	d9 f7       	brne	.-10     	; 0xd6a <ow_command+0x1e>
     d74:	8f 2d       	mov	r24, r15
	} 
	else {
		ow_byte_wr( OW_SKIP_ROM );			// to all devices
	}
	
	ow_byte_wr( command );
     d76:	df 91       	pop	r29
}
     d78:	cf 91       	pop	r28
     d7a:	1f 91       	pop	r17
     d7c:	0f 91       	pop	r16
     d7e:	ff 90       	pop	r15
	} 
	else {
		ow_byte_wr( OW_SKIP_ROM );			// to all devices
	}
	
	ow_byte_wr( command );
     d80:	7e cf       	rjmp	.-260    	; 0xc7e <ow_byte_wr>
     d82:	8c ec       	ldi	r24, 0xCC	; 204
			ow_byte_wr( *id );
			id++;
		} while( --i );
	} 
	else {
		ow_byte_wr( OW_SKIP_ROM );			// to all devices
     d84:	7c df       	rcall	.-264    	; 0xc7e <ow_byte_wr>
     d86:	8f 2d       	mov	r24, r15
     d88:	df 91       	pop	r29
	}
	
	ow_byte_wr( command );
     d8a:	cf 91       	pop	r28
}
     d8c:	1f 91       	pop	r17
     d8e:	0f 91       	pop	r16
     d90:	ff 90       	pop	r15
     d92:	75 cf       	rjmp	.-278    	; 0xc7e <ow_byte_wr>

00000d94 <StartHIHxxxxMeasurement>:

#include "HIHxxxx.h"


uint8_t StartHIHxxxxMeasurement()
{
     d94:	cf 93       	push	r28
	uint8_t state;
	state = i2c_start(HIHxxxx_address | I2C_WRITE);
     d96:	8e e4       	ldi	r24, 0x4E	; 78
     d98:	83 d0       	rcall	.+262    	; 0xea0 <i2c_start>
     d9a:	c8 2f       	mov	r28, r24
	i2c_stop();
     d9c:	f6 d0       	rcall	.+492    	; 0xf8a <i2c_stop>
     d9e:	8c 2f       	mov	r24, r28
	return state;
}
     da0:	cf 91       	pop	r28
     da2:	08 95       	ret

00000da4 <ReadHIHxxxxMeasurement>:
     da4:	cf 92       	push	r12

uint8_t ReadHIHxxxxMeasurement()
{
     da6:	df 92       	push	r13
     da8:	ef 92       	push	r14
     daa:	ff 92       	push	r15
     dac:	cf 93       	push	r28
	uint8_t state;
	state = i2c_receive(HIHxxxx_address, HIHxxxxData, 4);
     dae:	44 e0       	ldi	r20, 0x04	; 4
     db0:	50 e0       	ldi	r21, 0x00	; 0
     db2:	62 e1       	ldi	r22, 0x12	; 18
     db4:	79 e0       	ldi	r23, 0x09	; 9
     db6:	8e e4       	ldi	r24, 0x4E	; 78
     db8:	b1 d0       	rcall	.+354    	; 0xf1c <i2c_receive>
     dba:	c8 2f       	mov	r28, r24
	
	if (state == 0)
     dbc:	81 11       	cpse	r24, r1
     dbe:	65 c0       	rjmp	.+202    	; 0xe8a <ReadHIHxxxxMeasurement+0xe6>
	{
		HIHxxxxHumidity = (HIHxxxxData[0] << 8);
		HIHxxxxHumidity += HIHxxxxData[1];
		
		HIHxxxxHumidity = (HIHxxxxHumidity / (0x4000 - 2)) * 100;
     dc0:	60 91 12 09 	lds	r22, 0x0912	; 0x800912 <HIHxxxxData>
     dc4:	70 e0       	ldi	r23, 0x00	; 0
     dc6:	76 2f       	mov	r23, r22
     dc8:	66 27       	eor	r22, r22
     dca:	07 2e       	mov	r0, r23
     dcc:	00 0c       	add	r0, r0
     dce:	88 0b       	sbc	r24, r24
     dd0:	99 0b       	sbc	r25, r25
     dd2:	0e 94 90 2f 	call	0x5f20	; 0x5f20 <__floatsisf>
     dd6:	6b 01       	movw	r12, r22
     dd8:	7c 01       	movw	r14, r24
     dda:	60 91 13 09 	lds	r22, 0x0913	; 0x800913 <HIHxxxxData+0x1>
     dde:	70 e0       	ldi	r23, 0x00	; 0
     de0:	80 e0       	ldi	r24, 0x00	; 0
     de2:	90 e0       	ldi	r25, 0x00	; 0
     de4:	0e 94 90 2f 	call	0x5f20	; 0x5f20 <__floatsisf>
     de8:	9b 01       	movw	r18, r22
     dea:	ac 01       	movw	r20, r24
     dec:	c7 01       	movw	r24, r14
     dee:	b6 01       	movw	r22, r12
     df0:	0e 94 8d 2e 	call	0x5d1a	; 0x5d1a <__addsf3>
     df4:	20 e0       	ldi	r18, 0x00	; 0
     df6:	38 ef       	ldi	r19, 0xF8	; 248
     df8:	4f e7       	ldi	r20, 0x7F	; 127
     dfa:	56 e4       	ldi	r21, 0x46	; 70
     dfc:	0e 94 f5 2e 	call	0x5dea	; 0x5dea <__divsf3>
     e00:	20 e0       	ldi	r18, 0x00	; 0
     e02:	30 e0       	ldi	r19, 0x00	; 0
     e04:	48 ec       	ldi	r20, 0xC8	; 200
     e06:	52 e4       	ldi	r21, 0x42	; 66
     e08:	0e 94 44 30 	call	0x6088	; 0x6088 <__mulsf3>
     e0c:	60 93 0e 09 	sts	0x090E, r22	; 0x80090e <HIHxxxxHumidity>
     e10:	70 93 0f 09 	sts	0x090F, r23	; 0x80090f <HIHxxxxHumidity+0x1>
     e14:	80 93 10 09 	sts	0x0910, r24	; 0x800910 <HIHxxxxHumidity+0x2>
     e18:	90 93 11 09 	sts	0x0911, r25	; 0x800911 <HIHxxxxHumidity+0x3>
		
		HIHxxxxTemperature = HIHxxxxData[2] << 6;
		HIHxxxxTemperature += HIHxxxxData[3] >> 2;
		HIHxxxxTemperature = (HIHxxxxTemperature / (0x4000 - 2)) * 165 - 40;
     e1c:	60 91 14 09 	lds	r22, 0x0914	; 0x800914 <HIHxxxxData+0x2>
     e20:	80 e4       	ldi	r24, 0x40	; 64
     e22:	68 9f       	mul	r22, r24
     e24:	b0 01       	movw	r22, r0
     e26:	11 24       	eor	r1, r1
     e28:	07 2e       	mov	r0, r23
     e2a:	00 0c       	add	r0, r0
     e2c:	88 0b       	sbc	r24, r24
     e2e:	99 0b       	sbc	r25, r25
     e30:	0e 94 90 2f 	call	0x5f20	; 0x5f20 <__floatsisf>
     e34:	6b 01       	movw	r12, r22
     e36:	7c 01       	movw	r14, r24
     e38:	60 91 15 09 	lds	r22, 0x0915	; 0x800915 <HIHxxxxData+0x3>
     e3c:	66 95       	lsr	r22
     e3e:	66 95       	lsr	r22
     e40:	70 e0       	ldi	r23, 0x00	; 0
     e42:	80 e0       	ldi	r24, 0x00	; 0
     e44:	90 e0       	ldi	r25, 0x00	; 0
     e46:	0e 94 90 2f 	call	0x5f20	; 0x5f20 <__floatsisf>
     e4a:	9b 01       	movw	r18, r22
     e4c:	ac 01       	movw	r20, r24
     e4e:	c7 01       	movw	r24, r14
     e50:	b6 01       	movw	r22, r12
     e52:	0e 94 8d 2e 	call	0x5d1a	; 0x5d1a <__addsf3>
     e56:	20 e0       	ldi	r18, 0x00	; 0
     e58:	38 ef       	ldi	r19, 0xF8	; 248
     e5a:	4f e7       	ldi	r20, 0x7F	; 127
     e5c:	56 e4       	ldi	r21, 0x46	; 70
     e5e:	0e 94 f5 2e 	call	0x5dea	; 0x5dea <__divsf3>
     e62:	20 e0       	ldi	r18, 0x00	; 0
     e64:	30 e0       	ldi	r19, 0x00	; 0
     e66:	45 e2       	ldi	r20, 0x25	; 37
     e68:	53 e4       	ldi	r21, 0x43	; 67
     e6a:	0e 94 44 30 	call	0x6088	; 0x6088 <__mulsf3>
     e6e:	20 e0       	ldi	r18, 0x00	; 0
     e70:	30 e0       	ldi	r19, 0x00	; 0
     e72:	40 e2       	ldi	r20, 0x20	; 32
     e74:	52 e4       	ldi	r21, 0x42	; 66
     e76:	0e 94 8c 2e 	call	0x5d18	; 0x5d18 <__subsf3>
     e7a:	60 93 0a 09 	sts	0x090A, r22	; 0x80090a <HIHxxxxTemperature>
     e7e:	70 93 0b 09 	sts	0x090B, r23	; 0x80090b <HIHxxxxTemperature+0x1>
     e82:	80 93 0c 09 	sts	0x090C, r24	; 0x80090c <HIHxxxxTemperature+0x2>
     e86:	90 93 0d 09 	sts	0x090D, r25	; 0x80090d <HIHxxxxTemperature+0x3>
	}
	return state;
}
     e8a:	8c 2f       	mov	r24, r28
     e8c:	cf 91       	pop	r28
     e8e:	ff 90       	pop	r15
     e90:	ef 90       	pop	r14
     e92:	df 90       	pop	r13
     e94:	cf 90       	pop	r12
     e96:	08 95       	ret

00000e98 <i2c_init>:
	data[(length-1)] = i2c_read_nack();

	i2c_stop();

	return 0;
}
     e98:	8e e2       	ldi	r24, 0x2E	; 46
     e9a:	80 93 70 00 	sts	0x0070, r24	; 0x800070 <__TEXT_REGION_LENGTH__+0x7f0070>
     e9e:	08 95       	ret

00000ea0 <i2c_start>:
     ea0:	10 92 74 00 	sts	0x0074, r1	; 0x800074 <__TEXT_REGION_LENGTH__+0x7f0074>
     ea4:	94 ea       	ldi	r25, 0xA4	; 164
     ea6:	90 93 74 00 	sts	0x0074, r25	; 0x800074 <__TEXT_REGION_LENGTH__+0x7f0074>
     eaa:	90 91 74 00 	lds	r25, 0x0074	; 0x800074 <__TEXT_REGION_LENGTH__+0x7f0074>
     eae:	97 ff       	sbrs	r25, 7
     eb0:	fc cf       	rjmp	.-8      	; 0xeaa <i2c_start+0xa>
     eb2:	90 91 71 00 	lds	r25, 0x0071	; 0x800071 <__TEXT_REGION_LENGTH__+0x7f0071>
     eb6:	98 7f       	andi	r25, 0xF8	; 248
     eb8:	98 30       	cpi	r25, 0x08	; 8
     eba:	11 f0       	breq	.+4      	; 0xec0 <i2c_start+0x20>
     ebc:	81 e0       	ldi	r24, 0x01	; 1
     ebe:	08 95       	ret
     ec0:	80 93 73 00 	sts	0x0073, r24	; 0x800073 <__TEXT_REGION_LENGTH__+0x7f0073>
     ec4:	84 e8       	ldi	r24, 0x84	; 132
     ec6:	80 93 74 00 	sts	0x0074, r24	; 0x800074 <__TEXT_REGION_LENGTH__+0x7f0074>
     eca:	80 91 74 00 	lds	r24, 0x0074	; 0x800074 <__TEXT_REGION_LENGTH__+0x7f0074>
     ece:	87 ff       	sbrs	r24, 7
     ed0:	fc cf       	rjmp	.-8      	; 0xeca <i2c_start+0x2a>
     ed2:	80 91 71 00 	lds	r24, 0x0071	; 0x800071 <__TEXT_REGION_LENGTH__+0x7f0071>
     ed6:	88 7f       	andi	r24, 0xF8	; 248
     ed8:	88 31       	cpi	r24, 0x18	; 24
     eda:	11 f0       	breq	.+4      	; 0xee0 <i2c_start+0x40>
     edc:	80 34       	cpi	r24, 0x40	; 64
     ede:	71 f7       	brne	.-36     	; 0xebc <i2c_start+0x1c>
     ee0:	80 e0       	ldi	r24, 0x00	; 0
     ee2:	08 95       	ret

00000ee4 <i2c_write>:
     ee4:	80 93 73 00 	sts	0x0073, r24	; 0x800073 <__TEXT_REGION_LENGTH__+0x7f0073>
     ee8:	84 e8       	ldi	r24, 0x84	; 132
     eea:	80 93 74 00 	sts	0x0074, r24	; 0x800074 <__TEXT_REGION_LENGTH__+0x7f0074>
     eee:	80 91 74 00 	lds	r24, 0x0074	; 0x800074 <__TEXT_REGION_LENGTH__+0x7f0074>
     ef2:	87 ff       	sbrs	r24, 7
     ef4:	fc cf       	rjmp	.-8      	; 0xeee <i2c_write+0xa>
     ef6:	90 91 71 00 	lds	r25, 0x0071	; 0x800071 <__TEXT_REGION_LENGTH__+0x7f0071>
     efa:	98 7f       	andi	r25, 0xF8	; 248
     efc:	81 e0       	ldi	r24, 0x01	; 1
     efe:	98 32       	cpi	r25, 0x28	; 40
     f00:	09 f0       	breq	.+2      	; 0xf04 <i2c_write+0x20>
     f02:	08 95       	ret
     f04:	80 e0       	ldi	r24, 0x00	; 0
     f06:	08 95       	ret

00000f08 <i2c_read_nack>:
     f08:	84 e8       	ldi	r24, 0x84	; 132
     f0a:	80 93 74 00 	sts	0x0074, r24	; 0x800074 <__TEXT_REGION_LENGTH__+0x7f0074>
     f0e:	80 91 74 00 	lds	r24, 0x0074	; 0x800074 <__TEXT_REGION_LENGTH__+0x7f0074>
     f12:	87 ff       	sbrs	r24, 7
     f14:	fc cf       	rjmp	.-8      	; 0xf0e <i2c_read_nack+0x6>
     f16:	80 91 73 00 	lds	r24, 0x0073	; 0x800073 <__TEXT_REGION_LENGTH__+0x7f0073>
     f1a:	08 95       	ret

00000f1c <i2c_receive>:
     f1c:	0f 93       	push	r16
     f1e:	1f 93       	push	r17
     f20:	cf 93       	push	r28
     f22:	df 93       	push	r29
     f24:	8b 01       	movw	r16, r22
     f26:	ea 01       	movw	r28, r20
     f28:	81 60       	ori	r24, 0x01	; 1
     f2a:	ba df       	rcall	.-140    	; 0xea0 <i2c_start>
     f2c:	81 11       	cpse	r24, r1
     f2e:	25 c0       	rjmp	.+74     	; 0xf7a <i2c_receive+0x5e>
     f30:	de 01       	movw	r26, r28
     f32:	11 97       	sbiw	r26, 0x01	; 1
     f34:	41 f1       	breq	.+80     	; 0xf86 <i2c_receive+0x6a>
     f36:	f8 01       	movw	r30, r16
     f38:	a0 0f       	add	r26, r16
     f3a:	b1 1f       	adc	r27, r17
     f3c:	24 ec       	ldi	r18, 0xC4	; 196
     f3e:	20 93 74 00 	sts	0x0074, r18	; 0x800074 <__TEXT_REGION_LENGTH__+0x7f0074>
     f42:	90 91 74 00 	lds	r25, 0x0074	; 0x800074 <__TEXT_REGION_LENGTH__+0x7f0074>
     f46:	97 ff       	sbrs	r25, 7
     f48:	fc cf       	rjmp	.-8      	; 0xf42 <i2c_receive+0x26>
     f4a:	90 91 73 00 	lds	r25, 0x0073	; 0x800073 <__TEXT_REGION_LENGTH__+0x7f0073>
     f4e:	91 93       	st	Z+, r25
     f50:	ae 17       	cp	r26, r30
     f52:	bf 07       	cpc	r27, r31
     f54:	a1 f7       	brne	.-24     	; 0xf3e <i2c_receive+0x22>
     f56:	94 e8       	ldi	r25, 0x84	; 132
     f58:	90 93 74 00 	sts	0x0074, r25	; 0x800074 <__TEXT_REGION_LENGTH__+0x7f0074>
     f5c:	90 91 74 00 	lds	r25, 0x0074	; 0x800074 <__TEXT_REGION_LENGTH__+0x7f0074>
     f60:	97 ff       	sbrs	r25, 7
     f62:	fc cf       	rjmp	.-8      	; 0xf5c <i2c_receive+0x40>
     f64:	90 91 73 00 	lds	r25, 0x0073	; 0x800073 <__TEXT_REGION_LENGTH__+0x7f0073>
     f68:	9c 93       	st	X, r25
     f6a:	94 e9       	ldi	r25, 0x94	; 148
     f6c:	90 93 74 00 	sts	0x0074, r25	; 0x800074 <__TEXT_REGION_LENGTH__+0x7f0074>
     f70:	df 91       	pop	r29
     f72:	cf 91       	pop	r28
     f74:	1f 91       	pop	r17
     f76:	0f 91       	pop	r16
     f78:	08 95       	ret
     f7a:	81 e0       	ldi	r24, 0x01	; 1
     f7c:	df 91       	pop	r29
     f7e:	cf 91       	pop	r28
     f80:	1f 91       	pop	r17
     f82:	0f 91       	pop	r16
     f84:	08 95       	ret
     f86:	d8 01       	movw	r26, r16
     f88:	e6 cf       	rjmp	.-52     	; 0xf56 <i2c_receive+0x3a>

00000f8a <i2c_stop>:

void i2c_stop(void)
{
	// transmit STOP condition
	TWCR = (1<<TWINT) | (1<<TWEN) | (1<<TWSTO);
     f8a:	84 e9       	ldi	r24, 0x94	; 148
     f8c:	80 93 74 00 	sts	0x0074, r24	; 0x800074 <__TEXT_REGION_LENGTH__+0x7f0074>
     f90:	08 95       	ret

00000f92 <lcd_write>:
void lcd_putc_hex( unsigned char c)                          // 1 hexadecimalis szamjegy kiirasa
{
	c&= 0x0F;
	if( c < 10) c+= '0';
	else        c+= 'A'- 10;
	lcd_putc( c);
     f92:	66 23       	and	r22, r22
     f94:	59 f1       	breq	.+86     	; 0xfec <lcd_write+0x5a>
     f96:	af 9a       	sbi	0x15, 7	; 21
     f98:	ae 98       	cbi	0x15, 6	; 21
     f9a:	a4 9a       	sbi	0x14, 4	; 20
     f9c:	a3 9a       	sbi	0x14, 3	; 20
     f9e:	a2 9a       	sbi	0x14, 2	; 20
     fa0:	a1 9a       	sbi	0x14, 1	; 20
     fa2:	a9 98       	cbi	0x15, 1	; 21
     fa4:	aa 98       	cbi	0x15, 2	; 21
     fa6:	ab 98       	cbi	0x15, 3	; 21
     fa8:	ac 98       	cbi	0x15, 4	; 21
     faa:	87 fd       	sbrc	r24, 7
     fac:	21 c0       	rjmp	.+66     	; 0xff0 <lcd_write+0x5e>
     fae:	86 fd       	sbrc	r24, 6
     fb0:	aa 9a       	sbi	0x15, 2	; 21
     fb2:	85 fd       	sbrc	r24, 5
     fb4:	ab 9a       	sbi	0x15, 3	; 21
     fb6:	84 fd       	sbrc	r24, 4
     fb8:	ac 9a       	sbi	0x15, 4	; 21
     fba:	ad 9a       	sbi	0x15, 5	; 21
     fbc:	00 c0       	rjmp	.+0      	; 0xfbe <lcd_write+0x2c>
     fbe:	00 c0       	rjmp	.+0      	; 0xfc0 <lcd_write+0x2e>
     fc0:	ad 98       	cbi	0x15, 5	; 21
     fc2:	a9 98       	cbi	0x15, 1	; 21
     fc4:	aa 98       	cbi	0x15, 2	; 21
     fc6:	ab 98       	cbi	0x15, 3	; 21
     fc8:	ac 98       	cbi	0x15, 4	; 21
     fca:	83 fd       	sbrc	r24, 3
     fcc:	a9 9a       	sbi	0x15, 1	; 21
     fce:	82 fd       	sbrc	r24, 2
     fd0:	aa 9a       	sbi	0x15, 2	; 21
     fd2:	81 fd       	sbrc	r24, 1
     fd4:	ab 9a       	sbi	0x15, 3	; 21
     fd6:	80 fd       	sbrc	r24, 0
     fd8:	ac 9a       	sbi	0x15, 4	; 21
     fda:	ad 9a       	sbi	0x15, 5	; 21
     fdc:	00 c0       	rjmp	.+0      	; 0xfde <lcd_write+0x4c>
     fde:	00 c0       	rjmp	.+0      	; 0xfe0 <lcd_write+0x4e>
     fe0:	ad 98       	cbi	0x15, 5	; 21
     fe2:	ac 9a       	sbi	0x15, 4	; 21
     fe4:	ab 9a       	sbi	0x15, 3	; 21
     fe6:	aa 9a       	sbi	0x15, 2	; 21
     fe8:	a9 9a       	sbi	0x15, 1	; 21
     fea:	08 95       	ret
     fec:	af 98       	cbi	0x15, 7	; 21
     fee:	d4 cf       	rjmp	.-88     	; 0xf98 <lcd_write+0x6>
     ff0:	a9 9a       	sbi	0x15, 1	; 21
     ff2:	dd cf       	rjmp	.-70     	; 0xfae <lcd_write+0x1c>

00000ff4 <lcd_read.constprop.0>:
     ff4:	af 98       	cbi	0x15, 7	; 21
     ff6:	ae 9a       	sbi	0x15, 6	; 21
     ff8:	a4 98       	cbi	0x14, 4	; 20
     ffa:	a3 98       	cbi	0x14, 3	; 20
     ffc:	a2 98       	cbi	0x14, 2	; 20
     ffe:	a1 98       	cbi	0x14, 1	; 20
    1000:	ad 9a       	sbi	0x15, 5	; 21
    1002:	00 c0       	rjmp	.+0      	; 0x1004 <__DATA_REGION_LENGTH__+0x4>
    1004:	00 c0       	rjmp	.+0      	; 0x1006 <__DATA_REGION_LENGTH__+0x6>
    1006:	9c 9b       	sbis	0x13, 4	; 19
    1008:	17 c0       	rjmp	.+46     	; 0x1038 <__DATA_REGION_LENGTH__+0x38>
    100a:	80 e1       	ldi	r24, 0x10	; 16
    100c:	9b 99       	sbic	0x13, 3	; 19
    100e:	80 62       	ori	r24, 0x20	; 32
    1010:	9a 99       	sbic	0x13, 2	; 19
    1012:	80 64       	ori	r24, 0x40	; 64
    1014:	99 99       	sbic	0x13, 1	; 19
    1016:	80 68       	ori	r24, 0x80	; 128
    1018:	ad 98       	cbi	0x15, 5	; 21
    101a:	00 c0       	rjmp	.+0      	; 0x101c <__DATA_REGION_LENGTH__+0x1c>
    101c:	00 c0       	rjmp	.+0      	; 0x101e <__DATA_REGION_LENGTH__+0x1e>
    101e:	ad 9a       	sbi	0x15, 5	; 21
    1020:	00 c0       	rjmp	.+0      	; 0x1022 <__DATA_REGION_LENGTH__+0x22>
    1022:	00 c0       	rjmp	.+0      	; 0x1024 <__DATA_REGION_LENGTH__+0x24>
    1024:	9c 99       	sbic	0x13, 4	; 19
    1026:	81 60       	ori	r24, 0x01	; 1
    1028:	9b 99       	sbic	0x13, 3	; 19
    102a:	82 60       	ori	r24, 0x02	; 2
    102c:	9a 99       	sbic	0x13, 2	; 19
    102e:	84 60       	ori	r24, 0x04	; 4
    1030:	99 99       	sbic	0x13, 1	; 19
    1032:	88 60       	ori	r24, 0x08	; 8
    1034:	ad 98       	cbi	0x15, 5	; 21
    1036:	08 95       	ret
    1038:	80 e0       	ldi	r24, 0x00	; 0
    103a:	e8 cf       	rjmp	.-48     	; 0x100c <__DATA_REGION_LENGTH__+0xc>

0000103c <lcd_waitbusy>:
    103c:	db df       	rcall	.-74     	; 0xff4 <lcd_read.constprop.0>
    103e:	87 fd       	sbrc	r24, 7
    1040:	fd cf       	rjmp	.-6      	; 0x103c <lcd_waitbusy>
    1042:	88 e0       	ldi	r24, 0x08	; 8
    1044:	90 e0       	ldi	r25, 0x00	; 0
    1046:	01 97       	sbiw	r24, 0x01	; 1
    1048:	f1 f7       	brne	.-4      	; 0x1046 <lcd_waitbusy+0xa>
    104a:	d4 cf       	rjmp	.-88     	; 0xff4 <lcd_read.constprop.0>

0000104c <lcd_gotoxy>:
    104c:	cf 93       	push	r28
    104e:	c8 2f       	mov	r28, r24
    1050:	66 23       	and	r22, r22
    1052:	51 f0       	breq	.+20     	; 0x1068 <lcd_gotoxy+0x1c>
    1054:	61 30       	cpi	r22, 0x01	; 1
    1056:	a1 f0       	breq	.+40     	; 0x1080 <lcd_gotoxy+0x34>
    1058:	62 30       	cpi	r22, 0x02	; 2
    105a:	61 f0       	breq	.+24     	; 0x1074 <lcd_gotoxy+0x28>
    105c:	ef df       	rcall	.-34     	; 0x103c <lcd_waitbusy>
    105e:	60 e0       	ldi	r22, 0x00	; 0
    1060:	84 ed       	ldi	r24, 0xD4	; 212
    1062:	8c 0f       	add	r24, r28
    1064:	cf 91       	pop	r28
    1066:	95 cf       	rjmp	.-214    	; 0xf92 <lcd_write>
    1068:	e9 df       	rcall	.-46     	; 0x103c <lcd_waitbusy>
    106a:	60 e0       	ldi	r22, 0x00	; 0
    106c:	80 e8       	ldi	r24, 0x80	; 128
    106e:	8c 0f       	add	r24, r28
    1070:	cf 91       	pop	r28
    1072:	8f cf       	rjmp	.-226    	; 0xf92 <lcd_write>
    1074:	e3 df       	rcall	.-58     	; 0x103c <lcd_waitbusy>
    1076:	60 e0       	ldi	r22, 0x00	; 0
    1078:	84 e9       	ldi	r24, 0x94	; 148
    107a:	8c 0f       	add	r24, r28
    107c:	cf 91       	pop	r28
    107e:	89 cf       	rjmp	.-238    	; 0xf92 <lcd_write>
    1080:	dd df       	rcall	.-70     	; 0x103c <lcd_waitbusy>
    1082:	60 e0       	ldi	r22, 0x00	; 0
    1084:	80 ec       	ldi	r24, 0xC0	; 192
    1086:	8c 0f       	add	r24, r28
    1088:	cf 91       	pop	r28
    108a:	83 cf       	rjmp	.-250    	; 0xf92 <lcd_write>

0000108c <lcd_clrscr>:
    108c:	d7 df       	rcall	.-82     	; 0x103c <lcd_waitbusy>
    108e:	60 e0       	ldi	r22, 0x00	; 0
    1090:	81 e0       	ldi	r24, 0x01	; 1
    1092:	7f cf       	rjmp	.-258    	; 0xf92 <lcd_write>

00001094 <lcd_putc>:
    1094:	cf 93       	push	r28
    1096:	c8 2f       	mov	r28, r24
    1098:	d1 df       	rcall	.-94     	; 0x103c <lcd_waitbusy>
    109a:	ca 30       	cpi	r28, 0x0A	; 10
    109c:	21 f0       	breq	.+8      	; 0x10a6 <lcd_putc+0x12>
    109e:	61 e0       	ldi	r22, 0x01	; 1
    10a0:	8c 2f       	mov	r24, r28
    10a2:	cf 91       	pop	r28
    10a4:	76 cf       	rjmp	.-276    	; 0xf92 <lcd_write>
    10a6:	84 31       	cpi	r24, 0x14	; 20
    10a8:	48 f0       	brcs	.+18     	; 0x10bc <lcd_putc+0x28>
    10aa:	90 ec       	ldi	r25, 0xC0	; 192
    10ac:	98 0f       	add	r25, r24
    10ae:	94 31       	cpi	r25, 0x14	; 20
    10b0:	68 f0       	brcs	.+26     	; 0x10cc <lcd_putc+0x38>
    10b2:	84 51       	subi	r24, 0x14	; 20
    10b4:	8c 32       	cpi	r24, 0x2C	; 44
    10b6:	40 f0       	brcs	.+16     	; 0x10c8 <lcd_putc+0x34>
    10b8:	c0 e8       	ldi	r28, 0x80	; 128
    10ba:	01 c0       	rjmp	.+2      	; 0x10be <lcd_putc+0x2a>
    10bc:	c0 ec       	ldi	r28, 0xC0	; 192
    10be:	be df       	rcall	.-132    	; 0x103c <lcd_waitbusy>
    10c0:	60 e0       	ldi	r22, 0x00	; 0
    10c2:	8c 2f       	mov	r24, r28
    10c4:	cf 91       	pop	r28
    10c6:	65 cf       	rjmp	.-310    	; 0xf92 <lcd_write>
    10c8:	c4 ed       	ldi	r28, 0xD4	; 212
    10ca:	f9 cf       	rjmp	.-14     	; 0x10be <lcd_putc+0x2a>
    10cc:	c4 e9       	ldi	r28, 0x94	; 148
    10ce:	f7 cf       	rjmp	.-18     	; 0x10be <lcd_putc+0x2a>

000010d0 <lcd_puts_p>:
    10d0:	cf 93       	push	r28
    10d2:	df 93       	push	r29
    10d4:	ec 01       	movw	r28, r24
    10d6:	21 96       	adiw	r28, 0x01	; 1
    10d8:	fc 01       	movw	r30, r24
    10da:	84 91       	lpm	r24, Z
    10dc:	88 23       	and	r24, r24
    10de:	31 f0       	breq	.+12     	; 0x10ec <lcd_puts_p+0x1c>
    10e0:	d9 df       	rcall	.-78     	; 0x1094 <lcd_putc>
    10e2:	fe 01       	movw	r30, r28
    10e4:	84 91       	lpm	r24, Z
    10e6:	21 96       	adiw	r28, 0x01	; 1
    10e8:	81 11       	cpse	r24, r1
    10ea:	fa cf       	rjmp	.-12     	; 0x10e0 <lcd_puts_p+0x10>
    10ec:	df 91       	pop	r29
    10ee:	cf 91       	pop	r28
    10f0:	08 95       	ret

000010f2 <lcd_init>:
    10f2:	cf 93       	push	r28
    10f4:	c8 2f       	mov	r28, r24
    10f6:	a7 9a       	sbi	0x14, 7	; 20
    10f8:	a6 9a       	sbi	0x14, 6	; 20
    10fa:	a5 9a       	sbi	0x14, 5	; 20
    10fc:	a4 9a       	sbi	0x14, 4	; 20
    10fe:	a3 9a       	sbi	0x14, 3	; 20
    1100:	a2 9a       	sbi	0x14, 2	; 20
    1102:	a1 9a       	sbi	0x14, 1	; 20
    1104:	80 e0       	ldi	r24, 0x00	; 0
    1106:	9a ef       	ldi	r25, 0xFA	; 250
    1108:	01 97       	sbiw	r24, 0x01	; 1
    110a:	f1 f7       	brne	.-4      	; 0x1108 <__stack+0x9>
    110c:	ab 9a       	sbi	0x15, 3	; 21
    110e:	ac 9a       	sbi	0x15, 4	; 21
    1110:	ad 9a       	sbi	0x15, 5	; 21
    1112:	00 c0       	rjmp	.+0      	; 0x1114 <__stack+0x15>
    1114:	00 c0       	rjmp	.+0      	; 0x1116 <__stack+0x17>
    1116:	ad 98       	cbi	0x15, 5	; 21
    1118:	80 e0       	ldi	r24, 0x00	; 0
    111a:	9e e4       	ldi	r25, 0x4E	; 78
    111c:	01 97       	sbiw	r24, 0x01	; 1
    111e:	f1 f7       	brne	.-4      	; 0x111c <__stack+0x1d>
    1120:	ad 9a       	sbi	0x15, 5	; 21
    1122:	00 c0       	rjmp	.+0      	; 0x1124 <__stack+0x25>
    1124:	00 c0       	rjmp	.+0      	; 0x1126 <__stack+0x27>
    1126:	ad 98       	cbi	0x15, 5	; 21
    1128:	80 e0       	ldi	r24, 0x00	; 0
    112a:	91 e0       	ldi	r25, 0x01	; 1
    112c:	fc 01       	movw	r30, r24
    112e:	31 97       	sbiw	r30, 0x01	; 1
    1130:	f1 f7       	brne	.-4      	; 0x112e <__stack+0x2f>
    1132:	ad 9a       	sbi	0x15, 5	; 21
    1134:	00 c0       	rjmp	.+0      	; 0x1136 <__stack+0x37>
    1136:	00 c0       	rjmp	.+0      	; 0x1138 <__stack+0x39>
    1138:	ad 98       	cbi	0x15, 5	; 21
    113a:	fc 01       	movw	r30, r24
    113c:	31 97       	sbiw	r30, 0x01	; 1
    113e:	f1 f7       	brne	.-4      	; 0x113c <__stack+0x3d>
    1140:	ac 98       	cbi	0x15, 4	; 21
    1142:	ad 9a       	sbi	0x15, 5	; 21
    1144:	00 c0       	rjmp	.+0      	; 0x1146 <__stack+0x47>
    1146:	00 c0       	rjmp	.+0      	; 0x1148 <__stack+0x49>
    1148:	ad 98       	cbi	0x15, 5	; 21
    114a:	01 97       	sbiw	r24, 0x01	; 1
    114c:	f1 f7       	brne	.-4      	; 0x114a <__stack+0x4b>
    114e:	76 df       	rcall	.-276    	; 0x103c <lcd_waitbusy>
    1150:	60 e0       	ldi	r22, 0x00	; 0
    1152:	88 e2       	ldi	r24, 0x28	; 40
    1154:	1e df       	rcall	.-452    	; 0xf92 <lcd_write>
    1156:	72 df       	rcall	.-284    	; 0x103c <lcd_waitbusy>
    1158:	60 e0       	ldi	r22, 0x00	; 0
    115a:	88 e0       	ldi	r24, 0x08	; 8
    115c:	1a df       	rcall	.-460    	; 0xf92 <lcd_write>
    115e:	6e df       	rcall	.-292    	; 0x103c <lcd_waitbusy>
    1160:	60 e0       	ldi	r22, 0x00	; 0
    1162:	81 e0       	ldi	r24, 0x01	; 1
    1164:	16 df       	rcall	.-468    	; 0xf92 <lcd_write>
    1166:	6a df       	rcall	.-300    	; 0x103c <lcd_waitbusy>
    1168:	60 e0       	ldi	r22, 0x00	; 0
    116a:	86 e0       	ldi	r24, 0x06	; 6
    116c:	12 df       	rcall	.-476    	; 0xf92 <lcd_write>
    116e:	66 df       	rcall	.-308    	; 0x103c <lcd_waitbusy>
    1170:	60 e0       	ldi	r22, 0x00	; 0
    1172:	8c 2f       	mov	r24, r28
    1174:	cf 91       	pop	r28
    1176:	0d cf       	rjmp	.-486    	; 0xf92 <lcd_write>

00001178 <lcd_defc>:
    1178:	1f 93       	push	r17
    117a:	cf 93       	push	r28
    117c:	df 93       	push	r29
    117e:	5e df       	rcall	.-324    	; 0x103c <lcd_waitbusy>
    1180:	60 e0       	ldi	r22, 0x00	; 0
    1182:	80 e4       	ldi	r24, 0x40	; 64
    1184:	06 df       	rcall	.-500    	; 0xf92 <lcd_write>
    1186:	c4 e5       	ldi	r28, 0x54	; 84
    1188:	d1 e0       	ldi	r29, 0x01	; 1
    118a:	fe 01       	movw	r30, r28
    118c:	14 91       	lpm	r17, Z
    118e:	56 df       	rcall	.-340    	; 0x103c <lcd_waitbusy>
    1190:	61 e0       	ldi	r22, 0x01	; 1
    1192:	81 2f       	mov	r24, r17
    1194:	fe de       	rcall	.-516    	; 0xf92 <lcd_write>
    1196:	21 96       	adiw	r28, 0x01	; 1
    1198:	f1 e0       	ldi	r31, 0x01	; 1
    119a:	cd 38       	cpi	r28, 0x8D	; 141
    119c:	df 07       	cpc	r29, r31
    119e:	a9 f7       	brne	.-22     	; 0x118a <lcd_defc+0x12>
    11a0:	df 91       	pop	r29
    11a2:	cf 91       	pop	r28
    11a4:	1f 91       	pop	r17
    11a6:	08 95       	ret

000011a8 <lcd_putbyte_hex>:
}

void lcd_putbyte_hex( unsigned char c)                       // 1 byte kiirasa hexadecimalisan
{
    11a8:	cf 93       	push	r28
    11aa:	c8 2f       	mov	r28, r24
	lcd_putc_hex( c >> 4);
    11ac:	82 95       	swap	r24
    11ae:	8f 70       	andi	r24, 0x0F	; 15
}

void lcd_putc_hex( unsigned char c)                          // 1 hexadecimalis szamjegy kiirasa
{
	c&= 0x0F;
	if( c < 10) c+= '0';
    11b0:	8a 30       	cpi	r24, 0x0A	; 10
    11b2:	48 f4       	brcc	.+18     	; 0x11c6 <lcd_putbyte_hex+0x1e>
    11b4:	80 5d       	subi	r24, 0xD0	; 208
	else        c+= 'A'- 10;
	lcd_putc( c);
    11b6:	6e df       	rcall	.-292    	; 0x1094 <lcd_putc>
	}
}

void lcd_putc_hex( unsigned char c)                          // 1 hexadecimalis szamjegy kiirasa
{
	c&= 0x0F;
    11b8:	cf 70       	andi	r28, 0x0F	; 15
	if( c < 10) c+= '0';
    11ba:	ca 30       	cpi	r28, 0x0A	; 10
    11bc:	48 f0       	brcs	.+18     	; 0x11d0 <lcd_putbyte_hex+0x28>
	else        c+= 'A'- 10;
    11be:	87 e3       	ldi	r24, 0x37	; 55
    11c0:	8c 0f       	add	r24, r28
	lcd_putc( c);
    11c2:	cf 91       	pop	r28

void lcd_putc_hex( unsigned char c)                          // 1 hexadecimalis szamjegy kiirasa
{
	c&= 0x0F;
	if( c < 10) c+= '0';
	else        c+= 'A'- 10;
    11c4:	67 cf       	rjmp	.-306    	; 0x1094 <lcd_putc>
	lcd_putc( c);
    11c6:	89 5c       	subi	r24, 0xC9	; 201
    11c8:	65 df       	rcall	.-310    	; 0x1094 <lcd_putc>
	}
}

void lcd_putc_hex( unsigned char c)                          // 1 hexadecimalis szamjegy kiirasa
{
	c&= 0x0F;
    11ca:	cf 70       	andi	r28, 0x0F	; 15
	if( c < 10) c+= '0';
    11cc:	ca 30       	cpi	r28, 0x0A	; 10
    11ce:	b8 f7       	brcc	.-18     	; 0x11be <lcd_putbyte_hex+0x16>
    11d0:	80 e3       	ldi	r24, 0x30	; 48

void lcd_putbyte_hex( unsigned char c)                       // 1 byte kiirasa hexadecimalisan
{
	lcd_putc_hex( c >> 4);
	lcd_putc_hex( c);
}
    11d2:	8c 0f       	add	r24, r28
void lcd_putc_hex( unsigned char c)                          // 1 hexadecimalis szamjegy kiirasa
{
	c&= 0x0F;
	if( c < 10) c+= '0';
	else        c+= 'A'- 10;
	lcd_putc( c);
    11d4:	cf 91       	pop	r28
    11d6:	5e cf       	rjmp	.-324    	; 0x1094 <lcd_putc>

000011d8 <lcd_putbit>:
	lcd_putc_hex( c);
}

void lcd_putbit(unsigned char c, unsigned char bit)
{
	while (bit--)
    11d8:	9f ef       	ldi	r25, 0xFF	; 255
    11da:	96 0f       	add	r25, r22
    11dc:	66 23       	and	r22, r22
    11de:	19 f0       	breq	.+6      	; 0x11e6 <lcd_putbit+0xe>
		c=c >> 1;
    11e0:	86 95       	lsr	r24
	lcd_putc_hex( c);
}

void lcd_putbit(unsigned char c, unsigned char bit)
{
	while (bit--)
    11e2:	91 50       	subi	r25, 0x01	; 1
    11e4:	e8 f7       	brcc	.-6      	; 0x11e0 <lcd_putbit+0x8>
		c=c >> 1;
	if( c & 0x01)
    11e6:	80 fd       	sbrc	r24, 0
    11e8:	04 c0       	rjmp	.+8      	; 0x11f2 <lcd_putbit+0x1a>
void lcd_putc(char c)
{
    uint8_t pos;


    pos = lcd_waitbusy();   // read busy-flag and address counter
    11ea:	28 df       	rcall	.-432    	; 0x103c <lcd_waitbusy>
            lcd_write((1<<LCD_DDRAM)+LCD_START_LINE1,0);
        }
#endif
        lcd_waitbusy();
#endif
        lcd_write(c, 1);
    11ec:	61 e0       	ldi	r22, 0x01	; 1
    11ee:	80 e3       	ldi	r24, 0x30	; 48
void lcd_putc(char c)
{
    uint8_t pos;


    pos = lcd_waitbusy();   // read busy-flag and address counter
    11f0:	d0 ce       	rjmp	.-608    	; 0xf92 <lcd_write>
            lcd_write((1<<LCD_DDRAM)+LCD_START_LINE1,0);
        }
#endif
        lcd_waitbusy();
#endif
        lcd_write(c, 1);
    11f2:	24 df       	rcall	.-440    	; 0x103c <lcd_waitbusy>
    11f4:	61 e0       	ldi	r22, 0x01	; 1
    11f6:	81 e3       	ldi	r24, 0x31	; 49
    11f8:	cc ce       	rjmp	.-616    	; 0xf92 <lcd_write>

000011fa <lcd_putc_hu>:
	lcd_puts(buf);
}

void lcd_putc_hu( unsigned char c)                          // magyar betu kiirasa LCD-re
{
	switch( c)
    11fa:	48 2f       	mov	r20, r24
    11fc:	50 e0       	ldi	r21, 0x00	; 0
    11fe:	fa 01       	movw	r30, r20
    1200:	e1 5c       	subi	r30, 0xC1	; 193
    1202:	f1 09       	sbc	r31, r1
    1204:	ec 33       	cpi	r30, 0x3C	; 60
    1206:	f1 05       	cpc	r31, r1
    1208:	28 f4       	brcc	.+10     	; 0x1214 <lcd_putc_hu+0x1a>
    120a:	ea 5b       	subi	r30, 0xBA	; 186
    120c:	ff 4f       	sbci	r31, 0xFF	; 255
    120e:	0c 94 a7 30 	jmp	0x614e	; 0x614e <__tablejump2__>
	{
		case 0xD6:                                 // Ö
		case 0xF6:                                 // ö
		c= 0xEF;
    1212:	8f ee       	ldi	r24, 0xEF	; 239
		case 0xFB:                                 // û
			c= 6;
			break;
		default:;
	}
	lcd_putc(c);
    1214:	3f cf       	rjmp	.-386    	; 0x1094 <lcd_putc>
    1216:	85 e0       	ldi	r24, 0x05	; 5
			c= 5;
			break;

		case 0xDB:                                 // Û
		case 0xFB:                                 // û
			c= 6;
    1218:	3d cf       	rjmp	.-390    	; 0x1094 <lcd_putc>
			break;
		default:;
	}
	lcd_putc(c);
    121a:	86 e0       	ldi	r24, 0x06	; 6
    121c:	3b cf       	rjmp	.-394    	; 0x1094 <lcd_putc>
			c= 0xF5;
		break;

		case 0xC1:                                 // Á
		case 0xE1:                                 // á
			c= 0;
    121e:	85 ef       	ldi	r24, 0xF5	; 245
		case 0xFB:                                 // û
			c= 6;
			break;
		default:;
	}
	lcd_putc(c);
    1220:	39 cf       	rjmp	.-398    	; 0x1094 <lcd_putc>
    1222:	80 e0       	ldi	r24, 0x00	; 0
			c= 1;
			break;

		case 0xCD:                                 // Í
		case 0xED:                                 // í
			c= 2;
    1224:	37 cf       	rjmp	.-402    	; 0x1094 <lcd_putc>
		case 0xFB:                                 // û
			c= 6;
			break;
		default:;
	}
	lcd_putc(c);
    1226:	81 e0       	ldi	r24, 0x01	; 1
    1228:	35 cf       	rjmp	.-406    	; 0x1094 <lcd_putc>
			c= 2;
			break;

		case 0xD3:                                 // Ó
		case 0xF3:                                 // ó
			c= 3;
    122a:	82 e0       	ldi	r24, 0x02	; 2
		case 0xFB:                                 // û
			c= 6;
			break;
		default:;
	}
	lcd_putc(c);
    122c:	33 cf       	rjmp	.-410    	; 0x1094 <lcd_putc>
    122e:	83 e0       	ldi	r24, 0x03	; 3
			c= 3;
			break;

		case 0xD5:                                 // Õ
		case 0xF5:                                 // õ
			c= 4;
    1230:	31 cf       	rjmp	.-414    	; 0x1094 <lcd_putc>
		case 0xFB:                                 // û
			c= 6;
			break;
		default:;
	}
	lcd_putc(c);
    1232:	84 e0       	ldi	r24, 0x04	; 4
    1234:	2f cf       	rjmp	.-418    	; 0x1094 <lcd_putc>

00001236 <lcd_puts>:
Input:    string to be displayed
Returns:  none
*************************************************************************/
void lcd_puts(const char *s)
/* print string on lcd (no auto linefeed) */
{
    1236:	cf 93       	push	r28
    1238:	df 93       	push	r29
    register char c;

    while ( (c = *s++) ) {
    123a:	ec 01       	movw	r28, r24
    123c:	21 96       	adiw	r28, 0x01	; 1
    123e:	fc 01       	movw	r30, r24
    1240:	80 81       	ld	r24, Z
    1242:	88 23       	and	r24, r24
    1244:	21 f0       	breq	.+8      	; 0x124e <lcd_puts+0x18>
        lcd_putc_hu(c);
    1246:	d9 df       	rcall	.-78     	; 0x11fa <lcd_putc_hu>
void lcd_puts(const char *s)
/* print string on lcd (no auto linefeed) */
{
    register char c;

    while ( (c = *s++) ) {
    1248:	89 91       	ld	r24, Y+
    124a:	81 11       	cpse	r24, r1
    124c:	fc cf       	rjmp	.-8      	; 0x1246 <lcd_puts+0x10>
        lcd_putc_hu(c);
    }

}/* lcd_puts */
    124e:	df 91       	pop	r29
    1250:	cf 91       	pop	r28
    1252:	08 95       	ret

00001254 <lcd_puti>:
	else
		lcd_putc( '0');
}

void lcd_puti(unsigned int i)
{
    1254:	0f 93       	push	r16
    1256:	1f 93       	push	r17
    1258:	cf 93       	push	r28
    125a:	df 93       	push	r29
    125c:	00 d0       	rcall	.+0      	; 0x125e <lcd_puti+0xa>
    125e:	00 d0       	rcall	.+0      	; 0x1260 <lcd_puti+0xc>
    1260:	cd b7       	in	r28, 0x3d	; 61
    1262:	de b7       	in	r29, 0x3e	; 62
    1264:	8c 01       	movw	r16, r24
    } else if (__radix < 2 || __radix > 36) {
	*__s = 0;
	return __s;
    } else {
	extern char *__itoa_ncheck (int, char *, unsigned char);
	return __itoa_ncheck (__val, __s, __radix);
    1266:	4a e0       	ldi	r20, 0x0A	; 10
    1268:	be 01       	movw	r22, r28
    126a:	6f 5f       	subi	r22, 0xFF	; 255
    126c:	7f 4f       	sbci	r23, 0xFF	; 255
    126e:	0e 94 c5 30 	call	0x618a	; 0x618a <__itoa_ncheck>
	char buf[4];
	itoa(i, buf, 10);
	if (i < 10)
    1272:	0a 30       	cpi	r16, 0x0A	; 10
    1274:	11 05       	cpc	r17, r1
    1276:	a8 f0       	brcs	.+42     	; 0x12a2 <lcd_puti+0x4e>
void lcd_puts(const char *s)
/* print string on lcd (no auto linefeed) */
{
    register char c;

    while ( (c = *s++) ) {
    1278:	89 81       	ldd	r24, Y+1	; 0x01
    127a:	88 23       	and	r24, r24
    127c:	49 f0       	breq	.+18     	; 0x1290 <lcd_puti+0x3c>
    127e:	8e 01       	movw	r16, r28
    1280:	0e 5f       	subi	r16, 0xFE	; 254
    1282:	1f 4f       	sbci	r17, 0xFF	; 255
        lcd_putc_hu(c);
    1284:	ba df       	rcall	.-140    	; 0x11fa <lcd_putc_hu>
void lcd_puts(const char *s)
/* print string on lcd (no auto linefeed) */
{
    register char c;

    while ( (c = *s++) ) {
    1286:	f8 01       	movw	r30, r16
    1288:	81 91       	ld	r24, Z+
    128a:	8f 01       	movw	r16, r30
    128c:	81 11       	cpse	r24, r1
    128e:	fa cf       	rjmp	.-12     	; 0x1284 <lcd_puti+0x30>
	char buf[4];
	itoa(i, buf, 10);
	if (i < 10)
		lcd_putc('0');
	lcd_puts(buf);
}
    1290:	0f 90       	pop	r0
    1292:	0f 90       	pop	r0
    1294:	0f 90       	pop	r0
    1296:	0f 90       	pop	r0
    1298:	df 91       	pop	r29
    129a:	cf 91       	pop	r28
    129c:	1f 91       	pop	r17
    129e:	0f 91       	pop	r16
void lcd_putc(char c)
{
    uint8_t pos;


    pos = lcd_waitbusy();   // read busy-flag and address counter
    12a0:	08 95       	ret
    12a2:	cc de       	rcall	.-616    	; 0x103c <lcd_waitbusy>
            lcd_write((1<<LCD_DDRAM)+LCD_START_LINE1,0);
        }
#endif
        lcd_waitbusy();
#endif
        lcd_write(c, 1);
    12a4:	61 e0       	ldi	r22, 0x01	; 1
    12a6:	80 e3       	ldi	r24, 0x30	; 48
    12a8:	74 de       	rcall	.-792    	; 0xf92 <lcd_write>
    12aa:	e6 cf       	rjmp	.-52     	; 0x1278 <lcd_puti+0x24>

000012ac <lcd_puti16>:
		lcd_putc('0');
	lcd_puts(buf);
}

void lcd_puti16(uint16_t i)
{
    12ac:	0f 93       	push	r16
    12ae:	1f 93       	push	r17
    12b0:	cf 93       	push	r28
    12b2:	df 93       	push	r29
    12b4:	00 d0       	rcall	.+0      	; 0x12b6 <lcd_puti16+0xa>
    12b6:	00 d0       	rcall	.+0      	; 0x12b8 <lcd_puti16+0xc>
    12b8:	00 d0       	rcall	.+0      	; 0x12ba <lcd_puti16+0xe>
    12ba:	cd b7       	in	r28, 0x3d	; 61
    12bc:	de b7       	in	r29, 0x3e	; 62
    12be:	4a e0       	ldi	r20, 0x0A	; 10
    12c0:	be 01       	movw	r22, r28
    12c2:	6f 5f       	subi	r22, 0xFF	; 255
    12c4:	7f 4f       	sbci	r23, 0xFF	; 255
    12c6:	0e 94 c5 30 	call	0x618a	; 0x618a <__itoa_ncheck>
void lcd_puts(const char *s)
/* print string on lcd (no auto linefeed) */
{
    register char c;

    while ( (c = *s++) ) {
    12ca:	89 81       	ldd	r24, Y+1	; 0x01
    12cc:	88 23       	and	r24, r24
    12ce:	49 f0       	breq	.+18     	; 0x12e2 <lcd_puti16+0x36>
    12d0:	8e 01       	movw	r16, r28
    12d2:	0e 5f       	subi	r16, 0xFE	; 254
    12d4:	1f 4f       	sbci	r17, 0xFF	; 255
        lcd_putc_hu(c);
    12d6:	91 df       	rcall	.-222    	; 0x11fa <lcd_putc_hu>
void lcd_puts(const char *s)
/* print string on lcd (no auto linefeed) */
{
    register char c;

    while ( (c = *s++) ) {
    12d8:	f8 01       	movw	r30, r16
    12da:	81 91       	ld	r24, Z+
    12dc:	8f 01       	movw	r16, r30
    12de:	81 11       	cpse	r24, r1
    12e0:	fa cf       	rjmp	.-12     	; 0x12d6 <lcd_puti16+0x2a>
void lcd_puti16(uint16_t i)
{
	char buf[6];
	itoa(i, buf, 10);
	lcd_puts(buf);
}
    12e2:	26 96       	adiw	r28, 0x06	; 6
    12e4:	0f b6       	in	r0, 0x3f	; 63
    12e6:	f8 94       	cli
    12e8:	de bf       	out	0x3e, r29	; 62
    12ea:	0f be       	out	0x3f, r0	; 63
    12ec:	cd bf       	out	0x3d, r28	; 61
    12ee:	df 91       	pop	r29
    12f0:	cf 91       	pop	r28
    12f2:	1f 91       	pop	r17
    12f4:	0f 91       	pop	r16
    12f6:	08 95       	ret

000012f8 <lcd_puts_hu>:
	lcd_putc(c);
}


void lcd_puts_hu( const char *s)                 // string kiiras, magyar betuk is
{
    12f8:	cf 93       	push	r28
    12fa:	df 93       	push	r29
	register unsigned char c;
	while ( ( c= pgm_read_byte( s++))) lcd_putc_hu( c);
    12fc:	ec 01       	movw	r28, r24
    12fe:	21 96       	adiw	r28, 0x01	; 1
    1300:	fc 01       	movw	r30, r24
    1302:	84 91       	lpm	r24, Z
    1304:	88 23       	and	r24, r24
    1306:	31 f0       	breq	.+12     	; 0x1314 <lcd_puts_hu+0x1c>
    1308:	78 df       	rcall	.-272    	; 0x11fa <lcd_putc_hu>
    130a:	fe 01       	movw	r30, r28
    130c:	84 91       	lpm	r24, Z
    130e:	21 96       	adiw	r28, 0x01	; 1
    1310:	81 11       	cpse	r24, r1
    1312:	fa cf       	rjmp	.-12     	; 0x1308 <lcd_puts_hu+0x10>
}
    1314:	df 91       	pop	r29
    1316:	cf 91       	pop	r28
    1318:	08 95       	ret

0000131a <__vector_12>:
uint8_t EngineeringCondition()
{
	static uint8_t isOn = 0;
	if (EngineeringTempMin > Engineering.ActualTemp)
	{
		isOn = 1;
    131a:	1f 92       	push	r1
    131c:	0f 92       	push	r0
    131e:	0f b6       	in	r0, 0x3f	; 63
    1320:	0f 92       	push	r0
    1322:	11 24       	eor	r1, r1
    1324:	8f 93       	push	r24
    1326:	80 91 78 08 	lds	r24, 0x0878	; 0x800878 <TimerElapsed>
    132a:	80 91 78 08 	lds	r24, 0x0878	; 0x800878 <TimerElapsed>
    132e:	8f 5f       	subi	r24, 0xFF	; 255
    1330:	80 93 78 08 	sts	0x0878, r24	; 0x800878 <TimerElapsed>
    1334:	8f 91       	pop	r24
    1336:	0f 90       	pop	r0
    1338:	0f be       	out	0x3f, r0	; 63
    133a:	0f 90       	pop	r0
    133c:	1f 90       	pop	r1
    133e:	18 95       	reti

00001340 <__vector_15>:
    1340:	1f 92       	push	r1
    1342:	0f 92       	push	r0
    1344:	0f b6       	in	r0, 0x3f	; 63
    1346:	0f 92       	push	r0
    1348:	11 24       	eor	r1, r1
    134a:	2f 93       	push	r18
    134c:	3f 93       	push	r19
    134e:	4f 93       	push	r20
    1350:	5f 93       	push	r21
    1352:	6f 93       	push	r22
    1354:	7f 93       	push	r23
    1356:	8f 93       	push	r24
    1358:	9f 93       	push	r25
    135a:	af 93       	push	r26
    135c:	bf 93       	push	r27
    135e:	ef 93       	push	r30
    1360:	ff 93       	push	r31
    1362:	0e 94 b2 16 	call	0x2d64	; 0x2d64 <menuPollButtons>
    1366:	ff 91       	pop	r31
    1368:	ef 91       	pop	r30
    136a:	bf 91       	pop	r27
    136c:	af 91       	pop	r26
    136e:	9f 91       	pop	r25
    1370:	8f 91       	pop	r24
    1372:	7f 91       	pop	r23
    1374:	6f 91       	pop	r22
    1376:	5f 91       	pop	r21
    1378:	4f 91       	pop	r20
    137a:	3f 91       	pop	r19
    137c:	2f 91       	pop	r18
    137e:	0f 90       	pop	r0
    1380:	0f be       	out	0x3f, r0	; 63
    1382:	0f 90       	pop	r0
    1384:	1f 90       	pop	r1
    1386:	18 95       	reti

00001388 <__vector_10>:
    1388:	1f 92       	push	r1
    138a:	0f 92       	push	r0
    138c:	0f b6       	in	r0, 0x3f	; 63
    138e:	0f 92       	push	r0
    1390:	11 24       	eor	r1, r1
    1392:	8f 93       	push	r24
    1394:	9f 93       	push	r25
    1396:	cf 93       	push	r28
    1398:	df 93       	push	r29
    139a:	1f 92       	push	r1
    139c:	cd b7       	in	r28, 0x3d	; 61
    139e:	de b7       	in	r29, 0x3e	; 62
    13a0:	19 82       	std	Y+1, r1	; 0x01
    13a2:	89 81       	ldd	r24, Y+1	; 0x01
    13a4:	88 23       	and	r24, r24
    13a6:	69 f0       	breq	.+26     	; 0x13c2 <__vector_10+0x3a>
    13a8:	89 81       	ldd	r24, Y+1	; 0x01
    13aa:	81 50       	subi	r24, 0x01	; 1
    13ac:	89 83       	std	Y+1, r24	; 0x01
    13ae:	0f 90       	pop	r0
    13b0:	df 91       	pop	r29
    13b2:	cf 91       	pop	r28
    13b4:	9f 91       	pop	r25
    13b6:	8f 91       	pop	r24
    13b8:	0f 90       	pop	r0
    13ba:	0f be       	out	0x3f, r0	; 63
    13bc:	0f 90       	pop	r0
    13be:	1f 90       	pop	r1
    13c0:	18 95       	reti
    13c2:	80 91 71 08 	lds	r24, 0x0871	; 0x800871 <WoodLEDRate>
    13c6:	89 83       	std	Y+1, r24	; 0x01
    13c8:	90 91 62 00 	lds	r25, 0x0062	; 0x800062 <__TEXT_REGION_LENGTH__+0x7f0062>
    13cc:	80 e1       	ldi	r24, 0x10	; 16
    13ce:	89 27       	eor	r24, r25
    13d0:	80 93 62 00 	sts	0x0062, r24	; 0x800062 <__TEXT_REGION_LENGTH__+0x7f0062>
    13d4:	ec cf       	rjmp	.-40     	; 0x13ae <__vector_10+0x26>

000013d6 <TempToVariable>:
    13d6:	0f 93       	push	r16
    13d8:	1f 93       	push	r17
    13da:	cf 93       	push	r28
    13dc:	df 93       	push	r29
    13de:	ec 01       	movw	r28, r24
    13e0:	8a 01       	movw	r16, r20
    13e2:	fb 01       	movw	r30, r22
    13e4:	80 81       	ld	r24, Z
    13e6:	88 83       	st	Y, r24
    13e8:	fa 01       	movw	r30, r20
    13ea:	90 81       	ld	r25, Z
    13ec:	99 83       	std	Y+1, r25	; 0x01
    13ee:	be 01       	movw	r22, r28
    13f0:	6c 5f       	subi	r22, 0xFC	; 252
    13f2:	7f 4f       	sbci	r23, 0xFF	; 255
    13f4:	4a e0       	ldi	r20, 0x0A	; 10
    13f6:	90 e0       	ldi	r25, 0x00	; 0
    13f8:	0e 94 fe 30 	call	0x61fc	; 0x61fc <__utoa_ncheck>
    13fc:	be 01       	movw	r22, r28
    13fe:	68 5f       	subi	r22, 0xF8	; 248
    1400:	7f 4f       	sbci	r23, 0xFF	; 255
    1402:	f8 01       	movw	r30, r16
    1404:	80 81       	ld	r24, Z
    1406:	4a e0       	ldi	r20, 0x0A	; 10
    1408:	90 e0       	ldi	r25, 0x00	; 0
    140a:	0e 94 fe 30 	call	0x61fc	; 0x61fc <__utoa_ncheck>
    140e:	88 81       	ld	r24, Y
    1410:	9b 81       	ldd	r25, Y+3	; 0x03
    1412:	98 17       	cp	r25, r24
    1414:	08 f4       	brcc	.+2      	; 0x1418 <TempToVariable+0x42>
    1416:	8b 83       	std	Y+3, r24	; 0x03
    1418:	9a 81       	ldd	r25, Y+2	; 0x02
    141a:	89 17       	cp	r24, r25
    141c:	08 f4       	brcc	.+2      	; 0x1420 <TempToVariable+0x4a>
    141e:	8a 83       	std	Y+2, r24	; 0x02
    1420:	df 91       	pop	r29
    1422:	cf 91       	pop	r28
    1424:	1f 91       	pop	r17
    1426:	0f 91       	pop	r16
    1428:	08 95       	ret

0000142a <search_sensors>:
    142a:	7f 92       	push	r7
    142c:	8f 92       	push	r8
    142e:	9f 92       	push	r9
    1430:	af 92       	push	r10
    1432:	bf 92       	push	r11
    1434:	cf 92       	push	r12
    1436:	df 92       	push	r13
    1438:	ef 92       	push	r14
    143a:	ff 92       	push	r15
    143c:	0f 93       	push	r16
    143e:	1f 93       	push	r17
    1440:	cf 93       	push	r28
    1442:	df 93       	push	r29
    1444:	cd b7       	in	r28, 0x3d	; 61
    1446:	de b7       	in	r29, 0x3e	; 62
    1448:	29 97       	sbiw	r28, 0x09	; 9
    144a:	0f b6       	in	r0, 0x3f	; 63
    144c:	f8 94       	cli
    144e:	de bf       	out	0x3e, r29	; 62
    1450:	0f be       	out	0x3f, r0	; 63
    1452:	cd bf       	out	0x3d, r28	; 61
    1454:	80 91 77 08 	lds	r24, 0x0877	; 0x800877 <Mode>
    1458:	82 30       	cpi	r24, 0x02	; 2
    145a:	09 f4       	brne	.+2      	; 0x145e <search_sensors+0x34>
    145c:	6a c0       	rjmp	.+212    	; 0x1532 <search_sensors+0x108>
    145e:	8f ef       	ldi	r24, 0xFF	; 255
    1460:	89 87       	std	Y+9, r24	; 0x09
    1462:	89 ef       	ldi	r24, 0xF9	; 249
    1464:	88 2e       	mov	r8, r24
    1466:	89 e0       	ldi	r24, 0x09	; 9
    1468:	98 2e       	mov	r9, r24
    146a:	a1 2c       	mov	r10, r1
    146c:	b1 2c       	mov	r11, r1
    146e:	71 2c       	mov	r7, r1
    1470:	ce 01       	movw	r24, r28
    1472:	09 96       	adiw	r24, 0x09	; 9
    1474:	6c 01       	movw	r12, r24
    1476:	be 01       	movw	r22, r28
    1478:	6f 5f       	subi	r22, 0xFF	; 255
    147a:	7f 4f       	sbci	r23, 0xFF	; 255
    147c:	c6 01       	movw	r24, r12
    147e:	bb da       	rcall	.-2698   	; 0x9f6 <DS18X20_find_sensor>
    1480:	89 85       	ldd	r24, Y+9	; 0x09
    1482:	8f 3f       	cpi	r24, 0xFF	; 255
    1484:	09 f4       	brne	.+2      	; 0x1488 <search_sensors+0x5e>
    1486:	43 c0       	rjmp	.+134    	; 0x150e <search_sensors+0xe4>
    1488:	8e 3f       	cpi	r24, 0xFE	; 254
    148a:	09 f4       	brne	.+2      	; 0x148e <search_sensors+0x64>
    148c:	49 c0       	rjmp	.+146    	; 0x1520 <search_sensors+0xf6>
    148e:	85 e1       	ldi	r24, 0x15	; 21
    1490:	92 e0       	ldi	r25, 0x02	; 2
    1492:	0e 94 2d 2d 	call	0x5a5a	; 0x5a5a <uart_puts_p>
    1496:	c5 01       	movw	r24, r10
    1498:	0e 94 d3 2d 	call	0x5ba6	; 0x5ba6 <uart_puti>
    149c:	82 e1       	ldi	r24, 0x12	; 18
    149e:	92 e0       	ldi	r25, 0x02	; 2
    14a0:	0e 94 2d 2d 	call	0x5a5a	; 0x5a5a <uart_puts_p>
    14a4:	8e 01       	movw	r16, r28
    14a6:	0f 5f       	subi	r16, 0xFF	; 255
    14a8:	1f 4f       	sbci	r17, 0xFF	; 255
    14aa:	74 01       	movw	r14, r8
    14ac:	f8 01       	movw	r30, r16
    14ae:	81 91       	ld	r24, Z+
    14b0:	8f 01       	movw	r16, r30
    14b2:	f7 01       	movw	r30, r14
    14b4:	81 93       	st	Z+, r24
    14b6:	7f 01       	movw	r14, r30
    14b8:	0e 94 a2 2d 	call	0x5b44	; 0x5b44 <uart_puthex_byte>
    14bc:	0c 15       	cp	r16, r12
    14be:	1d 05       	cpc	r17, r13
    14c0:	a9 f7       	brne	.-22     	; 0x14ac <search_sensors+0x82>
    14c2:	8f e0       	ldi	r24, 0x0F	; 15
    14c4:	92 e0       	ldi	r25, 0x02	; 2
    14c6:	0e 94 2d 2d 	call	0x5a5a	; 0x5a5a <uart_puts_p>
    14ca:	73 94       	inc	r7
    14cc:	89 85       	ldd	r24, Y+9	; 0x09
    14ce:	88 23       	and	r24, r24
    14d0:	49 f0       	breq	.+18     	; 0x14e4 <search_sensors+0xba>
    14d2:	ff ef       	ldi	r31, 0xFF	; 255
    14d4:	af 1a       	sub	r10, r31
    14d6:	bf 0a       	sbc	r11, r31
    14d8:	88 e0       	ldi	r24, 0x08	; 8
    14da:	88 0e       	add	r8, r24
    14dc:	91 1c       	adc	r9, r1
    14de:	9f e0       	ldi	r25, 0x0F	; 15
    14e0:	79 12       	cpse	r7, r25
    14e2:	c9 cf       	rjmp	.-110    	; 0x1476 <search_sensors+0x4c>
    14e4:	87 2d       	mov	r24, r7
    14e6:	29 96       	adiw	r28, 0x09	; 9
    14e8:	0f b6       	in	r0, 0x3f	; 63
    14ea:	f8 94       	cli
    14ec:	de bf       	out	0x3e, r29	; 62
    14ee:	0f be       	out	0x3f, r0	; 63
    14f0:	cd bf       	out	0x3d, r28	; 61
    14f2:	df 91       	pop	r29
    14f4:	cf 91       	pop	r28
    14f6:	1f 91       	pop	r17
    14f8:	0f 91       	pop	r16
    14fa:	ff 90       	pop	r15
    14fc:	ef 90       	pop	r14
    14fe:	df 90       	pop	r13
    1500:	cf 90       	pop	r12
    1502:	bf 90       	pop	r11
    1504:	af 90       	pop	r10
    1506:	9f 90       	pop	r9
    1508:	8f 90       	pop	r8
    150a:	7f 90       	pop	r7
    150c:	08 95       	ret
    150e:	80 91 77 08 	lds	r24, 0x0877	; 0x800877 <Mode>
    1512:	82 30       	cpi	r24, 0x02	; 2
    1514:	39 f7       	brne	.-50     	; 0x14e4 <search_sensors+0xba>
    1516:	82 e2       	ldi	r24, 0x22	; 34
    1518:	92 e0       	ldi	r25, 0x02	; 2
    151a:	0e 94 2d 2d 	call	0x5a5a	; 0x5a5a <uart_puts_p>
    151e:	e2 cf       	rjmp	.-60     	; 0x14e4 <search_sensors+0xba>
    1520:	80 91 77 08 	lds	r24, 0x0877	; 0x800877 <Mode>
    1524:	82 30       	cpi	r24, 0x02	; 2
    1526:	f1 f6       	brne	.-68     	; 0x14e4 <search_sensors+0xba>
    1528:	87 e1       	ldi	r24, 0x17	; 23
    152a:	92 e0       	ldi	r25, 0x02	; 2
    152c:	0e 94 2d 2d 	call	0x5a5a	; 0x5a5a <uart_puts_p>
    1530:	d9 cf       	rjmp	.-78     	; 0x14e4 <search_sensors+0xba>
    1532:	83 e3       	ldi	r24, 0x33	; 51
    1534:	92 e0       	ldi	r25, 0x02	; 2
    1536:	0e 94 2d 2d 	call	0x5a5a	; 0x5a5a <uart_puts_p>
    153a:	91 cf       	rjmp	.-222    	; 0x145e <search_sensors+0x34>

0000153c <SensorRead>:
    153c:	cf 92       	push	r12
    153e:	df 92       	push	r13
    1540:	ef 92       	push	r14
    1542:	ff 92       	push	r15
    1544:	0f 93       	push	r16
    1546:	1f 93       	push	r17
    1548:	cf 93       	push	r28
    154a:	df 93       	push	r29
    154c:	00 d0       	rcall	.+0      	; 0x154e <SensorRead+0x12>
    154e:	00 d0       	rcall	.+0      	; 0x1550 <SensorRead+0x14>
    1550:	cd b7       	in	r28, 0x3d	; 61
    1552:	de b7       	in	r29, 0x3e	; 62
    1554:	80 91 69 08 	lds	r24, 0x0869	; 0x800869 <adc.2985>
    1558:	81 30       	cpi	r24, 0x01	; 1
    155a:	09 f4       	brne	.+2      	; 0x155e <SensorRead+0x22>
    155c:	4d c0       	rjmp	.+154    	; 0x15f8 <SensorRead+0xbc>
    155e:	08 f4       	brcc	.+2      	; 0x1562 <SensorRead+0x26>
    1560:	5c c0       	rjmp	.+184    	; 0x161a <SensorRead+0xde>
    1562:	82 30       	cpi	r24, 0x02	; 2
    1564:	d9 f1       	breq	.+118    	; 0x15dc <SensorRead+0xa0>
    1566:	20 91 68 08 	lds	r18, 0x0868	; 0x800868 <timerstate.2981>
    156a:	82 2f       	mov	r24, r18
    156c:	90 e0       	ldi	r25, 0x00	; 0
    156e:	87 30       	cpi	r24, 0x07	; 7
    1570:	91 05       	cpc	r25, r1
    1572:	f8 f0       	brcs	.+62     	; 0x15b2 <SensorRead+0x76>
    1574:	10 92 68 08 	sts	0x0868, r1	; 0x800868 <timerstate.2981>
    1578:	80 91 66 08 	lds	r24, 0x0866	; 0x800866 <web.2983>
    157c:	8f 5f       	subi	r24, 0xFF	; 255
    157e:	80 93 66 08 	sts	0x0866, r24	; 0x800866 <web.2983>
    1582:	80 91 0a 01 	lds	r24, 0x010A	; 0x80010a <menutimer>
    1586:	81 11       	cpse	r24, r1
    1588:	19 c0       	rjmp	.+50     	; 0x15bc <SensorRead+0x80>
    158a:	80 91 00 01 	lds	r24, 0x0100	; 0x800100 <__DATA_REGION_ORIGIN__>
    158e:	84 31       	cpi	r24, 0x14	; 20
    1590:	09 f4       	brne	.+2      	; 0x1594 <SensorRead+0x58>
    1592:	2f c2       	rjmp	.+1118   	; 0x19f2 <SensorRead+0x4b6>
    1594:	8f 30       	cpi	r24, 0x0F	; 15
    1596:	09 f4       	brne	.+2      	; 0x159a <SensorRead+0x5e>
    1598:	ff c2       	rjmp	.+1534   	; 0x1b98 <SensorRead+0x65c>
    159a:	8a 30       	cpi	r24, 0x0A	; 10
    159c:	09 f4       	brne	.+2      	; 0x15a0 <SensorRead+0x64>
    159e:	45 c3       	rjmp	.+1674   	; 0x1c2a <SensorRead+0x6ee>
    15a0:	85 30       	cpi	r24, 0x05	; 5
    15a2:	09 f4       	brne	.+2      	; 0x15a6 <SensorRead+0x6a>
    15a4:	d9 c3       	rjmp	.+1970   	; 0x1d58 <SensorRead+0x81c>
    15a6:	81 50       	subi	r24, 0x01	; 1
    15a8:	09 f4       	brne	.+2      	; 0x15ac <SensorRead+0x70>
    15aa:	84 e1       	ldi	r24, 0x14	; 20
    15ac:	80 93 00 01 	sts	0x0100, r24	; 0x800100 <__DATA_REGION_ORIGIN__>
    15b0:	08 c0       	rjmp	.+16     	; 0x15c2 <SensorRead+0x86>
    15b2:	fc 01       	movw	r30, r24
    15b4:	ee 57       	subi	r30, 0x7E	; 126
    15b6:	ff 4f       	sbci	r31, 0xFF	; 255
    15b8:	0c 94 a7 30 	jmp	0x614e	; 0x614e <__tablejump2__>
    15bc:	81 50       	subi	r24, 0x01	; 1
    15be:	80 93 0a 01 	sts	0x010A, r24	; 0x80010a <menutimer>
    15c2:	0f 90       	pop	r0
    15c4:	0f 90       	pop	r0
    15c6:	0f 90       	pop	r0
    15c8:	0f 90       	pop	r0
    15ca:	df 91       	pop	r29
    15cc:	cf 91       	pop	r28
    15ce:	1f 91       	pop	r17
    15d0:	0f 91       	pop	r16
    15d2:	ff 90       	pop	r15
    15d4:	ef 90       	pop	r14
    15d6:	df 90       	pop	r13
    15d8:	cf 90       	pop	r12
    15da:	08 95       	ret
    15dc:	84 b1       	in	r24, 0x04	; 4
    15de:	95 b1       	in	r25, 0x05	; 5
    15e0:	90 93 73 08 	sts	0x0873, r25	; 0x800873 <GasPressure+0x1>
    15e4:	80 93 72 08 	sts	0x0872, r24	; 0x800872 <GasPressure>
    15e8:	85 e4       	ldi	r24, 0x45	; 69
    15ea:	87 b9       	out	0x07, r24	; 7
    15ec:	86 b1       	in	r24, 0x06	; 6
    15ee:	87 6c       	ori	r24, 0xC7	; 199
    15f0:	86 b9       	out	0x06, r24	; 6
    15f2:	10 92 69 08 	sts	0x0869, r1	; 0x800869 <adc.2985>
    15f6:	b7 cf       	rjmp	.-146    	; 0x1566 <SensorRead+0x2a>
    15f8:	84 b1       	in	r24, 0x04	; 4
    15fa:	95 b1       	in	r25, 0x05	; 5
    15fc:	90 93 f5 09 	sts	0x09F5, r25	; 0x8009f5 <WoodPressureAfter+0x1>
    1600:	80 93 f4 09 	sts	0x09F4, r24	; 0x8009f4 <WoodPressureAfter>
    1604:	86 e4       	ldi	r24, 0x46	; 70
    1606:	87 b9       	out	0x07, r24	; 7
    1608:	86 b1       	in	r24, 0x06	; 6
    160a:	87 6c       	ori	r24, 0xC7	; 199
    160c:	86 b9       	out	0x06, r24	; 6
    160e:	80 91 69 08 	lds	r24, 0x0869	; 0x800869 <adc.2985>
    1612:	8f 5f       	subi	r24, 0xFF	; 255
    1614:	80 93 69 08 	sts	0x0869, r24	; 0x800869 <adc.2985>
    1618:	a6 cf       	rjmp	.-180    	; 0x1566 <SensorRead+0x2a>
    161a:	84 b1       	in	r24, 0x04	; 4
    161c:	95 b1       	in	r25, 0x05	; 5
    161e:	90 93 1a 09 	sts	0x091A, r25	; 0x80091a <WoodPressureBefore+0x1>
    1622:	80 93 19 09 	sts	0x0919, r24	; 0x800919 <WoodPressureBefore>
    1626:	87 e4       	ldi	r24, 0x47	; 71
    1628:	ee cf       	rjmp	.-36     	; 0x1606 <SensorRead+0xca>
    162a:	80 91 66 08 	lds	r24, 0x0866	; 0x800866 <web.2983>
    162e:	8d 33       	cpi	r24, 0x3D	; 61
    1630:	08 f0       	brcs	.+2      	; 0x1634 <SensorRead+0xf8>
    1632:	cf c3       	rjmp	.+1950   	; 0x1dd2 <SensorRead+0x896>
    1634:	2f 5f       	subi	r18, 0xFF	; 255
    1636:	20 93 68 08 	sts	0x0868, r18	; 0x800868 <timerstate.2981>
    163a:	8f 5f       	subi	r24, 0xFF	; 255
    163c:	a0 cf       	rjmp	.-192    	; 0x157e <SensorRead+0x42>
    163e:	80 91 66 08 	lds	r24, 0x0866	; 0x800866 <web.2983>
    1642:	8d 33       	cpi	r24, 0x3D	; 61
    1644:	08 f0       	brcs	.+2      	; 0x1648 <SensorRead+0x10c>
    1646:	23 c4       	rjmp	.+2118   	; 0x1e8e <SensorRead+0x952>
    1648:	8f 5f       	subi	r24, 0xFF	; 255
    164a:	2f 5f       	subi	r18, 0xFF	; 255
    164c:	20 93 68 08 	sts	0x0868, r18	; 0x800868 <timerstate.2981>
    1650:	96 cf       	rjmp	.-212    	; 0x157e <SensorRead+0x42>
    1652:	a0 db       	rcall	.-2240   	; 0xd94 <StartHIHxxxxMeasurement>
    1654:	83 e1       	ldi	r24, 0x13	; 19
    1656:	24 dc       	rcall	.-1976   	; 0xea0 <i2c_start>
    1658:	88 23       	and	r24, r24
    165a:	09 f4       	brne	.+2      	; 0x165e <SensorRead+0x122>
    165c:	13 c4       	rjmp	.+2086   	; 0x1e84 <SensorRead+0x948>
    165e:	80 91 68 08 	lds	r24, 0x0868	; 0x800868 <timerstate.2981>
    1662:	8f 5f       	subi	r24, 0xFF	; 255
    1664:	80 93 68 08 	sts	0x0868, r24	; 0x800868 <timerstate.2981>
    1668:	80 91 66 08 	lds	r24, 0x0866	; 0x800866 <web.2983>
    166c:	8f 5f       	subi	r24, 0xFF	; 255
    166e:	87 cf       	rjmp	.-242    	; 0x157e <SensorRead+0x42>
    1670:	99 db       	rcall	.-2254   	; 0xda4 <ReadHIHxxxxMeasurement>
    1672:	40 91 0a 09 	lds	r20, 0x090A	; 0x80090a <HIHxxxxTemperature>
    1676:	50 91 0b 09 	lds	r21, 0x090B	; 0x80090b <HIHxxxxTemperature+0x1>
    167a:	60 91 0c 09 	lds	r22, 0x090C	; 0x80090c <HIHxxxxTemperature+0x2>
    167e:	70 91 0d 09 	lds	r23, 0x090D	; 0x80090d <HIHxxxxTemperature+0x3>
    1682:	40 93 d1 09 	sts	0x09D1, r20	; 0x8009d1 <HIHxxxxTemp>
    1686:	50 93 d2 09 	sts	0x09D2, r21	; 0x8009d2 <HIHxxxxTemp+0x1>
    168a:	60 93 d3 09 	sts	0x09D3, r22	; 0x8009d3 <HIHxxxxTemp+0x2>
    168e:	70 93 d4 09 	sts	0x09D4, r23	; 0x8009d4 <HIHxxxxTemp+0x3>
    1692:	8a e0       	ldi	r24, 0x0A	; 10
    1694:	ec e8       	ldi	r30, 0x8C	; 140
    1696:	f9 e0       	ldi	r31, 0x09	; 9
    1698:	df 01       	movw	r26, r30
    169a:	1d 92       	st	X+, r1
    169c:	8a 95       	dec	r24
    169e:	e9 f7       	brne	.-6      	; 0x169a <SensorRead+0x15e>
    16a0:	21 e0       	ldi	r18, 0x01	; 1
    16a2:	30 e0       	ldi	r19, 0x00	; 0
    16a4:	cf 01       	movw	r24, r30
    16a6:	0e 94 04 2e 	call	0x5c08	; 0x5c08 <ftoa>
    16aa:	c0 90 d1 09 	lds	r12, 0x09D1	; 0x8009d1 <HIHxxxxTemp>
    16ae:	d0 90 d2 09 	lds	r13, 0x09D2	; 0x8009d2 <HIHxxxxTemp+0x1>
    16b2:	e0 90 d3 09 	lds	r14, 0x09D3	; 0x8009d3 <HIHxxxxTemp+0x2>
    16b6:	f0 90 d4 09 	lds	r15, 0x09D4	; 0x8009d4 <HIHxxxxTemp+0x3>
    16ba:	20 e0       	ldi	r18, 0x00	; 0
    16bc:	30 e0       	ldi	r19, 0x00	; 0
    16be:	40 e2       	ldi	r20, 0x20	; 32
    16c0:	51 e4       	ldi	r21, 0x41	; 65
    16c2:	c7 01       	movw	r24, r14
    16c4:	b6 01       	movw	r22, r12
    16c6:	0e 94 44 30 	call	0x6088	; 0x6088 <__mulsf3>
    16ca:	0e 94 5d 2f 	call	0x5eba	; 0x5eba <__fixsfsi>
    16ce:	70 93 e0 09 	sts	0x09E0, r23	; 0x8009e0 <HIHxxxxTempInt+0x1>
    16d2:	60 93 df 09 	sts	0x09DF, r22	; 0x8009df <HIHxxxxTempInt>
    16d6:	80 91 77 08 	lds	r24, 0x0877	; 0x800877 <Mode>
    16da:	82 30       	cpi	r24, 0x02	; 2
    16dc:	09 f4       	brne	.+2      	; 0x16e0 <SensorRead+0x1a4>
    16de:	60 c4       	rjmp	.+2240   	; 0x1fa0 <SensorRead+0xa64>
    16e0:	a7 01       	movw	r20, r14
    16e2:	96 01       	movw	r18, r12
    16e4:	60 91 d9 09 	lds	r22, 0x09D9	; 0x8009d9 <HIHxxxxTempMax>
    16e8:	70 91 da 09 	lds	r23, 0x09DA	; 0x8009da <HIHxxxxTempMax+0x1>
    16ec:	80 91 db 09 	lds	r24, 0x09DB	; 0x8009db <HIHxxxxTempMax+0x2>
    16f0:	90 91 dc 09 	lds	r25, 0x09DC	; 0x8009dc <HIHxxxxTempMax+0x3>
    16f4:	0e 94 f1 2e 	call	0x5de2	; 0x5de2 <__cmpsf2>
    16f8:	87 ff       	sbrs	r24, 7
    16fa:	08 c0       	rjmp	.+16     	; 0x170c <SensorRead+0x1d0>
    16fc:	c0 92 d9 09 	sts	0x09D9, r12	; 0x8009d9 <HIHxxxxTempMax>
    1700:	d0 92 da 09 	sts	0x09DA, r13	; 0x8009da <HIHxxxxTempMax+0x1>
    1704:	e0 92 db 09 	sts	0x09DB, r14	; 0x8009db <HIHxxxxTempMax+0x2>
    1708:	f0 92 dc 09 	sts	0x09DC, r15	; 0x8009dc <HIHxxxxTempMax+0x3>
    170c:	a7 01       	movw	r20, r14
    170e:	96 01       	movw	r18, r12
    1710:	60 91 d5 09 	lds	r22, 0x09D5	; 0x8009d5 <HIHxxxxTempMin>
    1714:	70 91 d6 09 	lds	r23, 0x09D6	; 0x8009d6 <HIHxxxxTempMin+0x1>
    1718:	80 91 d7 09 	lds	r24, 0x09D7	; 0x8009d7 <HIHxxxxTempMin+0x2>
    171c:	90 91 d8 09 	lds	r25, 0x09D8	; 0x8009d8 <HIHxxxxTempMin+0x3>
    1720:	0e 94 40 30 	call	0x6080	; 0x6080 <__gesf2>
    1724:	18 16       	cp	r1, r24
    1726:	44 f4       	brge	.+16     	; 0x1738 <SensorRead+0x1fc>
    1728:	c0 92 d5 09 	sts	0x09D5, r12	; 0x8009d5 <HIHxxxxTempMin>
    172c:	d0 92 d6 09 	sts	0x09D6, r13	; 0x8009d6 <HIHxxxxTempMin+0x1>
    1730:	e0 92 d7 09 	sts	0x09D7, r14	; 0x8009d7 <HIHxxxxTempMin+0x2>
    1734:	f0 92 d8 09 	sts	0x09D8, r15	; 0x8009d8 <HIHxxxxTempMin+0x3>
    1738:	40 91 0e 09 	lds	r20, 0x090E	; 0x80090e <HIHxxxxHumidity>
    173c:	50 91 0f 09 	lds	r21, 0x090F	; 0x80090f <HIHxxxxHumidity+0x1>
    1740:	60 91 10 09 	lds	r22, 0x0910	; 0x800910 <HIHxxxxHumidity+0x2>
    1744:	70 91 11 09 	lds	r23, 0x0911	; 0x800911 <HIHxxxxHumidity+0x3>
    1748:	40 93 2d 09 	sts	0x092D, r20	; 0x80092d <HIHxxxxHumid>
    174c:	50 93 2e 09 	sts	0x092E, r21	; 0x80092e <HIHxxxxHumid+0x1>
    1750:	60 93 2f 09 	sts	0x092F, r22	; 0x80092f <HIHxxxxHumid+0x2>
    1754:	70 93 30 09 	sts	0x0930, r23	; 0x800930 <HIHxxxxHumid+0x3>
    1758:	21 e0       	ldi	r18, 0x01	; 1
    175a:	30 e0       	ldi	r19, 0x00	; 0
    175c:	8d e4       	ldi	r24, 0x4D	; 77
    175e:	99 e0       	ldi	r25, 0x09	; 9
    1760:	0e 94 04 2e 	call	0x5c08	; 0x5c08 <ftoa>
    1764:	80 91 77 08 	lds	r24, 0x0877	; 0x800877 <Mode>
    1768:	82 30       	cpi	r24, 0x02	; 2
    176a:	09 f0       	breq	.+2      	; 0x176e <SensorRead+0x232>
    176c:	78 cf       	rjmp	.-272    	; 0x165e <SensorRead+0x122>
    176e:	8c ec       	ldi	r24, 0xCC	; 204
    1770:	93 e0       	ldi	r25, 0x03	; 3
    1772:	0e 94 2d 2d 	call	0x5a5a	; 0x5a5a <uart_puts_p>
    1776:	8d e4       	ldi	r24, 0x4D	; 77
    1778:	99 e0       	ldi	r25, 0x09	; 9
    177a:	0e 94 13 2d 	call	0x5a26	; 0x5a26 <uart_puts>
    177e:	8a ec       	ldi	r24, 0xCA	; 202
    1780:	93 e0       	ldi	r25, 0x03	; 3
    1782:	0e 94 2d 2d 	call	0x5a5a	; 0x5a5a <uart_puts_p>
    1786:	6b cf       	rjmp	.-298    	; 0x165e <SensorRead+0x122>
    1788:	20 e0       	ldi	r18, 0x00	; 0
    178a:	47 e3       	ldi	r20, 0x37	; 55
    178c:	50 e0       	ldi	r21, 0x00	; 0
    178e:	68 e3       	ldi	r22, 0x38	; 56
    1790:	70 e0       	ldi	r23, 0x00	; 0
    1792:	86 e3       	ldi	r24, 0x36	; 54
    1794:	90 e0       	ldi	r25, 0x00	; 0
    1796:	1f da       	rcall	.-3010   	; 0xbd6 <ow_set_bus>
    1798:	60 e0       	ldi	r22, 0x00	; 0
    179a:	70 e0       	ldi	r23, 0x00	; 0
    179c:	81 e0       	ldi	r24, 0x01	; 1
    179e:	46 d9       	rcall	.-3444   	; 0xa2c <DS18X20_start_meas>
    17a0:	5e cf       	rjmp	.-324    	; 0x165e <SensorRead+0x122>
    17a2:	20 e0       	ldi	r18, 0x00	; 0
    17a4:	47 e3       	ldi	r20, 0x37	; 55
    17a6:	50 e0       	ldi	r21, 0x00	; 0
    17a8:	68 e3       	ldi	r22, 0x38	; 56
    17aa:	70 e0       	ldi	r23, 0x00	; 0
    17ac:	86 e3       	ldi	r24, 0x36	; 54
    17ae:	90 e0       	ldi	r25, 0x00	; 0
    17b0:	12 da       	rcall	.-3036   	; 0xbd6 <ow_set_bus>
    17b2:	80 91 38 09 	lds	r24, 0x0938	; 0x800938 <nSensors>
    17b6:	88 23       	and	r24, r24
    17b8:	09 f4       	brne	.+2      	; 0x17bc <SensorRead+0x280>
    17ba:	51 cf       	rjmp	.-350    	; 0x165e <SensorRead+0x122>
    17bc:	e1 2c       	mov	r14, r1
    17be:	f1 2c       	mov	r15, r1
    17c0:	cf 2c       	mov	r12, r15
    17c2:	d1 2c       	mov	r13, r1
    17c4:	86 01       	movw	r16, r12
    17c6:	00 0f       	add	r16, r16
    17c8:	11 1f       	adc	r17, r17
    17ca:	00 0f       	add	r16, r16
    17cc:	11 1f       	adc	r17, r17
    17ce:	00 0f       	add	r16, r16
    17d0:	11 1f       	adc	r17, r17
    17d2:	07 50       	subi	r16, 0x07	; 7
    17d4:	16 4f       	sbci	r17, 0xF6	; 246
    17d6:	9e 01       	movw	r18, r28
    17d8:	2e 5f       	subi	r18, 0xFE	; 254
    17da:	3f 4f       	sbci	r19, 0xFF	; 255
    17dc:	ae 01       	movw	r20, r28
    17de:	4d 5f       	subi	r20, 0xFD	; 253
    17e0:	5f 4f       	sbci	r21, 0xFF	; 255
    17e2:	be 01       	movw	r22, r28
    17e4:	6c 5f       	subi	r22, 0xFC	; 252
    17e6:	7f 4f       	sbci	r23, 0xFF	; 255
    17e8:	c8 01       	movw	r24, r16
    17ea:	3b d9       	rcall	.-3466   	; 0xa62 <DS18X20_read_meas>
    17ec:	81 11       	cpse	r24, r1
    17ee:	53 c1       	rjmp	.+678    	; 0x1a96 <SensorRead+0x55a>
    17f0:	80 91 77 08 	lds	r24, 0x0877	; 0x800877 <Mode>
    17f4:	82 30       	cpi	r24, 0x02	; 2
    17f6:	09 f4       	brne	.+2      	; 0x17fa <SensorRead+0x2be>
    17f8:	a1 c1       	rjmp	.+834    	; 0x1b3c <SensorRead+0x600>
    17fa:	ea 81       	ldd	r30, Y+2	; 0x02
    17fc:	f0 e0       	ldi	r31, 0x00	; 0
    17fe:	e8 52       	subi	r30, 0x28	; 40
    1800:	fc 4f       	sbci	r31, 0xFC	; 252
    1802:	84 91       	lpm	r24, Z
    1804:	89 83       	std	Y+1, r24	; 0x01
    1806:	48 e0       	ldi	r20, 0x08	; 8
    1808:	50 e0       	ldi	r21, 0x00	; 0
    180a:	65 eb       	ldi	r22, 0xB5	; 181
    180c:	79 e0       	ldi	r23, 0x09	; 9
    180e:	c8 01       	movw	r24, r16
    1810:	0e 94 ad 30 	call	0x615a	; 0x615a <memcmp>
    1814:	89 2b       	or	r24, r25
    1816:	09 f4       	brne	.+2      	; 0x181a <SensorRead+0x2de>
    1818:	41 c1       	rjmp	.+642    	; 0x1a9c <SensorRead+0x560>
    181a:	48 e0       	ldi	r20, 0x08	; 8
    181c:	50 e0       	ldi	r21, 0x00	; 0
    181e:	6b ee       	ldi	r22, 0xEB	; 235
    1820:	79 e0       	ldi	r23, 0x09	; 9
    1822:	c8 01       	movw	r24, r16
    1824:	0e 94 ad 30 	call	0x615a	; 0x615a <memcmp>
    1828:	89 2b       	or	r24, r25
    182a:	09 f4       	brne	.+2      	; 0x182e <SensorRead+0x2f2>
    182c:	5f c1       	rjmp	.+702    	; 0x1aec <SensorRead+0x5b0>
    182e:	48 e0       	ldi	r20, 0x08	; 8
    1830:	50 e0       	ldi	r21, 0x00	; 0
    1832:	6f e5       	ldi	r22, 0x5F	; 95
    1834:	79 e0       	ldi	r23, 0x09	; 9
    1836:	c8 01       	movw	r24, r16
    1838:	0e 94 ad 30 	call	0x615a	; 0x615a <memcmp>
    183c:	89 2b       	or	r24, r25
    183e:	09 f4       	brne	.+2      	; 0x1842 <SensorRead+0x306>
    1840:	5f c1       	rjmp	.+702    	; 0x1b00 <SensorRead+0x5c4>
    1842:	48 e0       	ldi	r20, 0x08	; 8
    1844:	50 e0       	ldi	r21, 0x00	; 0
    1846:	64 e4       	ldi	r22, 0x44	; 68
    1848:	79 e0       	ldi	r23, 0x09	; 9
    184a:	c8 01       	movw	r24, r16
    184c:	0e 94 ad 30 	call	0x615a	; 0x615a <memcmp>
    1850:	89 2b       	or	r24, r25
    1852:	09 f4       	brne	.+2      	; 0x1856 <SensorRead+0x31a>
    1854:	5f c1       	rjmp	.+702    	; 0x1b14 <SensorRead+0x5d8>
    1856:	48 e0       	ldi	r20, 0x08	; 8
    1858:	50 e0       	ldi	r21, 0x00	; 0
    185a:	6e e7       	ldi	r22, 0x7E	; 126
    185c:	7a e0       	ldi	r23, 0x0A	; 10
    185e:	c8 01       	movw	r24, r16
    1860:	0e 94 ad 30 	call	0x615a	; 0x615a <memcmp>
    1864:	89 2b       	or	r24, r25
    1866:	09 f4       	brne	.+2      	; 0x186a <SensorRead+0x32e>
    1868:	5f c1       	rjmp	.+702    	; 0x1b28 <SensorRead+0x5ec>
    186a:	48 e0       	ldi	r20, 0x08	; 8
    186c:	50 e0       	ldi	r21, 0x00	; 0
    186e:	62 ea       	ldi	r22, 0xA2	; 162
    1870:	79 e0       	ldi	r23, 0x09	; 9
    1872:	c8 01       	movw	r24, r16
    1874:	0e 94 ad 30 	call	0x615a	; 0x615a <memcmp>
    1878:	89 2b       	or	r24, r25
    187a:	09 f4       	brne	.+2      	; 0x187e <SensorRead+0x342>
    187c:	83 c1       	rjmp	.+774    	; 0x1b84 <SensorRead+0x648>
    187e:	48 e0       	ldi	r20, 0x08	; 8
    1880:	50 e0       	ldi	r21, 0x00	; 0
    1882:	68 ec       	ldi	r22, 0xC8	; 200
    1884:	79 e0       	ldi	r23, 0x09	; 9
    1886:	c8 01       	movw	r24, r16
    1888:	0e 94 ad 30 	call	0x615a	; 0x615a <memcmp>
    188c:	89 2b       	or	r24, r25
    188e:	09 f4       	brne	.+2      	; 0x1892 <SensorRead+0x356>
    1890:	59 c2       	rjmp	.+1202   	; 0x1d44 <SensorRead+0x808>
    1892:	48 e0       	ldi	r20, 0x08	; 8
    1894:	50 e0       	ldi	r21, 0x00	; 0
    1896:	60 e9       	ldi	r22, 0x90	; 144
    1898:	7a e0       	ldi	r23, 0x0A	; 10
    189a:	c8 01       	movw	r24, r16
    189c:	0e 94 ad 30 	call	0x615a	; 0x615a <memcmp>
    18a0:	89 2b       	or	r24, r25
    18a2:	09 f4       	brne	.+2      	; 0x18a6 <SensorRead+0x36a>
    18a4:	69 c3       	rjmp	.+1746   	; 0x1f78 <SensorRead+0xa3c>
    18a6:	48 e0       	ldi	r20, 0x08	; 8
    18a8:	50 e0       	ldi	r21, 0x00	; 0
    18aa:	61 e7       	ldi	r22, 0x71	; 113
    18ac:	79 e0       	ldi	r23, 0x09	; 9
    18ae:	c8 01       	movw	r24, r16
    18b0:	0e 94 ad 30 	call	0x615a	; 0x615a <memcmp>
    18b4:	89 2b       	or	r24, r25
    18b6:	09 f4       	brne	.+2      	; 0x18ba <SensorRead+0x37e>
    18b8:	69 c3       	rjmp	.+1746   	; 0x1f8c <SensorRead+0xa50>
    18ba:	48 e0       	ldi	r20, 0x08	; 8
    18bc:	50 e0       	ldi	r21, 0x00	; 0
    18be:	64 e8       	ldi	r22, 0x84	; 132
    18c0:	79 e0       	ldi	r23, 0x09	; 9
    18c2:	c8 01       	movw	r24, r16
    18c4:	0e 94 ad 30 	call	0x615a	; 0x615a <memcmp>
    18c8:	89 2b       	or	r24, r25
    18ca:	09 f4       	brne	.+2      	; 0x18ce <SensorRead+0x392>
    18cc:	07 c2       	rjmp	.+1038   	; 0x1cdc <SensorRead+0x7a0>
    18ce:	48 e0       	ldi	r20, 0x08	; 8
    18d0:	50 e0       	ldi	r21, 0x00	; 0
    18d2:	64 eb       	ldi	r22, 0xB4	; 180
    18d4:	7a e0       	ldi	r23, 0x0A	; 10
    18d6:	c8 01       	movw	r24, r16
    18d8:	0e 94 ad 30 	call	0x615a	; 0x615a <memcmp>
    18dc:	89 2b       	or	r24, r25
    18de:	09 f4       	brne	.+2      	; 0x18e2 <SensorRead+0x3a6>
    18e0:	74 c3       	rjmp	.+1768   	; 0x1fca <SensorRead+0xa8e>
    18e2:	48 e0       	ldi	r20, 0x08	; 8
    18e4:	50 e0       	ldi	r21, 0x00	; 0
    18e6:	65 e2       	ldi	r22, 0x25	; 37
    18e8:	79 e0       	ldi	r23, 0x09	; 9
    18ea:	c8 01       	movw	r24, r16
    18ec:	0e 94 ad 30 	call	0x615a	; 0x615a <memcmp>
    18f0:	89 2b       	or	r24, r25
    18f2:	09 f4       	brne	.+2      	; 0x18f6 <SensorRead+0x3ba>
    18f4:	74 c3       	rjmp	.+1768   	; 0x1fde <SensorRead+0xaa2>
    18f6:	48 e0       	ldi	r20, 0x08	; 8
    18f8:	50 e0       	ldi	r21, 0x00	; 0
    18fa:	62 ea       	ldi	r22, 0xA2	; 162
    18fc:	7a e0       	ldi	r23, 0x0A	; 10
    18fe:	c8 01       	movw	r24, r16
    1900:	0e 94 ad 30 	call	0x615a	; 0x615a <memcmp>
    1904:	89 2b       	or	r24, r25
    1906:	09 f4       	brne	.+2      	; 0x190a <SensorRead+0x3ce>
    1908:	74 c3       	rjmp	.+1768   	; 0x1ff2 <SensorRead+0xab6>
    190a:	ee 24       	eor	r14, r14
    190c:	e3 94       	inc	r14
    190e:	cf c0       	rjmp	.+414    	; 0x1aae <SensorRead+0x572>
    1910:	81 e0       	ldi	r24, 0x01	; 1
    1912:	80 93 6b 08 	sts	0x086B, r24	; 0x80086b <isInitialized>
    1916:	80 91 66 08 	lds	r24, 0x0866	; 0x800866 <web.2983>
    191a:	8d 33       	cpi	r24, 0x3D	; 61
    191c:	08 f4       	brcc	.+2      	; 0x1920 <SensorRead+0x3e4>
    191e:	8a ce       	rjmp	.-748    	; 0x1634 <SensorRead+0xf8>
    1920:	8e eb       	ldi	r24, 0xBE	; 190
    1922:	93 e0       	ldi	r25, 0x03	; 3
    1924:	0e 94 2d 2d 	call	0x5a5a	; 0x5a5a <uart_puts_p>
    1928:	8f ea       	ldi	r24, 0xAF	; 175
    192a:	99 e0       	ldi	r25, 0x09	; 9
    192c:	0e 94 13 2d 	call	0x5a26	; 0x5a26 <uart_puts>
    1930:	8c eb       	ldi	r24, 0xBC	; 188
    1932:	93 e0       	ldi	r25, 0x03	; 3
    1934:	0e 94 2d 2d 	call	0x5a5a	; 0x5a5a <uart_puts_p>
    1938:	83 eb       	ldi	r24, 0xB3	; 179
    193a:	99 e0       	ldi	r25, 0x09	; 9
    193c:	0e 94 13 2d 	call	0x5a26	; 0x5a26 <uart_puts>
    1940:	8a eb       	ldi	r24, 0xBA	; 186
    1942:	93 e0       	ldi	r25, 0x03	; 3
    1944:	0e 94 2d 2d 	call	0x5a5a	; 0x5a5a <uart_puts_p>
    1948:	86 eb       	ldi	r24, 0xB6	; 182
    194a:	93 e0       	ldi	r25, 0x03	; 3
    194c:	0e 94 2d 2d 	call	0x5a5a	; 0x5a5a <uart_puts_p>
    1950:	85 ee       	ldi	r24, 0xE5	; 229
    1952:	99 e0       	ldi	r25, 0x09	; 9
    1954:	0e 94 13 2d 	call	0x5a26	; 0x5a26 <uart_puts>
    1958:	84 eb       	ldi	r24, 0xB4	; 180
    195a:	93 e0       	ldi	r25, 0x03	; 3
    195c:	0e 94 2d 2d 	call	0x5a5a	; 0x5a5a <uart_puts_p>
    1960:	89 ee       	ldi	r24, 0xE9	; 233
    1962:	99 e0       	ldi	r25, 0x09	; 9
    1964:	0e 94 13 2d 	call	0x5a26	; 0x5a26 <uart_puts>
    1968:	82 eb       	ldi	r24, 0xB2	; 178
    196a:	93 e0       	ldi	r25, 0x03	; 3
    196c:	0e 94 2d 2d 	call	0x5a5a	; 0x5a5a <uart_puts_p>
    1970:	8e ea       	ldi	r24, 0xAE	; 174
    1972:	93 e0       	ldi	r25, 0x03	; 3
    1974:	0e 94 2d 2d 	call	0x5a5a	; 0x5a5a <uart_puts_p>
    1978:	89 e5       	ldi	r24, 0x59	; 89
    197a:	99 e0       	ldi	r25, 0x09	; 9
    197c:	0e 94 13 2d 	call	0x5a26	; 0x5a26 <uart_puts>
    1980:	8c ea       	ldi	r24, 0xAC	; 172
    1982:	93 e0       	ldi	r25, 0x03	; 3
    1984:	0e 94 2d 2d 	call	0x5a5a	; 0x5a5a <uart_puts_p>
    1988:	8d e5       	ldi	r24, 0x5D	; 93
    198a:	99 e0       	ldi	r25, 0x09	; 9
    198c:	0e 94 13 2d 	call	0x5a26	; 0x5a26 <uart_puts>
    1990:	8a ea       	ldi	r24, 0xAA	; 170
    1992:	93 e0       	ldi	r25, 0x03	; 3
    1994:	0e 94 2d 2d 	call	0x5a5a	; 0x5a5a <uart_puts_p>
    1998:	86 ea       	ldi	r24, 0xA6	; 166
    199a:	93 e0       	ldi	r25, 0x03	; 3
    199c:	0e 94 2d 2d 	call	0x5a5a	; 0x5a5a <uart_puts_p>
    19a0:	8e e3       	ldi	r24, 0x3E	; 62
    19a2:	99 e0       	ldi	r25, 0x09	; 9
    19a4:	0e 94 13 2d 	call	0x5a26	; 0x5a26 <uart_puts>
    19a8:	84 ea       	ldi	r24, 0xA4	; 164
    19aa:	93 e0       	ldi	r25, 0x03	; 3
    19ac:	0e 94 2d 2d 	call	0x5a5a	; 0x5a5a <uart_puts_p>
    19b0:	82 e4       	ldi	r24, 0x42	; 66
    19b2:	99 e0       	ldi	r25, 0x09	; 9
    19b4:	0e 94 13 2d 	call	0x5a26	; 0x5a26 <uart_puts>
    19b8:	82 ea       	ldi	r24, 0xA2	; 162
    19ba:	93 e0       	ldi	r25, 0x03	; 3
    19bc:	0e 94 2d 2d 	call	0x5a5a	; 0x5a5a <uart_puts_p>
    19c0:	8e e9       	ldi	r24, 0x9E	; 158
    19c2:	93 e0       	ldi	r25, 0x03	; 3
    19c4:	0e 94 2d 2d 	call	0x5a5a	; 0x5a5a <uart_puts_p>
    19c8:	88 e7       	ldi	r24, 0x78	; 120
    19ca:	9a e0       	ldi	r25, 0x0A	; 10
    19cc:	0e 94 13 2d 	call	0x5a26	; 0x5a26 <uart_puts>
    19d0:	8c e9       	ldi	r24, 0x9C	; 156
    19d2:	93 e0       	ldi	r25, 0x03	; 3
    19d4:	0e 94 2d 2d 	call	0x5a5a	; 0x5a5a <uart_puts_p>
    19d8:	8c e7       	ldi	r24, 0x7C	; 124
    19da:	9a e0       	ldi	r25, 0x0A	; 10
    19dc:	0e 94 13 2d 	call	0x5a26	; 0x5a26 <uart_puts>
    19e0:	8a e9       	ldi	r24, 0x9A	; 154
    19e2:	93 e0       	ldi	r25, 0x03	; 3
    19e4:	0e 94 2d 2d 	call	0x5a5a	; 0x5a5a <uart_puts_p>
    19e8:	20 91 68 08 	lds	r18, 0x0868	; 0x800868 <timerstate.2981>
    19ec:	80 91 66 08 	lds	r24, 0x0866	; 0x800866 <web.2983>
    19f0:	21 ce       	rjmp	.-958    	; 0x1634 <SensorRead+0xf8>
    19f2:	4c db       	rcall	.-2408   	; 0x108c <lcd_clrscr>
    19f4:	8a e3       	ldi	r24, 0x3A	; 58
    19f6:	93 e0       	ldi	r25, 0x03	; 3
    19f8:	6b db       	rcall	.-2346   	; 0x10d0 <lcd_puts_p>
    19fa:	8f ea       	ldi	r24, 0xAF	; 175
    19fc:	99 e0       	ldi	r25, 0x09	; 9
    19fe:	1b dc       	rcall	.-1994   	; 0x1236 <lcd_puts>
    1a00:	88 e3       	ldi	r24, 0x38	; 56
    1a02:	93 e0       	ldi	r25, 0x03	; 3
    1a04:	65 db       	rcall	.-2358   	; 0x10d0 <lcd_puts_p>
    1a06:	83 eb       	ldi	r24, 0xB3	; 179
    1a08:	99 e0       	ldi	r25, 0x09	; 9
    1a0a:	15 dc       	rcall	.-2006   	; 0x1236 <lcd_puts>
    1a0c:	85 e3       	ldi	r24, 0x35	; 53
    1a0e:	93 e0       	ldi	r25, 0x03	; 3
    1a10:	5f db       	rcall	.-2370   	; 0x10d0 <lcd_puts_p>
    1a12:	61 e0       	ldi	r22, 0x01	; 1
    1a14:	80 e0       	ldi	r24, 0x00	; 0
    1a16:	1a db       	rcall	.-2508   	; 0x104c <lcd_gotoxy>
    1a18:	8d e2       	ldi	r24, 0x2D	; 45
    1a1a:	93 e0       	ldi	r25, 0x03	; 3
    1a1c:	59 db       	rcall	.-2382   	; 0x10d0 <lcd_puts_p>
    1a1e:	85 ee       	ldi	r24, 0xE5	; 229
    1a20:	99 e0       	ldi	r25, 0x09	; 9
    1a22:	09 dc       	rcall	.-2030   	; 0x1236 <lcd_puts>
    1a24:	8b e2       	ldi	r24, 0x2B	; 43
    1a26:	93 e0       	ldi	r25, 0x03	; 3
    1a28:	53 db       	rcall	.-2394   	; 0x10d0 <lcd_puts_p>
    1a2a:	89 ee       	ldi	r24, 0xE9	; 233
    1a2c:	99 e0       	ldi	r25, 0x09	; 9
    1a2e:	03 dc       	rcall	.-2042   	; 0x1236 <lcd_puts>
    1a30:	88 e2       	ldi	r24, 0x28	; 40
    1a32:	93 e0       	ldi	r25, 0x03	; 3
    1a34:	4d db       	rcall	.-2406   	; 0x10d0 <lcd_puts_p>
    1a36:	62 e0       	ldi	r22, 0x02	; 2
    1a38:	80 e0       	ldi	r24, 0x00	; 0
    1a3a:	08 db       	rcall	.-2544   	; 0x104c <lcd_gotoxy>
    1a3c:	80 e2       	ldi	r24, 0x20	; 32
    1a3e:	93 e0       	ldi	r25, 0x03	; 3
    1a40:	5b dc       	rcall	.-1866   	; 0x12f8 <lcd_puts_hu>
    1a42:	89 e5       	ldi	r24, 0x59	; 89
    1a44:	99 e0       	ldi	r25, 0x09	; 9
    1a46:	f7 db       	rcall	.-2066   	; 0x1236 <lcd_puts>
    1a48:	8e e1       	ldi	r24, 0x1E	; 30
    1a4a:	93 e0       	ldi	r25, 0x03	; 3
    1a4c:	41 db       	rcall	.-2430   	; 0x10d0 <lcd_puts_p>
    1a4e:	8d e5       	ldi	r24, 0x5D	; 93
    1a50:	99 e0       	ldi	r25, 0x09	; 9
    1a52:	f1 db       	rcall	.-2078   	; 0x1236 <lcd_puts>
    1a54:	8b e1       	ldi	r24, 0x1B	; 27
    1a56:	93 e0       	ldi	r25, 0x03	; 3
    1a58:	3b db       	rcall	.-2442   	; 0x10d0 <lcd_puts_p>
    1a5a:	63 e0       	ldi	r22, 0x03	; 3
    1a5c:	80 e0       	ldi	r24, 0x00	; 0
    1a5e:	f6 da       	rcall	.-2580   	; 0x104c <lcd_gotoxy>
    1a60:	86 e1       	ldi	r24, 0x16	; 22
    1a62:	93 e0       	ldi	r25, 0x03	; 3
    1a64:	49 dc       	rcall	.-1902   	; 0x12f8 <lcd_puts_hu>
    1a66:	8c e8       	ldi	r24, 0x8C	; 140
    1a68:	99 e0       	ldi	r25, 0x09	; 9
    1a6a:	e5 db       	rcall	.-2102   	; 0x1236 <lcd_puts>
    1a6c:	83 e1       	ldi	r24, 0x13	; 19
    1a6e:	93 e0       	ldi	r25, 0x03	; 3
    1a70:	2f db       	rcall	.-2466   	; 0x10d0 <lcd_puts_p>
    1a72:	8f e0       	ldi	r24, 0x0F	; 15
    1a74:	93 e0       	ldi	r25, 0x03	; 3
    1a76:	40 dc       	rcall	.-1920   	; 0x12f8 <lcd_puts_hu>
    1a78:	8c e9       	ldi	r24, 0x9C	; 156
    1a7a:	9a e0       	ldi	r25, 0x0A	; 10
    1a7c:	dc db       	rcall	.-2120   	; 0x1236 <lcd_puts>
    1a7e:	8d e0       	ldi	r24, 0x0D	; 13
    1a80:	93 e0       	ldi	r25, 0x03	; 3
    1a82:	26 db       	rcall	.-2484   	; 0x10d0 <lcd_puts_p>
    1a84:	80 ea       	ldi	r24, 0xA0	; 160
    1a86:	9a e0       	ldi	r25, 0x0A	; 10
    1a88:	d6 db       	rcall	.-2132   	; 0x1236 <lcd_puts>
    1a8a:	8a e0       	ldi	r24, 0x0A	; 10
    1a8c:	93 e0       	ldi	r25, 0x03	; 3
    1a8e:	20 db       	rcall	.-2496   	; 0x10d0 <lcd_puts_p>
    1a90:	80 91 00 01 	lds	r24, 0x0100	; 0x800100 <__DATA_REGION_ORIGIN__>
    1a94:	88 cd       	rjmp	.-1264   	; 0x15a6 <SensorRead+0x6a>
    1a96:	ee 24       	eor	r14, r14
    1a98:	e3 94       	inc	r14
    1a9a:	af ce       	rjmp	.-674    	; 0x17fa <SensorRead+0x2be>
    1a9c:	ae 01       	movw	r20, r28
    1a9e:	4f 5f       	subi	r20, 0xFF	; 255
    1aa0:	5f 4f       	sbci	r21, 0xFF	; 255
    1aa2:	be 01       	movw	r22, r28
    1aa4:	6d 5f       	subi	r22, 0xFD	; 253
    1aa6:	7f 4f       	sbci	r23, 0xFF	; 255
    1aa8:	8b ea       	ldi	r24, 0xAB	; 171
    1aaa:	99 e0       	ldi	r25, 0x09	; 9
    1aac:	94 dc       	rcall	.-1752   	; 0x13d6 <TempToVariable>
    1aae:	f3 94       	inc	r15
    1ab0:	80 91 38 09 	lds	r24, 0x0938	; 0x800938 <nSensors>
    1ab4:	f8 16       	cp	r15, r24
    1ab6:	08 f4       	brcc	.+2      	; 0x1aba <SensorRead+0x57e>
    1ab8:	83 ce       	rjmp	.-762    	; 0x17c0 <SensorRead+0x284>
    1aba:	80 91 68 08 	lds	r24, 0x0868	; 0x800868 <timerstate.2981>
    1abe:	8f 5f       	subi	r24, 0xFF	; 255
    1ac0:	80 93 68 08 	sts	0x0868, r24	; 0x800868 <timerstate.2981>
    1ac4:	80 91 66 08 	lds	r24, 0x0866	; 0x800866 <web.2983>
    1ac8:	8f 5f       	subi	r24, 0xFF	; 255
    1aca:	80 93 66 08 	sts	0x0866, r24	; 0x800866 <web.2983>
    1ace:	ee 20       	and	r14, r14
    1ad0:	09 f4       	brne	.+2      	; 0x1ad4 <SensorRead+0x598>
    1ad2:	57 cd       	rjmp	.-1362   	; 0x1582 <SensorRead+0x46>
    1ad4:	20 e0       	ldi	r18, 0x00	; 0
    1ad6:	47 e3       	ldi	r20, 0x37	; 55
    1ad8:	50 e0       	ldi	r21, 0x00	; 0
    1ada:	68 e3       	ldi	r22, 0x38	; 56
    1adc:	70 e0       	ldi	r23, 0x00	; 0
    1ade:	86 e3       	ldi	r24, 0x36	; 54
    1ae0:	90 e0       	ldi	r25, 0x00	; 0
    1ae2:	79 d8       	rcall	.-3854   	; 0xbd6 <ow_set_bus>
    1ae4:	a2 dc       	rcall	.-1724   	; 0x142a <search_sensors>
    1ae6:	80 93 38 09 	sts	0x0938, r24	; 0x800938 <nSensors>
    1aea:	4b cd       	rjmp	.-1386   	; 0x1582 <SensorRead+0x46>
    1aec:	ae 01       	movw	r20, r28
    1aee:	4f 5f       	subi	r20, 0xFF	; 255
    1af0:	5f 4f       	sbci	r21, 0xFF	; 255
    1af2:	be 01       	movw	r22, r28
    1af4:	6d 5f       	subi	r22, 0xFD	; 253
    1af6:	7f 4f       	sbci	r23, 0xFF	; 255
    1af8:	81 ee       	ldi	r24, 0xE1	; 225
    1afa:	99 e0       	ldi	r25, 0x09	; 9
    1afc:	6c dc       	rcall	.-1832   	; 0x13d6 <TempToVariable>
    1afe:	d7 cf       	rjmp	.-82     	; 0x1aae <SensorRead+0x572>
    1b00:	ae 01       	movw	r20, r28
    1b02:	4f 5f       	subi	r20, 0xFF	; 255
    1b04:	5f 4f       	sbci	r21, 0xFF	; 255
    1b06:	be 01       	movw	r22, r28
    1b08:	6d 5f       	subi	r22, 0xFD	; 253
    1b0a:	7f 4f       	sbci	r23, 0xFF	; 255
    1b0c:	85 e5       	ldi	r24, 0x55	; 85
    1b0e:	99 e0       	ldi	r25, 0x09	; 9
    1b10:	62 dc       	rcall	.-1852   	; 0x13d6 <TempToVariable>
    1b12:	cd cf       	rjmp	.-102    	; 0x1aae <SensorRead+0x572>
    1b14:	ae 01       	movw	r20, r28
    1b16:	4f 5f       	subi	r20, 0xFF	; 255
    1b18:	5f 4f       	sbci	r21, 0xFF	; 255
    1b1a:	be 01       	movw	r22, r28
    1b1c:	6d 5f       	subi	r22, 0xFD	; 253
    1b1e:	7f 4f       	sbci	r23, 0xFF	; 255
    1b20:	8a e3       	ldi	r24, 0x3A	; 58
    1b22:	99 e0       	ldi	r25, 0x09	; 9
    1b24:	58 dc       	rcall	.-1872   	; 0x13d6 <TempToVariable>
    1b26:	c3 cf       	rjmp	.-122    	; 0x1aae <SensorRead+0x572>
    1b28:	ae 01       	movw	r20, r28
    1b2a:	4f 5f       	subi	r20, 0xFF	; 255
    1b2c:	5f 4f       	sbci	r21, 0xFF	; 255
    1b2e:	be 01       	movw	r22, r28
    1b30:	6d 5f       	subi	r22, 0xFD	; 253
    1b32:	7f 4f       	sbci	r23, 0xFF	; 255
    1b34:	84 e7       	ldi	r24, 0x74	; 116
    1b36:	9a e0       	ldi	r25, 0x0A	; 10
    1b38:	4e dc       	rcall	.-1892   	; 0x13d6 <TempToVariable>
    1b3a:	b9 cf       	rjmp	.-142    	; 0x1aae <SensorRead+0x572>
    1b3c:	88 ec       	ldi	r24, 0xC8	; 200
    1b3e:	93 e0       	ldi	r25, 0x03	; 3
    1b40:	0e 94 2d 2d 	call	0x5a5a	; 0x5a5a <uart_puts_p>
    1b44:	c6 01       	movw	r24, r12
    1b46:	0e 94 d3 2d 	call	0x5ba6	; 0x5ba6 <uart_puti>
    1b4a:	86 ec       	ldi	r24, 0xC6	; 198
    1b4c:	93 e0       	ldi	r25, 0x03	; 3
    1b4e:	0e 94 2d 2d 	call	0x5a5a	; 0x5a5a <uart_puts_p>
    1b52:	8c 81       	ldd	r24, Y+4	; 0x04
    1b54:	90 e0       	ldi	r25, 0x00	; 0
    1b56:	0e 94 d3 2d 	call	0x5ba6	; 0x5ba6 <uart_puti>
    1b5a:	8b 81       	ldd	r24, Y+3	; 0x03
    1b5c:	90 e0       	ldi	r25, 0x00	; 0
    1b5e:	0e 94 d3 2d 	call	0x5ba6	; 0x5ba6 <uart_puti>
    1b62:	84 ec       	ldi	r24, 0xC4	; 196
    1b64:	93 e0       	ldi	r25, 0x03	; 3
    1b66:	0e 94 2d 2d 	call	0x5a5a	; 0x5a5a <uart_puts_p>
    1b6a:	ea 81       	ldd	r30, Y+2	; 0x02
    1b6c:	f0 e0       	ldi	r31, 0x00	; 0
    1b6e:	e8 52       	subi	r30, 0x28	; 40
    1b70:	fc 4f       	sbci	r31, 0xFC	; 252
    1b72:	84 91       	lpm	r24, Z
    1b74:	90 e0       	ldi	r25, 0x00	; 0
    1b76:	0e 94 d3 2d 	call	0x5ba6	; 0x5ba6 <uart_puti>
    1b7a:	82 ec       	ldi	r24, 0xC2	; 194
    1b7c:	93 e0       	ldi	r25, 0x03	; 3
    1b7e:	0e 94 2d 2d 	call	0x5a5a	; 0x5a5a <uart_puts_p>
    1b82:	3b ce       	rjmp	.-906    	; 0x17fa <SensorRead+0x2be>
    1b84:	ae 01       	movw	r20, r28
    1b86:	4f 5f       	subi	r20, 0xFF	; 255
    1b88:	5f 4f       	sbci	r21, 0xFF	; 255
    1b8a:	be 01       	movw	r22, r28
    1b8c:	6d 5f       	subi	r22, 0xFD	; 253
    1b8e:	7f 4f       	sbci	r23, 0xFF	; 255
    1b90:	88 e9       	ldi	r24, 0x98	; 152
    1b92:	99 e0       	ldi	r25, 0x09	; 9
    1b94:	20 dc       	rcall	.-1984   	; 0x13d6 <TempToVariable>
    1b96:	8b cf       	rjmp	.-234    	; 0x1aae <SensorRead+0x572>
    1b98:	79 da       	rcall	.-2830   	; 0x108c <lcd_clrscr>
    1b9a:	82 e0       	ldi	r24, 0x02	; 2
    1b9c:	93 e0       	ldi	r25, 0x03	; 3
    1b9e:	ac db       	rcall	.-2216   	; 0x12f8 <lcd_puts_hu>
    1ba0:	8e e3       	ldi	r24, 0x3E	; 62
    1ba2:	99 e0       	ldi	r25, 0x09	; 9
    1ba4:	48 db       	rcall	.-2416   	; 0x1236 <lcd_puts>
    1ba6:	80 e0       	ldi	r24, 0x00	; 0
    1ba8:	93 e0       	ldi	r25, 0x03	; 3
    1baa:	92 da       	rcall	.-2780   	; 0x10d0 <lcd_puts_p>
    1bac:	82 e4       	ldi	r24, 0x42	; 66
    1bae:	99 e0       	ldi	r25, 0x09	; 9
    1bb0:	42 db       	rcall	.-2428   	; 0x1236 <lcd_puts>
    1bb2:	8d ef       	ldi	r24, 0xFD	; 253
    1bb4:	92 e0       	ldi	r25, 0x02	; 2
    1bb6:	8c da       	rcall	.-2792   	; 0x10d0 <lcd_puts_p>
    1bb8:	61 e0       	ldi	r22, 0x01	; 1
    1bba:	80 e0       	ldi	r24, 0x00	; 0
    1bbc:	47 da       	rcall	.-2930   	; 0x104c <lcd_gotoxy>
    1bbe:	84 ef       	ldi	r24, 0xF4	; 244
    1bc0:	92 e0       	ldi	r25, 0x02	; 2
    1bc2:	86 da       	rcall	.-2804   	; 0x10d0 <lcd_puts_p>
    1bc4:	88 e7       	ldi	r24, 0x78	; 120
    1bc6:	9a e0       	ldi	r25, 0x0A	; 10
    1bc8:	36 db       	rcall	.-2452   	; 0x1236 <lcd_puts>
    1bca:	82 ef       	ldi	r24, 0xF2	; 242
    1bcc:	92 e0       	ldi	r25, 0x02	; 2
    1bce:	80 da       	rcall	.-2816   	; 0x10d0 <lcd_puts_p>
    1bd0:	8c e7       	ldi	r24, 0x7C	; 124
    1bd2:	9a e0       	ldi	r25, 0x0A	; 10
    1bd4:	30 db       	rcall	.-2464   	; 0x1236 <lcd_puts>
    1bd6:	8f ee       	ldi	r24, 0xEF	; 239
    1bd8:	92 e0       	ldi	r25, 0x02	; 2
    1bda:	7a da       	rcall	.-2828   	; 0x10d0 <lcd_puts_p>
    1bdc:	62 e0       	ldi	r22, 0x02	; 2
    1bde:	80 e0       	ldi	r24, 0x00	; 0
    1be0:	35 da       	rcall	.-2966   	; 0x104c <lcd_gotoxy>
    1be2:	88 ee       	ldi	r24, 0xE8	; 232
    1be4:	92 e0       	ldi	r25, 0x02	; 2
    1be6:	88 db       	rcall	.-2288   	; 0x12f8 <lcd_puts_hu>
    1be8:	8c e9       	ldi	r24, 0x9C	; 156
    1bea:	99 e0       	ldi	r25, 0x09	; 9
    1bec:	24 db       	rcall	.-2488   	; 0x1236 <lcd_puts>
    1bee:	86 ee       	ldi	r24, 0xE6	; 230
    1bf0:	92 e0       	ldi	r25, 0x02	; 2
    1bf2:	6e da       	rcall	.-2852   	; 0x10d0 <lcd_puts_p>
    1bf4:	80 ea       	ldi	r24, 0xA0	; 160
    1bf6:	99 e0       	ldi	r25, 0x09	; 9
    1bf8:	1e db       	rcall	.-2500   	; 0x1236 <lcd_puts>
    1bfa:	83 ee       	ldi	r24, 0xE3	; 227
    1bfc:	92 e0       	ldi	r25, 0x02	; 2
    1bfe:	68 da       	rcall	.-2864   	; 0x10d0 <lcd_puts_p>
    1c00:	63 e0       	ldi	r22, 0x03	; 3
    1c02:	80 e0       	ldi	r24, 0x00	; 0
    1c04:	23 da       	rcall	.-3002   	; 0x104c <lcd_gotoxy>
    1c06:	8b ed       	ldi	r24, 0xDB	; 219
    1c08:	92 e0       	ldi	r25, 0x02	; 2
    1c0a:	76 db       	rcall	.-2324   	; 0x12f8 <lcd_puts_hu>
    1c0c:	8f e1       	ldi	r24, 0x1F	; 31
    1c0e:	99 e0       	ldi	r25, 0x09	; 9
    1c10:	12 db       	rcall	.-2524   	; 0x1236 <lcd_puts>
    1c12:	89 ed       	ldi	r24, 0xD9	; 217
    1c14:	92 e0       	ldi	r25, 0x02	; 2
    1c16:	5c da       	rcall	.-2888   	; 0x10d0 <lcd_puts_p>
    1c18:	83 e2       	ldi	r24, 0x23	; 35
    1c1a:	99 e0       	ldi	r25, 0x09	; 9
    1c1c:	0c db       	rcall	.-2536   	; 0x1236 <lcd_puts>
    1c1e:	86 ed       	ldi	r24, 0xD6	; 214
    1c20:	92 e0       	ldi	r25, 0x02	; 2
    1c22:	56 da       	rcall	.-2900   	; 0x10d0 <lcd_puts_p>
    1c24:	80 91 00 01 	lds	r24, 0x0100	; 0x800100 <__DATA_REGION_ORIGIN__>
    1c28:	be cc       	rjmp	.-1668   	; 0x15a6 <SensorRead+0x6a>
    1c2a:	30 da       	rcall	.-2976   	; 0x108c <lcd_clrscr>
    1c2c:	8b ec       	ldi	r24, 0xCB	; 203
    1c2e:	92 e0       	ldi	r25, 0x02	; 2
    1c30:	63 db       	rcall	.-2362   	; 0x12f8 <lcd_puts_hu>
    1c32:	82 ec       	ldi	r24, 0xC2	; 194
    1c34:	99 e0       	ldi	r25, 0x09	; 9
    1c36:	ff da       	rcall	.-2562   	; 0x1236 <lcd_puts>
    1c38:	89 ec       	ldi	r24, 0xC9	; 201
    1c3a:	92 e0       	ldi	r25, 0x02	; 2
    1c3c:	49 da       	rcall	.-2926   	; 0x10d0 <lcd_puts_p>
    1c3e:	86 ec       	ldi	r24, 0xC6	; 198
    1c40:	99 e0       	ldi	r25, 0x09	; 9
    1c42:	f9 da       	rcall	.-2574   	; 0x1236 <lcd_puts>
    1c44:	86 ec       	ldi	r24, 0xC6	; 198
    1c46:	92 e0       	ldi	r25, 0x02	; 2
    1c48:	43 da       	rcall	.-2938   	; 0x10d0 <lcd_puts_p>
    1c4a:	61 e0       	ldi	r22, 0x01	; 1
    1c4c:	80 e0       	ldi	r24, 0x00	; 0
    1c4e:	fe d9       	rcall	.-3076   	; 0x104c <lcd_gotoxy>
    1c50:	8a eb       	ldi	r24, 0xBA	; 186
    1c52:	92 e0       	ldi	r25, 0x02	; 2
    1c54:	51 db       	rcall	.-2398   	; 0x12f8 <lcd_puts_hu>
    1c56:	8a e8       	ldi	r24, 0x8A	; 138
    1c58:	9a e0       	ldi	r25, 0x0A	; 10
    1c5a:	ed da       	rcall	.-2598   	; 0x1236 <lcd_puts>
    1c5c:	88 eb       	ldi	r24, 0xB8	; 184
    1c5e:	92 e0       	ldi	r25, 0x02	; 2
    1c60:	37 da       	rcall	.-2962   	; 0x10d0 <lcd_puts_p>
    1c62:	8e e8       	ldi	r24, 0x8E	; 142
    1c64:	9a e0       	ldi	r25, 0x0A	; 10
    1c66:	e7 da       	rcall	.-2610   	; 0x1236 <lcd_puts>
    1c68:	85 eb       	ldi	r24, 0xB5	; 181
    1c6a:	92 e0       	ldi	r25, 0x02	; 2
    1c6c:	31 da       	rcall	.-2974   	; 0x10d0 <lcd_puts_p>
    1c6e:	62 e0       	ldi	r22, 0x02	; 2
    1c70:	80 e0       	ldi	r24, 0x00	; 0
    1c72:	ec d9       	rcall	.-3112   	; 0x104c <lcd_gotoxy>
    1c74:	80 91 6f 08 	lds	r24, 0x086F	; 0x80086f <Hour>
    1c78:	90 e0       	ldi	r25, 0x00	; 0
    1c7a:	ec da       	rcall	.-2600   	; 0x1254 <lcd_puti>
    1c7c:	83 eb       	ldi	r24, 0xB3	; 179
    1c7e:	92 e0       	ldi	r25, 0x02	; 2
    1c80:	27 da       	rcall	.-2994   	; 0x10d0 <lcd_puts_p>
    1c82:	80 91 6e 08 	lds	r24, 0x086E	; 0x80086e <Minute>
    1c86:	90 e0       	ldi	r25, 0x00	; 0
    1c88:	e5 da       	rcall	.-2614   	; 0x1254 <lcd_puti>
    1c8a:	63 e0       	ldi	r22, 0x03	; 3
    1c8c:	80 e0       	ldi	r24, 0x00	; 0
    1c8e:	de d9       	rcall	.-3140   	; 0x104c <lcd_gotoxy>
    1c90:	80 91 04 01 	lds	r24, 0x0104	; 0x800104 <Year>
    1c94:	90 91 05 01 	lds	r25, 0x0105	; 0x800105 <Year+0x1>
    1c98:	dd da       	rcall	.-2630   	; 0x1254 <lcd_puti>
    1c9a:	81 eb       	ldi	r24, 0xB1	; 177
    1c9c:	92 e0       	ldi	r25, 0x02	; 2
    1c9e:	18 da       	rcall	.-3024   	; 0x10d0 <lcd_puts_p>
    1ca0:	80 91 03 01 	lds	r24, 0x0103	; 0x800103 <Month>
    1ca4:	90 e0       	ldi	r25, 0x00	; 0
    1ca6:	d6 da       	rcall	.-2644   	; 0x1254 <lcd_puti>
    1ca8:	8f ea       	ldi	r24, 0xAF	; 175
    1caa:	92 e0       	ldi	r25, 0x02	; 2
    1cac:	11 da       	rcall	.-3038   	; 0x10d0 <lcd_puts_p>
    1cae:	80 91 02 01 	lds	r24, 0x0102	; 0x800102 <Day>
    1cb2:	90 e0       	ldi	r25, 0x00	; 0
    1cb4:	cf da       	rcall	.-2658   	; 0x1254 <lcd_puti>
    1cb6:	63 e0       	ldi	r22, 0x03	; 3
    1cb8:	8c e0       	ldi	r24, 0x0C	; 12
    1cba:	c8 d9       	rcall	.-3184   	; 0x104c <lcd_gotoxy>
    1cbc:	e0 91 01 01 	lds	r30, 0x0101	; 0x800101 <DayName>
    1cc0:	8e 2f       	mov	r24, r30
    1cc2:	90 e0       	ldi	r25, 0x00	; 0
    1cc4:	fc 01       	movw	r30, r24
    1cc6:	31 97       	sbiw	r30, 0x01	; 1
    1cc8:	e7 30       	cpi	r30, 0x07	; 7
    1cca:	f1 05       	cpc	r31, r1
    1ccc:	18 f0       	brcs	.+6      	; 0x1cd4 <SensorRead+0x798>
    1cce:	80 91 00 01 	lds	r24, 0x0100	; 0x800100 <__DATA_REGION_ORIGIN__>
    1cd2:	69 cc       	rjmp	.-1838   	; 0x15a6 <SensorRead+0x6a>
    1cd4:	e7 57       	subi	r30, 0x77	; 119
    1cd6:	ff 4f       	sbci	r31, 0xFF	; 255
    1cd8:	0c 94 a7 30 	jmp	0x614e	; 0x614e <__tablejump2__>
    1cdc:	ae 01       	movw	r20, r28
    1cde:	4f 5f       	subi	r20, 0xFF	; 255
    1ce0:	5f 4f       	sbci	r21, 0xFF	; 255
    1ce2:	be 01       	movw	r22, r28
    1ce4:	6d 5f       	subi	r22, 0xFD	; 253
    1ce6:	7f 4f       	sbci	r23, 0xFF	; 255
    1ce8:	8a e7       	ldi	r24, 0x7A	; 122
    1cea:	99 e0       	ldi	r25, 0x09	; 9
    1cec:	74 db       	rcall	.-2328   	; 0x13d6 <TempToVariable>
    1cee:	df ce       	rjmp	.-578    	; 0x1aae <SensorRead+0x572>
    1cf0:	89 e8       	ldi	r24, 0x89	; 137
    1cf2:	92 e0       	ldi	r25, 0x02	; 2
    1cf4:	01 db       	rcall	.-2558   	; 0x12f8 <lcd_puts_hu>
    1cf6:	80 91 00 01 	lds	r24, 0x0100	; 0x800100 <__DATA_REGION_ORIGIN__>
    1cfa:	55 cc       	rjmp	.-1878   	; 0x15a6 <SensorRead+0x6a>
    1cfc:	81 e9       	ldi	r24, 0x91	; 145
    1cfe:	92 e0       	ldi	r25, 0x02	; 2
    1d00:	fb da       	rcall	.-2570   	; 0x12f8 <lcd_puts_hu>
    1d02:	80 91 00 01 	lds	r24, 0x0100	; 0x800100 <__DATA_REGION_ORIGIN__>
    1d06:	4f cc       	rjmp	.-1890   	; 0x15a6 <SensorRead+0x6a>
    1d08:	88 e9       	ldi	r24, 0x98	; 152
    1d0a:	92 e0       	ldi	r25, 0x02	; 2
    1d0c:	f5 da       	rcall	.-2582   	; 0x12f8 <lcd_puts_hu>
    1d0e:	80 91 00 01 	lds	r24, 0x0100	; 0x800100 <__DATA_REGION_ORIGIN__>
    1d12:	49 cc       	rjmp	.-1902   	; 0x15a6 <SensorRead+0x6a>
    1d14:	8d e9       	ldi	r24, 0x9D	; 157
    1d16:	92 e0       	ldi	r25, 0x02	; 2
    1d18:	ef da       	rcall	.-2594   	; 0x12f8 <lcd_puts_hu>
    1d1a:	80 91 00 01 	lds	r24, 0x0100	; 0x800100 <__DATA_REGION_ORIGIN__>
    1d1e:	43 cc       	rjmp	.-1914   	; 0x15a6 <SensorRead+0x6a>
    1d20:	84 ea       	ldi	r24, 0xA4	; 164
    1d22:	92 e0       	ldi	r25, 0x02	; 2
    1d24:	e9 da       	rcall	.-2606   	; 0x12f8 <lcd_puts_hu>
    1d26:	80 91 00 01 	lds	r24, 0x0100	; 0x800100 <__DATA_REGION_ORIGIN__>
    1d2a:	3d cc       	rjmp	.-1926   	; 0x15a6 <SensorRead+0x6a>
    1d2c:	89 ea       	ldi	r24, 0xA9	; 169
    1d2e:	92 e0       	ldi	r25, 0x02	; 2
    1d30:	e3 da       	rcall	.-2618   	; 0x12f8 <lcd_puts_hu>
    1d32:	80 91 00 01 	lds	r24, 0x0100	; 0x800100 <__DATA_REGION_ORIGIN__>
    1d36:	37 cc       	rjmp	.-1938   	; 0x15a6 <SensorRead+0x6a>
    1d38:	80 e8       	ldi	r24, 0x80	; 128
    1d3a:	92 e0       	ldi	r25, 0x02	; 2
    1d3c:	dd da       	rcall	.-2630   	; 0x12f8 <lcd_puts_hu>
    1d3e:	80 91 00 01 	lds	r24, 0x0100	; 0x800100 <__DATA_REGION_ORIGIN__>
    1d42:	31 cc       	rjmp	.-1950   	; 0x15a6 <SensorRead+0x6a>
    1d44:	ae 01       	movw	r20, r28
    1d46:	4f 5f       	subi	r20, 0xFF	; 255
    1d48:	5f 4f       	sbci	r21, 0xFF	; 255
    1d4a:	be 01       	movw	r22, r28
    1d4c:	6d 5f       	subi	r22, 0xFD	; 253
    1d4e:	7f 4f       	sbci	r23, 0xFF	; 255
    1d50:	8e eb       	ldi	r24, 0xBE	; 190
    1d52:	99 e0       	ldi	r25, 0x09	; 9
    1d54:	40 db       	rcall	.-2432   	; 0x13d6 <TempToVariable>
    1d56:	ab ce       	rjmp	.-682    	; 0x1aae <SensorRead+0x572>
    1d58:	99 d9       	rcall	.-3278   	; 0x108c <lcd_clrscr>
    1d5a:	88 e7       	ldi	r24, 0x78	; 120
    1d5c:	92 e0       	ldi	r25, 0x02	; 2
    1d5e:	b8 d9       	rcall	.-3216   	; 0x10d0 <lcd_puts_p>
    1d60:	60 e0       	ldi	r22, 0x00	; 0
    1d62:	80 91 70 08 	lds	r24, 0x0870	; 0x800870 <Relays>
    1d66:	38 da       	rcall	.-2960   	; 0x11d8 <lcd_putbit>
    1d68:	61 e0       	ldi	r22, 0x01	; 1
    1d6a:	80 e0       	ldi	r24, 0x00	; 0
    1d6c:	6f d9       	rcall	.-3362   	; 0x104c <lcd_gotoxy>
    1d6e:	8e e6       	ldi	r24, 0x6E	; 110
    1d70:	92 e0       	ldi	r25, 0x02	; 2
    1d72:	c2 da       	rcall	.-2684   	; 0x12f8 <lcd_puts_hu>
    1d74:	61 e0       	ldi	r22, 0x01	; 1
    1d76:	80 91 70 08 	lds	r24, 0x0870	; 0x800870 <Relays>
    1d7a:	2e da       	rcall	.-2980   	; 0x11d8 <lcd_putbit>
    1d7c:	8a e6       	ldi	r24, 0x6A	; 106
    1d7e:	92 e0       	ldi	r25, 0x02	; 2
    1d80:	a7 d9       	rcall	.-3250   	; 0x10d0 <lcd_puts_p>
    1d82:	80 91 67 08 	lds	r24, 0x0867	; 0x800867 <relmodlevel.2984>
    1d86:	90 e0       	ldi	r25, 0x00	; 0
    1d88:	65 da       	rcall	.-2870   	; 0x1254 <lcd_puti>
    1d8a:	62 e0       	ldi	r22, 0x02	; 2
    1d8c:	80 e0       	ldi	r24, 0x00	; 0
    1d8e:	5e d9       	rcall	.-3396   	; 0x104c <lcd_gotoxy>
    1d90:	8d e5       	ldi	r24, 0x5D	; 93
    1d92:	92 e0       	ldi	r25, 0x02	; 2
    1d94:	9d d9       	rcall	.-3270   	; 0x10d0 <lcd_puts_p>
    1d96:	65 e0       	ldi	r22, 0x05	; 5
    1d98:	80 91 70 08 	lds	r24, 0x0870	; 0x800870 <Relays>
    1d9c:	1d da       	rcall	.-3014   	; 0x11d8 <lcd_putbit>
    1d9e:	64 e0       	ldi	r22, 0x04	; 4
    1da0:	80 91 70 08 	lds	r24, 0x0870	; 0x800870 <Relays>
    1da4:	19 da       	rcall	.-3022   	; 0x11d8 <lcd_putbit>
    1da6:	88 e5       	ldi	r24, 0x58	; 88
    1da8:	92 e0       	ldi	r25, 0x02	; 2
    1daa:	92 d9       	rcall	.-3292   	; 0x10d0 <lcd_puts_p>
    1dac:	63 e0       	ldi	r22, 0x03	; 3
    1dae:	80 91 70 08 	lds	r24, 0x0870	; 0x800870 <Relays>
    1db2:	12 da       	rcall	.-3036   	; 0x11d8 <lcd_putbit>
    1db4:	63 e0       	ldi	r22, 0x03	; 3
    1db6:	80 e0       	ldi	r24, 0x00	; 0
    1db8:	49 d9       	rcall	.-3438   	; 0x104c <lcd_gotoxy>
    1dba:	8d e4       	ldi	r24, 0x4D	; 77
    1dbc:	92 e0       	ldi	r25, 0x02	; 2
    1dbe:	9c da       	rcall	.-2760   	; 0x12f8 <lcd_puts_hu>
    1dc0:	67 e0       	ldi	r22, 0x07	; 7
    1dc2:	80 91 70 08 	lds	r24, 0x0870	; 0x800870 <Relays>
    1dc6:	08 da       	rcall	.-3056   	; 0x11d8 <lcd_putbit>
    1dc8:	66 e0       	ldi	r22, 0x06	; 6
    1dca:	80 91 70 08 	lds	r24, 0x0870	; 0x800870 <Relays>
    1dce:	04 da       	rcall	.-3064   	; 0x11d8 <lcd_putbit>
    1dd0:	7e cf       	rjmp	.-260    	; 0x1cce <SensorRead+0x792>
    1dd2:	86 e9       	ldi	r24, 0x96	; 150
    1dd4:	93 e0       	ldi	r25, 0x03	; 3
    1dd6:	0e 94 2d 2d 	call	0x5a5a	; 0x5a5a <uart_puts_p>
    1dda:	8c e9       	ldi	r24, 0x9C	; 156
    1ddc:	99 e0       	ldi	r25, 0x09	; 9
    1dde:	0e 94 13 2d 	call	0x5a26	; 0x5a26 <uart_puts>
    1de2:	84 e9       	ldi	r24, 0x94	; 148
    1de4:	93 e0       	ldi	r25, 0x03	; 3
    1de6:	0e 94 2d 2d 	call	0x5a5a	; 0x5a5a <uart_puts_p>
    1dea:	80 ea       	ldi	r24, 0xA0	; 160
    1dec:	99 e0       	ldi	r25, 0x09	; 9
    1dee:	0e 94 13 2d 	call	0x5a26	; 0x5a26 <uart_puts>
    1df2:	82 e9       	ldi	r24, 0x92	; 146
    1df4:	93 e0       	ldi	r25, 0x03	; 3
    1df6:	0e 94 2d 2d 	call	0x5a5a	; 0x5a5a <uart_puts_p>
    1dfa:	8e e8       	ldi	r24, 0x8E	; 142
    1dfc:	93 e0       	ldi	r25, 0x03	; 3
    1dfe:	0e 94 2d 2d 	call	0x5a5a	; 0x5a5a <uart_puts_p>
    1e02:	82 ec       	ldi	r24, 0xC2	; 194
    1e04:	99 e0       	ldi	r25, 0x09	; 9
    1e06:	0e 94 13 2d 	call	0x5a26	; 0x5a26 <uart_puts>
    1e0a:	8c e8       	ldi	r24, 0x8C	; 140
    1e0c:	93 e0       	ldi	r25, 0x03	; 3
    1e0e:	0e 94 2d 2d 	call	0x5a5a	; 0x5a5a <uart_puts_p>
    1e12:	86 ec       	ldi	r24, 0xC6	; 198
    1e14:	99 e0       	ldi	r25, 0x09	; 9
    1e16:	0e 94 13 2d 	call	0x5a26	; 0x5a26 <uart_puts>
    1e1a:	8a e8       	ldi	r24, 0x8A	; 138
    1e1c:	93 e0       	ldi	r25, 0x03	; 3
    1e1e:	0e 94 2d 2d 	call	0x5a5a	; 0x5a5a <uart_puts_p>
    1e22:	85 e8       	ldi	r24, 0x85	; 133
    1e24:	93 e0       	ldi	r25, 0x03	; 3
    1e26:	0e 94 2d 2d 	call	0x5a5a	; 0x5a5a <uart_puts_p>
    1e2a:	8a e8       	ldi	r24, 0x8A	; 138
    1e2c:	9a e0       	ldi	r25, 0x0A	; 10
    1e2e:	0e 94 13 2d 	call	0x5a26	; 0x5a26 <uart_puts>
    1e32:	83 e8       	ldi	r24, 0x83	; 131
    1e34:	93 e0       	ldi	r25, 0x03	; 3
    1e36:	0e 94 2d 2d 	call	0x5a5a	; 0x5a5a <uart_puts_p>
    1e3a:	8e e8       	ldi	r24, 0x8E	; 142
    1e3c:	9a e0       	ldi	r25, 0x0A	; 10
    1e3e:	0e 94 13 2d 	call	0x5a26	; 0x5a26 <uart_puts>
    1e42:	81 e8       	ldi	r24, 0x81	; 129
    1e44:	93 e0       	ldi	r25, 0x03	; 3
    1e46:	0e 94 2d 2d 	call	0x5a5a	; 0x5a5a <uart_puts_p>
    1e4a:	8c e7       	ldi	r24, 0x7C	; 124
    1e4c:	93 e0       	ldi	r25, 0x03	; 3
    1e4e:	0e 94 2d 2d 	call	0x5a5a	; 0x5a5a <uart_puts_p>
    1e52:	8c e8       	ldi	r24, 0x8C	; 140
    1e54:	99 e0       	ldi	r25, 0x09	; 9
    1e56:	0e 94 13 2d 	call	0x5a26	; 0x5a26 <uart_puts>
    1e5a:	8a e7       	ldi	r24, 0x7A	; 122
    1e5c:	93 e0       	ldi	r25, 0x03	; 3
    1e5e:	0e 94 2d 2d 	call	0x5a5a	; 0x5a5a <uart_puts_p>
    1e62:	85 e7       	ldi	r24, 0x75	; 117
    1e64:	93 e0       	ldi	r25, 0x03	; 3
    1e66:	0e 94 2d 2d 	call	0x5a5a	; 0x5a5a <uart_puts_p>
    1e6a:	8d e4       	ldi	r24, 0x4D	; 77
    1e6c:	99 e0       	ldi	r25, 0x09	; 9
    1e6e:	0e 94 13 2d 	call	0x5a26	; 0x5a26 <uart_puts>
    1e72:	83 e7       	ldi	r24, 0x73	; 115
    1e74:	93 e0       	ldi	r25, 0x03	; 3
    1e76:	0e 94 2d 2d 	call	0x5a5a	; 0x5a5a <uart_puts_p>
    1e7a:	20 91 68 08 	lds	r18, 0x0868	; 0x800868 <timerstate.2981>
    1e7e:	80 91 66 08 	lds	r24, 0x0866	; 0x800866 <web.2983>
    1e82:	d8 cb       	rjmp	.-2128   	; 0x1634 <SensorRead+0xf8>
    1e84:	41 d8       	rcall	.-3966   	; 0xf08 <i2c_read_nack>
    1e86:	80 93 67 08 	sts	0x0867, r24	; 0x800867 <relmodlevel.2984>
    1e8a:	7f d8       	rcall	.-3842   	; 0xf8a <i2c_stop>
    1e8c:	e8 cb       	rjmp	.-2096   	; 0x165e <SensorRead+0x122>
    1e8e:	8e e6       	ldi	r24, 0x6E	; 110
    1e90:	93 e0       	ldi	r25, 0x03	; 3
    1e92:	0e 94 2d 2d 	call	0x5a5a	; 0x5a5a <uart_puts_p>
    1e96:	8b e6       	ldi	r24, 0x6B	; 107
    1e98:	99 e0       	ldi	r25, 0x09	; 9
    1e9a:	0e 94 13 2d 	call	0x5a26	; 0x5a26 <uart_puts>
    1e9e:	8c e6       	ldi	r24, 0x6C	; 108
    1ea0:	93 e0       	ldi	r25, 0x03	; 3
    1ea2:	0e 94 2d 2d 	call	0x5a5a	; 0x5a5a <uart_puts_p>
    1ea6:	8f e6       	ldi	r24, 0x6F	; 111
    1ea8:	99 e0       	ldi	r25, 0x09	; 9
    1eaa:	0e 94 13 2d 	call	0x5a26	; 0x5a26 <uart_puts>
    1eae:	8a e6       	ldi	r24, 0x6A	; 106
    1eb0:	93 e0       	ldi	r25, 0x03	; 3
    1eb2:	0e 94 2d 2d 	call	0x5a5a	; 0x5a5a <uart_puts_p>
    1eb6:	85 e6       	ldi	r24, 0x65	; 101
    1eb8:	93 e0       	ldi	r25, 0x03	; 3
    1eba:	0e 94 2d 2d 	call	0x5a5a	; 0x5a5a <uart_puts_p>
    1ebe:	8e e7       	ldi	r24, 0x7E	; 126
    1ec0:	99 e0       	ldi	r25, 0x09	; 9
    1ec2:	0e 94 13 2d 	call	0x5a26	; 0x5a26 <uart_puts>
    1ec6:	83 e6       	ldi	r24, 0x63	; 99
    1ec8:	93 e0       	ldi	r25, 0x03	; 3
    1eca:	0e 94 2d 2d 	call	0x5a5a	; 0x5a5a <uart_puts_p>
    1ece:	82 e8       	ldi	r24, 0x82	; 130
    1ed0:	99 e0       	ldi	r25, 0x09	; 9
    1ed2:	0e 94 13 2d 	call	0x5a26	; 0x5a26 <uart_puts>
    1ed6:	81 e6       	ldi	r24, 0x61	; 97
    1ed8:	93 e0       	ldi	r25, 0x03	; 3
    1eda:	0e 94 2d 2d 	call	0x5a5a	; 0x5a5a <uart_puts_p>
    1ede:	8c e5       	ldi	r24, 0x5C	; 92
    1ee0:	93 e0       	ldi	r25, 0x03	; 3
    1ee2:	0e 94 2d 2d 	call	0x5a5a	; 0x5a5a <uart_puts_p>
    1ee6:	8e ea       	ldi	r24, 0xAE	; 174
    1ee8:	9a e0       	ldi	r25, 0x0A	; 10
    1eea:	0e 94 13 2d 	call	0x5a26	; 0x5a26 <uart_puts>
    1eee:	8a e5       	ldi	r24, 0x5A	; 90
    1ef0:	93 e0       	ldi	r25, 0x03	; 3
    1ef2:	0e 94 2d 2d 	call	0x5a5a	; 0x5a5a <uart_puts_p>
    1ef6:	82 eb       	ldi	r24, 0xB2	; 178
    1ef8:	9a e0       	ldi	r25, 0x0A	; 10
    1efa:	0e 94 13 2d 	call	0x5a26	; 0x5a26 <uart_puts>
    1efe:	88 e5       	ldi	r24, 0x58	; 88
    1f00:	93 e0       	ldi	r25, 0x03	; 3
    1f02:	0e 94 2d 2d 	call	0x5a5a	; 0x5a5a <uart_puts_p>
    1f06:	83 e5       	ldi	r24, 0x53	; 83
    1f08:	93 e0       	ldi	r25, 0x03	; 3
    1f0a:	0e 94 2d 2d 	call	0x5a5a	; 0x5a5a <uart_puts_p>
    1f0e:	80 91 67 08 	lds	r24, 0x0867	; 0x800867 <relmodlevel.2984>
    1f12:	90 e0       	ldi	r25, 0x00	; 0
    1f14:	0e 94 d3 2d 	call	0x5ba6	; 0x5ba6 <uart_puti>
    1f18:	81 e5       	ldi	r24, 0x51	; 81
    1f1a:	93 e0       	ldi	r25, 0x03	; 3
    1f1c:	0e 94 2d 2d 	call	0x5a5a	; 0x5a5a <uart_puts_p>
    1f20:	8c e4       	ldi	r24, 0x4C	; 76
    1f22:	93 e0       	ldi	r25, 0x03	; 3
    1f24:	0e 94 2d 2d 	call	0x5a5a	; 0x5a5a <uart_puts_p>
    1f28:	8f e1       	ldi	r24, 0x1F	; 31
    1f2a:	99 e0       	ldi	r25, 0x09	; 9
    1f2c:	0e 94 13 2d 	call	0x5a26	; 0x5a26 <uart_puts>
    1f30:	8a e4       	ldi	r24, 0x4A	; 74
    1f32:	93 e0       	ldi	r25, 0x03	; 3
    1f34:	0e 94 2d 2d 	call	0x5a5a	; 0x5a5a <uart_puts_p>
    1f38:	83 e2       	ldi	r24, 0x23	; 35
    1f3a:	99 e0       	ldi	r25, 0x09	; 9
    1f3c:	0e 94 13 2d 	call	0x5a26	; 0x5a26 <uart_puts>
    1f40:	88 e4       	ldi	r24, 0x48	; 72
    1f42:	93 e0       	ldi	r25, 0x03	; 3
    1f44:	0e 94 2d 2d 	call	0x5a5a	; 0x5a5a <uart_puts_p>
    1f48:	83 e4       	ldi	r24, 0x43	; 67
    1f4a:	93 e0       	ldi	r25, 0x03	; 3
    1f4c:	0e 94 2d 2d 	call	0x5a5a	; 0x5a5a <uart_puts_p>
    1f50:	8c e9       	ldi	r24, 0x9C	; 156
    1f52:	9a e0       	ldi	r25, 0x0A	; 10
    1f54:	0e 94 13 2d 	call	0x5a26	; 0x5a26 <uart_puts>
    1f58:	81 e4       	ldi	r24, 0x41	; 65
    1f5a:	93 e0       	ldi	r25, 0x03	; 3
    1f5c:	0e 94 2d 2d 	call	0x5a5a	; 0x5a5a <uart_puts_p>
    1f60:	80 ea       	ldi	r24, 0xA0	; 160
    1f62:	9a e0       	ldi	r25, 0x0A	; 10
    1f64:	0e 94 13 2d 	call	0x5a26	; 0x5a26 <uart_puts>
    1f68:	8f e3       	ldi	r24, 0x3F	; 63
    1f6a:	93 e0       	ldi	r25, 0x03	; 3
    1f6c:	0e 94 2d 2d 	call	0x5a5a	; 0x5a5a <uart_puts_p>
    1f70:	20 91 68 08 	lds	r18, 0x0868	; 0x800868 <timerstate.2981>
    1f74:	81 e0       	ldi	r24, 0x01	; 1
    1f76:	69 cb       	rjmp	.-2350   	; 0x164a <SensorRead+0x10e>
    1f78:	ae 01       	movw	r20, r28
    1f7a:	4f 5f       	subi	r20, 0xFF	; 255
    1f7c:	5f 4f       	sbci	r21, 0xFF	; 255
    1f7e:	be 01       	movw	r22, r28
    1f80:	6d 5f       	subi	r22, 0xFD	; 253
    1f82:	7f 4f       	sbci	r23, 0xFF	; 255
    1f84:	86 e8       	ldi	r24, 0x86	; 134
    1f86:	9a e0       	ldi	r25, 0x0A	; 10
    1f88:	26 da       	rcall	.-2996   	; 0x13d6 <TempToVariable>
    1f8a:	91 cd       	rjmp	.-1246   	; 0x1aae <SensorRead+0x572>
    1f8c:	ae 01       	movw	r20, r28
    1f8e:	4f 5f       	subi	r20, 0xFF	; 255
    1f90:	5f 4f       	sbci	r21, 0xFF	; 255
    1f92:	be 01       	movw	r22, r28
    1f94:	6d 5f       	subi	r22, 0xFD	; 253
    1f96:	7f 4f       	sbci	r23, 0xFF	; 255
    1f98:	87 e6       	ldi	r24, 0x67	; 103
    1f9a:	99 e0       	ldi	r25, 0x09	; 9
    1f9c:	1c da       	rcall	.-3016   	; 0x13d6 <TempToVariable>
    1f9e:	87 cd       	rjmp	.-1266   	; 0x1aae <SensorRead+0x572>
    1fa0:	83 ed       	ldi	r24, 0xD3	; 211
    1fa2:	93 e0       	ldi	r25, 0x03	; 3
    1fa4:	0e 94 2d 2d 	call	0x5a5a	; 0x5a5a <uart_puts_p>
    1fa8:	8c e8       	ldi	r24, 0x8C	; 140
    1faa:	99 e0       	ldi	r25, 0x09	; 9
    1fac:	0e 94 13 2d 	call	0x5a26	; 0x5a26 <uart_puts>
    1fb0:	81 ed       	ldi	r24, 0xD1	; 209
    1fb2:	93 e0       	ldi	r25, 0x03	; 3
    1fb4:	0e 94 2d 2d 	call	0x5a5a	; 0x5a5a <uart_puts_p>
    1fb8:	c0 90 d1 09 	lds	r12, 0x09D1	; 0x8009d1 <HIHxxxxTemp>
    1fbc:	d0 90 d2 09 	lds	r13, 0x09D2	; 0x8009d2 <HIHxxxxTemp+0x1>
    1fc0:	e0 90 d3 09 	lds	r14, 0x09D3	; 0x8009d3 <HIHxxxxTemp+0x2>
    1fc4:	f0 90 d4 09 	lds	r15, 0x09D4	; 0x8009d4 <HIHxxxxTemp+0x3>
    1fc8:	8b cb       	rjmp	.-2282   	; 0x16e0 <SensorRead+0x1a4>
    1fca:	ae 01       	movw	r20, r28
    1fcc:	4f 5f       	subi	r20, 0xFF	; 255
    1fce:	5f 4f       	sbci	r21, 0xFF	; 255
    1fd0:	be 01       	movw	r22, r28
    1fd2:	6d 5f       	subi	r22, 0xFD	; 253
    1fd4:	7f 4f       	sbci	r23, 0xFF	; 255
    1fd6:	8a ea       	ldi	r24, 0xAA	; 170
    1fd8:	9a e0       	ldi	r25, 0x0A	; 10
    1fda:	fd d9       	rcall	.-3078   	; 0x13d6 <TempToVariable>
    1fdc:	68 cd       	rjmp	.-1328   	; 0x1aae <SensorRead+0x572>
    1fde:	ae 01       	movw	r20, r28
    1fe0:	4f 5f       	subi	r20, 0xFF	; 255
    1fe2:	5f 4f       	sbci	r21, 0xFF	; 255
    1fe4:	be 01       	movw	r22, r28
    1fe6:	6d 5f       	subi	r22, 0xFD	; 253
    1fe8:	7f 4f       	sbci	r23, 0xFF	; 255
    1fea:	8b e1       	ldi	r24, 0x1B	; 27
    1fec:	99 e0       	ldi	r25, 0x09	; 9
    1fee:	f3 d9       	rcall	.-3098   	; 0x13d6 <TempToVariable>
    1ff0:	5e cd       	rjmp	.-1348   	; 0x1aae <SensorRead+0x572>
    1ff2:	ae 01       	movw	r20, r28
    1ff4:	4f 5f       	subi	r20, 0xFF	; 255
    1ff6:	5f 4f       	sbci	r21, 0xFF	; 255
    1ff8:	be 01       	movw	r22, r28
    1ffa:	6d 5f       	subi	r22, 0xFD	; 253
    1ffc:	7f 4f       	sbci	r23, 0xFF	; 255
    1ffe:	88 e9       	ldi	r24, 0x98	; 152
    2000:	9a e0       	ldi	r25, 0x0A	; 10
    2002:	e9 d9       	rcall	.-3118   	; 0x13d6 <TempToVariable>
    2004:	54 cd       	rjmp	.-1368   	; 0x1aae <SensorRead+0x572>

00002006 <SwitchRelays>:
    2006:	0e 94 82 2c 	call	0x5904	; 0x5904 <SPIInit>
    200a:	60 91 70 08 	lds	r22, 0x0870	; 0x800870 <Relays>
    200e:	81 e0       	ldi	r24, 0x01	; 1
    2010:	0e 94 96 2c 	call	0x592c	; 0x592c <SPIWrite>
    2014:	0c 94 91 2c 	jmp	0x5922	; 0x5922 <SPIClose>

00002018 <TurnOTGasOn>:
    2018:	cf 93       	push	r28
    201a:	c8 2f       	mov	r28, r24
    201c:	82 e1       	ldi	r24, 0x12	; 18
    201e:	0e 94 50 07 	call	0xea0	; 0xea0 <i2c_start>
    2022:	88 23       	and	r24, r24
    2024:	11 f0       	breq	.+4      	; 0x202a <TurnOTGasOn+0x12>
    2026:	cf 91       	pop	r28
    2028:	08 95       	ret
    202a:	83 e6       	ldi	r24, 0x63	; 99
    202c:	0e 94 72 07 	call	0xee4	; 0xee4 <i2c_write>
    2030:	8c 2f       	mov	r24, r28
    2032:	0e 94 72 07 	call	0xee4	; 0xee4 <i2c_write>
    2036:	cf 91       	pop	r28
    2038:	0c 94 c5 07 	jmp	0xf8a	; 0xf8a <i2c_stop>

0000203c <TurnOTGasOff>:
    203c:	82 e1       	ldi	r24, 0x12	; 18
    203e:	0e 94 50 07 	call	0xea0	; 0xea0 <i2c_start>
    2042:	81 11       	cpse	r24, r1
    2044:	08 95       	ret
    2046:	8f e6       	ldi	r24, 0x6F	; 111
    2048:	0e 94 72 07 	call	0xee4	; 0xee4 <i2c_write>
    204c:	80 e0       	ldi	r24, 0x00	; 0
    204e:	0e 94 72 07 	call	0xee4	; 0xee4 <i2c_write>
    2052:	0c 94 c5 07 	jmp	0xf8a	; 0xf8a <i2c_stop>

00002056 <SecondFloorCondition>:
}

uint8_t SecondFloorCondition()
{
	static uint8_t isOn = 0;
	if (SecondFloorThermostatActive)
    2056:	80 91 4c 09 	lds	r24, 0x094C	; 0x80094c <SecondFloorThermostatActive>
    205a:	88 23       	and	r24, r24
    205c:	59 f1       	breq	.+86     	; 0x20b4 <SecondFloorCondition+0x5e>
	{
		if ((SecondFloorDesired * 10 + SecondFloorFracDesired - SecondFloorHysteresis) > (SecondFloor.ActualTemp * 10 + SecondFloor.ActualTempFrac))
    205e:	80 91 97 09 	lds	r24, 0x0997	; 0x800997 <SecondFloorDesired>
    2062:	20 91 36 09 	lds	r18, 0x0936	; 0x800936 <SecondFloorFracDesired>
    2066:	30 e0       	ldi	r19, 0x00	; 0
    2068:	5a e0       	ldi	r21, 0x0A	; 10
    206a:	85 9f       	mul	r24, r21
    206c:	20 0d       	add	r18, r0
    206e:	31 1d       	adc	r19, r1
    2070:	11 24       	eor	r1, r1
    2072:	40 91 1b 09 	lds	r20, 0x091B	; 0x80091b <SecondFloor>
    2076:	80 91 1c 09 	lds	r24, 0x091C	; 0x80091c <SecondFloor+0x1>
    207a:	90 e0       	ldi	r25, 0x00	; 0
    207c:	6a e0       	ldi	r22, 0x0A	; 10
    207e:	46 9f       	mul	r20, r22
    2080:	80 0d       	add	r24, r0
    2082:	91 1d       	adc	r25, r1
    2084:	11 24       	eor	r1, r1
    2086:	40 91 f6 09 	lds	r20, 0x09F6	; 0x8009f6 <SecondFloorHysteresis>
    208a:	b9 01       	movw	r22, r18
    208c:	64 1b       	sub	r22, r20
    208e:	71 09       	sbc	r23, r1
    2090:	86 17       	cp	r24, r22
    2092:	97 07       	cpc	r25, r23
    2094:	5c f0       	brlt	.+22     	; 0x20ac <SecondFloorCondition+0x56>
		{
			isOn = 1;
		}
		else if (isOn && (SecondFloorDesired * 10 + SecondFloorFracDesired) > (SecondFloor.ActualTemp * 10 + SecondFloor.ActualTempFrac))
    2096:	40 91 5e 08 	lds	r20, 0x085E	; 0x80085e <__data_end>
    209a:	44 23       	and	r20, r20
    209c:	19 f0       	breq	.+6      	; 0x20a4 <SecondFloorCondition+0x4e>
    209e:	82 17       	cp	r24, r18
    20a0:	93 07       	cpc	r25, r19
    20a2:	24 f0       	brlt	.+8      	; 0x20ac <SecondFloorCondition+0x56>
		{
			isOn = 1;
		}
		else
		{
			isOn = 0;
    20a4:	10 92 5e 08 	sts	0x085E, r1	; 0x80085e <__data_end>
    20a8:	80 e0       	ldi	r24, 0x00	; 0
		}
	}
	return isOn;
}
    20aa:	08 95       	ret
	static uint8_t isOn = 0;
	if (SecondFloorThermostatActive)
	{
		if ((SecondFloorDesired * 10 + SecondFloorFracDesired - SecondFloorHysteresis) > (SecondFloor.ActualTemp * 10 + SecondFloor.ActualTempFrac))
		{
			isOn = 1;
    20ac:	81 e0       	ldi	r24, 0x01	; 1
    20ae:	80 93 5e 08 	sts	0x085E, r24	; 0x80085e <__data_end>
    20b2:	08 95       	ret
    20b4:	80 91 5e 08 	lds	r24, 0x085E	; 0x80085e <__data_end>
    20b8:	08 95       	ret

000020ba <CheckConditions>:

	return;
}

void CheckConditions()
{
    20ba:	1f 93       	push	r17
    20bc:	cf 93       	push	r28
    20be:	df 93       	push	r29
	static uint8_t comfortSecondIsOn = 0;
	uint16_t currTime = Hour * 100 + Minute;
	uint8_t DHW_condition;
	uint8_t oldRelays = Relays;
	uint8_t activeCondition = 0;
	if (isInitialized)
    20c0:	80 91 6b 08 	lds	r24, 0x086B	; 0x80086b <isInitialized>
    20c4:	88 23       	and	r24, r24
    20c6:	09 f4       	brne	.+2      	; 0x20ca <CheckConditions+0x10>
    20c8:	af c0       	rjmp	.+350    	; 0x2228 <CheckConditions+0x16e>
	// DHW felsõ kör
	static uint16_t pumpplustime = 0;
	static uint8_t comfortHyst = 0;
	static uint8_t comfortLivingIsOn = 0;
	static uint8_t comfortSecondIsOn = 0;
	uint16_t currTime = Hour * 100 + Minute;
    20ca:	20 91 6f 08 	lds	r18, 0x086F	; 0x80086f <Hour>
    20ce:	80 91 6e 08 	lds	r24, 0x086E	; 0x80086e <Minute>
    20d2:	90 e0       	ldi	r25, 0x00	; 0
    20d4:	ec 01       	movw	r28, r24
    20d6:	34 e6       	ldi	r19, 0x64	; 100
    20d8:	23 9f       	mul	r18, r19
    20da:	c0 0d       	add	r28, r0
    20dc:	d1 1d       	adc	r29, r1
    20de:	11 24       	eor	r1, r1
	uint8_t DHW_condition;
	uint8_t oldRelays = Relays;
    20e0:	90 91 70 08 	lds	r25, 0x0870	; 0x800870 <Relays>
    20e4:	19 2f       	mov	r17, r25
	uint8_t activeCondition = 0;
	if (isInitialized)
	{
		if (ClockInitialized)
    20e6:	80 91 6c 08 	lds	r24, 0x086C	; 0x80086c <ClockInitialized>
}

uint8_t DHWCheckCondition()
{
	static uint8_t isOn = 0;
	if (DHWTempMin > DHW.ActualTemp)
    20ea:	20 91 ab 09 	lds	r18, 0x09AB	; 0x8009ab <DHW>
	uint8_t DHW_condition;
	uint8_t oldRelays = Relays;
	uint8_t activeCondition = 0;
	if (isInitialized)
	{
		if (ClockInitialized)
    20ee:	88 23       	and	r24, r24
    20f0:	09 f4       	brne	.+2      	; 0x20f4 <CheckConditions+0x3a>
    20f2:	90 c0       	rjmp	.+288    	; 0x2214 <CheckConditions+0x15a>
}

uint8_t DHWCheckCondition()
{
	static uint8_t isOn = 0;
	if (DHWTempMin > DHW.ActualTemp)
    20f4:	80 91 39 09 	lds	r24, 0x0939	; 0x800939 <DHWTempMin>
    20f8:	28 17       	cp	r18, r24
    20fa:	08 f0       	brcs	.+2      	; 0x20fe <CheckConditions+0x44>
    20fc:	08 c1       	rjmp	.+528    	; 0x230e <CheckConditions+0x254>
	{
		isOn = 1;
    20fe:	81 e0       	ldi	r24, 0x01	; 1
    2100:	80 93 60 08 	sts	0x0860, r24	; 0x800860 <isOn.3266>
	uint8_t activeCondition = 0;
	if (isInitialized)
	{
		if (ClockInitialized)
		{
			DHW_condition = (DHWCheckCondition() && (((DHWMaxTimeHour*100 + DHWMaxTimeMinute) >= currTime) && ((DHWMinTimeHour*100 + DHWMinTimeMinute) <= currTime))) ? 1 : 0; //(DHW.ActualTemp < DHWTempMin && (DHWMaxTime >= currTime && DHWMinTime <= currTime )) ? 1 : 0;
    2104:	80 91 71 0a 	lds	r24, 0x0A71	; 0x800a71 <DHWMaxTimeHour>
    2108:	20 91 d0 09 	lds	r18, 0x09D0	; 0x8009d0 <DHWMaxTimeMinute>
    210c:	30 e0       	ldi	r19, 0x00	; 0
    210e:	44 e6       	ldi	r20, 0x64	; 100
    2110:	84 9f       	mul	r24, r20
    2112:	20 0d       	add	r18, r0
    2114:	31 1d       	adc	r19, r1
    2116:	11 24       	eor	r1, r1
    2118:	2c 17       	cp	r18, r28
    211a:	3d 07       	cpc	r19, r29
    211c:	08 f4       	brcc	.+2      	; 0x2120 <CheckConditions+0x66>
    211e:	92 c0       	rjmp	.+292    	; 0x2244 <CheckConditions+0x18a>
    2120:	80 91 32 09 	lds	r24, 0x0932	; 0x800932 <DHWMinTimeHour>
		else
		{
			DHW_condition = DHWCheckCondition();
		}

		if (DHW_condition) // alacsony HMV hõmérséklet
    2124:	20 91 33 09 	lds	r18, 0x0933	; 0x800933 <DHWMinTimeMinute>
    2128:	30 e0       	ldi	r19, 0x00	; 0
    212a:	54 e6       	ldi	r21, 0x64	; 100
    212c:	85 9f       	mul	r24, r21
    212e:	20 0d       	add	r18, r0
    2130:	31 1d       	adc	r19, r1
    2132:	11 24       	eor	r1, r1
    2134:	c2 17       	cp	r28, r18
    2136:	d3 07       	cpc	r29, r19
    2138:	08 f4       	brcc	.+2      	; 0x213c <CheckConditions+0x82>
    213a:	84 c0       	rjmp	.+264    	; 0x2244 <CheckConditions+0x18a>
    213c:	80 91 54 09 	lds	r24, 0x0954	; 0x800954 <DHWTempDesired>
    2140:	39 2f       	mov	r19, r25
    2142:	3b 73       	andi	r19, 0x3B	; 59
		{
			activeCondition = 1;
			Relays |= (1 << DHW_VALVE_RELAY);
			Relays &= ~((1 << FIRST_FLOOR_VALVE) | (1 << SECOND_FLOOR_VALVE) | (1 << HOUSE_VALVE_RELAY));

			if (Buffer.ActualTemp < DHWTempDesired) // Pufferben nincs elég energia
    2144:	20 91 e1 09 	lds	r18, 0x09E1	; 0x8009e1 <Buffer>
    2148:	28 17       	cp	r18, r24
    214a:	08 f4       	brcc	.+2      	; 0x214e <CheckConditions+0x94>
    214c:	8d c1       	rjmp	.+794    	; 0x2468 <CheckConditions+0x3ae>
				//if (DebugMode > 0)
				//	uart_puts_P("DHW relay activated with gas\n");
			}
			else // Pufferben van elég energia
			{
				if (!pumpplustime)
    214e:	40 91 64 08 	lds	r20, 0x0864	; 0x800864 <pumpplustime.3215>
    2152:	50 91 65 08 	lds	r21, 0x0865	; 0x800865 <pumpplustime.3215+0x1>
    2156:	45 2b       	or	r20, r21
    2158:	09 f4       	brne	.+2      	; 0x215c <CheckConditions+0xa2>
    215a:	dc c1       	rjmp	.+952    	; 0x2514 <CheckConditions+0x45a>
					Relays &= ~(1 << GAS_RELAY);
					TurnOTGasOff();
				}
				else
				{
					Relays |= (1 << BUFFER_VALVE_RELAY) | (1 << BUFFER_PUMP_RELAY);
    215c:	31 63       	ori	r19, 0x31	; 49
    215e:	30 93 70 08 	sts	0x0870, r19	; 0x800870 <Relays>
		{	
			if (!activeCondition)
				Relays &= ~((1 << BUFFER_VALVE_RELAY) | (1 << BUFFER_PUMP_RELAY) | (1 << FIRST_FLOOR_VALVE) | (1 << SECOND_FLOOR_VALVE) | (1 << HOUSE_VALVE_RELAY));
		}		

		if (Buffer.ActualTemp >= (BufferMaxTemp - 5))
    2162:	42 2f       	mov	r20, r18
    2164:	50 e0       	ldi	r21, 0x00	; 0
    2166:	30 91 07 01 	lds	r19, 0x0107	; 0x800107 <BufferMaxTemp>
    216a:	83 2f       	mov	r24, r19
    216c:	90 e0       	ldi	r25, 0x00	; 0
    216e:	bc 01       	movw	r22, r24
    2170:	65 50       	subi	r22, 0x05	; 5
    2172:	71 09       	sbc	r23, r1
    2174:	46 17       	cp	r20, r22
    2176:	57 07       	cpc	r21, r23
    2178:	64 f0       	brlt	.+24     	; 0x2192 <CheckConditions+0xd8>
    217a:	61 e0       	ldi	r22, 0x01	; 1
		{
			if (Buffer.ActualTemp >= BufferMaxTemp)
    217c:	23 17       	cp	r18, r19
    217e:	08 f4       	brcc	.+2      	; 0x2182 <CheckConditions+0xc8>
    2180:	61 c1       	rjmp	.+706    	; 0x2444 <CheckConditions+0x38a>
				Relays |= ((1 << BUFFER_VALVE_RELAY) | (1 << BUFFER_PUMP_RELAY) | (1 << FIRST_FLOOR_VALVE) | (1 << SECOND_FLOOR_VALVE) | (1 << HOUSE_VALVE_RELAY));
    2182:	80 91 70 08 	lds	r24, 0x0870	; 0x800870 <Relays>
    2186:	84 6f       	ori	r24, 0xF4	; 244
    2188:	80 93 70 08 	sts	0x0870, r24	; 0x800870 <Relays>
			else if (Buffer.ActualTemp <= (BufferMaxTemp - 5))
				Relays &= ~((1 << BUFFER_VALVE_RELAY) | (1 << BUFFER_PUMP_RELAY) | (1 << FIRST_FLOOR_VALVE) | (1 << SECOND_FLOOR_VALVE) | (1 << HOUSE_VALVE_RELAY));
		}
		
		if (!activeCondition && !pumpplustime && (PumpRunner > 0) && currTime < 100)
    218c:	66 23       	and	r22, r22
    218e:	09 f4       	brne	.+2      	; 0x2192 <CheckConditions+0xd8>
    2190:	20 c1       	rjmp	.+576    	; 0x23d2 <CheckConditions+0x318>
			{
				Relays |= ((1 << BUFFER_VALVE_RELAY) | (1 << BUFFER_PUMP_RELAY) | (1 << FIRST_FLOOR_VALVE) | (1 << SECOND_FLOOR_VALVE) | (1 << HOUSE_VALVE_RELAY) | (1 << WOODPUMP_RELAY));
			}
		}
		
		if (Wood.ActualTemp >= WoodTempAlert)
    2192:	80 91 98 0a 	lds	r24, 0x0A98	; 0x800a98 <Wood>
    2196:	90 91 79 09 	lds	r25, 0x0979	; 0x800979 <WoodTempAlert>
    219a:	89 17       	cp	r24, r25
    219c:	08 f0       	brcs	.+2      	; 0x21a0 <CheckConditions+0xe6>
    219e:	c2 c0       	rjmp	.+388    	; 0x2324 <CheckConditions+0x26a>
		{
			TCCR2 |= (1 << CS22) | (1 << CS20);
			TIMSK |= (1 << TOIE2);
			WoodLEDRate = 6;
		}
		else if (Wood.ActualTemp <= WoodToPut && Wood.ActualTemp >= 45)
    21a0:	90 91 aa 09 	lds	r25, 0x09AA	; 0x8009aa <WoodToPut>
    21a4:	98 17       	cp	r25, r24
    21a6:	08 f4       	brcc	.+2      	; 0x21aa <CheckConditions+0xf0>
    21a8:	2f c1       	rjmp	.+606    	; 0x2408 <CheckConditions+0x34e>
    21aa:	8d 32       	cpi	r24, 0x2D	; 45
    21ac:	08 f4       	brcc	.+2      	; 0x21b0 <CheckConditions+0xf6>
    21ae:	2c c1       	rjmp	.+600    	; 0x2408 <CheckConditions+0x34e>
		{
			TCCR2 |= (1 << CS22) | (1 << CS20);
    21b0:	85 b5       	in	r24, 0x25	; 37
    21b2:	85 60       	ori	r24, 0x05	; 5
    21b4:	85 bd       	out	0x25, r24	; 37
			TIMSK |= (1 << TOIE2);
    21b6:	87 b7       	in	r24, 0x37	; 55
    21b8:	80 64       	ori	r24, 0x40	; 64
    21ba:	87 bf       	out	0x37, r24	; 55
			WoodLEDRate = 31;
    21bc:	8f e1       	ldi	r24, 0x1F	; 31
    21be:	80 93 71 08 	sts	0x0871, r24	; 0x800871 <WoodLEDRate>
			TCCR2 = 0x00;
			TIMSK &= ~(1 << TOIE2);
			PORTF &= ~(1 << PINF4);
		}
		
		if ((Wood.ActualTemp >= (Buffer.ActualTemp + WoodDelta) && Wood.ActualTemp >= 55) || Wood.ActualTemp >= 85)
    21c2:	20 91 98 0a 	lds	r18, 0x0A98	; 0x800a98 <Wood>
    21c6:	42 2f       	mov	r20, r18
    21c8:	50 e0       	ldi	r21, 0x00	; 0
    21ca:	30 91 e1 09 	lds	r19, 0x09E1	; 0x8009e1 <Buffer>
    21ce:	80 91 31 09 	lds	r24, 0x0931	; 0x800931 <WoodDelta>
    21d2:	90 e0       	ldi	r25, 0x00	; 0
    21d4:	83 0f       	add	r24, r19
    21d6:	91 1d       	adc	r25, r1
    21d8:	48 17       	cp	r20, r24
    21da:	59 07       	cpc	r21, r25
    21dc:	0c f4       	brge	.+2      	; 0x21e0 <CheckConditions+0x126>
    21de:	ac c0       	rjmp	.+344    	; 0x2338 <CheckConditions+0x27e>
    21e0:	27 33       	cpi	r18, 0x37	; 55
    21e2:	08 f0       	brcs	.+2      	; 0x21e6 <CheckConditions+0x12c>
    21e4:	ac c0       	rjmp	.+344    	; 0x233e <CheckConditions+0x284>
			Relays |= (1 << WOODPUMP_RELAY);
		else
			Relays &= ~(1 << WOODPUMP_RELAY);
    21e6:	80 91 70 08 	lds	r24, 0x0870	; 0x800870 <Relays>
    21ea:	87 7f       	andi	r24, 0xF7	; 247
    21ec:	80 93 70 08 	sts	0x0870, r24	; 0x800870 <Relays>

		if (Relays != oldRelays)
    21f0:	18 17       	cp	r17, r24
    21f2:	61 f0       	breq	.+24     	; 0x220c <CheckConditions+0x152>
		{
			uart_puts_P("S99;");uart_puthex_byte(Relays);uart_puts_P("\r\n");
    21f4:	88 e4       	ldi	r24, 0x48	; 72
    21f6:	92 e0       	ldi	r25, 0x02	; 2
    21f8:	0e 94 2d 2d 	call	0x5a5a	; 0x5a5a <uart_puts_p>
    21fc:	80 91 70 08 	lds	r24, 0x0870	; 0x800870 <Relays>
    2200:	0e 94 a2 2d 	call	0x5b44	; 0x5b44 <uart_puthex_byte>
    2204:	85 e4       	ldi	r24, 0x45	; 69
    2206:	92 e0       	ldi	r25, 0x02	; 2
    2208:	0e 94 2d 2d 	call	0x5a5a	; 0x5a5a <uart_puts_p>
		}
		SwitchRelays();
	}
}
    220c:	df 91       	pop	r29
    220e:	cf 91       	pop	r28
    2210:	1f 91       	pop	r17

		if (Relays != oldRelays)
		{
			uart_puts_P("S99;");uart_puthex_byte(Relays);uart_puts_P("\r\n");
		}
		SwitchRelays();
    2212:	f9 ce       	rjmp	.-526    	; 0x2006 <SwitchRelays>
}

uint8_t DHWCheckCondition()
{
	static uint8_t isOn = 0;
	if (DHWTempMin > DHW.ActualTemp)
    2214:	80 91 39 09 	lds	r24, 0x0939	; 0x800939 <DHWTempMin>
    2218:	28 17       	cp	r18, r24
    221a:	50 f4       	brcc	.+20     	; 0x2230 <CheckConditions+0x176>
    221c:	80 91 54 09 	lds	r24, 0x0954	; 0x800954 <DHWTempDesired>
	{
		isOn = 1;
    2220:	21 e0       	ldi	r18, 0x01	; 1
    2222:	20 93 60 08 	sts	0x0860, r18	; 0x800860 <isOn.3266>
    2226:	8c cf       	rjmp	.-232    	; 0x2140 <CheckConditions+0x86>
		{
			uart_puts_P("S99;");uart_puthex_byte(Relays);uart_puts_P("\r\n");
		}
		SwitchRelays();
	}
}
    2228:	df 91       	pop	r29
    222a:	cf 91       	pop	r28
    222c:	1f 91       	pop	r17
    222e:	08 95       	ret
	static uint8_t isOn = 0;
	if (DHWTempMin > DHW.ActualTemp)
	{
		isOn = 1;
	}
	else if (isOn && DHW.ActualTemp <= DHWTempDesired)
    2230:	80 91 60 08 	lds	r24, 0x0860	; 0x800860 <isOn.3266>
    2234:	88 23       	and	r24, r24
    2236:	21 f0       	breq	.+8      	; 0x2240 <CheckConditions+0x186>
    2238:	80 91 54 09 	lds	r24, 0x0954	; 0x800954 <DHWTempDesired>
    223c:	82 17       	cp	r24, r18
    223e:	80 f7       	brcc	.-32     	; 0x2220 <CheckConditions+0x166>
	{
		isOn = 1;
	}
	else
	{
		isOn = 0;
    2240:	10 92 60 08 	sts	0x0860, r1	; 0x800860 <isOn.3266>
				//	uart_puts_P("DHW relay activated with buffer\n");
			}
		}
		else // megszûnõ hõigény esetén az utókeringetés a gépház radiátorát fûti, különben visszahûtené a HMV-t
		{
			if (( !(THERMOSTAT_PIN & (1 << FIRST_THERMO_PIN)) || !(THERMOSTAT_PIN & (1 << SECOND_THERMO_PIN)) 
    2244:	0e 9b       	sbis	0x01, 6	; 1
    2246:	02 c0       	rjmp	.+4      	; 0x224c <CheckConditions+0x192>
    2248:	0f 99       	sbic	0x01, 7	; 1
    224a:	7f c0       	rjmp	.+254    	; 0x234a <CheckConditions+0x290>
				|| !(THERMOSTAT_PIN & (1 << FIRST_REMOTE_PIN)) || !(PIND & (1 << SECOND_REMOTE_PIN))
				|| EngineeringCondition()
				|| SecondFloorCondition())
				&& (HIHxxxxTempInt <= SwitchOnOutdoorTempMin && SwitchOnOutdoorTemp))
    224c:	40 91 df 09 	lds	r20, 0x09DF	; 0x8009df <HIHxxxxTempInt>
    2250:	50 91 e0 09 	lds	r21, 0x09E0	; 0x8009e0 <HIHxxxxTempInt+0x1>
    2254:	20 91 34 09 	lds	r18, 0x0934	; 0x800934 <SwitchOnOutdoorTempMin>
    2258:	30 91 35 09 	lds	r19, 0x0935	; 0x800935 <SwitchOnOutdoorTempMin+0x1>
    225c:	24 17       	cp	r18, r20
    225e:	35 07       	cpc	r19, r21
    2260:	0c f4       	brge	.+2      	; 0x2264 <CheckConditions+0x1aa>
    2262:	8e c0       	rjmp	.+284    	; 0x2380 <CheckConditions+0x2c6>
    2264:	80 91 dd 09 	lds	r24, 0x09DD	; 0x8009dd <SwitchOnOutdoorTemp>
    2268:	88 23       	and	r24, r24
    226a:	09 f4       	brne	.+2      	; 0x226e <CheckConditions+0x1b4>
    226c:	89 c0       	rjmp	.+274    	; 0x2380 <CheckConditions+0x2c6>
				//if (Engineering.ActualTemp < EngineeringTempMin	
					//|| !(THERMOSTAT_PIN & (1 << FIRST_THERMO_PIN)) || !(THERMOSTAT_PIN & (1 << FIRST_REMOTE_PIN)) 
					//|| !(THERMOSTAT_PIN & (1 << SECOND_THERMO_PIN)) || !(PIND & (1 << SECOND_REMOTE_PIN))
					//|| ((SecondFloor.ActualTemp * 10 + SecondFloor.ActualTempFrac) <= (SecondFloorDesired * 10 + SecondFloorFracDesired) && SecondFloorThermostatActive))
				//{
				if (Buffer.ActualTemp >= ForwardHeatTemp)
    226e:	20 91 e1 09 	lds	r18, 0x09E1	; 0x8009e1 <Buffer>
    2272:	80 91 08 01 	lds	r24, 0x0108	; 0x800108 <ForwardHeatTemp>
    2276:	28 17       	cp	r18, r24
    2278:	08 f0       	brcs	.+2      	; 0x227c <CheckConditions+0x1c2>
    227a:	5a c1       	rjmp	.+692    	; 0x2530 <CheckConditions+0x476>
						TurnOTGasOff();
					}
				}
				else
				{
					pumpplustime = PumpPlusTime; // gáz utókeringetés
    227c:	20 91 f7 09 	lds	r18, 0x09F7	; 0x8009f7 <PumpPlusTime>
    2280:	30 91 f8 09 	lds	r19, 0x09F8	; 0x8009f8 <PumpPlusTime+0x1>
    2284:	30 93 65 08 	sts	0x0865, r19	; 0x800865 <pumpplustime.3215+0x1>
    2288:	20 93 64 08 	sts	0x0864, r18	; 0x800864 <pumpplustime.3215>
					Relays |= (1 << GAS_RELAY);
					Relays &= ~((1 << BUFFER_VALVE_RELAY) | (1 << BUFFER_PUMP_RELAY) | (1 << DHW_VALVE_RELAY));
    228c:	9e 7c       	andi	r25, 0xCE	; 206
    228e:	92 60       	ori	r25, 0x02	; 2
    2290:	90 93 70 08 	sts	0x0870, r25	; 0x800870 <Relays>
		//OCR3C = ADC;
//}

int8_t GetCompensation(int8_t outside)
{
	int diff = 23 - outside;
    2294:	60 91 d1 09 	lds	r22, 0x09D1	; 0x8009d1 <HIHxxxxTemp>
    2298:	70 91 d2 09 	lds	r23, 0x09D2	; 0x8009d2 <HIHxxxxTemp+0x1>
    229c:	80 91 d3 09 	lds	r24, 0x09D3	; 0x8009d3 <HIHxxxxTemp+0x2>
    22a0:	90 91 d4 09 	lds	r25, 0x09D4	; 0x8009d4 <HIHxxxxTemp+0x3>
    22a4:	0e 94 5d 2f 	call	0x5eba	; 0x5eba <__fixsfsi>
    22a8:	87 e1       	ldi	r24, 0x17	; 23
    22aa:	90 e0       	ldi	r25, 0x00	; 0
    22ac:	86 1b       	sub	r24, r22
    22ae:	91 09       	sbc	r25, r1
    22b0:	67 fd       	sbrc	r22, 7
    22b2:	93 95       	inc	r25
	if (diff <= 10)
    22b4:	8b 30       	cpi	r24, 0x0B	; 11
    22b6:	91 05       	cpc	r25, r1
    22b8:	0c f4       	brge	.+2      	; 0x22bc <CheckConditions+0x202>
    22ba:	78 c1       	rjmp	.+752    	; 0x25ac <CheckConditions+0x4f2>
		return -10;
	else if (10 < diff && diff <= 20)
    22bc:	9c 01       	movw	r18, r24
    22be:	2b 50       	subi	r18, 0x0B	; 11
    22c0:	31 09       	sbc	r19, r1
    22c2:	2a 30       	cpi	r18, 0x0A	; 10
    22c4:	31 05       	cpc	r19, r1
    22c6:	08 f4       	brcc	.+2      	; 0x22ca <CheckConditions+0x210>
    22c8:	80 c1       	rjmp	.+768    	; 0x25ca <CheckConditions+0x510>
		return -5;
	else if (20 < diff && diff <= 30)
    22ca:	2a 50       	subi	r18, 0x0A	; 10
    22cc:	31 09       	sbc	r19, r1
    22ce:	2a 30       	cpi	r18, 0x0A	; 10
    22d0:	31 05       	cpc	r19, r1
    22d2:	08 f4       	brcc	.+2      	; 0x22d6 <CheckConditions+0x21c>
    22d4:	80 c1       	rjmp	.+768    	; 0x25d6 <CheckConditions+0x51c>
		return 0;
	else if (30 < diff && diff <= 40)
    22d6:	4f 97       	sbiw	r24, 0x1f	; 31
    22d8:	0a 97       	sbiw	r24, 0x0a	; 10
    22da:	08 f0       	brcs	.+2      	; 0x22de <CheckConditions+0x224>
    22dc:	7e c1       	rjmp	.+764    	; 0x25da <CheckConditions+0x520>
    22de:	95 e0       	ldi	r25, 0x05	; 5
				{
					pumpplustime = PumpPlusTime; // gáz utókeringetés
					Relays |= (1 << GAS_RELAY);
					Relays &= ~((1 << BUFFER_VALVE_RELAY) | (1 << BUFFER_PUMP_RELAY) | (1 << DHW_VALVE_RELAY));
					int comp = GetCompensation((int8_t)( HIHxxxxTemp));
					TurnOTGasOn((uint8_t)(GasForwardHeatTemp + comp));
    22e0:	80 91 06 01 	lds	r24, 0x0106	; 0x800106 <GasForwardHeatTemp>
    22e4:	89 0f       	add	r24, r25
    22e6:	98 de       	rcall	.-720    	; 0x2018 <TurnOTGasOn>
    22e8:	90 91 70 08 	lds	r25, 0x0870	; 0x800870 <Relays>
				}
					//}								
				//}

				if (!(THERMOSTAT_PIN & (1 << FIRST_THERMO_PIN)) || (!(THERMOSTAT_PIN & (1 << FIRST_REMOTE_PIN))))
    22ec:	0e 9b       	sbis	0x01, 6	; 1
    22ee:	47 c1       	rjmp	.+654    	; 0x257e <CheckConditions+0x4c4>
    22f0:	0a 9b       	sbis	0x01, 2	; 1
    22f2:	45 c1       	rjmp	.+650    	; 0x257e <CheckConditions+0x4c4>
					Relays |= (1 << FIRST_FLOOR_VALVE) | (1 << HOUSE_VALVE_RELAY);
					//uart_puts("F1\r\n");
				}
				else 
				{
					Relays &= ~(1 << FIRST_FLOOR_VALVE);
    22f4:	9f 77       	andi	r25, 0x7F	; 127
    22f6:	90 93 70 08 	sts	0x0870, r25	; 0x800870 <Relays>
					//uart_puts("F0\r\n");
				}

				if (!(THERMOSTAT_PIN & (1 << SECOND_THERMO_PIN)) || !(PIND & (1 << SECOND_REMOTE_PIN)) || SecondFloorCondition())
    22fa:	0f 99       	sbic	0x01, 7	; 1
    22fc:	44 c1       	rjmp	.+648    	; 0x2586 <CheckConditions+0x4cc>
				{
					Relays |= (1 << SECOND_FLOOR_VALVE) | (1 << HOUSE_VALVE_RELAY);
    22fe:	80 91 70 08 	lds	r24, 0x0870	; 0x800870 <Relays>
    2302:	84 64       	ori	r24, 0x44	; 68
    2304:	80 93 70 08 	sts	0x0870, r24	; 0x800870 <Relays>
    2308:	20 91 e1 09 	lds	r18, 0x09E1	; 0x8009e1 <Buffer>
    230c:	2a cf       	rjmp	.-428    	; 0x2162 <CheckConditions+0xa8>
	static uint8_t isOn = 0;
	if (DHWTempMin > DHW.ActualTemp)
	{
		isOn = 1;
	}
	else if (isOn && DHW.ActualTemp <= DHWTempDesired)
    230e:	80 91 60 08 	lds	r24, 0x0860	; 0x800860 <isOn.3266>
    2312:	88 23       	and	r24, r24
    2314:	09 f4       	brne	.+2      	; 0x2318 <CheckConditions+0x25e>
    2316:	94 cf       	rjmp	.-216    	; 0x2240 <CheckConditions+0x186>
    2318:	80 91 54 09 	lds	r24, 0x0954	; 0x800954 <DHWTempDesired>
    231c:	82 17       	cp	r24, r18
    231e:	08 f0       	brcs	.+2      	; 0x2322 <CheckConditions+0x268>
    2320:	ee ce       	rjmp	.-548    	; 0x20fe <CheckConditions+0x44>
    2322:	8e cf       	rjmp	.-228    	; 0x2240 <CheckConditions+0x186>
			TIMSK |= (1 << TOIE2);
			WoodLEDRate = 31;
		}		
		else if (WoodPressureBefore >= WoodPressureAlert || WoodPressureAfter >= WoodPressureAlert)
		{
			TCCR2 |= (1 << CS22) | (1 << CS20);
    2324:	85 b5       	in	r24, 0x25	; 37
    2326:	85 60       	ori	r24, 0x05	; 5
    2328:	85 bd       	out	0x25, r24	; 37
			TIMSK |= (1 << TOIE2);
    232a:	87 b7       	in	r24, 0x37	; 55
    232c:	80 64       	ori	r24, 0x40	; 64
    232e:	87 bf       	out	0x37, r24	; 55
			WoodLEDRate = 6;
    2330:	86 e0       	ldi	r24, 0x06	; 6
    2332:	80 93 71 08 	sts	0x0871, r24	; 0x800871 <WoodLEDRate>
    2336:	45 cf       	rjmp	.-374    	; 0x21c2 <CheckConditions+0x108>
			TCCR2 = 0x00;
			TIMSK &= ~(1 << TOIE2);
			PORTF &= ~(1 << PINF4);
		}
		
		if ((Wood.ActualTemp >= (Buffer.ActualTemp + WoodDelta) && Wood.ActualTemp >= 55) || Wood.ActualTemp >= 85)
    2338:	25 35       	cpi	r18, 0x55	; 85
    233a:	08 f4       	brcc	.+2      	; 0x233e <CheckConditions+0x284>
    233c:	54 cf       	rjmp	.-344    	; 0x21e6 <CheckConditions+0x12c>
			Relays |= (1 << WOODPUMP_RELAY);
    233e:	80 91 70 08 	lds	r24, 0x0870	; 0x800870 <Relays>
    2342:	88 60       	ori	r24, 0x08	; 8
    2344:	80 93 70 08 	sts	0x0870, r24	; 0x800870 <Relays>
    2348:	53 cf       	rjmp	.-346    	; 0x21f0 <CheckConditions+0x136>
			}
		}
		else // megszûnõ hõigény esetén az utókeringetés a gépház radiátorát fûti, különben visszahûtené a HMV-t
		{
			if (( !(THERMOSTAT_PIN & (1 << FIRST_THERMO_PIN)) || !(THERMOSTAT_PIN & (1 << SECOND_THERMO_PIN)) 
				|| !(THERMOSTAT_PIN & (1 << FIRST_REMOTE_PIN)) || !(PIND & (1 << SECOND_REMOTE_PIN))
    234a:	0a 9b       	sbis	0x01, 2	; 1
    234c:	7f cf       	rjmp	.-258    	; 0x224c <CheckConditions+0x192>
    234e:	83 9b       	sbis	0x10, 3	; 16
    2350:	7d cf       	rjmp	.-262    	; 0x224c <CheckConditions+0x192>
}

uint8_t EngineeringCondition()
{
	static uint8_t isOn = 0;
	if (EngineeringTempMin > Engineering.ActualTemp)
    2352:	80 91 55 09 	lds	r24, 0x0955	; 0x800955 <Engineering>
    2356:	20 91 de 09 	lds	r18, 0x09DE	; 0x8009de <EngineeringTempMin>
    235a:	82 17       	cp	r24, r18
    235c:	08 f4       	brcc	.+2      	; 0x2360 <CheckConditions+0x2a6>
    235e:	37 c1       	rjmp	.+622    	; 0x25ce <CheckConditions+0x514>
	{
		isOn = 1;
	}
	else if (isOn && Engineering.ActualTemp <= EngineeringTempDesired)
    2360:	20 91 5f 08 	lds	r18, 0x085F	; 0x80085f <isOn.3269>
    2364:	22 23       	and	r18, r18
    2366:	29 f0       	breq	.+10     	; 0x2372 <CheckConditions+0x2b8>
    2368:	20 91 18 09 	lds	r18, 0x0918	; 0x800918 <EngineeringTempDesired>
    236c:	28 17       	cp	r18, r24
    236e:	08 f0       	brcs	.+2      	; 0x2372 <CheckConditions+0x2b8>
    2370:	2e c1       	rjmp	.+604    	; 0x25ce <CheckConditions+0x514>
	{
		isOn = 1;
	}
	else
	{
		isOn = 0;
    2372:	10 92 5f 08 	sts	0x085F, r1	; 0x80085f <isOn.3269>
		else // megszûnõ hõigény esetén az utókeringetés a gépház radiátorát fûti, különben visszahûtené a HMV-t
		{
			if (( !(THERMOSTAT_PIN & (1 << FIRST_THERMO_PIN)) || !(THERMOSTAT_PIN & (1 << SECOND_THERMO_PIN)) 
				|| !(THERMOSTAT_PIN & (1 << FIRST_REMOTE_PIN)) || !(PIND & (1 << SECOND_REMOTE_PIN))
				|| EngineeringCondition()
				|| SecondFloorCondition())
    2376:	6f de       	rcall	.-802    	; 0x2056 <SecondFloorCondition>
    2378:	90 91 70 08 	lds	r25, 0x0870	; 0x800870 <Relays>
    237c:	81 11       	cpse	r24, r1
    237e:	66 cf       	rjmp	.-308    	; 0x224c <CheckConditions+0x192>
					//uart_puts("E0\r\n");
				}
			}
			else
			{
				if (!pumpplustime)
    2380:	20 91 64 08 	lds	r18, 0x0864	; 0x800864 <pumpplustime.3215>
    2384:	30 91 65 08 	lds	r19, 0x0865	; 0x800865 <pumpplustime.3215+0x1>
    2388:	21 15       	cp	r18, r1
    238a:	31 05       	cpc	r19, r1
    238c:	09 f0       	breq	.+2      	; 0x2390 <CheckConditions+0x2d6>
    238e:	65 c0       	rjmp	.+202    	; 0x245a <CheckConditions+0x3a0>
					Relays &= ~((1 << FIRST_FLOOR_VALVE) | (1 << SECOND_FLOOR_VALVE) | (1 << HOUSE_VALVE_RELAY));
    2390:	9b 73       	andi	r25, 0x3B	; 59
				else
					pumpplustime--;

				Relays &= ~((1 << BUFFER_VALVE_RELAY) | (1 <<BUFFER_PUMP_RELAY) | (1 << GAS_RELAY) | (1 << DHW_VALVE_RELAY));
    2392:	9c 7c       	andi	r25, 0xCC	; 204
    2394:	90 93 70 08 	sts	0x0870, r25	; 0x800870 <Relays>
				
				TurnOTGasOff();
    2398:	51 de       	rcall	.-862    	; 0x203c <TurnOTGasOff>
				//if (DebugMode > 0)
				//	uart_puts_P("GAS and FIRST_FLOOR_VALVE, SECOND_FLOOR_VALVE relay deactivated\n");
			}
		}
		
		if (ClockInitialized && ComfortMode && !activeCondition && !pumpplustime && (ComfortMaxTimeHour*100 + ComfortMaxTimeMinute) >= currTime && (ComfortMinTimeHour*100 + ComfortMinTimeMinute) <= currTime)
    239a:	80 91 6c 08 	lds	r24, 0x086C	; 0x80086c <ClockInitialized>
    239e:	88 23       	and	r24, r24
    23a0:	21 f0       	breq	.+8      	; 0x23aa <CheckConditions+0x2f0>
    23a2:	80 91 f3 09 	lds	r24, 0x09F3	; 0x8009f3 <ComfortMode>
    23a6:	81 11       	cpse	r24, r1
    23a8:	70 c0       	rjmp	.+224    	; 0x248a <CheckConditions+0x3d0>
    23aa:	20 91 e1 09 	lds	r18, 0x09E1	; 0x8009e1 <Buffer>
			}
		}	
		else
		{	
			if (!activeCondition)
				Relays &= ~((1 << BUFFER_VALVE_RELAY) | (1 << BUFFER_PUMP_RELAY) | (1 << FIRST_FLOOR_VALVE) | (1 << SECOND_FLOOR_VALVE) | (1 << HOUSE_VALVE_RELAY));
    23ae:	80 91 70 08 	lds	r24, 0x0870	; 0x800870 <Relays>
    23b2:	8b 70       	andi	r24, 0x0B	; 11
    23b4:	80 93 70 08 	sts	0x0870, r24	; 0x800870 <Relays>
		}		

		if (Buffer.ActualTemp >= (BufferMaxTemp - 5))
    23b8:	42 2f       	mov	r20, r18
    23ba:	50 e0       	ldi	r21, 0x00	; 0
    23bc:	30 91 07 01 	lds	r19, 0x0107	; 0x800107 <BufferMaxTemp>
    23c0:	83 2f       	mov	r24, r19
    23c2:	90 e0       	ldi	r25, 0x00	; 0
    23c4:	bc 01       	movw	r22, r24
    23c6:	65 50       	subi	r22, 0x05	; 5
    23c8:	71 09       	sbc	r23, r1
    23ca:	46 17       	cp	r20, r22
    23cc:	57 07       	cpc	r21, r23
    23ce:	0c f0       	brlt	.+2      	; 0x23d2 <CheckConditions+0x318>
    23d0:	d4 c0       	rjmp	.+424    	; 0x257a <CheckConditions+0x4c0>
				Relays |= ((1 << BUFFER_VALVE_RELAY) | (1 << BUFFER_PUMP_RELAY) | (1 << FIRST_FLOOR_VALVE) | (1 << SECOND_FLOOR_VALVE) | (1 << HOUSE_VALVE_RELAY));
			else if (Buffer.ActualTemp <= (BufferMaxTemp - 5))
				Relays &= ~((1 << BUFFER_VALVE_RELAY) | (1 << BUFFER_PUMP_RELAY) | (1 << FIRST_FLOOR_VALVE) | (1 << SECOND_FLOOR_VALVE) | (1 << HOUSE_VALVE_RELAY));
		}
		
		if (!activeCondition && !pumpplustime && (PumpRunner > 0) && currTime < 100)
    23d2:	80 91 64 08 	lds	r24, 0x0864	; 0x800864 <pumpplustime.3215>
    23d6:	90 91 65 08 	lds	r25, 0x0865	; 0x800865 <pumpplustime.3215+0x1>
    23da:	89 2b       	or	r24, r25
    23dc:	09 f0       	breq	.+2      	; 0x23e0 <CheckConditions+0x326>
    23de:	d9 ce       	rjmp	.-590    	; 0x2192 <CheckConditions+0xd8>
    23e0:	80 91 6a 08 	lds	r24, 0x086A	; 0x80086a <PumpRunner>
    23e4:	88 23       	and	r24, r24
    23e6:	09 f4       	brne	.+2      	; 0x23ea <CheckConditions+0x330>
    23e8:	d4 ce       	rjmp	.-600    	; 0x2192 <CheckConditions+0xd8>
    23ea:	c4 36       	cpi	r28, 0x64	; 100
    23ec:	d1 05       	cpc	r29, r1
    23ee:	0c f0       	brlt	.+2      	; 0x23f2 <CheckConditions+0x338>
    23f0:	d0 ce       	rjmp	.-608    	; 0x2192 <CheckConditions+0xd8>
		{
			PumpRunner--;
    23f2:	81 50       	subi	r24, 0x01	; 1
    23f4:	80 93 6a 08 	sts	0x086A, r24	; 0x80086a <PumpRunner>
			if (PumpRunner == 0)
    23f8:	81 11       	cpse	r24, r1
    23fa:	d2 c0       	rjmp	.+420    	; 0x25a0 <CheckConditions+0x4e6>
			{
				Relays &= ~((1 << BUFFER_VALVE_RELAY) | (1 << BUFFER_PUMP_RELAY) | (1 << FIRST_FLOOR_VALVE) | (1 << SECOND_FLOOR_VALVE) | (1 << HOUSE_VALVE_RELAY) | (1 << WOODPUMP_RELAY));
    23fc:	80 91 70 08 	lds	r24, 0x0870	; 0x800870 <Relays>
    2400:	83 70       	andi	r24, 0x03	; 3
    2402:	80 93 70 08 	sts	0x0870, r24	; 0x800870 <Relays>
    2406:	c5 ce       	rjmp	.-630    	; 0x2192 <CheckConditions+0xd8>
		{
			TCCR2 |= (1 << CS22) | (1 << CS20);
			TIMSK |= (1 << TOIE2);
			WoodLEDRate = 31;
		}		
		else if (WoodPressureBefore >= WoodPressureAlert || WoodPressureAfter >= WoodPressureAlert)
    2408:	80 91 72 0a 	lds	r24, 0x0A72	; 0x800a72 <WoodPressureAlert>
    240c:	90 91 73 0a 	lds	r25, 0x0A73	; 0x800a73 <WoodPressureAlert+0x1>
    2410:	20 91 19 09 	lds	r18, 0x0919	; 0x800919 <WoodPressureBefore>
    2414:	30 91 1a 09 	lds	r19, 0x091A	; 0x80091a <WoodPressureBefore+0x1>
    2418:	28 17       	cp	r18, r24
    241a:	39 07       	cpc	r19, r25
    241c:	08 f0       	brcs	.+2      	; 0x2420 <CheckConditions+0x366>
    241e:	82 cf       	rjmp	.-252    	; 0x2324 <CheckConditions+0x26a>
    2420:	20 91 f4 09 	lds	r18, 0x09F4	; 0x8009f4 <WoodPressureAfter>
    2424:	30 91 f5 09 	lds	r19, 0x09F5	; 0x8009f5 <WoodPressureAfter+0x1>
    2428:	28 17       	cp	r18, r24
    242a:	39 07       	cpc	r19, r25
    242c:	08 f0       	brcs	.+2      	; 0x2430 <CheckConditions+0x376>
    242e:	7a cf       	rjmp	.-268    	; 0x2324 <CheckConditions+0x26a>
			TIMSK |= (1 << TOIE2);
			WoodLEDRate = 6;
		}
		else 
		{
			TCCR2 = 0x00;
    2430:	15 bc       	out	0x25, r1	; 37
			TIMSK &= ~(1 << TOIE2);
    2432:	87 b7       	in	r24, 0x37	; 55
    2434:	8f 7b       	andi	r24, 0xBF	; 191
    2436:	87 bf       	out	0x37, r24	; 55
			PORTF &= ~(1 << PINF4);
    2438:	80 91 62 00 	lds	r24, 0x0062	; 0x800062 <__TEXT_REGION_LENGTH__+0x7f0062>
    243c:	8f 7e       	andi	r24, 0xEF	; 239
    243e:	80 93 62 00 	sts	0x0062, r24	; 0x800062 <__TEXT_REGION_LENGTH__+0x7f0062>
    2442:	bf ce       	rjmp	.-642    	; 0x21c2 <CheckConditions+0x108>

		if (Buffer.ActualTemp >= (BufferMaxTemp - 5))
		{
			if (Buffer.ActualTemp >= BufferMaxTemp)
				Relays |= ((1 << BUFFER_VALVE_RELAY) | (1 << BUFFER_PUMP_RELAY) | (1 << FIRST_FLOOR_VALVE) | (1 << SECOND_FLOOR_VALVE) | (1 << HOUSE_VALVE_RELAY));
			else if (Buffer.ActualTemp <= (BufferMaxTemp - 5))
    2444:	04 97       	sbiw	r24, 0x04	; 4
    2446:	48 17       	cp	r20, r24
    2448:	59 07       	cpc	r21, r25
    244a:	0c f0       	brlt	.+2      	; 0x244e <CheckConditions+0x394>
    244c:	9f ce       	rjmp	.-706    	; 0x218c <CheckConditions+0xd2>
				Relays &= ~((1 << BUFFER_VALVE_RELAY) | (1 << BUFFER_PUMP_RELAY) | (1 << FIRST_FLOOR_VALVE) | (1 << SECOND_FLOOR_VALVE) | (1 << HOUSE_VALVE_RELAY));
    244e:	80 91 70 08 	lds	r24, 0x0870	; 0x800870 <Relays>
    2452:	8b 70       	andi	r24, 0x0B	; 11
    2454:	80 93 70 08 	sts	0x0870, r24	; 0x800870 <Relays>
    2458:	99 ce       	rjmp	.-718    	; 0x218c <CheckConditions+0xd2>
			else
			{
				if (!pumpplustime)
					Relays &= ~((1 << FIRST_FLOOR_VALVE) | (1 << SECOND_FLOOR_VALVE) | (1 << HOUSE_VALVE_RELAY));
				else
					pumpplustime--;
    245a:	21 50       	subi	r18, 0x01	; 1
    245c:	31 09       	sbc	r19, r1
    245e:	30 93 65 08 	sts	0x0865, r19	; 0x800865 <pumpplustime.3215+0x1>
    2462:	20 93 64 08 	sts	0x0864, r18	; 0x800864 <pumpplustime.3215>
    2466:	95 cf       	rjmp	.-214    	; 0x2392 <CheckConditions+0x2d8>
			Relays |= (1 << DHW_VALVE_RELAY);
			Relays &= ~((1 << FIRST_FLOOR_VALVE) | (1 << SECOND_FLOOR_VALVE) | (1 << HOUSE_VALVE_RELAY));

			if (Buffer.ActualTemp < DHWTempDesired) // Pufferben nincs elég energia
			{
				pumpplustime = PumpPlusTime;
    2468:	20 91 f7 09 	lds	r18, 0x09F7	; 0x8009f7 <PumpPlusTime>
    246c:	30 91 f8 09 	lds	r19, 0x09F8	; 0x8009f8 <PumpPlusTime+0x1>
    2470:	30 93 65 08 	sts	0x0865, r19	; 0x800865 <pumpplustime.3215+0x1>
    2474:	20 93 64 08 	sts	0x0864, r18	; 0x800864 <pumpplustime.3215>
				Relays |= (1 << GAS_RELAY);
				Relays &= ~((1 << BUFFER_VALVE_RELAY) | (1 << BUFFER_PUMP_RELAY));
    2478:	9b 70       	andi	r25, 0x0B	; 11
    247a:	93 60       	ori	r25, 0x03	; 3
    247c:	90 93 70 08 	sts	0x0870, r25	; 0x800870 <Relays>
				TurnOTGasOn(DHWTempDesired + 15);					
    2480:	81 5f       	subi	r24, 0xF1	; 241
    2482:	ca dd       	rcall	.-1132   	; 0x2018 <TurnOTGasOn>
    2484:	20 91 e1 09 	lds	r18, 0x09E1	; 0x8009e1 <Buffer>
    2488:	6c ce       	rjmp	.-808    	; 0x2162 <CheckConditions+0xa8>
				//if (DebugMode > 0)
				//	uart_puts_P("GAS and FIRST_FLOOR_VALVE, SECOND_FLOOR_VALVE relay deactivated\n");
			}
		}
		
		if (ClockInitialized && ComfortMode && !activeCondition && !pumpplustime && (ComfortMaxTimeHour*100 + ComfortMaxTimeMinute) >= currTime && (ComfortMinTimeHour*100 + ComfortMinTimeMinute) <= currTime)
    248a:	20 91 64 08 	lds	r18, 0x0864	; 0x800864 <pumpplustime.3215>
    248e:	30 91 65 08 	lds	r19, 0x0865	; 0x800865 <pumpplustime.3215+0x1>
    2492:	23 2b       	or	r18, r19
    2494:	09 f0       	breq	.+2      	; 0x2498 <CheckConditions+0x3de>
    2496:	89 cf       	rjmp	.-238    	; 0x23aa <CheckConditions+0x2f0>
    2498:	90 91 17 09 	lds	r25, 0x0917	; 0x800917 <ComfortMaxTimeHour>
    249c:	20 91 37 09 	lds	r18, 0x0937	; 0x800937 <ComfortMaxTimeMinute>
    24a0:	30 e0       	ldi	r19, 0x00	; 0
    24a2:	64 e6       	ldi	r22, 0x64	; 100
    24a4:	96 9f       	mul	r25, r22
    24a6:	20 0d       	add	r18, r0
    24a8:	31 1d       	adc	r19, r1
    24aa:	11 24       	eor	r1, r1
    24ac:	2c 17       	cp	r18, r28
    24ae:	3d 07       	cpc	r19, r29
    24b0:	08 f4       	brcc	.+2      	; 0x24b4 <CheckConditions+0x3fa>
    24b2:	7b cf       	rjmp	.-266    	; 0x23aa <CheckConditions+0x2f0>
    24b4:	90 91 96 09 	lds	r25, 0x0996	; 0x800996 <ComfortMinTimeHour>
    24b8:	20 91 bd 09 	lds	r18, 0x09BD	; 0x8009bd <ComfortMinTimeMinute>
    24bc:	30 e0       	ldi	r19, 0x00	; 0
    24be:	44 e6       	ldi	r20, 0x64	; 100
    24c0:	94 9f       	mul	r25, r20
    24c2:	20 0d       	add	r18, r0
    24c4:	31 1d       	adc	r19, r1
    24c6:	11 24       	eor	r1, r1
    24c8:	c2 17       	cp	r28, r18
    24ca:	d3 07       	cpc	r29, r19
    24cc:	08 f4       	brcc	.+2      	; 0x24d0 <CheckConditions+0x416>
    24ce:	6d cf       	rjmp	.-294    	; 0x23aa <CheckConditions+0x2f0>
		{
			if (Buffer.ActualTemp >= ComfortForwardTemp)
    24d0:	40 91 e1 09 	lds	r20, 0x09E1	; 0x8009e1 <Buffer>
    24d4:	24 2f       	mov	r18, r20
    24d6:	90 91 09 01 	lds	r25, 0x0109	; 0x800109 <ComfortForwardTemp>
    24da:	49 17       	cp	r20, r25
    24dc:	a0 f1       	brcs	.+104    	; 0x2546 <CheckConditions+0x48c>
				comfortHyst = 10;
    24de:	9a e0       	ldi	r25, 0x0A	; 10
    24e0:	90 93 63 08 	sts	0x0863, r25	; 0x800863 <comfortHyst.3216>
					comfortHyst--;
			}
			
			if (comfortHyst > 0) // ha átkapcsol gázról pufferre, a gáz még utókeringetne
			{
				switch (ComfortMode)
    24e4:	82 30       	cpi	r24, 0x02	; 2
    24e6:	09 f4       	brne	.+2      	; 0x24ea <CheckConditions+0x430>
    24e8:	ee c0       	rjmp	.+476    	; 0x26c6 <CheckConditions+0x60c>
    24ea:	83 30       	cpi	r24, 0x03	; 3
    24ec:	09 f4       	brne	.+2      	; 0x24f0 <CheckConditions+0x436>
    24ee:	a2 c0       	rjmp	.+324    	; 0x2634 <CheckConditions+0x57a>
    24f0:	81 30       	cpi	r24, 0x01	; 1
    24f2:	09 f4       	brne	.+2      	; 0x24f6 <CheckConditions+0x43c>
    24f4:	74 c0       	rjmp	.+232    	; 0x25de <CheckConditions+0x524>
							comfortSecondIsOn = 0;
							Relays &= ~(1 << SECOND_FLOOR_VALVE);
						}
					break;
				}							
				if (comfortLivingIsOn || comfortSecondIsOn)
    24f6:	80 91 62 08 	lds	r24, 0x0862	; 0x800862 <comfortLivingIsOn.3217>
    24fa:	81 11       	cpse	r24, r1
    24fc:	05 c0       	rjmp	.+10     	; 0x2508 <CheckConditions+0x44e>
    24fe:	80 91 61 08 	lds	r24, 0x0861	; 0x800861 <comfortSecondIsOn.3218>
    2502:	88 23       	and	r24, r24
    2504:	09 f4       	brne	.+2      	; 0x2508 <CheckConditions+0x44e>
    2506:	58 cf       	rjmp	.-336    	; 0x23b8 <CheckConditions+0x2fe>
    2508:	90 91 70 08 	lds	r25, 0x0870	; 0x800870 <Relays>
					Relays |= (1 << BUFFER_VALVE_RELAY) | (1 << BUFFER_PUMP_RELAY) | (1 << HOUSE_VALVE_RELAY);
    250c:	94 63       	ori	r25, 0x34	; 52
    250e:	90 93 70 08 	sts	0x0870, r25	; 0x800870 <Relays>
    2512:	52 cf       	rjmp	.-348    	; 0x23b8 <CheckConditions+0x2fe>
			}
			else // Pufferben van elég energia
			{
				if (!pumpplustime)
				{
					pumpplustime--;
    2514:	2f ef       	ldi	r18, 0xFF	; 255
    2516:	3f ef       	ldi	r19, 0xFF	; 255
    2518:	30 93 65 08 	sts	0x0865, r19	; 0x800865 <pumpplustime.3215+0x1>
    251c:	20 93 64 08 	sts	0x0864, r18	; 0x800864 <pumpplustime.3215>
					Relays &= ~(1 << GAS_RELAY);
    2520:	99 73       	andi	r25, 0x39	; 57
    2522:	91 60       	ori	r25, 0x01	; 1
    2524:	90 93 70 08 	sts	0x0870, r25	; 0x800870 <Relays>
					TurnOTGasOff();
    2528:	89 dd       	rcall	.-1262   	; 0x203c <TurnOTGasOff>
    252a:	20 91 e1 09 	lds	r18, 0x09E1	; 0x8009e1 <Buffer>
    252e:	19 ce       	rjmp	.-974    	; 0x2162 <CheckConditions+0xa8>
					//|| !(THERMOSTAT_PIN & (1 << SECOND_THERMO_PIN)) || !(PIND & (1 << SECOND_REMOTE_PIN))
					//|| ((SecondFloor.ActualTemp * 10 + SecondFloor.ActualTempFrac) <= (SecondFloorDesired * 10 + SecondFloorFracDesired) && SecondFloorThermostatActive))
				//{
				if (Buffer.ActualTemp >= ForwardHeatTemp)
				{
					if (!pumpplustime) // ha átkapcsol gázról pufferre, a gáz még utókeringetne
    2530:	20 91 64 08 	lds	r18, 0x0864	; 0x800864 <pumpplustime.3215>
    2534:	30 91 65 08 	lds	r19, 0x0865	; 0x800865 <pumpplustime.3215+0x1>
    2538:	21 15       	cp	r18, r1
    253a:	31 05       	cpc	r19, r1
    253c:	c9 f5       	brne	.+114    	; 0x25b0 <CheckConditions+0x4f6>
					{							
						Relays |= ((1 << BUFFER_VALVE_RELAY) | (1 << BUFFER_PUMP_RELAY));							
    253e:	90 63       	ori	r25, 0x30	; 48
    2540:	90 93 70 08 	sts	0x0870, r25	; 0x800870 <Relays>
    2544:	d3 ce       	rjmp	.-602    	; 0x22ec <CheckConditions+0x232>
		{
			if (Buffer.ActualTemp >= ComfortForwardTemp)
				comfortHyst = 10;
			else
			{
				if (comfortHyst > 0)
    2546:	90 91 63 08 	lds	r25, 0x0863	; 0x800863 <comfortHyst.3216>
    254a:	99 23       	and	r25, r25
    254c:	29 f0       	breq	.+10     	; 0x2558 <CheckConditions+0x49e>
					comfortHyst--;
    254e:	91 50       	subi	r25, 0x01	; 1
    2550:	90 93 63 08 	sts	0x0863, r25	; 0x800863 <comfortHyst.3216>
			}
			
			if (comfortHyst > 0) // ha átkapcsol gázról pufferre, a gáz még utókeringetne
    2554:	91 11       	cpse	r25, r1
    2556:	c6 cf       	rjmp	.-116    	; 0x24e4 <CheckConditions+0x42a>
				if (comfortLivingIsOn || comfortSecondIsOn)
					Relays |= (1 << BUFFER_VALVE_RELAY) | (1 << BUFFER_PUMP_RELAY) | (1 << HOUSE_VALVE_RELAY);
			}
			else
			{				
				Relays &= ~((1 << BUFFER_VALVE_RELAY) | (1 << BUFFER_PUMP_RELAY) | (1 << FIRST_FLOOR_VALVE) | (1 << SECOND_FLOOR_VALVE) | (1 << HOUSE_VALVE_RELAY));			
    2558:	80 91 70 08 	lds	r24, 0x0870	; 0x800870 <Relays>
    255c:	8b 70       	andi	r24, 0x0B	; 11
    255e:	80 93 70 08 	sts	0x0870, r24	; 0x800870 <Relays>
		{	
			if (!activeCondition)
				Relays &= ~((1 << BUFFER_VALVE_RELAY) | (1 << BUFFER_PUMP_RELAY) | (1 << FIRST_FLOOR_VALVE) | (1 << SECOND_FLOOR_VALVE) | (1 << HOUSE_VALVE_RELAY));
		}		

		if (Buffer.ActualTemp >= (BufferMaxTemp - 5))
    2562:	50 e0       	ldi	r21, 0x00	; 0
    2564:	30 91 07 01 	lds	r19, 0x0107	; 0x800107 <BufferMaxTemp>
    2568:	83 2f       	mov	r24, r19
    256a:	90 e0       	ldi	r25, 0x00	; 0
    256c:	bc 01       	movw	r22, r24
    256e:	65 50       	subi	r22, 0x05	; 5
    2570:	71 09       	sbc	r23, r1
    2572:	46 17       	cp	r20, r22
    2574:	57 07       	cpc	r21, r23
    2576:	0c f4       	brge	.+2      	; 0x257a <CheckConditions+0x4c0>
    2578:	33 cf       	rjmp	.-410    	; 0x23e0 <CheckConditions+0x326>
    257a:	60 e0       	ldi	r22, 0x00	; 0
    257c:	ff cd       	rjmp	.-1026   	; 0x217c <CheckConditions+0xc2>
					//}								
				//}

				if (!(THERMOSTAT_PIN & (1 << FIRST_THERMO_PIN)) || (!(THERMOSTAT_PIN & (1 << FIRST_REMOTE_PIN))))
				{
					Relays |= (1 << FIRST_FLOOR_VALVE) | (1 << HOUSE_VALVE_RELAY);
    257e:	94 68       	ori	r25, 0x84	; 132
    2580:	90 93 70 08 	sts	0x0870, r25	; 0x800870 <Relays>
				{
					Relays &= ~(1 << FIRST_FLOOR_VALVE);
					//uart_puts("F0\r\n");
				}

				if (!(THERMOSTAT_PIN & (1 << SECOND_THERMO_PIN)) || !(PIND & (1 << SECOND_REMOTE_PIN)) || SecondFloorCondition())
    2584:	ba ce       	rjmp	.-652    	; 0x22fa <CheckConditions+0x240>
    2586:	83 9b       	sbis	0x10, 3	; 16
    2588:	ba ce       	rjmp	.-652    	; 0x22fe <CheckConditions+0x244>
    258a:	65 dd       	rcall	.-1334   	; 0x2056 <SecondFloorCondition>
    258c:	81 11       	cpse	r24, r1
    258e:	b7 ce       	rjmp	.-658    	; 0x22fe <CheckConditions+0x244>
					Relays |= (1 << SECOND_FLOOR_VALVE) | (1 << HOUSE_VALVE_RELAY);
					//uart_puts("E1\r\n");
				}
				else 
				{
					Relays &= ~(1 << SECOND_FLOOR_VALVE);
    2590:	80 91 70 08 	lds	r24, 0x0870	; 0x800870 <Relays>
    2594:	8f 7b       	andi	r24, 0xBF	; 191
    2596:	80 93 70 08 	sts	0x0870, r24	; 0x800870 <Relays>
    259a:	20 91 e1 09 	lds	r18, 0x09E1	; 0x8009e1 <Buffer>
    259e:	e1 cd       	rjmp	.-1086   	; 0x2162 <CheckConditions+0xa8>
			{
				Relays &= ~((1 << BUFFER_VALVE_RELAY) | (1 << BUFFER_PUMP_RELAY) | (1 << FIRST_FLOOR_VALVE) | (1 << SECOND_FLOOR_VALVE) | (1 << HOUSE_VALVE_RELAY) | (1 << WOODPUMP_RELAY));
			}
			else
			{
				Relays |= ((1 << BUFFER_VALVE_RELAY) | (1 << BUFFER_PUMP_RELAY) | (1 << FIRST_FLOOR_VALVE) | (1 << SECOND_FLOOR_VALVE) | (1 << HOUSE_VALVE_RELAY) | (1 << WOODPUMP_RELAY));
    25a0:	80 91 70 08 	lds	r24, 0x0870	; 0x800870 <Relays>
    25a4:	8c 6f       	ori	r24, 0xFC	; 252
    25a6:	80 93 70 08 	sts	0x0870, r24	; 0x800870 <Relays>
    25aa:	f3 cd       	rjmp	.-1050   	; 0x2192 <CheckConditions+0xd8>
//}

int8_t GetCompensation(int8_t outside)
{
	int diff = 23 - outside;
	if (diff <= 10)
    25ac:	96 ef       	ldi	r25, 0xF6	; 246
    25ae:	98 ce       	rjmp	.-720    	; 0x22e0 <CheckConditions+0x226>
					{							
						Relays |= ((1 << BUFFER_VALVE_RELAY) | (1 << BUFFER_PUMP_RELAY));							
					}
					else
					{
						pumpplustime--;
    25b0:	21 50       	subi	r18, 0x01	; 1
    25b2:	31 09       	sbc	r19, r1
    25b4:	30 93 65 08 	sts	0x0865, r19	; 0x800865 <pumpplustime.3215+0x1>
    25b8:	20 93 64 08 	sts	0x0864, r18	; 0x800864 <pumpplustime.3215>
						Relays &= ~((1 << GAS_RELAY) | (1 << DHW_VALVE_RELAY));
    25bc:	9c 7f       	andi	r25, 0xFC	; 252
    25be:	90 93 70 08 	sts	0x0870, r25	; 0x800870 <Relays>
							
						TurnOTGasOff();
    25c2:	3c dd       	rcall	.-1416   	; 0x203c <TurnOTGasOff>
    25c4:	90 91 70 08 	lds	r25, 0x0870	; 0x800870 <Relays>
    25c8:	91 ce       	rjmp	.-734    	; 0x22ec <CheckConditions+0x232>
int8_t GetCompensation(int8_t outside)
{
	int diff = 23 - outside;
	if (diff <= 10)
		return -10;
	else if (10 < diff && diff <= 20)
    25ca:	9b ef       	ldi	r25, 0xFB	; 251
    25cc:	89 ce       	rjmp	.-750    	; 0x22e0 <CheckConditions+0x226>
uint8_t EngineeringCondition()
{
	static uint8_t isOn = 0;
	if (EngineeringTempMin > Engineering.ActualTemp)
	{
		isOn = 1;
    25ce:	81 e0       	ldi	r24, 0x01	; 1
    25d0:	80 93 5f 08 	sts	0x085F, r24	; 0x80085f <isOn.3269>
    25d4:	3b ce       	rjmp	.-906    	; 0x224c <CheckConditions+0x192>
	int diff = 23 - outside;
	if (diff <= 10)
		return -10;
	else if (10 < diff && diff <= 20)
		return -5;
	else if (20 < diff && diff <= 30)
    25d6:	90 e0       	ldi	r25, 0x00	; 0
    25d8:	83 ce       	rjmp	.-762    	; 0x22e0 <CheckConditions+0x226>
		return 0;
	else if (30 < diff && diff <= 40)
    25da:	9a e0       	ldi	r25, 0x0A	; 10
    25dc:	81 ce       	rjmp	.-766    	; 0x22e0 <CheckConditions+0x226>
			if (comfortHyst > 0) // ha átkapcsol gázról pufferre, a gáz még utókeringetne
			{
				switch (ComfortMode)
				{
					case 1:
						if ((ComfortTemp * 10 + ComfortTempFrac - 2) > ( LivingRoom.ActualTemp * 10 + LivingRoom.ActualTempFrac))
    25de:	80 91 16 09 	lds	r24, 0x0916	; 0x800916 <ComfortTemp>
    25e2:	40 91 53 09 	lds	r20, 0x0953	; 0x800953 <ComfortTempFrac>
    25e6:	50 e0       	ldi	r21, 0x00	; 0
    25e8:	6a e0       	ldi	r22, 0x0A	; 10
    25ea:	86 9f       	mul	r24, r22
    25ec:	40 0d       	add	r20, r0
    25ee:	51 1d       	adc	r21, r1
    25f0:	11 24       	eor	r1, r1
    25f2:	30 91 74 0a 	lds	r19, 0x0A74	; 0x800a74 <LivingRoom>
    25f6:	80 91 75 0a 	lds	r24, 0x0A75	; 0x800a75 <LivingRoom+0x1>
    25fa:	90 e0       	ldi	r25, 0x00	; 0
    25fc:	6a e0       	ldi	r22, 0x0A	; 10
    25fe:	36 9f       	mul	r19, r22
    2600:	80 0d       	add	r24, r0
    2602:	91 1d       	adc	r25, r1
    2604:	11 24       	eor	r1, r1
    2606:	ba 01       	movw	r22, r20
    2608:	62 50       	subi	r22, 0x02	; 2
    260a:	71 09       	sbc	r23, r1
    260c:	86 17       	cp	r24, r22
    260e:	97 07       	cpc	r25, r23
    2610:	0c f4       	brge	.+2      	; 0x2614 <CheckConditions+0x55a>
    2612:	89 c0       	rjmp	.+274    	; 0x2726 <CheckConditions+0x66c>
						{
							comfortLivingIsOn = 1;
							Relays |= (1 << FIRST_FLOOR_VALVE);
						}
						else if (comfortLivingIsOn && (ComfortTemp * 10 + ComfortTempFrac) > ( LivingRoom.ActualTemp * 10 + LivingRoom.ActualTempFrac))
    2614:	30 91 62 08 	lds	r19, 0x0862	; 0x800862 <comfortLivingIsOn.3217>
    2618:	33 23       	and	r19, r19
    261a:	21 f0       	breq	.+8      	; 0x2624 <CheckConditions+0x56a>
    261c:	84 17       	cp	r24, r20
    261e:	95 07       	cpc	r25, r21
    2620:	0c f4       	brge	.+2      	; 0x2624 <CheckConditions+0x56a>
    2622:	81 c0       	rjmp	.+258    	; 0x2726 <CheckConditions+0x66c>
							comfortLivingIsOn = 1;
							Relays |= (1 << FIRST_FLOOR_VALVE);
						}
						else
						{
							comfortLivingIsOn = 0;
    2624:	10 92 62 08 	sts	0x0862, r1	; 0x800862 <comfortLivingIsOn.3217>
							Relays &= ~(1 << FIRST_FLOOR_VALVE);
    2628:	90 91 70 08 	lds	r25, 0x0870	; 0x800870 <Relays>
    262c:	9f 77       	andi	r25, 0x7F	; 127
    262e:	90 93 70 08 	sts	0x0870, r25	; 0x800870 <Relays>
    2632:	65 cf       	rjmp	.-310    	; 0x24fe <CheckConditions+0x444>
							Relays &= ~(1 << SECOND_FLOOR_VALVE);
						}
					break;
								
					case 3:
						if ((ComfortTemp * 10 + ComfortTempFrac - 2) > ( LivingRoom.ActualTemp * 10 + LivingRoom.ActualTempFrac))
    2634:	80 91 16 09 	lds	r24, 0x0916	; 0x800916 <ComfortTemp>
    2638:	20 91 53 09 	lds	r18, 0x0953	; 0x800953 <ComfortTempFrac>
    263c:	30 e0       	ldi	r19, 0x00	; 0
    263e:	6a e0       	ldi	r22, 0x0A	; 10
    2640:	86 9f       	mul	r24, r22
    2642:	20 0d       	add	r18, r0
    2644:	31 1d       	adc	r19, r1
    2646:	11 24       	eor	r1, r1
    2648:	f9 01       	movw	r30, r18
    264a:	32 97       	sbiw	r30, 0x02	; 2
    264c:	50 91 74 0a 	lds	r21, 0x0A74	; 0x800a74 <LivingRoom>
    2650:	80 91 75 0a 	lds	r24, 0x0A75	; 0x800a75 <LivingRoom+0x1>
    2654:	90 e0       	ldi	r25, 0x00	; 0
    2656:	6a e0       	ldi	r22, 0x0A	; 10
    2658:	56 9f       	mul	r21, r22
    265a:	80 0d       	add	r24, r0
    265c:	91 1d       	adc	r25, r1
    265e:	11 24       	eor	r1, r1
    2660:	8e 17       	cp	r24, r30
    2662:	9f 07       	cpc	r25, r31
    2664:	0c f4       	brge	.+2      	; 0x2668 <CheckConditions+0x5ae>
    2666:	6c c0       	rjmp	.+216    	; 0x2740 <CheckConditions+0x686>
						{
							comfortLivingIsOn = 1;
							Relays |= (1 << FIRST_FLOOR_VALVE);
						}
						else if (comfortLivingIsOn && (ComfortTemp * 10 + ComfortTempFrac) > ( LivingRoom.ActualTemp * 10 + LivingRoom.ActualTempFrac))
    2668:	50 91 62 08 	lds	r21, 0x0862	; 0x800862 <comfortLivingIsOn.3217>
    266c:	55 23       	and	r21, r21
    266e:	21 f0       	breq	.+8      	; 0x2678 <CheckConditions+0x5be>
    2670:	82 17       	cp	r24, r18
    2672:	93 07       	cpc	r25, r19
    2674:	0c f4       	brge	.+2      	; 0x2678 <CheckConditions+0x5be>
    2676:	64 c0       	rjmp	.+200    	; 0x2740 <CheckConditions+0x686>
							comfortLivingIsOn = 1;
							Relays |= (1 << FIRST_FLOOR_VALVE);
						}
						else
						{
							comfortLivingIsOn = 0;
    2678:	10 92 62 08 	sts	0x0862, r1	; 0x800862 <comfortLivingIsOn.3217>
							Relays &= ~(1 << FIRST_FLOOR_VALVE);
    267c:	90 91 70 08 	lds	r25, 0x0870	; 0x800870 <Relays>
    2680:	9f 77       	andi	r25, 0x7F	; 127
						}
						
						if ((ComfortTemp * 10 + ComfortTempFrac - 2) > ( SecondFloor.ActualTemp * 10 + SecondFloor.ActualTempFrac))
    2682:	80 91 1b 09 	lds	r24, 0x091B	; 0x80091b <SecondFloor>
    2686:	60 91 1c 09 	lds	r22, 0x091C	; 0x80091c <SecondFloor+0x1>
    268a:	70 e0       	ldi	r23, 0x00	; 0
    268c:	5a e0       	ldi	r21, 0x0A	; 10
    268e:	85 9f       	mul	r24, r21
    2690:	60 0d       	add	r22, r0
    2692:	71 1d       	adc	r23, r1
    2694:	11 24       	eor	r1, r1
    2696:	6e 17       	cp	r22, r30
    2698:	7f 07       	cpc	r23, r31
    269a:	0c f4       	brge	.+2      	; 0x269e <CheckConditions+0x5e4>
    269c:	4b c0       	rjmp	.+150    	; 0x2734 <CheckConditions+0x67a>
						{
							comfortSecondIsOn = 1;
							Relays |= (1 << SECOND_FLOOR_VALVE);
						}
						else if (comfortSecondIsOn && (ComfortTemp * 10 + ComfortTempFrac) > ( SecondFloor.ActualTemp * 10 + SecondFloor.ActualTempFrac))
    269e:	80 91 61 08 	lds	r24, 0x0861	; 0x800861 <comfortSecondIsOn.3218>
    26a2:	88 23       	and	r24, r24
    26a4:	21 f0       	breq	.+8      	; 0x26ae <CheckConditions+0x5f4>
    26a6:	62 17       	cp	r22, r18
    26a8:	73 07       	cpc	r23, r19
    26aa:	0c f4       	brge	.+2      	; 0x26ae <CheckConditions+0x5f4>
    26ac:	43 c0       	rjmp	.+134    	; 0x2734 <CheckConditions+0x67a>
							comfortSecondIsOn = 1;
							Relays |= (1 << SECOND_FLOOR_VALVE);
						}
						else
						{
							comfortSecondIsOn = 0;
    26ae:	10 92 61 08 	sts	0x0861, r1	; 0x800861 <comfortSecondIsOn.3218>
							Relays &= ~(1 << SECOND_FLOOR_VALVE);
    26b2:	9f 7b       	andi	r25, 0xBF	; 191
    26b4:	90 93 70 08 	sts	0x0870, r25	; 0x800870 <Relays>
    26b8:	24 2f       	mov	r18, r20
						}
					break;
				}							
				if (comfortLivingIsOn || comfortSecondIsOn)
    26ba:	80 91 62 08 	lds	r24, 0x0862	; 0x800862 <comfortLivingIsOn.3217>
    26be:	88 23       	and	r24, r24
    26c0:	09 f4       	brne	.+2      	; 0x26c4 <CheckConditions+0x60a>
    26c2:	7a ce       	rjmp	.-780    	; 0x23b8 <CheckConditions+0x2fe>
    26c4:	23 cf       	rjmp	.-442    	; 0x250c <CheckConditions+0x452>
							Relays &= ~(1 << FIRST_FLOOR_VALVE);
						}
					break;
								
					case 2:
						if ((ComfortTemp * 10 + ComfortTempFrac - 2) > ( SecondFloor.ActualTemp * 10 + SecondFloor.ActualTempFrac))
    26c6:	80 91 16 09 	lds	r24, 0x0916	; 0x800916 <ComfortTemp>
    26ca:	60 91 53 09 	lds	r22, 0x0953	; 0x800953 <ComfortTempFrac>
    26ce:	70 e0       	ldi	r23, 0x00	; 0
    26d0:	9a e0       	ldi	r25, 0x0A	; 10
    26d2:	89 9f       	mul	r24, r25
    26d4:	60 0d       	add	r22, r0
    26d6:	71 1d       	adc	r23, r1
    26d8:	11 24       	eor	r1, r1
    26da:	30 91 1b 09 	lds	r19, 0x091B	; 0x80091b <SecondFloor>
    26de:	80 91 1c 09 	lds	r24, 0x091C	; 0x80091c <SecondFloor+0x1>
    26e2:	90 e0       	ldi	r25, 0x00	; 0
    26e4:	5a e0       	ldi	r21, 0x0A	; 10
    26e6:	35 9f       	mul	r19, r21
    26e8:	80 0d       	add	r24, r0
    26ea:	91 1d       	adc	r25, r1
    26ec:	11 24       	eor	r1, r1
    26ee:	fb 01       	movw	r30, r22
    26f0:	32 97       	sbiw	r30, 0x02	; 2
    26f2:	8e 17       	cp	r24, r30
    26f4:	9f 07       	cpc	r25, r31
    26f6:	7c f0       	brlt	.+30     	; 0x2716 <CheckConditions+0x65c>
						{
							comfortSecondIsOn = 1;
							Relays |= (1 << SECOND_FLOOR_VALVE);
						}
						else if (comfortSecondIsOn && (ComfortTemp * 10 + ComfortTempFrac) > ( SecondFloor.ActualTemp * 10 + SecondFloor.ActualTempFrac))
    26f8:	30 91 61 08 	lds	r19, 0x0861	; 0x800861 <comfortSecondIsOn.3218>
    26fc:	33 23       	and	r19, r19
    26fe:	19 f0       	breq	.+6      	; 0x2706 <CheckConditions+0x64c>
    2700:	86 17       	cp	r24, r22
    2702:	97 07       	cpc	r25, r23
    2704:	44 f0       	brlt	.+16     	; 0x2716 <CheckConditions+0x65c>
							comfortSecondIsOn = 1;
							Relays |= (1 << SECOND_FLOOR_VALVE);
						}
						else
						{
							comfortSecondIsOn = 0;
    2706:	10 92 61 08 	sts	0x0861, r1	; 0x800861 <comfortSecondIsOn.3218>
							Relays &= ~(1 << SECOND_FLOOR_VALVE);
    270a:	90 91 70 08 	lds	r25, 0x0870	; 0x800870 <Relays>
    270e:	9f 7b       	andi	r25, 0xBF	; 191
    2710:	90 93 70 08 	sts	0x0870, r25	; 0x800870 <Relays>
    2714:	d2 cf       	rjmp	.-92     	; 0x26ba <CheckConditions+0x600>
					break;
								
					case 2:
						if ((ComfortTemp * 10 + ComfortTempFrac - 2) > ( SecondFloor.ActualTemp * 10 + SecondFloor.ActualTempFrac))
						{
							comfortSecondIsOn = 1;
    2716:	81 e0       	ldi	r24, 0x01	; 1
    2718:	80 93 61 08 	sts	0x0861, r24	; 0x800861 <comfortSecondIsOn.3218>
							Relays |= (1 << SECOND_FLOOR_VALVE);
    271c:	90 91 70 08 	lds	r25, 0x0870	; 0x800870 <Relays>
    2720:	90 64       	ori	r25, 0x40	; 64
    2722:	24 2f       	mov	r18, r20
    2724:	f3 ce       	rjmp	.-538    	; 0x250c <CheckConditions+0x452>
				switch (ComfortMode)
				{
					case 1:
						if ((ComfortTemp * 10 + ComfortTempFrac - 2) > ( LivingRoom.ActualTemp * 10 + LivingRoom.ActualTempFrac))
						{
							comfortLivingIsOn = 1;
    2726:	81 e0       	ldi	r24, 0x01	; 1
    2728:	80 93 62 08 	sts	0x0862, r24	; 0x800862 <comfortLivingIsOn.3217>
							Relays |= (1 << FIRST_FLOOR_VALVE);
    272c:	90 91 70 08 	lds	r25, 0x0870	; 0x800870 <Relays>
    2730:	90 68       	ori	r25, 0x80	; 128
    2732:	ec ce       	rjmp	.-552    	; 0x250c <CheckConditions+0x452>
							Relays &= ~(1 << FIRST_FLOOR_VALVE);
						}
						
						if ((ComfortTemp * 10 + ComfortTempFrac - 2) > ( SecondFloor.ActualTemp * 10 + SecondFloor.ActualTempFrac))
						{
							comfortSecondIsOn = 1;
    2734:	81 e0       	ldi	r24, 0x01	; 1
    2736:	80 93 61 08 	sts	0x0861, r24	; 0x800861 <comfortSecondIsOn.3218>
							Relays |= (1 << SECOND_FLOOR_VALVE);
    273a:	90 64       	ori	r25, 0x40	; 64
    273c:	24 2f       	mov	r18, r20
    273e:	e6 ce       	rjmp	.-564    	; 0x250c <CheckConditions+0x452>
					break;
								
					case 3:
						if ((ComfortTemp * 10 + ComfortTempFrac - 2) > ( LivingRoom.ActualTemp * 10 + LivingRoom.ActualTempFrac))
						{
							comfortLivingIsOn = 1;
    2740:	81 e0       	ldi	r24, 0x01	; 1
    2742:	80 93 62 08 	sts	0x0862, r24	; 0x800862 <comfortLivingIsOn.3217>
							Relays |= (1 << FIRST_FLOOR_VALVE);
    2746:	90 91 70 08 	lds	r25, 0x0870	; 0x800870 <Relays>
    274a:	90 68       	ori	r25, 0x80	; 128
    274c:	9a cf       	rjmp	.-204    	; 0x2682 <CheckConditions+0x5c8>

0000274e <read_from_eeprom>:
	return isOn;
}

void read_from_eeprom()
{	
	DHWTempDesired = eeprom_read_byte(&eeDHWTempDesired);
    274e:	8e e7       	ldi	r24, 0x7E	; 126
    2750:	90 e0       	ldi	r25, 0x00	; 0
    2752:	0e 94 b9 33 	call	0x6772	; 0x6772 <eeprom_read_byte>
    2756:	80 93 54 09 	sts	0x0954, r24	; 0x800954 <DHWTempDesired>
	DHWTempMin = eeprom_read_byte(&eeDHWTempMin);
    275a:	8d e7       	ldi	r24, 0x7D	; 125
    275c:	90 e0       	ldi	r25, 0x00	; 0
    275e:	0e 94 b9 33 	call	0x6772	; 0x6772 <eeprom_read_byte>
    2762:	80 93 39 09 	sts	0x0939, r24	; 0x800939 <DHWTempMin>
	DHWMinTimeHour = eeprom_read_byte(&eeDHWMinTimeHour);
    2766:	8c e7       	ldi	r24, 0x7C	; 124
    2768:	90 e0       	ldi	r25, 0x00	; 0
    276a:	0e 94 b9 33 	call	0x6772	; 0x6772 <eeprom_read_byte>
    276e:	80 93 32 09 	sts	0x0932, r24	; 0x800932 <DHWMinTimeHour>
	DHWMinTimeMinute = eeprom_read_byte(&eeDHWMinTimeMinute);
    2772:	8b e7       	ldi	r24, 0x7B	; 123
    2774:	90 e0       	ldi	r25, 0x00	; 0
    2776:	0e 94 b9 33 	call	0x6772	; 0x6772 <eeprom_read_byte>
    277a:	80 93 33 09 	sts	0x0933, r24	; 0x800933 <DHWMinTimeMinute>
	DHWMaxTimeHour = eeprom_read_byte(&eeDHWMaxTimeHour);
    277e:	8a e7       	ldi	r24, 0x7A	; 122
    2780:	90 e0       	ldi	r25, 0x00	; 0
    2782:	0e 94 b9 33 	call	0x6772	; 0x6772 <eeprom_read_byte>
    2786:	80 93 71 0a 	sts	0x0A71, r24	; 0x800a71 <DHWMaxTimeHour>
	DHWMaxTimeMinute = eeprom_read_byte(&eeDHWMaxTimeMinute);	
    278a:	89 e7       	ldi	r24, 0x79	; 121
    278c:	90 e0       	ldi	r25, 0x00	; 0
    278e:	0e 94 b9 33 	call	0x6772	; 0x6772 <eeprom_read_byte>
    2792:	80 93 d0 09 	sts	0x09D0, r24	; 0x8009d0 <DHWMaxTimeMinute>
	ForwardHeatTemp = eeprom_read_byte(&eeForwardHeatTemp);
    2796:	88 e7       	ldi	r24, 0x78	; 120
    2798:	90 e0       	ldi	r25, 0x00	; 0
    279a:	0e 94 b9 33 	call	0x6772	; 0x6772 <eeprom_read_byte>
    279e:	80 93 08 01 	sts	0x0108, r24	; 0x800108 <ForwardHeatTemp>
	BufferMaxTemp = eeprom_read_byte(&eeBufferMaxTemp);	
    27a2:	87 e7       	ldi	r24, 0x77	; 119
    27a4:	90 e0       	ldi	r25, 0x00	; 0
    27a6:	0e 94 b9 33 	call	0x6772	; 0x6772 <eeprom_read_byte>
    27aa:	80 93 07 01 	sts	0x0107, r24	; 0x800107 <BufferMaxTemp>
	EngineeringTempDesired = eeprom_read_byte(&eeEngineeringTempDesired);
    27ae:	85 e7       	ldi	r24, 0x75	; 117
    27b0:	90 e0       	ldi	r25, 0x00	; 0
    27b2:	0e 94 b9 33 	call	0x6772	; 0x6772 <eeprom_read_byte>
    27b6:	80 93 18 09 	sts	0x0918, r24	; 0x800918 <EngineeringTempDesired>
	EngineeringTempMin = eeprom_read_byte(&eeEngineeringTempMin);	
    27ba:	84 e7       	ldi	r24, 0x74	; 116
    27bc:	90 e0       	ldi	r25, 0x00	; 0
    27be:	0e 94 b9 33 	call	0x6772	; 0x6772 <eeprom_read_byte>
    27c2:	80 93 de 09 	sts	0x09DE, r24	; 0x8009de <EngineeringTempMin>
	SecondFloorDesired = eeprom_read_byte(&eeSecondFloorDesired);
    27c6:	83 e7       	ldi	r24, 0x73	; 115
    27c8:	90 e0       	ldi	r25, 0x00	; 0
    27ca:	0e 94 b9 33 	call	0x6772	; 0x6772 <eeprom_read_byte>
    27ce:	80 93 97 09 	sts	0x0997, r24	; 0x800997 <SecondFloorDesired>
	SecondFloorFracDesired = eeprom_read_byte(&eeSecondFloorFracDesired);
    27d2:	82 e7       	ldi	r24, 0x72	; 114
    27d4:	90 e0       	ldi	r25, 0x00	; 0
    27d6:	0e 94 b9 33 	call	0x6772	; 0x6772 <eeprom_read_byte>
    27da:	80 93 36 09 	sts	0x0936, r24	; 0x800936 <SecondFloorFracDesired>
	SecondFloorThermostatActive = eeprom_read_byte(&eeSecondFloorThermostatActive);
    27de:	81 e7       	ldi	r24, 0x71	; 113
    27e0:	90 e0       	ldi	r25, 0x00	; 0
    27e2:	0e 94 b9 33 	call	0x6772	; 0x6772 <eeprom_read_byte>
    27e6:	80 93 4c 09 	sts	0x094C, r24	; 0x80094c <SecondFloorThermostatActive>
	SecondFloorHysteresis = eeprom_read_byte(&eeSecondFloorHysteresis);
    27ea:	80 e7       	ldi	r24, 0x70	; 112
    27ec:	90 e0       	ldi	r25, 0x00	; 0
    27ee:	0e 94 b9 33 	call	0x6772	; 0x6772 <eeprom_read_byte>
    27f2:	80 93 f6 09 	sts	0x09F6, r24	; 0x8009f6 <SecondFloorHysteresis>
	SwitchOnOutdoorTempMin = (int16_t)eeprom_read_word(&eeSwitchOnOutdoorTempMin);
    27f6:	89 e6       	ldi	r24, 0x69	; 105
    27f8:	90 e0       	ldi	r25, 0x00	; 0
    27fa:	0e 94 c1 33 	call	0x6782	; 0x6782 <eeprom_read_word>
    27fe:	90 93 35 09 	sts	0x0935, r25	; 0x800935 <SwitchOnOutdoorTempMin+0x1>
    2802:	80 93 34 09 	sts	0x0934, r24	; 0x800934 <SwitchOnOutdoorTempMin>
	SwitchOnOutdoorTemp = eeprom_read_byte(&eeSwitchOnOutdoorTemp);
    2806:	88 e6       	ldi	r24, 0x68	; 104
    2808:	90 e0       	ldi	r25, 0x00	; 0
    280a:	0e 94 b9 33 	call	0x6772	; 0x6772 <eeprom_read_byte>
    280e:	80 93 dd 09 	sts	0x09DD, r24	; 0x8009dd <SwitchOnOutdoorTemp>
	Mode = eeprom_read_byte(&eeMode);
    2812:	8d e8       	ldi	r24, 0x8D	; 141
    2814:	90 e0       	ldi	r25, 0x00	; 0
    2816:	0e 94 b9 33 	call	0x6772	; 0x6772 <eeprom_read_byte>
    281a:	80 93 77 08 	sts	0x0877, r24	; 0x800877 <Mode>
	MenuTimer = eeprom_read_byte(&eeMenuTimer);
    281e:	8c e8       	ldi	r24, 0x8C	; 140
    2820:	90 e0       	ldi	r25, 0x00	; 0
    2822:	0e 94 b9 33 	call	0x6772	; 0x6772 <eeprom_read_byte>
    2826:	80 93 0b 01 	sts	0x010B, r24	; 0x80010b <MenuTimer>
	LCDBackLight = eeprom_read_byte(&eeLCDBackLight);
    282a:	8b e8       	ldi	r24, 0x8B	; 139
    282c:	90 e0       	ldi	r25, 0x00	; 0
    282e:	0e 94 b9 33 	call	0x6772	; 0x6772 <eeprom_read_byte>
    2832:	80 93 76 08 	sts	0x0876, r24	; 0x800876 <LCDBackLight>
	PumpPlusTime = eeprom_read_word(&eePumpPlusTime);
    2836:	89 e8       	ldi	r24, 0x89	; 137
    2838:	90 e0       	ldi	r25, 0x00	; 0
    283a:	0e 94 c1 33 	call	0x6782	; 0x6782 <eeprom_read_word>
    283e:	90 93 f8 09 	sts	0x09F8, r25	; 0x8009f8 <PumpPlusTime+0x1>
    2842:	80 93 f7 09 	sts	0x09F7, r24	; 0x8009f7 <PumpPlusTime>
	ComfortMode = eeprom_read_byte(&eeComfortMode);
    2846:	88 e8       	ldi	r24, 0x88	; 136
    2848:	90 e0       	ldi	r25, 0x00	; 0
    284a:	0e 94 b9 33 	call	0x6772	; 0x6772 <eeprom_read_byte>
    284e:	80 93 f3 09 	sts	0x09F3, r24	; 0x8009f3 <ComfortMode>
	ComfortTemp = eeprom_read_byte(&eeComfortTemp);
    2852:	87 e8       	ldi	r24, 0x87	; 135
    2854:	90 e0       	ldi	r25, 0x00	; 0
    2856:	0e 94 b9 33 	call	0x6772	; 0x6772 <eeprom_read_byte>
    285a:	80 93 16 09 	sts	0x0916, r24	; 0x800916 <ComfortTemp>
	ComfortTempFrac = eeprom_read_byte(&eeComfortTempFrac);
    285e:	86 e8       	ldi	r24, 0x86	; 134
    2860:	90 e0       	ldi	r25, 0x00	; 0
    2862:	0e 94 b9 33 	call	0x6772	; 0x6772 <eeprom_read_byte>
    2866:	80 93 53 09 	sts	0x0953, r24	; 0x800953 <ComfortTempFrac>
	ComfortForwardTemp = eeprom_read_byte(&eeComfortForwardTemp);
    286a:	85 e8       	ldi	r24, 0x85	; 133
    286c:	90 e0       	ldi	r25, 0x00	; 0
    286e:	0e 94 b9 33 	call	0x6772	; 0x6772 <eeprom_read_byte>
    2872:	80 93 09 01 	sts	0x0109, r24	; 0x800109 <ComfortForwardTemp>
	ComfortMaxTimeHour = eeprom_read_byte(&eeComfortMaxTimeHour);
    2876:	84 e8       	ldi	r24, 0x84	; 132
    2878:	90 e0       	ldi	r25, 0x00	; 0
    287a:	0e 94 b9 33 	call	0x6772	; 0x6772 <eeprom_read_byte>
    287e:	80 93 17 09 	sts	0x0917, r24	; 0x800917 <ComfortMaxTimeHour>
	ComfortMaxTimeMinute = eeprom_read_byte(&eeComfortMaxTimeMinute);
    2882:	83 e8       	ldi	r24, 0x83	; 131
    2884:	90 e0       	ldi	r25, 0x00	; 0
    2886:	0e 94 b9 33 	call	0x6772	; 0x6772 <eeprom_read_byte>
    288a:	80 93 37 09 	sts	0x0937, r24	; 0x800937 <ComfortMaxTimeMinute>
	ComfortMinTimeHour = eeprom_read_byte(&eeComfortMinTimeHour);
    288e:	82 e8       	ldi	r24, 0x82	; 130
    2890:	90 e0       	ldi	r25, 0x00	; 0
    2892:	0e 94 b9 33 	call	0x6772	; 0x6772 <eeprom_read_byte>
    2896:	80 93 96 09 	sts	0x0996, r24	; 0x800996 <ComfortMinTimeHour>
	ComfortMinTimeMinute = eeprom_read_byte(&eeComfortMinTimeMinute);
    289a:	81 e8       	ldi	r24, 0x81	; 129
    289c:	90 e0       	ldi	r25, 0x00	; 0
    289e:	0e 94 b9 33 	call	0x6772	; 0x6772 <eeprom_read_byte>
    28a2:	80 93 bd 09 	sts	0x09BD, r24	; 0x8009bd <ComfortMinTimeMinute>
	GasForwardHeatTemp = eeprom_read_byte(&eeGasForwardHeatTemp);
    28a6:	86 e7       	ldi	r24, 0x76	; 118
    28a8:	90 e0       	ldi	r25, 0x00	; 0
    28aa:	0e 94 b9 33 	call	0x6772	; 0x6772 <eeprom_read_byte>
    28ae:	80 93 06 01 	sts	0x0106, r24	; 0x800106 <GasForwardHeatTemp>
	WoodToPut = eeprom_read_byte(&eeWoodToPut);
    28b2:	8f e6       	ldi	r24, 0x6F	; 111
    28b4:	90 e0       	ldi	r25, 0x00	; 0
    28b6:	0e 94 b9 33 	call	0x6772	; 0x6772 <eeprom_read_byte>
    28ba:	80 93 aa 09 	sts	0x09AA, r24	; 0x8009aa <WoodToPut>
	WoodTempAlert = eeprom_read_byte(&eeWoodTempAlert);
    28be:	8e e6       	ldi	r24, 0x6E	; 110
    28c0:	90 e0       	ldi	r25, 0x00	; 0
    28c2:	0e 94 b9 33 	call	0x6772	; 0x6772 <eeprom_read_byte>
    28c6:	80 93 79 09 	sts	0x0979, r24	; 0x800979 <WoodTempAlert>
	WoodPressureAlert = eeprom_read_word(&eeWoodPressureAlert);
    28ca:	8b e6       	ldi	r24, 0x6B	; 107
    28cc:	90 e0       	ldi	r25, 0x00	; 0
    28ce:	0e 94 c1 33 	call	0x6782	; 0x6782 <eeprom_read_word>
    28d2:	90 93 73 0a 	sts	0x0A73, r25	; 0x800a73 <WoodPressureAlert+0x1>
    28d6:	80 93 72 0a 	sts	0x0A72, r24	; 0x800a72 <WoodPressureAlert>
	WoodDelta = eeprom_read_byte(&eeWoodDelta);
    28da:	8d e6       	ldi	r24, 0x6D	; 109
    28dc:	90 e0       	ldi	r25, 0x00	; 0
    28de:	0e 94 b9 33 	call	0x6772	; 0x6772 <eeprom_read_byte>
    28e2:	80 93 31 09 	sts	0x0931, r24	; 0x800931 <WoodDelta>
	
	eeprom_read_block(DHW.SensorID, &eeDHWSensorID, OW_ROMCODE_SIZE);
    28e6:	48 e0       	ldi	r20, 0x08	; 8
    28e8:	50 e0       	ldi	r21, 0x00	; 0
    28ea:	60 e6       	ldi	r22, 0x60	; 96
    28ec:	70 e0       	ldi	r23, 0x00	; 0
    28ee:	85 eb       	ldi	r24, 0xB5	; 181
    28f0:	99 e0       	ldi	r25, 0x09	; 9
    28f2:	0e 94 a9 33 	call	0x6752	; 0x6752 <eeprom_read_block>
	eeprom_read_block(Buffer.SensorID, &eeBufferSensorID, OW_ROMCODE_SIZE);
    28f6:	48 e0       	ldi	r20, 0x08	; 8
    28f8:	50 e0       	ldi	r21, 0x00	; 0
    28fa:	68 e5       	ldi	r22, 0x58	; 88
    28fc:	70 e0       	ldi	r23, 0x00	; 0
    28fe:	8b ee       	ldi	r24, 0xEB	; 235
    2900:	99 e0       	ldi	r25, 0x09	; 9
    2902:	0e 94 a9 33 	call	0x6752	; 0x6752 <eeprom_read_block>
	eeprom_read_block(Engineering.SensorID, &eeEngineeringSensorID, OW_ROMCODE_SIZE);
    2906:	48 e0       	ldi	r20, 0x08	; 8
    2908:	50 e0       	ldi	r21, 0x00	; 0
    290a:	68 e4       	ldi	r22, 0x48	; 72
    290c:	70 e0       	ldi	r23, 0x00	; 0
    290e:	8f e5       	ldi	r24, 0x5F	; 95
    2910:	99 e0       	ldi	r25, 0x09	; 9
    2912:	0e 94 a9 33 	call	0x6752	; 0x6752 <eeprom_read_block>
	eeprom_read_block(Garage.SensorID, &eeGarageSensorID, OW_ROMCODE_SIZE);
    2916:	48 e0       	ldi	r20, 0x08	; 8
    2918:	50 e0       	ldi	r21, 0x00	; 0
    291a:	60 e5       	ldi	r22, 0x50	; 80
    291c:	70 e0       	ldi	r23, 0x00	; 0
    291e:	84 e4       	ldi	r24, 0x44	; 68
    2920:	99 e0       	ldi	r25, 0x09	; 9
    2922:	0e 94 a9 33 	call	0x6752	; 0x6752 <eeprom_read_block>
	eeprom_read_block(LivingRoom.SensorID, &eeLivingRoomSensorID, OW_ROMCODE_SIZE);
    2926:	48 e0       	ldi	r20, 0x08	; 8
    2928:	50 e0       	ldi	r21, 0x00	; 0
    292a:	60 e4       	ldi	r22, 0x40	; 64
    292c:	70 e0       	ldi	r23, 0x00	; 0
    292e:	8e e7       	ldi	r24, 0x7E	; 126
    2930:	9a e0       	ldi	r25, 0x0A	; 10
    2932:	0e 94 a9 33 	call	0x6752	; 0x6752 <eeprom_read_block>
	eeprom_read_block(Floor.SensorID, &eeFloorSensorID, OW_ROMCODE_SIZE);
    2936:	48 e0       	ldi	r20, 0x08	; 8
    2938:	50 e0       	ldi	r21, 0x00	; 0
    293a:	68 e3       	ldi	r22, 0x38	; 56
    293c:	70 e0       	ldi	r23, 0x00	; 0
    293e:	82 ea       	ldi	r24, 0xA2	; 162
    2940:	99 e0       	ldi	r25, 0x09	; 9
    2942:	0e 94 a9 33 	call	0x6752	; 0x6752 <eeprom_read_block>
	eeprom_read_block(GasForward.SensorID, &eeGasForwardTempSensorID, OW_ROMCODE_SIZE);
    2946:	48 e0       	ldi	r20, 0x08	; 8
    2948:	50 e0       	ldi	r21, 0x00	; 0
    294a:	60 e3       	ldi	r22, 0x30	; 48
    294c:	70 e0       	ldi	r23, 0x00	; 0
    294e:	88 ec       	ldi	r24, 0xC8	; 200
    2950:	99 e0       	ldi	r25, 0x09	; 9
    2952:	0e 94 a9 33 	call	0x6752	; 0x6752 <eeprom_read_block>
	eeprom_read_block(GasReturn.SensorID, &eeGasReturnTempSensorID, OW_ROMCODE_SIZE);
    2956:	48 e0       	ldi	r20, 0x08	; 8
    2958:	50 e0       	ldi	r21, 0x00	; 0
    295a:	68 e2       	ldi	r22, 0x28	; 40
    295c:	70 e0       	ldi	r23, 0x00	; 0
    295e:	80 e9       	ldi	r24, 0x90	; 144
    2960:	9a e0       	ldi	r25, 0x0A	; 10
    2962:	0e 94 a9 33 	call	0x6752	; 0x6752 <eeprom_read_block>
	eeprom_read_block(Forward.SensorID, &eeForwardTempSensorID, OW_ROMCODE_SIZE);
    2966:	48 e0       	ldi	r20, 0x08	; 8
    2968:	50 e0       	ldi	r21, 0x00	; 0
    296a:	60 e2       	ldi	r22, 0x20	; 32
    296c:	70 e0       	ldi	r23, 0x00	; 0
    296e:	81 e7       	ldi	r24, 0x71	; 113
    2970:	99 e0       	ldi	r25, 0x09	; 9
    2972:	0e 94 a9 33 	call	0x6752	; 0x6752 <eeprom_read_block>
	eeprom_read_block(Return.SensorID, &eeReturnTempSensorID, OW_ROMCODE_SIZE);
    2976:	48 e0       	ldi	r20, 0x08	; 8
    2978:	50 e0       	ldi	r21, 0x00	; 0
    297a:	68 e1       	ldi	r22, 0x18	; 24
    297c:	70 e0       	ldi	r23, 0x00	; 0
    297e:	84 e8       	ldi	r24, 0x84	; 132
    2980:	99 e0       	ldi	r25, 0x09	; 9
    2982:	0e 94 a9 33 	call	0x6752	; 0x6752 <eeprom_read_block>
	eeprom_read_block(Mixed.SensorID, &eeMixedTempSensorID, OW_ROMCODE_SIZE);
    2986:	48 e0       	ldi	r20, 0x08	; 8
    2988:	50 e0       	ldi	r21, 0x00	; 0
    298a:	60 e1       	ldi	r22, 0x10	; 16
    298c:	70 e0       	ldi	r23, 0x00	; 0
    298e:	84 eb       	ldi	r24, 0xB4	; 180
    2990:	9a e0       	ldi	r25, 0x0A	; 10
    2992:	0e 94 a9 33 	call	0x6752	; 0x6752 <eeprom_read_block>
	eeprom_read_block(SecondFloor.SensorID, &eeSecondFloorSensorID, OW_ROMCODE_SIZE);
    2996:	48 e0       	ldi	r20, 0x08	; 8
    2998:	50 e0       	ldi	r21, 0x00	; 0
    299a:	68 e0       	ldi	r22, 0x08	; 8
    299c:	70 e0       	ldi	r23, 0x00	; 0
    299e:	85 e2       	ldi	r24, 0x25	; 37
    29a0:	99 e0       	ldi	r25, 0x09	; 9
    29a2:	0e 94 a9 33 	call	0x6752	; 0x6752 <eeprom_read_block>
	eeprom_read_block(Wood.SensorID, &eeWoodSensorID, OW_ROMCODE_SIZE);
    29a6:	48 e0       	ldi	r20, 0x08	; 8
    29a8:	50 e0       	ldi	r21, 0x00	; 0
    29aa:	60 e0       	ldi	r22, 0x00	; 0
    29ac:	70 e0       	ldi	r23, 0x00	; 0
    29ae:	82 ea       	ldi	r24, 0xA2	; 162
    29b0:	9a e0       	ldi	r25, 0x0A	; 10
    29b2:	0e 94 a9 33 	call	0x6752	; 0x6752 <eeprom_read_block>
	Restarts = eeprom_read_word(&eeRestarts);
    29b6:	8f e7       	ldi	r24, 0x7F	; 127
    29b8:	90 e0       	ldi	r25, 0x00	; 0
    29ba:	0e 94 c1 33 	call	0x6782	; 0x6782 <eeprom_read_word>
    29be:	90 93 75 08 	sts	0x0875, r25	; 0x800875 <Restarts+0x1>
    29c2:	80 93 74 08 	sts	0x0874, r24	; 0x800874 <Restarts>
    29c6:	08 95       	ret

000029c8 <main>:
}

int main(void)
{
	//char readchar;
	read_from_eeprom();
    29c8:	c2 de       	rcall	.-636    	; 0x274e <read_from_eeprom>
	eeprom_update_word(&eeRestarts, ++Restarts);
    29ca:	60 91 74 08 	lds	r22, 0x0874	; 0x800874 <Restarts>
    29ce:	70 91 75 08 	lds	r23, 0x0875	; 0x800875 <Restarts+0x1>
    29d2:	6f 5f       	subi	r22, 0xFF	; 255
    29d4:	7f 4f       	sbci	r23, 0xFF	; 255
    29d6:	70 93 75 08 	sts	0x0875, r23	; 0x800875 <Restarts+0x1>
    29da:	60 93 74 08 	sts	0x0874, r22	; 0x800874 <Restarts>
    29de:	8f e7       	ldi	r24, 0x7F	; 127
    29e0:	90 e0       	ldi	r25, 0x00	; 0
    29e2:	0e 94 e6 33 	call	0x67cc	; 0x67cc <eeprom_update_word>

	lcd_init(LCD_DISP_ON);
    29e6:	8c e0       	ldi	r24, 0x0C	; 12
    29e8:	0e 94 79 08 	call	0x10f2	; 0x10f2 <lcd_init>
	lcd_defc(magyar_betuk);
    29ec:	88 ee       	ldi	r24, 0xE8	; 232
    29ee:	93 e0       	ldi	r25, 0x03	; 3
    29f0:	0e 94 bc 08 	call	0x1178	; 0x1178 <lcd_defc>

	TCCR3A |= (1 << WGM30)|(1<<COM3C1);
    29f4:	80 91 8b 00 	lds	r24, 0x008B	; 0x80008b <__TEXT_REGION_LENGTH__+0x7f008b>
    29f8:	89 60       	ori	r24, 0x09	; 9
    29fa:	80 93 8b 00 	sts	0x008B, r24	; 0x80008b <__TEXT_REGION_LENGTH__+0x7f008b>
	TCCR3B |= (1 << WGM32)|(1 << CS30)|(1 << CS31);
    29fe:	80 91 8a 00 	lds	r24, 0x008A	; 0x80008a <__TEXT_REGION_LENGTH__+0x7f008a>
    2a02:	8b 60       	ori	r24, 0x0B	; 11
    2a04:	80 93 8a 00 	sts	0x008A, r24	; 0x80008a <__TEXT_REGION_LENGTH__+0x7f008a>
	OCR3C = 60;
    2a08:	8c e3       	ldi	r24, 0x3C	; 60
    2a0a:	90 e0       	ldi	r25, 0x00	; 0
    2a0c:	90 93 83 00 	sts	0x0083, r25	; 0x800083 <__TEXT_REGION_LENGTH__+0x7f0083>
    2a10:	80 93 82 00 	sts	0x0082, r24	; 0x800082 <__TEXT_REGION_LENGTH__+0x7f0082>
	DDRE |= (1 << PINE5);	//LCD led PWM
    2a14:	15 9a       	sbi	0x02, 5	; 2
	PORTE |= (1 << PINE5);	//LCD led PWM
    2a16:	1d 9a       	sbi	0x03, 5	; 3

	lcd_clrscr();
    2a18:	0e 94 46 08 	call	0x108c	; 0x108c <lcd_clrscr>
	lcd_puts_hu(PSTR("Fûtés vezérlés v0.94"));
    2a1c:	8a ef       	ldi	r24, 0xFA	; 250
    2a1e:	91 e0       	ldi	r25, 0x01	; 1
    2a20:	0e 94 7c 09 	call	0x12f8	; 0x12f8 <lcd_puts_hu>

	uart_init( UART_BAUD_SELECT(UART_BAUD_RATE,F_CPU) );
    2a24:	87 e6       	ldi	r24, 0x67	; 103
    2a26:	90 e0       	ldi	r25, 0x00	; 0
    2a28:	0e 94 fd 2c 	call	0x59fa	; 0x59fa <uart_init>

	DDRF &= ~((1 << PINF0) | (1 << PINF5) | (1 << PINF6) | (1 << PINF7)); //ADC input
    2a2c:	80 91 61 00 	lds	r24, 0x0061	; 0x800061 <__TEXT_REGION_LENGTH__+0x7f0061>
    2a30:	8e 71       	andi	r24, 0x1E	; 30
    2a32:	80 93 61 00 	sts	0x0061, r24	; 0x800061 <__TEXT_REGION_LENGTH__+0x7f0061>
	DDRF |= (1 << PINF4);
    2a36:	80 91 61 00 	lds	r24, 0x0061	; 0x800061 <__TEXT_REGION_LENGTH__+0x7f0061>
    2a3a:	80 61       	ori	r24, 0x10	; 16
    2a3c:	80 93 61 00 	sts	0x0061, r24	; 0x800061 <__TEXT_REGION_LENGTH__+0x7f0061>
	PORTF &= ~((1 << PINF0) | (1 << PINF4));
    2a40:	80 91 62 00 	lds	r24, 0x0062	; 0x800062 <__TEXT_REGION_LENGTH__+0x7f0062>
    2a44:	8e 7e       	andi	r24, 0xEE	; 238
    2a46:	80 93 62 00 	sts	0x0062, r24	; 0x800062 <__TEXT_REGION_LENGTH__+0x7f0062>


	BUZZER_DDR |= (1 << BUZZER_PIN);
    2a4a:	a0 9a       	sbi	0x14, 0	; 20

	THERMOSTAT_DDR &= ~((1 << FIRST_THERMO_PIN)|(1 << SECOND_THERMO_PIN)|(1 << FIRST_REMOTE_PIN));
    2a4c:	82 b1       	in	r24, 0x02	; 2
    2a4e:	8b 73       	andi	r24, 0x3B	; 59
    2a50:	82 b9       	out	0x02, r24	; 2
	DDRD &= ~(1 << SECOND_REMOTE_PIN);
    2a52:	8b 98       	cbi	0x11, 3	; 17
	THERMOSTAT_PORT |= (1 << FIRST_THERMO_PIN)|(1 << SECOND_THERMO_PIN)|(1 << FIRST_REMOTE_PIN);
    2a54:	83 b1       	in	r24, 0x03	; 3
    2a56:	84 6c       	ori	r24, 0xC4	; 196
    2a58:	83 b9       	out	0x03, r24	; 3
	PORTD |= (1 << SECOND_REMOTE_PIN);
    2a5a:	93 9a       	sbi	0x12, 3	; 18
	#else
		//round up by default
		__ticks_dc = (uint32_t)(ceil(fabs(__tmp)));
	#endif

	__builtin_avr_delay_cycles(__ticks_dc);
    2a5c:	8f e3       	ldi	r24, 0x3F	; 63
    2a5e:	9c e9       	ldi	r25, 0x9C	; 156
    2a60:	01 97       	sbiw	r24, 0x01	; 1
    2a62:	f1 f7       	brne	.-4      	; 0x2a60 <main+0x98>
    2a64:	00 c0       	rjmp	.+0      	; 0x2a66 <main+0x9e>
    2a66:	00 00       	nop

	_delay_ms(10);
	SPIInit();
    2a68:	0e 94 82 2c 	call	0x5904	; 0x5904 <SPIInit>
	SPIWrite(2, 0x00);
    2a6c:	60 e0       	ldi	r22, 0x00	; 0
    2a6e:	82 e0       	ldi	r24, 0x02	; 2
    2a70:	0e 94 96 2c 	call	0x592c	; 0x592c <SPIWrite>
	SPIClose();
    2a74:	0e 94 91 2c 	call	0x5922	; 0x5922 <SPIClose>

	Relays = 0x00;
    2a78:	10 92 70 08 	sts	0x0870, r1	; 0x800870 <Relays>
	SwitchRelays();
    2a7c:	c4 da       	rcall	.-2680   	; 0x2006 <SwitchRelays>

	lcd_gotoxy(0,1);
    2a7e:	61 e0       	ldi	r22, 0x01	; 1
    2a80:	80 e0       	ldi	r24, 0x00	; 0
    2a82:	0e 94 26 08 	call	0x104c	; 0x104c <lcd_gotoxy>
	lcd_puts_hu(PSTR("Alapállapotba állás"));
    2a86:	86 ee       	ldi	r24, 0xE6	; 230
    2a88:	91 e0       	ldi	r25, 0x01	; 1
    2a8a:	0e 94 7c 09 	call	0x12f8	; 0x12f8 <lcd_puts_hu>
	lcd_gotoxy(0,2);
    2a8e:	62 e0       	ldi	r22, 0x02	; 2
    2a90:	80 e0       	ldi	r24, 0x00	; 0
    2a92:	0e 94 26 08 	call	0x104c	; 0x104c <lcd_gotoxy>
    2a96:	da e0       	ldi	r29, 0x0A	; 10
	uint8_t init_counter = 0;
	while (init_counter < 10)
	{
		lcd_putc('x');
    2a98:	88 e7       	ldi	r24, 0x78	; 120
    2a9a:	0e 94 4a 08 	call	0x1094	; 0x1094 <lcd_putc>
    2a9e:	9f ef       	ldi	r25, 0xFF	; 255
    2aa0:	23 ed       	ldi	r18, 0xD3	; 211
    2aa2:	80 e3       	ldi	r24, 0x30	; 48
    2aa4:	91 50       	subi	r25, 0x01	; 1
    2aa6:	20 40       	sbci	r18, 0x00	; 0
    2aa8:	80 40       	sbci	r24, 0x00	; 0
    2aaa:	e1 f7       	brne	.-8      	; 0x2aa4 <main+0xdc>
    2aac:	00 c0       	rjmp	.+0      	; 0x2aae <main+0xe6>
    2aae:	00 00       	nop
    2ab0:	d1 50       	subi	r29, 0x01	; 1

	lcd_gotoxy(0,1);
	lcd_puts_hu(PSTR("Alapállapotba állás"));
	lcd_gotoxy(0,2);
	uint8_t init_counter = 0;
	while (init_counter < 10)
    2ab2:	91 f7       	brne	.-28     	; 0x2a98 <main+0xd0>
		lcd_putc('x');
		_delay_ms(1000);
		init_counter++;
	}

	lcd_clrscr();
    2ab4:	0e 94 46 08 	call	0x108c	; 0x108c <lcd_clrscr>
	lcd_puts_hu(PSTR("I2C indítás"));
    2ab8:	8a ed       	ldi	r24, 0xDA	; 218
    2aba:	91 e0       	ldi	r25, 0x01	; 1
    2abc:	0e 94 7c 09 	call	0x12f8	; 0x12f8 <lcd_puts_hu>
	i2c_init();
    2ac0:	0e 94 4c 07 	call	0xe98	; 0xe98 <i2c_init>
	lcd_gotoxy(0,1);
    2ac4:	61 e0       	ldi	r22, 0x01	; 1
    2ac6:	80 e0       	ldi	r24, 0x00	; 0
    2ac8:	0e 94 26 08 	call	0x104c	; 0x104c <lcd_gotoxy>
	//lcd_puts_hu(PSTR("HIHxxxx indítás"));
	lcd_puts_hu(PSTR("Megszakítások eng."));
    2acc:	87 ec       	ldi	r24, 0xC7	; 199
    2ace:	91 e0       	ldi	r25, 0x01	; 1
    2ad0:	0e 94 7c 09 	call	0x12f8	; 0x12f8 <lcd_puts_hu>
	
	//init_BME280();

	sei();
    2ad4:	78 94       	sei
	uart_puts_p(PSTR("Interrupt enabled\r\n"));
    2ad6:	83 eb       	ldi	r24, 0xB3	; 179
    2ad8:	91 e0       	ldi	r25, 0x01	; 1
    2ada:	0e 94 2d 2d 	call	0x5a5a	; 0x5a5a <uart_puts_p>


	ow_set_bus(&PINB,&PORTB,&DDRB,PINB0);
    2ade:	20 e0       	ldi	r18, 0x00	; 0
    2ae0:	47 e3       	ldi	r20, 0x37	; 55
    2ae2:	50 e0       	ldi	r21, 0x00	; 0
    2ae4:	68 e3       	ldi	r22, 0x38	; 56
    2ae6:	70 e0       	ldi	r23, 0x00	; 0
    2ae8:	86 e3       	ldi	r24, 0x36	; 54
    2aea:	90 e0       	ldi	r25, 0x00	; 0
    2aec:	0e 94 eb 05 	call	0xbd6	; 0xbd6 <ow_set_bus>
	nSensors = search_sensors();
    2af0:	0e 94 15 0a 	call	0x142a	; 0x142a <search_sensors>
    2af4:	80 93 38 09 	sts	0x0938, r24	; 0x800938 <nSensors>

	if (Mode == DEBUG1)
    2af8:	80 91 77 08 	lds	r24, 0x0877	; 0x800877 <Mode>
    2afc:	82 30       	cpi	r24, 0x02	; 2
    2afe:	09 f4       	brne	.+2      	; 0x2b02 <main+0x13a>
    2b00:	b1 c0       	rjmp	.+354    	; 0x2c64 <main+0x29c>
	{ uart_puts_P("Found "); uart_puti(nSensors); uart_puts_P(" DS18B20 sensors\n"); }
	lcd_gotoxy(0,2);
    2b02:	62 e0       	ldi	r22, 0x02	; 2
    2b04:	80 e0       	ldi	r24, 0x00	; 0
    2b06:	0e 94 26 08 	call	0x104c	; 0x104c <lcd_gotoxy>
	lcd_puts_p(PSTR("DS18B20: ")); lcd_puti(nSensors); lcd_puts_p(PSTR(" db"));
    2b0a:	80 e9       	ldi	r24, 0x90	; 144
    2b0c:	91 e0       	ldi	r25, 0x01	; 1
    2b0e:	0e 94 68 08 	call	0x10d0	; 0x10d0 <lcd_puts_p>
    2b12:	80 91 38 09 	lds	r24, 0x0938	; 0x800938 <nSensors>
    2b16:	90 e0       	ldi	r25, 0x00	; 0
    2b18:	0e 94 2a 09 	call	0x1254	; 0x1254 <lcd_puti>
    2b1c:	8c e8       	ldi	r24, 0x8C	; 140
    2b1e:	91 e0       	ldi	r25, 0x01	; 1
    2b20:	0e 94 68 08 	call	0x10d0	; 0x10d0 <lcd_puts_p>
    2b24:	9f ef       	ldi	r25, 0xFF	; 255
    2b26:	2b e7       	ldi	r18, 0x7B	; 123
    2b28:	82 e9       	ldi	r24, 0x92	; 146
    2b2a:	91 50       	subi	r25, 0x01	; 1
    2b2c:	20 40       	sbci	r18, 0x00	; 0
    2b2e:	80 40       	sbci	r24, 0x00	; 0
    2b30:	e1 f7       	brne	.-8      	; 0x2b2a <main+0x162>
    2b32:	00 c0       	rjmp	.+0      	; 0x2b34 <main+0x16c>
    2b34:	00 00       	nop

	_delay_ms(3000);

	TCCR1B |= (1 << CS12) | (1 << WGM12);
    2b36:	8e b5       	in	r24, 0x2e	; 46
    2b38:	8c 60       	ori	r24, 0x0C	; 12
    2b3a:	8e bd       	out	0x2e, r24	; 46
	TCNT1 = 0;
    2b3c:	1d bc       	out	0x2d, r1	; 45
    2b3e:	1c bc       	out	0x2c, r1	; 44
	OCR1A = 62500;//14400; // 1000ms
    2b40:	84 e2       	ldi	r24, 0x24	; 36
    2b42:	94 ef       	ldi	r25, 0xF4	; 244
    2b44:	9b bd       	out	0x2b, r25	; 43
    2b46:	8a bd       	out	0x2a, r24	; 42
	TIMSK |= (1 << OCIE1A);
    2b48:	87 b7       	in	r24, 0x37	; 55
    2b4a:	80 61       	ori	r24, 0x10	; 16
    2b4c:	87 bf       	out	0x37, r24	; 55

	TCCR0 |= (1 << WGM01) | (1 << CS02) | (1 << CS01) | (1 << CS00);
    2b4e:	83 b7       	in	r24, 0x33	; 51
    2b50:	8f 60       	ori	r24, 0x0F	; 15
    2b52:	83 bf       	out	0x33, r24	; 51
	TCNT0 = 0;
    2b54:	12 be       	out	0x32, r1	; 50
	OCR0 = 80;
    2b56:	80 e5       	ldi	r24, 0x50	; 80
    2b58:	81 bf       	out	0x31, r24	; 49
	TIMSK |= (1 << OCIE0);
    2b5a:	87 b7       	in	r24, 0x37	; 55
    2b5c:	82 60       	ori	r24, 0x02	; 2
    2b5e:	87 bf       	out	0x37, r24	; 55
	
	ADMUX = (1<<REFS0) | (1 << MUX2) | (1 << MUX1) | (1 << MUX0); //ADC7
    2b60:	87 e4       	ldi	r24, 0x47	; 71
    2b62:	87 b9       	out	0x07, r24	; 7
	ADCSRA |= (1 << ADEN)|(1<<ADSC)|(1<<ADPS0)|(1<<ADPS1)|(1<<ADPS2);
    2b64:	86 b1       	in	r24, 0x06	; 6
    2b66:	87 6c       	ori	r24, 0xC7	; 199
    2b68:	86 b9       	out	0x06, r24	; 6

	//reset watchdog
	wdt_reset();
    2b6a:	a8 95       	wdr
	WDTCR |= (1<<WDE) | (1 << WDCE);
    2b6c:	81 b5       	in	r24, 0x21	; 33
    2b6e:	88 61       	ori	r24, 0x18	; 24
    2b70:	81 bd       	out	0x21, r24	; 33
	WDTCR |= (1<<WDP2)| (1<<WDP1) | (1<<WDP0);
    2b72:	81 b5       	in	r24, 0x21	; 33
    2b74:	87 60       	ori	r24, 0x07	; 7


	menuInit();
    2b76:	81 bd       	out	0x21, r24	; 33
    2b78:	e6 d0       	rcall	.+460    	; 0x2d46 <menuInit>
								xDay = 29;
								break;
						}
						if (++Day == xDay)
						{
							Day = 1;
    2b7a:	d1 e0       	ldi	r29, 0x01	; 1
    2b7c:	01 c0       	rjmp	.+2      	; 0x2b80 <main+0x1b8>
			if (Mode != MANUAL)
				CheckConditions();
			TimerElapsed = 0;
		}

		wdt_reset();
    2b7e:	a8 95       	wdr

	menuInit();

	while(1)
	{
		if (TimerElapsed == 1)
    2b80:	80 91 78 08 	lds	r24, 0x0878	; 0x800878 <TimerElapsed>
    2b84:	81 30       	cpi	r24, 0x01	; 1
    2b86:	d9 f7       	brne	.-10     	; 0x2b7e <main+0x1b6>
		{
			if (++Seconds == 60)
    2b88:	90 91 6d 08 	lds	r25, 0x086D	; 0x80086d <Seconds>
    2b8c:	9f 5f       	subi	r25, 0xFF	; 255
    2b8e:	9c 33       	cpi	r25, 0x3C	; 60
    2b90:	61 f0       	breq	.+24     	; 0x2baa <main+0x1e2>
    2b92:	90 93 6d 08 	sts	0x086D, r25	; 0x80086d <Seconds>
					}

				}
			}

			SensorRead();
    2b96:	0e 94 9e 0a 	call	0x153c	; 0x153c <SensorRead>
			if (Mode != MANUAL)
    2b9a:	80 91 77 08 	lds	r24, 0x0877	; 0x800877 <Mode>
    2b9e:	81 30       	cpi	r24, 0x01	; 1
				CheckConditions();
    2ba0:	09 f0       	breq	.+2      	; 0x2ba4 <main+0x1dc>
    2ba2:	8b da       	rcall	.-2794   	; 0x20ba <CheckConditions>
			TimerElapsed = 0;
    2ba4:	10 92 78 08 	sts	0x0878, r1	; 0x800878 <TimerElapsed>
    2ba8:	ea cf       	rjmp	.-44     	; 0x2b7e <main+0x1b6>
	{
		if (TimerElapsed == 1)
		{
			if (++Seconds == 60)
			{
				Seconds = 0;
    2baa:	10 92 6d 08 	sts	0x086D, r1	; 0x80086d <Seconds>
				if (++Minute == 60)
    2bae:	90 91 6e 08 	lds	r25, 0x086E	; 0x80086e <Minute>
    2bb2:	9f 5f       	subi	r25, 0xFF	; 255
    2bb4:	9c 33       	cpi	r25, 0x3C	; 60
    2bb6:	19 f0       	breq	.+6      	; 0x2bbe <main+0x1f6>
    2bb8:	90 93 6e 08 	sts	0x086E, r25	; 0x80086e <Minute>
    2bbc:	ec cf       	rjmp	.-40     	; 0x2b96 <main+0x1ce>
				{
					Minute = 0;
    2bbe:	10 92 6e 08 	sts	0x086E, r1	; 0x80086e <Minute>
					if (++Hour == 24)
    2bc2:	20 91 6f 08 	lds	r18, 0x086F	; 0x80086f <Hour>
    2bc6:	2f 5f       	subi	r18, 0xFF	; 255
    2bc8:	20 93 6f 08 	sts	0x086F, r18	; 0x80086f <Hour>
    2bcc:	28 31       	cpi	r18, 0x18	; 24
    2bce:	19 f7       	brne	.-58     	; 0x2b96 <main+0x1ce>
					{
						PumpRunner = 60;
    2bd0:	90 93 6a 08 	sts	0x086A, r25	; 0x80086a <PumpRunner>
						Hour = 0;
    2bd4:	10 92 6f 08 	sts	0x086F, r1	; 0x80086f <Hour>

						if (++DayName == 8)
    2bd8:	90 91 01 01 	lds	r25, 0x0101	; 0x800101 <DayName>
    2bdc:	9f 5f       	subi	r25, 0xFF	; 255
    2bde:	98 30       	cpi	r25, 0x08	; 8
    2be0:	69 f1       	breq	.+90     	; 0x2c3c <main+0x274>
    2be2:	90 93 01 01 	sts	0x0101, r25	; 0x800101 <DayName>
							DayName = 1;
						uint8_t xDay;
						switch (Month)
    2be6:	20 91 03 01 	lds	r18, 0x0103	; 0x800103 <Month>
    2bea:	82 2f       	mov	r24, r18
    2bec:	90 e0       	ldi	r25, 0x00	; 0
    2bee:	fc 01       	movw	r30, r24
    2bf0:	31 97       	sbiw	r30, 0x01	; 1
    2bf2:	ec 30       	cpi	r30, 0x0C	; 12
    2bf4:	f1 05       	cpc	r31, r1
    2bf6:	28 f4       	brcc	.+10     	; 0x2c02 <main+0x23a>
    2bf8:	e0 57       	subi	r30, 0x70	; 112
    2bfa:	ff 4f       	sbci	r31, 0xFF	; 255
    2bfc:	0c 94 a7 30 	jmp	0x614e	; 0x614e <__tablejump2__>
							case 5:
							case 7:
							case 8:
							case 10:
							case 12:
								xDay = 32;
    2c00:	c0 e2       	ldi	r28, 0x20	; 32

							case 2:
								xDay = 29;
								break;
						}
						if (++Day == xDay)
    2c02:	80 91 02 01 	lds	r24, 0x0102	; 0x800102 <Day>
    2c06:	8f 5f       	subi	r24, 0xFF	; 255
    2c08:	c8 17       	cp	r28, r24
    2c0a:	81 f0       	breq	.+32     	; 0x2c2c <main+0x264>
    2c0c:	80 93 02 01 	sts	0x0102, r24	; 0x800102 <Day>
    2c10:	c2 cf       	rjmp	.-124    	; 0x2b96 <main+0x1ce>
    2c12:	80 91 02 01 	lds	r24, 0x0102	; 0x800102 <Day>
    2c16:	8f 5f       	subi	r24, 0xFF	; 255
    2c18:	8d 31       	cpi	r24, 0x1D	; 29
    2c1a:	f9 f0       	breq	.+62     	; 0x2c5a <main+0x292>
    2c1c:	cd e1       	ldi	r28, 0x1D	; 29
    2c1e:	f6 cf       	rjmp	.-20     	; 0x2c0c <main+0x244>

							case 4:
							case 6:
							case 9:
							case 11:
								xDay = 31;
    2c20:	cf e1       	ldi	r28, 0x1F	; 31

							case 2:
								xDay = 29;
								break;
						}
						if (++Day == xDay)
    2c22:	80 91 02 01 	lds	r24, 0x0102	; 0x800102 <Day>
    2c26:	8f 5f       	subi	r24, 0xFF	; 255
    2c28:	c8 13       	cpse	r28, r24
    2c2a:	f0 cf       	rjmp	.-32     	; 0x2c0c <main+0x244>
						{
							Day = 1;
    2c2c:	d0 93 02 01 	sts	0x0102, r29	; 0x800102 <Day>
							if (++Month == 13)
    2c30:	2f 5f       	subi	r18, 0xFF	; 255
    2c32:	2d 30       	cpi	r18, 0x0D	; 13
    2c34:	31 f0       	breq	.+12     	; 0x2c42 <main+0x27a>
    2c36:	20 93 03 01 	sts	0x0103, r18	; 0x800103 <Month>
    2c3a:	ad cf       	rjmp	.-166    	; 0x2b96 <main+0x1ce>
					{
						PumpRunner = 60;
						Hour = 0;

						if (++DayName == 8)
							DayName = 1;
    2c3c:	80 93 01 01 	sts	0x0101, r24	; 0x800101 <DayName>
    2c40:	d2 cf       	rjmp	.-92     	; 0x2be6 <main+0x21e>
						if (++Day == xDay)
						{
							Day = 1;
							if (++Month == 13)
							{
								Month = 1;
    2c42:	d0 93 03 01 	sts	0x0103, r29	; 0x800103 <Month>
								Year++;
    2c46:	80 91 04 01 	lds	r24, 0x0104	; 0x800104 <Year>
    2c4a:	90 91 05 01 	lds	r25, 0x0105	; 0x800105 <Year+0x1>
    2c4e:	01 96       	adiw	r24, 0x01	; 1
    2c50:	90 93 05 01 	sts	0x0105, r25	; 0x800105 <Year+0x1>
    2c54:	80 93 04 01 	sts	0x0104, r24	; 0x800104 <Year>
    2c58:	9e cf       	rjmp	.-196    	; 0x2b96 <main+0x1ce>
								xDay = 29;
								break;
						}
						if (++Day == xDay)
						{
							Day = 1;
    2c5a:	d0 93 02 01 	sts	0x0102, r29	; 0x800102 <Day>
							if (++Month == 13)
    2c5e:	23 e0       	ldi	r18, 0x03	; 3
								xDay = 29;
								break;
						}
						if (++Day == xDay)
						{
							Day = 1;
    2c60:	cd e1       	ldi	r28, 0x1D	; 29
    2c62:	e9 cf       	rjmp	.-46     	; 0x2c36 <main+0x26e>

	ow_set_bus(&PINB,&PORTB,&DDRB,PINB0);
	nSensors = search_sensors();

	if (Mode == DEBUG1)
	{ uart_puts_P("Found "); uart_puti(nSensors); uart_puts_P(" DS18B20 sensors\n"); }
    2c64:	8c ea       	ldi	r24, 0xAC	; 172
    2c66:	91 e0       	ldi	r25, 0x01	; 1
    2c68:	0e 94 2d 2d 	call	0x5a5a	; 0x5a5a <uart_puts_p>
    2c6c:	80 91 38 09 	lds	r24, 0x0938	; 0x800938 <nSensors>
    2c70:	90 e0       	ldi	r25, 0x00	; 0
    2c72:	0e 94 d3 2d 	call	0x5ba6	; 0x5ba6 <uart_puti>
    2c76:	8a e9       	ldi	r24, 0x9A	; 154
    2c78:	91 e0       	ldi	r25, 0x01	; 1
    2c7a:	0e 94 2d 2d 	call	0x5a5a	; 0x5a5a <uart_puts_p>
    2c7e:	41 cf       	rjmp	.-382    	; 0x2b02 <main+0x13a>

00002c80 <renderMenu>:
*/

void menuReset(){
	current_state = &menu_states[MENU_LEVEL_1];
	resetState(current_state);
	renderMenu();
    2c80:	ef 92       	push	r14
    2c82:	ff 92       	push	r15
    2c84:	0f 93       	push	r16
    2c86:	1f 93       	push	r17
    2c88:	cf 93       	push	r28
    2c8a:	df 93       	push	r29
    2c8c:	0e 94 46 08 	call	0x108c	; 0x108c <lcd_clrscr>
    2c90:	0e 94 76 2c 	call	0x58ec	; 0x58ec <menuItemsGetHomeMenu>
    2c94:	8c 01       	movw	r16, r24
    2c96:	0e 94 79 2c 	call	0x58f2	; 0x58f2 <menuItemsGetHomeMenuSize>
    2c9a:	e0 91 20 01 	lds	r30, 0x0120	; 0x800120 <current_state>
    2c9e:	f0 91 21 01 	lds	r31, 0x0121	; 0x800121 <current_state+0x1>
    2ca2:	96 81       	ldd	r25, Z+6	; 0x06
    2ca4:	99 23       	and	r25, r25
    2ca6:	a1 f0       	breq	.+40     	; 0x2cd0 <renderMenu+0x50>
    2ca8:	a0 81       	ld	r26, Z
    2caa:	b1 81       	ldd	r27, Z+1	; 0x01
    2cac:	16 96       	adiw	r26, 0x06	; 6
    2cae:	ac 91       	ld	r26, X
    2cb0:	87 e0       	ldi	r24, 0x07	; 7
    2cb2:	a8 9f       	mul	r26, r24
    2cb4:	d0 01       	movw	r26, r0
    2cb6:	11 24       	eor	r1, r1
    2cb8:	ae 5d       	subi	r26, 0xDE	; 222
    2cba:	be 4f       	sbci	r27, 0xFE	; 254
    2cbc:	12 96       	adiw	r26, 0x02	; 2
    2cbe:	0d 90       	ld	r0, X+
    2cc0:	bc 91       	ld	r27, X
    2cc2:	a0 2d       	mov	r26, r0
    2cc4:	17 96       	adiw	r26, 0x07	; 7
    2cc6:	0d 91       	ld	r16, X+
    2cc8:	1c 91       	ld	r17, X
    2cca:	18 97       	sbiw	r26, 0x08	; 8
    2ccc:	16 96       	adiw	r26, 0x06	; 6
    2cce:	8c 91       	ld	r24, X
    2cd0:	94 81       	ldd	r25, Z+4	; 0x04
    2cd2:	25 81       	ldd	r18, Z+5	; 0x05
    2cd4:	92 1b       	sub	r25, r18
    2cd6:	e8 2e       	mov	r14, r24
    2cd8:	f1 2c       	mov	r15, r1
    2cda:	e1 14       	cp	r14, r1
    2cdc:	f1 04       	cpc	r15, r1
    2cde:	41 f1       	breq	.+80     	; 0x2d30 <renderMenu+0xb0>
    2ce0:	e9 e0       	ldi	r30, 0x09	; 9
    2ce2:	9e 9f       	mul	r25, r30
    2ce4:	00 0d       	add	r16, r0
    2ce6:	11 1d       	adc	r17, r1
    2ce8:	11 24       	eor	r1, r1
    2cea:	c0 e0       	ldi	r28, 0x00	; 0
    2cec:	d0 e0       	ldi	r29, 0x00	; 0
    2cee:	6c 2f       	mov	r22, r28
    2cf0:	80 e0       	ldi	r24, 0x00	; 0
    2cf2:	0e 94 26 08 	call	0x104c	; 0x104c <lcd_gotoxy>
    2cf6:	e0 91 20 01 	lds	r30, 0x0120	; 0x800120 <current_state>
    2cfa:	f0 91 21 01 	lds	r31, 0x0121	; 0x800121 <current_state+0x1>
    2cfe:	25 81       	ldd	r18, Z+5	; 0x05
    2d00:	30 e0       	ldi	r19, 0x00	; 0
    2d02:	2c 17       	cp	r18, r28
    2d04:	3d 07       	cpc	r19, r29
    2d06:	d9 f0       	breq	.+54     	; 0x2d3e <renderMenu+0xbe>
    2d08:	80 e2       	ldi	r24, 0x20	; 32
    2d0a:	0e 94 4a 08 	call	0x1094	; 0x1094 <lcd_putc>
    2d0e:	80 e2       	ldi	r24, 0x20	; 32
    2d10:	0e 94 4a 08 	call	0x1094	; 0x1094 <lcd_putc>
    2d14:	f8 01       	movw	r30, r16
    2d16:	80 81       	ld	r24, Z
    2d18:	91 81       	ldd	r25, Z+1	; 0x01
    2d1a:	0e 94 1b 09 	call	0x1236	; 0x1236 <lcd_puts>
    2d1e:	21 96       	adiw	r28, 0x01	; 1
    2d20:	ce 15       	cp	r28, r14
    2d22:	df 05       	cpc	r29, r15
    2d24:	29 f0       	breq	.+10     	; 0x2d30 <renderMenu+0xb0>
    2d26:	07 5f       	subi	r16, 0xF7	; 247
    2d28:	1f 4f       	sbci	r17, 0xFF	; 255
    2d2a:	c4 30       	cpi	r28, 0x04	; 4
    2d2c:	d1 05       	cpc	r29, r1
    2d2e:	f9 f6       	brne	.-66     	; 0x2cee <renderMenu+0x6e>
    2d30:	df 91       	pop	r29
    2d32:	cf 91       	pop	r28
    2d34:	1f 91       	pop	r17
    2d36:	0f 91       	pop	r16
    2d38:	ff 90       	pop	r15
    2d3a:	ef 90       	pop	r14
    2d3c:	08 95       	ret
    2d3e:	8e e3       	ldi	r24, 0x3E	; 62
    2d40:	0e 94 4a 08 	call	0x1094	; 0x1094 <lcd_putc>
    2d44:	e4 cf       	rjmp	.-56     	; 0x2d0e <renderMenu+0x8e>

00002d46 <menuInit>:
}

void menuInit(){
	menuPortsioInit();
    2d46:	0e 94 7b 2c 	call	0x58f6	; 0x58f6 <menuPortsioInit>
/*
** Public functions accessible from .h file
*/

void menuReset(){
	current_state = &menu_states[MENU_LEVEL_1];
    2d4a:	e2 e2       	ldi	r30, 0x22	; 34
    2d4c:	f1 e0       	ldi	r31, 0x01	; 1
    2d4e:	f0 93 21 01 	sts	0x0121, r31	; 0x800121 <current_state+0x1>
    2d52:	e0 93 20 01 	sts	0x0120, r30	; 0x800120 <current_state>
*/
/*************************************************************************
 Helpers for setting the state properties
*************************************************************************/
static void setState(MENU_STATE *state, MENU_STATE *new_prev_state, MENU_ITEM *new_current_item, uint8_t new_current_item_idx, uint8_t new_cursor_line){
	state->prev_state = new_prev_state;
    2d56:	11 82       	std	Z+1, r1	; 0x01
    2d58:	10 82       	st	Z, r1
	state->current_item = new_current_item;
    2d5a:	13 82       	std	Z+3, r1	; 0x03
    2d5c:	12 82       	std	Z+2, r1	; 0x02
	state->current_item_idx = new_current_item_idx;
    2d5e:	14 82       	std	Z+4, r1	; 0x04
	state->cursor_line = new_cursor_line;
    2d60:	15 82       	std	Z+5, r1	; 0x05
*/

void menuReset(){
	current_state = &menu_states[MENU_LEVEL_1];
	resetState(current_state);
	renderMenu();
    2d62:	8e cf       	rjmp	.-228    	; 0x2c80 <renderMenu>

00002d64 <menuPollButtons>:
void menuInit(){
	menuPortsioInit();
	menuReset();
}

void menuPollButtons(){
    2d64:	df 92       	push	r13
    2d66:	ef 92       	push	r14
    2d68:	ff 92       	push	r15
    2d6a:	0f 93       	push	r16
    2d6c:	1f 93       	push	r17
    2d6e:	cf 93       	push	r28
    2d70:	df 93       	push	r29
    2d72:	cc e0       	ldi	r28, 0x0C	; 12
    2d74:	d1 e0       	ldi	r29, 0x01	; 1
    2d76:	00 e2       	ldi	r16, 0x20	; 32
    2d78:	11 e0       	ldi	r17, 0x01	; 1
		MENU_BUTTON *b = &menu_buttons[i];

		b->state = (b->state << 1) | !((MENU_PORTSIO_PIN) & (1<<(b->button_PIN))) | 0XE000;

		if(b->state == 0xF000){
			b->pressed = true;
    2d7a:	dd 24       	eor	r13, r13
    2d7c:	d3 94       	inc	r13

			MENU_ITEM *item = &items[current_state->current_item_idx];
			MENU_STATE *prev_state = current_state;
			if(item->render_callback){
				prev_state->current_item = item;
				current_state = &menu_states[MENU_CALLBACK];
    2d7e:	6e e3       	ldi	r22, 0x3E	; 62
    2d80:	e6 2e       	mov	r14, r22
    2d82:	61 e0       	ldi	r22, 0x01	; 1
    2d84:	f6 2e       	mov	r15, r22

void menuPollButtons(){
	for(uint8_t i=0; i<MENU_BUTTON_ROLE_COUNT; i++){
		MENU_BUTTON *b = &menu_buttons[i];

		b->state = (b->state << 1) | !((MENU_PORTSIO_PIN) & (1<<(b->button_PIN))) | 0XE000;
    2d86:	80 b3       	in	r24, 0x10	; 16
    2d88:	90 e0       	ldi	r25, 0x00	; 0
    2d8a:	09 80       	ldd	r0, Y+1	; 0x01
    2d8c:	02 c0       	rjmp	.+4      	; 0x2d92 <menuPollButtons+0x2e>
    2d8e:	95 95       	asr	r25
    2d90:	87 95       	ror	r24
    2d92:	0a 94       	dec	r0
    2d94:	e2 f7       	brpl	.-8      	; 0x2d8e <menuPollButtons+0x2a>
    2d96:	81 70       	andi	r24, 0x01	; 1
    2d98:	99 27       	eor	r25, r25
    2d9a:	21 e0       	ldi	r18, 0x01	; 1
    2d9c:	82 27       	eor	r24, r18
    2d9e:	2a 81       	ldd	r18, Y+2	; 0x02
    2da0:	3b 81       	ldd	r19, Y+3	; 0x03
    2da2:	22 0f       	add	r18, r18
    2da4:	33 1f       	adc	r19, r19
    2da6:	30 6e       	ori	r19, 0xE0	; 224
    2da8:	82 2b       	or	r24, r18
    2daa:	93 2b       	or	r25, r19
    2dac:	9b 83       	std	Y+3, r25	; 0x03
    2dae:	8a 83       	std	Y+2, r24	; 0x02

		if(b->state == 0xF000){
    2db0:	81 15       	cp	r24, r1
    2db2:	90 4f       	sbci	r25, 0xF0	; 240
    2db4:	71 f0       	breq	.+28     	; 0x2dd2 <menuPollButtons+0x6e>
					current_state = &menu_states[current_state->prev_state->level];
					renderMenu();
				}
			}
		}else{
			b->pressed = false;
    2db6:	1c 82       	std	Y+4, r1	; 0x04
			BUZZER_PORT &= ~(1 << BUZZER_PIN);
    2db8:	a8 98       	cbi	0x15, 0	; 21
    2dba:	25 96       	adiw	r28, 0x05	; 5
	menuPortsioInit();
	menuReset();
}

void menuPollButtons(){
	for(uint8_t i=0; i<MENU_BUTTON_ROLE_COUNT; i++){
    2dbc:	0c 17       	cp	r16, r28
    2dbe:	1d 07       	cpc	r17, r29
    2dc0:	11 f7       	brne	.-60     	; 0x2d86 <menuPollButtons+0x22>
		}else{
			b->pressed = false;
			BUZZER_PORT &= ~(1 << BUZZER_PIN);
		}
	}
}
    2dc2:	df 91       	pop	r29
    2dc4:	cf 91       	pop	r28
    2dc6:	1f 91       	pop	r17
    2dc8:	0f 91       	pop	r16
    2dca:	ff 90       	pop	r15
    2dcc:	ef 90       	pop	r14
    2dce:	df 90       	pop	r13
    2dd0:	08 95       	ret
		MENU_BUTTON *b = &menu_buttons[i];

		b->state = (b->state << 1) | !((MENU_PORTSIO_PIN) & (1<<(b->button_PIN))) | 0XE000;

		if(b->state == 0xF000){
			b->pressed = true;
    2dd2:	dc 82       	std	Y+4, r13	; 0x04
			menutimer = MenuTimer; //= eeprom_read_byte(&eeMenuTimer);
    2dd4:	80 91 0b 01 	lds	r24, 0x010B	; 0x80010b <MenuTimer>
    2dd8:	80 93 0a 01 	sts	0x010A, r24	; 0x80010a <menutimer>
			BUZZER_PORT |= (1 << BUZZER_PIN);
    2ddc:	a8 9a       	sbi	0x15, 0	; 21
			if(current_state->level != MENU_CALLBACK){
    2dde:	a0 91 20 01 	lds	r26, 0x0120	; 0x800120 <current_state>
    2de2:	b0 91 21 01 	lds	r27, 0x0121	; 0x800121 <current_state+0x1>
    2de6:	16 96       	adiw	r26, 0x06	; 6
    2de8:	9c 91       	ld	r25, X
    2dea:	16 97       	sbiw	r26, 0x06	; 6
    2dec:	94 30       	cpi	r25, 0x04	; 4
    2dee:	09 f4       	brne	.+2      	; 0x2df2 <menuPollButtons+0x8e>
    2df0:	3f c0       	rjmp	.+126    	; 0x2e70 <menuPollButtons+0x10c>

/***************************************************************************************
 Function to handle basic btn clicks (Executed when menu is not in CALLBACK state)
***************************************************************************************/
static void scrollMenu(MENU_BUTTON *button){
	switch(button->role){
    2df2:	88 81       	ld	r24, Y
    2df4:	81 30       	cpi	r24, 0x01	; 1
    2df6:	09 f4       	brne	.+2      	; 0x2dfa <menuPollButtons+0x96>
    2df8:	a2 c0       	rjmp	.+324    	; 0x2f3e <menuPollButtons+0x1da>
    2dfa:	38 f1       	brcs	.+78     	; 0x2e4a <menuPollButtons+0xe6>
    2dfc:	82 30       	cpi	r24, 0x02	; 2
    2dfe:	09 f4       	brne	.+2      	; 0x2e02 <menuPollButtons+0x9e>
    2e00:	5b c0       	rjmp	.+182    	; 0x2eb8 <menuPollButtons+0x154>
    2e02:	83 30       	cpi	r24, 0x03	; 3
    2e04:	99 f5       	brne	.+102    	; 0x2e6c <menuPollButtons+0x108>
				current_state = &menu_states[current_state->level + 1];
				setState(current_state, prev_state, NULL, 0, 0);
			}
			break;
		case MENU_CANCEL:
			if(current_state->level != MENU_LEVEL_1){
    2e06:	99 23       	and	r25, r25
    2e08:	09 f4       	brne	.+2      	; 0x2e0c <menuPollButtons+0xa8>
    2e0a:	d4 c0       	rjmp	.+424    	; 0x2fb4 <menuPollButtons+0x250>
				current_state = &menu_states[current_state->prev_state->level];
    2e0c:	ed 91       	ld	r30, X+
    2e0e:	fc 91       	ld	r31, X
    2e10:	a6 81       	ldd	r26, Z+6	; 0x06
    2e12:	27 e0       	ldi	r18, 0x07	; 7
    2e14:	a2 9f       	mul	r26, r18
    2e16:	d0 01       	movw	r26, r0
    2e18:	11 24       	eor	r1, r1
    2e1a:	ae 5d       	subi	r26, 0xDE	; 222
    2e1c:	be 4f       	sbci	r27, 0xFE	; 254
    2e1e:	b0 93 21 01 	sts	0x0121, r27	; 0x800121 <current_state+0x1>
    2e22:	a0 93 20 01 	sts	0x0120, r26	; 0x800120 <current_state>
    2e26:	16 96       	adiw	r26, 0x06	; 6
    2e28:	9c 91       	ld	r25, X
    2e2a:	16 97       	sbiw	r26, 0x06	; 6
			}
			else
				menutimer = 0;
			break;
	}
	if(current_state->level != MENU_CALLBACK){
    2e2c:	94 30       	cpi	r25, 0x04	; 4
    2e2e:	f1 f4       	brne	.+60     	; 0x2e6c <menuPollButtons+0x108>
		renderMenu();
	}else{
		current_state->prev_state->current_item->render_callback(current_state->current_item_idx);
    2e30:	ed 91       	ld	r30, X+
    2e32:	fc 91       	ld	r31, X
    2e34:	11 97       	sbiw	r26, 0x01	; 1
    2e36:	02 80       	ldd	r0, Z+2	; 0x02
    2e38:	f3 81       	ldd	r31, Z+3	; 0x03
    2e3a:	e0 2d       	mov	r30, r0
    2e3c:	02 80       	ldd	r0, Z+2	; 0x02
    2e3e:	f3 81       	ldd	r31, Z+3	; 0x03
    2e40:	e0 2d       	mov	r30, r0
    2e42:	14 96       	adiw	r26, 0x04	; 4
    2e44:	8c 91       	ld	r24, X
    2e46:	09 95       	icall
    2e48:	b8 cf       	rjmp	.-144    	; 0x2dba <menuPollButtons+0x56>
 Function to handle basic btn clicks (Executed when menu is not in CALLBACK state)
***************************************************************************************/
static void scrollMenu(MENU_BUTTON *button){
	switch(button->role){
		case MENU_UP:
			if(current_state->current_item_idx != 0){
    2e4a:	14 96       	adiw	r26, 0x04	; 4
    2e4c:	8c 91       	ld	r24, X
    2e4e:	14 97       	sbiw	r26, 0x04	; 4
    2e50:	88 23       	and	r24, r24
    2e52:	61 f0       	breq	.+24     	; 0x2e6c <menuPollButtons+0x108>
				if(current_state->cursor_line == 0){
    2e54:	15 96       	adiw	r26, 0x05	; 5
    2e56:	9c 91       	ld	r25, X
    2e58:	15 97       	sbiw	r26, 0x05	; 5
    2e5a:	99 23       	and	r25, r25
    2e5c:	21 f0       	breq	.+8      	; 0x2e66 <menuPollButtons+0x102>
					// Move screen
					current_state->current_item_idx -= 1;
				}else{
					// Move cursor
					current_state->cursor_line -= 1;
    2e5e:	91 50       	subi	r25, 0x01	; 1
    2e60:	15 96       	adiw	r26, 0x05	; 5
    2e62:	9c 93       	st	X, r25
    2e64:	15 97       	sbiw	r26, 0x05	; 5
					current_state->current_item_idx -= 1;
    2e66:	81 50       	subi	r24, 0x01	; 1
    2e68:	14 96       	adiw	r26, 0x04	; 4
    2e6a:	8c 93       	st	X, r24
			else
				menutimer = 0;
			break;
	}
	if(current_state->level != MENU_CALLBACK){
		renderMenu();
    2e6c:	09 df       	rcall	.-494    	; 0x2c80 <renderMenu>
    2e6e:	a5 cf       	rjmp	.-182    	; 0x2dba <menuPollButtons+0x56>
			menutimer = MenuTimer; //= eeprom_read_byte(&eeMenuTimer);
			BUZZER_PORT |= (1 << BUZZER_PIN);
			if(current_state->level != MENU_CALLBACK){
				scrollMenu(b);
			}else{
				bool exited = current_state->prev_state->current_item->btn_handle_callback(b, current_state->current_item_idx);
    2e70:	ed 91       	ld	r30, X+
    2e72:	fc 91       	ld	r31, X
    2e74:	11 97       	sbiw	r26, 0x01	; 1
    2e76:	02 80       	ldd	r0, Z+2	; 0x02
    2e78:	f3 81       	ldd	r31, Z+3	; 0x03
    2e7a:	e0 2d       	mov	r30, r0
    2e7c:	04 80       	ldd	r0, Z+4	; 0x04
    2e7e:	f5 81       	ldd	r31, Z+5	; 0x05
    2e80:	e0 2d       	mov	r30, r0
    2e82:	14 96       	adiw	r26, 0x04	; 4
    2e84:	6c 91       	ld	r22, X
    2e86:	ce 01       	movw	r24, r28
    2e88:	09 95       	icall
				if(exited){
    2e8a:	88 23       	and	r24, r24
    2e8c:	09 f4       	brne	.+2      	; 0x2e90 <menuPollButtons+0x12c>
    2e8e:	95 cf       	rjmp	.-214    	; 0x2dba <menuPollButtons+0x56>
					current_state = &menu_states[current_state->prev_state->level];
    2e90:	e0 91 20 01 	lds	r30, 0x0120	; 0x800120 <current_state>
    2e94:	f0 91 21 01 	lds	r31, 0x0121	; 0x800121 <current_state+0x1>
    2e98:	01 90       	ld	r0, Z+
    2e9a:	f0 81       	ld	r31, Z
    2e9c:	e0 2d       	mov	r30, r0
    2e9e:	86 81       	ldd	r24, Z+6	; 0x06
    2ea0:	47 e0       	ldi	r20, 0x07	; 7
    2ea2:	84 9f       	mul	r24, r20
    2ea4:	c0 01       	movw	r24, r0
    2ea6:	11 24       	eor	r1, r1
    2ea8:	8e 5d       	subi	r24, 0xDE	; 222
    2eaa:	9e 4f       	sbci	r25, 0xFE	; 254
    2eac:	90 93 21 01 	sts	0x0121, r25	; 0x800121 <current_state+0x1>
    2eb0:	80 93 20 01 	sts	0x0120, r24	; 0x800120 <current_state>
					renderMenu();
    2eb4:	e5 de       	rcall	.-566    	; 0x2c80 <renderMenu>
    2eb6:	81 cf       	rjmp	.-254    	; 0x2dba <menuPollButtons+0x56>
				}
			}
			break;
		}
		case MENU_CONFIRM:;
			MENU_ITEM *items = menuItemsGetHomeMenu();
    2eb8:	0e 94 76 2c 	call	0x58ec	; 0x58ec <menuItemsGetHomeMenu>
    2ebc:	fc 01       	movw	r30, r24
			if(current_state->level != MENU_LEVEL_1){
    2ebe:	20 91 20 01 	lds	r18, 0x0120	; 0x800120 <current_state>
    2ec2:	30 91 21 01 	lds	r19, 0x0121	; 0x800121 <current_state+0x1>
    2ec6:	d9 01       	movw	r26, r18
    2ec8:	16 96       	adiw	r26, 0x06	; 6
    2eca:	9c 91       	ld	r25, X
    2ecc:	16 97       	sbiw	r26, 0x06	; 6
    2ece:	99 23       	and	r25, r25
    2ed0:	79 f0       	breq	.+30     	; 0x2ef0 <menuPollButtons+0x18c>
				MENU_ITEM *previous_item = menu_states[current_state->prev_state->level].current_item;
    2ed2:	ed 91       	ld	r30, X+
    2ed4:	fc 91       	ld	r31, X
    2ed6:	e6 81       	ldd	r30, Z+6	; 0x06
    2ed8:	b7 e0       	ldi	r27, 0x07	; 7
    2eda:	eb 9f       	mul	r30, r27
    2edc:	f0 01       	movw	r30, r0
    2ede:	11 24       	eor	r1, r1
    2ee0:	ee 5d       	subi	r30, 0xDE	; 222
    2ee2:	fe 4f       	sbci	r31, 0xFE	; 254
				items = previous_item->submenu;
    2ee4:	02 80       	ldd	r0, Z+2	; 0x02
    2ee6:	f3 81       	ldd	r31, Z+3	; 0x03
    2ee8:	e0 2d       	mov	r30, r0
    2eea:	07 80       	ldd	r0, Z+7	; 0x07
    2eec:	f0 85       	ldd	r31, Z+8	; 0x08
    2eee:	e0 2d       	mov	r30, r0
			}

			MENU_ITEM *item = &items[current_state->current_item_idx];
    2ef0:	d9 01       	movw	r26, r18
    2ef2:	14 96       	adiw	r26, 0x04	; 4
    2ef4:	8c 91       	ld	r24, X
    2ef6:	b9 e0       	ldi	r27, 0x09	; 9
    2ef8:	8b 9f       	mul	r24, r27
    2efa:	e0 0d       	add	r30, r0
    2efc:	f1 1d       	adc	r31, r1
    2efe:	11 24       	eor	r1, r1
			MENU_STATE *prev_state = current_state;
			if(item->render_callback){
    2f00:	42 81       	ldd	r20, Z+2	; 0x02
    2f02:	53 81       	ldd	r21, Z+3	; 0x03
    2f04:	45 2b       	or	r20, r21
    2f06:	09 f4       	brne	.+2      	; 0x2f0a <menuPollButtons+0x1a6>
    2f08:	58 c0       	rjmp	.+176    	; 0x2fba <menuPollButtons+0x256>
				prev_state->current_item = item;
    2f0a:	d9 01       	movw	r26, r18
    2f0c:	13 96       	adiw	r26, 0x03	; 3
    2f0e:	fc 93       	st	X, r31
    2f10:	ee 93       	st	-X, r30
    2f12:	12 97       	sbiw	r26, 0x02	; 2
				current_state = &menu_states[MENU_CALLBACK];
    2f14:	f0 92 21 01 	sts	0x0121, r15	; 0x800121 <current_state+0x1>
    2f18:	e0 92 20 01 	sts	0x0120, r14	; 0x800120 <current_state>
*/
/*************************************************************************
 Helpers for setting the state properties
*************************************************************************/
static void setState(MENU_STATE *state, MENU_STATE *new_prev_state, MENU_ITEM *new_current_item, uint8_t new_current_item_idx, uint8_t new_cursor_line){
	state->prev_state = new_prev_state;
    2f1c:	30 93 3f 01 	sts	0x013F, r19	; 0x80013f <menu_states+0x1d>
    2f20:	20 93 3e 01 	sts	0x013E, r18	; 0x80013e <menu_states+0x1c>
	state->current_item = new_current_item;
    2f24:	f0 93 41 01 	sts	0x0141, r31	; 0x800141 <menu_states+0x1f>
    2f28:	e0 93 40 01 	sts	0x0140, r30	; 0x800140 <menu_states+0x1e>
	state->current_item_idx = new_current_item_idx;
    2f2c:	80 93 42 01 	sts	0x0142, r24	; 0x800142 <menu_states+0x20>
	state->cursor_line = new_cursor_line;
    2f30:	10 92 43 01 	sts	0x0143, r1	; 0x800143 <menu_states+0x21>
    2f34:	90 91 44 01 	lds	r25, 0x0144	; 0x800144 <menu_states+0x22>
    2f38:	ae e3       	ldi	r26, 0x3E	; 62
    2f3a:	b1 e0       	ldi	r27, 0x01	; 1
    2f3c:	77 cf       	rjmp	.-274    	; 0x2e2c <menuPollButtons+0xc8>
					current_state->current_item_idx -= 1;
				}
			}
			break;
		case MENU_DOWN: {
			uint8_t max_options = menuItemsGetHomeMenuSize();
    2f3e:	0e 94 79 2c 	call	0x58f2	; 0x58f2 <menuItemsGetHomeMenuSize>
			if(current_state->level != MENU_LEVEL_1){
    2f42:	a0 91 20 01 	lds	r26, 0x0120	; 0x800120 <current_state>
    2f46:	b0 91 21 01 	lds	r27, 0x0121	; 0x800121 <current_state+0x1>
    2f4a:	16 96       	adiw	r26, 0x06	; 6
    2f4c:	9c 91       	ld	r25, X
    2f4e:	16 97       	sbiw	r26, 0x06	; 6
				MENU_ITEM *previous_item = menu_states[current_state->prev_state->level].current_item;
				max_options = previous_item->submenu_length;
			}

			if(current_state->current_item_idx < max_options-1){
    2f50:	14 96       	adiw	r26, 0x04	; 4
    2f52:	4c 91       	ld	r20, X
    2f54:	14 97       	sbiw	r26, 0x04	; 4
    2f56:	64 2f       	mov	r22, r20
    2f58:	70 e0       	ldi	r23, 0x00	; 0
				}
			}
			break;
		case MENU_DOWN: {
			uint8_t max_options = menuItemsGetHomeMenuSize();
			if(current_state->level != MENU_LEVEL_1){
    2f5a:	99 23       	and	r25, r25
    2f5c:	19 f1       	breq	.+70     	; 0x2fa4 <menuPollButtons+0x240>
				MENU_ITEM *previous_item = menu_states[current_state->prev_state->level].current_item;
    2f5e:	ed 91       	ld	r30, X+
    2f60:	fc 91       	ld	r31, X
    2f62:	11 97       	sbiw	r26, 0x01	; 1
    2f64:	e6 81       	ldd	r30, Z+6	; 0x06
    2f66:	87 e0       	ldi	r24, 0x07	; 7
    2f68:	e8 9f       	mul	r30, r24
    2f6a:	f0 01       	movw	r30, r0
    2f6c:	11 24       	eor	r1, r1
    2f6e:	ee 5d       	subi	r30, 0xDE	; 222
    2f70:	fe 4f       	sbci	r31, 0xFE	; 254
				max_options = previous_item->submenu_length;
    2f72:	02 80       	ldd	r0, Z+2	; 0x02
    2f74:	f3 81       	ldd	r31, Z+3	; 0x03
    2f76:	e0 2d       	mov	r30, r0
			}

			if(current_state->current_item_idx < max_options-1){
    2f78:	26 81       	ldd	r18, Z+6	; 0x06
    2f7a:	30 e0       	ldi	r19, 0x00	; 0
    2f7c:	21 50       	subi	r18, 0x01	; 1
    2f7e:	31 09       	sbc	r19, r1
    2f80:	62 17       	cp	r22, r18
    2f82:	73 07       	cpc	r23, r19
    2f84:	0c f0       	brlt	.+2      	; 0x2f88 <menuPollButtons+0x224>
    2f86:	52 cf       	rjmp	.-348    	; 0x2e2c <menuPollButtons+0xc8>
				if(current_state->cursor_line == LCD_LINES - 1){
    2f88:	15 96       	adiw	r26, 0x05	; 5
    2f8a:	8c 91       	ld	r24, X
    2f8c:	15 97       	sbiw	r26, 0x05	; 5
    2f8e:	83 30       	cpi	r24, 0x03	; 3
    2f90:	21 f0       	breq	.+8      	; 0x2f9a <menuPollButtons+0x236>
					// Move screen
					current_state->current_item_idx += 1;
				}else{
					// Move cursor
					current_state->cursor_line += 1;
    2f92:	8f 5f       	subi	r24, 0xFF	; 255
    2f94:	15 96       	adiw	r26, 0x05	; 5
    2f96:	8c 93       	st	X, r24
    2f98:	15 97       	sbiw	r26, 0x05	; 5
					current_state->current_item_idx += 1;
    2f9a:	4f 5f       	subi	r20, 0xFF	; 255
    2f9c:	14 96       	adiw	r26, 0x04	; 4
    2f9e:	4c 93       	st	X, r20
    2fa0:	14 97       	sbiw	r26, 0x04	; 4
    2fa2:	44 cf       	rjmp	.-376    	; 0x2e2c <menuPollButtons+0xc8>
			if(current_state->level != MENU_LEVEL_1){
				MENU_ITEM *previous_item = menu_states[current_state->prev_state->level].current_item;
				max_options = previous_item->submenu_length;
			}

			if(current_state->current_item_idx < max_options-1){
    2fa4:	28 2f       	mov	r18, r24
    2fa6:	30 e0       	ldi	r19, 0x00	; 0
    2fa8:	21 50       	subi	r18, 0x01	; 1
    2faa:	31 09       	sbc	r19, r1
    2fac:	62 17       	cp	r22, r18
    2fae:	73 07       	cpc	r23, r19
    2fb0:	5c f3       	brlt	.-42     	; 0x2f88 <menuPollButtons+0x224>
    2fb2:	5c cf       	rjmp	.-328    	; 0x2e6c <menuPollButtons+0x108>
		case MENU_CANCEL:
			if(current_state->level != MENU_LEVEL_1){
				current_state = &menu_states[current_state->prev_state->level];
			}
			else
				menutimer = 0;
    2fb4:	10 92 0a 01 	sts	0x010A, r1	; 0x80010a <menutimer>
    2fb8:	59 cf       	rjmp	.-334    	; 0x2e6c <menuPollButtons+0x108>
			MENU_STATE *prev_state = current_state;
			if(item->render_callback){
				prev_state->current_item = item;
				current_state = &menu_states[MENU_CALLBACK];
				setState(current_state, prev_state, prev_state->current_item, prev_state->current_item_idx, 0);
			}else if(item->submenu){
    2fba:	47 81       	ldd	r20, Z+7	; 0x07
    2fbc:	50 85       	ldd	r21, Z+8	; 0x08
				prev_state->current_item = item;
    2fbe:	d9 01       	movw	r26, r18
			MENU_STATE *prev_state = current_state;
			if(item->render_callback){
				prev_state->current_item = item;
				current_state = &menu_states[MENU_CALLBACK];
				setState(current_state, prev_state, prev_state->current_item, prev_state->current_item_idx, 0);
			}else if(item->submenu){
    2fc0:	45 2b       	or	r20, r21
    2fc2:	09 f4       	brne	.+2      	; 0x2fc6 <menuPollButtons+0x262>
    2fc4:	33 cf       	rjmp	.-410    	; 0x2e2c <menuPollButtons+0xc8>
				prev_state->current_item = item;
    2fc6:	13 96       	adiw	r26, 0x03	; 3
    2fc8:	fc 93       	st	X, r31
    2fca:	ee 93       	st	-X, r30
    2fcc:	12 97       	sbiw	r26, 0x02	; 2
				current_state = &menu_states[current_state->level + 1];
    2fce:	89 2f       	mov	r24, r25
    2fd0:	90 e0       	ldi	r25, 0x00	; 0
    2fd2:	01 96       	adiw	r24, 0x01	; 1
    2fd4:	dc 01       	movw	r26, r24
    2fd6:	aa 0f       	add	r26, r26
    2fd8:	bb 1f       	adc	r27, r27
    2fda:	aa 0f       	add	r26, r26
    2fdc:	bb 1f       	adc	r27, r27
    2fde:	aa 0f       	add	r26, r26
    2fe0:	bb 1f       	adc	r27, r27
    2fe2:	a8 1b       	sub	r26, r24
    2fe4:	b9 0b       	sbc	r27, r25
    2fe6:	ae 5d       	subi	r26, 0xDE	; 222
    2fe8:	be 4f       	sbci	r27, 0xFE	; 254
    2fea:	b0 93 21 01 	sts	0x0121, r27	; 0x800121 <current_state+0x1>
    2fee:	a0 93 20 01 	sts	0x0120, r26	; 0x800120 <current_state>
*/
/*************************************************************************
 Helpers for setting the state properties
*************************************************************************/
static void setState(MENU_STATE *state, MENU_STATE *new_prev_state, MENU_ITEM *new_current_item, uint8_t new_current_item_idx, uint8_t new_cursor_line){
	state->prev_state = new_prev_state;
    2ff2:	11 96       	adiw	r26, 0x01	; 1
    2ff4:	3c 93       	st	X, r19
    2ff6:	2e 93       	st	-X, r18
	state->current_item = new_current_item;
    2ff8:	13 96       	adiw	r26, 0x03	; 3
    2ffa:	1c 92       	st	X, r1
    2ffc:	1e 92       	st	-X, r1
    2ffe:	12 97       	sbiw	r26, 0x02	; 2
	state->current_item_idx = new_current_item_idx;
    3000:	14 96       	adiw	r26, 0x04	; 4
    3002:	1c 92       	st	X, r1
    3004:	14 97       	sbiw	r26, 0x04	; 4
	state->cursor_line = new_cursor_line;
    3006:	15 96       	adiw	r26, 0x05	; 5
    3008:	1c 92       	st	X, r1
    300a:	15 97       	sbiw	r26, 0x05	; 5
    300c:	16 96       	adiw	r26, 0x06	; 6
    300e:	9c 91       	ld	r25, X
    3010:	16 97       	sbiw	r26, 0x06	; 6
    3012:	0c cf       	rjmp	.-488    	; 0x2e2c <menuPollButtons+0xc8>

00003014 <Simple_Callback>:
#include "../main.h"
#include "avr/eeprom.h"
#include "../main.h"

bool Simple_Callback(MENU_BUTTON *button, uint8_t column){
	switch(button->role){
    3014:	fc 01       	movw	r30, r24
    3016:	80 81       	ld	r24, Z
    3018:	84 30       	cpi	r24, 0x04	; 4
    301a:	10 f0       	brcs	.+4      	; 0x3020 <Simple_Callback+0xc>
		case MENU_DOWN:
		case MENU_CONFIRM:
		case MENU_CANCEL:
			return true;
	}
	return false;
    301c:	80 e0       	ldi	r24, 0x00	; 0
    301e:	08 95       	ret
	switch(button->role){
		case MENU_UP:
		case MENU_DOWN:
		case MENU_CONFIRM:
		case MENU_CANCEL:
			return true;
    3020:	81 e0       	ldi	r24, 0x01	; 1
	}
	return false;
}
    3022:	08 95       	ret

00003024 <SwitchOnOutdoorTemp_CallbackRender>:
	lcd_gotoxy(0,1);
	lcd_puts(HIHxxxxHumidBuf);
}

void SwitchOnOutdoorTemp_CallbackRender(uint8_t which){
	lcd_clrscr();
    3024:	0e 94 46 08 	call	0x108c	; 0x108c <lcd_clrscr>
	lcd_puts_hu(PSTR("Külsõ hõm tiltás"));
    3028:	89 ec       	ldi	r24, 0xC9	; 201
    302a:	98 e0       	ldi	r25, 0x08	; 8
    302c:	0e 94 7c 09 	call	0x12f8	; 0x12f8 <lcd_puts_hu>
	lcd_gotoxy(0,1);
    3030:	61 e0       	ldi	r22, 0x01	; 1
    3032:	80 e0       	ldi	r24, 0x00	; 0
    3034:	0e 94 26 08 	call	0x104c	; 0x104c <lcd_gotoxy>
	if (SwitchOnOutdoorTemp)
    3038:	80 91 dd 09 	lds	r24, 0x09DD	; 0x8009dd <SwitchOnOutdoorTemp>
    303c:	81 11       	cpse	r24, r1
    303e:	04 c0       	rjmp	.+8      	; 0x3048 <SwitchOnOutdoorTemp_CallbackRender+0x24>
		lcd_puts_hu(PSTR("aktív"));
	else
		lcd_puts_hu(PSTR("letiltva"));
    3040:	8a eb       	ldi	r24, 0xBA	; 186
    3042:	98 e0       	ldi	r25, 0x08	; 8
    3044:	0c 94 7c 09 	jmp	0x12f8	; 0x12f8 <lcd_puts_hu>
void SwitchOnOutdoorTemp_CallbackRender(uint8_t which){
	lcd_clrscr();
	lcd_puts_hu(PSTR("Külsõ hõm tiltás"));
	lcd_gotoxy(0,1);
	if (SwitchOnOutdoorTemp)
		lcd_puts_hu(PSTR("aktív"));
    3048:	83 ec       	ldi	r24, 0xC3	; 195
    304a:	98 e0       	ldi	r25, 0x08	; 8
    304c:	0c 94 7c 09 	jmp	0x12f8	; 0x12f8 <lcd_puts_hu>

00003050 <Mode_CallbackRender>:

/*************************************************************************
 Menu Settings, submenu definition
*************************************************************************/
void Mode_CallbackRender(uint8_t which){
	lcd_clrscr();
    3050:	0e 94 46 08 	call	0x108c	; 0x108c <lcd_clrscr>
	lcd_puts_hu(PSTR("Tesztüzem"));
    3054:	8e e4       	ldi	r24, 0x4E	; 78
    3056:	95 e0       	ldi	r25, 0x05	; 5
    3058:	0e 94 7c 09 	call	0x12f8	; 0x12f8 <lcd_puts_hu>
	lcd_gotoxy(0,1);
    305c:	61 e0       	ldi	r22, 0x01	; 1
    305e:	80 e0       	ldi	r24, 0x00	; 0
    3060:	0e 94 26 08 	call	0x104c	; 0x104c <lcd_gotoxy>
	switch (Mode)
    3064:	80 91 77 08 	lds	r24, 0x0877	; 0x800877 <Mode>
    3068:	81 30       	cpi	r24, 0x01	; 1
    306a:	61 f0       	breq	.+24     	; 0x3084 <Mode_CallbackRender+0x34>
    306c:	38 f0       	brcs	.+14     	; 0x307c <Mode_CallbackRender+0x2c>
    306e:	82 30       	cpi	r24, 0x02	; 2
    3070:	21 f4       	brne	.+8      	; 0x307a <Mode_CallbackRender+0x2a>
		case 1:
			lcd_puts_hu(PSTR("Manuális"));
			break;
		
		case 2:
			lcd_puts_hu(PSTR("Hibakeresés"));
    3072:	8d e2       	ldi	r24, 0x2D	; 45
    3074:	95 e0       	ldi	r25, 0x05	; 5
    3076:	0c 94 7c 09 	jmp	0x12f8	; 0x12f8 <lcd_puts_hu>
    307a:	08 95       	ret
	lcd_puts_hu(PSTR("Tesztüzem"));
	lcd_gotoxy(0,1);
	switch (Mode)
	{
		case 0:
			lcd_puts_hu(PSTR("Automatikus"));
    307c:	82 e4       	ldi	r24, 0x42	; 66
    307e:	95 e0       	ldi	r25, 0x05	; 5
    3080:	0c 94 7c 09 	jmp	0x12f8	; 0x12f8 <lcd_puts_hu>
			break;
		
		case 1:
			lcd_puts_hu(PSTR("Manuális"));
    3084:	89 e3       	ldi	r24, 0x39	; 57
    3086:	95 e0       	ldi	r25, 0x05	; 5
    3088:	0c 94 7c 09 	jmp	0x12f8	; 0x12f8 <lcd_puts_hu>

0000308c <ClockDayName_CallbackRender>:
	ClockDay_CallbackRender(column);
	return false;
}

void ClockDayName_CallbackRender(uint8_t which){
	lcd_clrscr();
    308c:	0e 94 46 08 	call	0x108c	; 0x108c <lcd_clrscr>
	lcd_puts_hu(PSTR("nap név"));
    3090:	81 ed       	ldi	r24, 0xD1	; 209
    3092:	94 e0       	ldi	r25, 0x04	; 4
    3094:	0e 94 7c 09 	call	0x12f8	; 0x12f8 <lcd_puts_hu>
	lcd_gotoxy(0,1);
    3098:	61 e0       	ldi	r22, 0x01	; 1
    309a:	80 e0       	ldi	r24, 0x00	; 0
    309c:	0e 94 26 08 	call	0x104c	; 0x104c <lcd_gotoxy>
	switch (DayName)
    30a0:	e0 91 01 01 	lds	r30, 0x0101	; 0x800101 <DayName>
    30a4:	8e 2f       	mov	r24, r30
    30a6:	90 e0       	ldi	r25, 0x00	; 0
    30a8:	fc 01       	movw	r30, r24
    30aa:	31 97       	sbiw	r30, 0x01	; 1
    30ac:	e7 30       	cpi	r30, 0x07	; 7
    30ae:	f1 05       	cpc	r31, r1
    30b0:	08 f0       	brcs	.+2      	; 0x30b4 <ClockDayName_CallbackRender+0x28>
    30b2:	08 95       	ret
    30b4:	e4 56       	subi	r30, 0x64	; 100
    30b6:	ff 4f       	sbci	r31, 0xFF	; 255
    30b8:	0c 94 a7 30 	jmp	0x614e	; 0x614e <__tablejump2__>
			break;
		case 5:
			lcd_puts_hu(PSTR("péntek"));
			break;
		case 6:
			lcd_puts_hu(PSTR("szombat"));
    30bc:	86 ea       	ldi	r24, 0xA6	; 166
    30be:	94 e0       	ldi	r25, 0x04	; 4
    30c0:	0c 94 7c 09 	jmp	0x12f8	; 0x12f8 <lcd_puts_hu>
			break;
		case 7:
			lcd_puts_hu(PSTR("vasárnap"));
    30c4:	8d e9       	ldi	r24, 0x9D	; 157
    30c6:	94 e0       	ldi	r25, 0x04	; 4
    30c8:	0c 94 7c 09 	jmp	0x12f8	; 0x12f8 <lcd_puts_hu>
	lcd_puts_hu(PSTR("nap név"));
	lcd_gotoxy(0,1);
	switch (DayName)
	{
		case 1:
			lcd_puts_hu(PSTR("hétfõ"));
    30cc:	8b ec       	ldi	r24, 0xCB	; 203
    30ce:	94 e0       	ldi	r25, 0x04	; 4
    30d0:	0c 94 7c 09 	jmp	0x12f8	; 0x12f8 <lcd_puts_hu>
			break;
		case 2:
			lcd_puts_hu(PSTR("kedd"));
    30d4:	86 ec       	ldi	r24, 0xC6	; 198
    30d6:	94 e0       	ldi	r25, 0x04	; 4
    30d8:	0c 94 7c 09 	jmp	0x12f8	; 0x12f8 <lcd_puts_hu>
			break;
		case 3:
			lcd_puts_hu(PSTR("szerda"));
    30dc:	8f eb       	ldi	r24, 0xBF	; 191
    30de:	94 e0       	ldi	r25, 0x04	; 4
    30e0:	0c 94 7c 09 	jmp	0x12f8	; 0x12f8 <lcd_puts_hu>
			break;
		case 4:
			lcd_puts_hu(PSTR("csütörtök"));
    30e4:	85 eb       	ldi	r24, 0xB5	; 181
    30e6:	94 e0       	ldi	r25, 0x04	; 4
    30e8:	0c 94 7c 09 	jmp	0x12f8	; 0x12f8 <lcd_puts_hu>
			break;
		case 5:
			lcd_puts_hu(PSTR("péntek"));
    30ec:	8e ea       	ldi	r24, 0xAE	; 174
    30ee:	94 e0       	ldi	r25, 0x04	; 4
    30f0:	0c 94 7c 09 	jmp	0x12f8	; 0x12f8 <lcd_puts_hu>

000030f4 <ClockDayName_ActionCallback>:
			break;
	}
}

bool ClockDayName_ActionCallback(MENU_BUTTON *button, uint8_t column){
	switch(button->role){
    30f4:	fc 01       	movw	r30, r24
    30f6:	80 81       	ld	r24, Z
    30f8:	81 30       	cpi	r24, 0x01	; 1
    30fa:	a1 f0       	breq	.+40     	; 0x3124 <ClockDayName_ActionCallback+0x30>
    30fc:	40 f0       	brcs	.+16     	; 0x310e <ClockDayName_ActionCallback+0x1a>
    30fe:	84 30       	cpi	r24, 0x04	; 4
    3100:	20 f0       	brcs	.+8      	; 0x310a <ClockDayName_ActionCallback+0x16>
    3102:	86 2f       	mov	r24, r22
		case MENU_CONFIRM:
		case MENU_CANCEL:
			return true;
	}

	ClockDayName_CallbackRender(column);
    3104:	c3 df       	rcall	.-122    	; 0x308c <ClockDayName_CallbackRender>
	return false;
    3106:	80 e0       	ldi	r24, 0x00	; 0
    3108:	08 95       	ret
			if (--DayName == 0)
			DayName = 7;
			break;
		case MENU_CONFIRM:
		case MENU_CANCEL:
			return true;
    310a:	81 e0       	ldi	r24, 0x01	; 1
	}

	ClockDayName_CallbackRender(column);
	return false;
}
    310c:	08 95       	ret
}

bool ClockDayName_ActionCallback(MENU_BUTTON *button, uint8_t column){
	switch(button->role){
		case MENU_UP:
			if (++DayName == 8)
    310e:	80 91 01 01 	lds	r24, 0x0101	; 0x800101 <DayName>
    3112:	8f 5f       	subi	r24, 0xFF	; 255
    3114:	88 30       	cpi	r24, 0x08	; 8
    3116:	71 f0       	breq	.+28     	; 0x3134 <ClockDayName_ActionCallback+0x40>
				DayName = 1;
			break;
		case MENU_DOWN:
			if (--DayName == 0)
			DayName = 7;
    3118:	80 93 01 01 	sts	0x0101, r24	; 0x800101 <DayName>
		case MENU_CONFIRM:
		case MENU_CANCEL:
			return true;
	}

	ClockDayName_CallbackRender(column);
    311c:	86 2f       	mov	r24, r22
    311e:	b6 df       	rcall	.-148    	; 0x308c <ClockDayName_CallbackRender>
	return false;
    3120:	80 e0       	ldi	r24, 0x00	; 0
    3122:	08 95       	ret
		case MENU_UP:
			if (++DayName == 8)
				DayName = 1;
			break;
		case MENU_DOWN:
			if (--DayName == 0)
    3124:	80 91 01 01 	lds	r24, 0x0101	; 0x800101 <DayName>
    3128:	81 50       	subi	r24, 0x01	; 1
    312a:	b1 f7       	brne	.-20     	; 0x3118 <ClockDayName_ActionCallback+0x24>
			DayName = 7;
    312c:	87 e0       	ldi	r24, 0x07	; 7
    312e:	80 93 01 01 	sts	0x0101, r24	; 0x800101 <DayName>
    3132:	f4 cf       	rjmp	.-24     	; 0x311c <ClockDayName_ActionCallback+0x28>

bool ClockDayName_ActionCallback(MENU_BUTTON *button, uint8_t column){
	switch(button->role){
		case MENU_UP:
			if (++DayName == 8)
				DayName = 1;
    3134:	81 e0       	ldi	r24, 0x01	; 1
    3136:	80 93 01 01 	sts	0x0101, r24	; 0x800101 <DayName>
    313a:	e3 cf       	rjmp	.-58     	; 0x3102 <ClockDayName_ActionCallback+0xe>

0000313c <HIHxxxxTemp_CallbackRender>:

/*************************************************************************
 BME 280, submenu definitions
*************************************************************************/
void HIHxxxxTemp_CallbackRender(uint8_t which){
	lcd_clrscr();
    313c:	0e 94 46 08 	call	0x108c	; 0x108c <lcd_clrscr>
	lcd_puts_hu(PSTR("HIHxxxx hõm"));
    3140:	87 ee       	ldi	r24, 0xE7	; 231
    3142:	98 e0       	ldi	r25, 0x08	; 8
    3144:	0e 94 7c 09 	call	0x12f8	; 0x12f8 <lcd_puts_hu>
	lcd_gotoxy(0,1);
    3148:	61 e0       	ldi	r22, 0x01	; 1
    314a:	80 e0       	ldi	r24, 0x00	; 0
    314c:	0e 94 26 08 	call	0x104c	; 0x104c <lcd_gotoxy>
	lcd_puts(HIHxxxxTempBuf);
    3150:	8c e8       	ldi	r24, 0x8C	; 140
    3152:	99 e0       	ldi	r25, 0x09	; 9
    3154:	0c 94 1b 09 	jmp	0x1236	; 0x1236 <lcd_puts>

00003158 <HIHxxxxHumidity_CallbackRender>:
	//ftoa(buffer, HIHxxxxTempMax, 2);
	//lcd_puts(buffer); lcd_puts_p(PSTR(" C"));
}

void HIHxxxxHumidity_CallbackRender(uint8_t which){
	lcd_clrscr();
    3158:	0e 94 46 08 	call	0x108c	; 0x108c <lcd_clrscr>
	lcd_puts_hu(PSTR("HIHxxxx pára"));
    315c:	8a ed       	ldi	r24, 0xDA	; 218
    315e:	98 e0       	ldi	r25, 0x08	; 8
    3160:	0e 94 7c 09 	call	0x12f8	; 0x12f8 <lcd_puts_hu>
	lcd_gotoxy(0,1);
    3164:	61 e0       	ldi	r22, 0x01	; 1
    3166:	80 e0       	ldi	r24, 0x00	; 0
    3168:	0e 94 26 08 	call	0x104c	; 0x104c <lcd_gotoxy>
	lcd_puts(HIHxxxxHumidBuf);
    316c:	8d e4       	ldi	r24, 0x4D	; 77
    316e:	99 e0       	ldi	r25, 0x09	; 9
    3170:	0c 94 1b 09 	jmp	0x1236	; 0x1236 <lcd_puts>

00003174 <SwitchOnOutdoorTempMin_CallbackRender>:

	SwitchOnOutdoorTemp_CallbackRender(column);
	return false;
}

void SwitchOnOutdoorTempMin_CallbackRender(uint8_t which){
    3174:	cf 93       	push	r28
    3176:	df 93       	push	r29
    3178:	00 d0       	rcall	.+0      	; 0x317a <SwitchOnOutdoorTempMin_CallbackRender+0x6>
    317a:	00 d0       	rcall	.+0      	; 0x317c <SwitchOnOutdoorTempMin_CallbackRender+0x8>
    317c:	1f 92       	push	r1
    317e:	cd b7       	in	r28, 0x3d	; 61
    3180:	de b7       	in	r29, 0x3e	; 62
	lcd_clrscr();
    3182:	0e 94 46 08 	call	0x108c	; 0x108c <lcd_clrscr>
	lcd_puts_hu(PSTR("Külsõ min hõm"));
    3186:	8c ea       	ldi	r24, 0xAC	; 172
    3188:	98 e0       	ldi	r25, 0x08	; 8
    318a:	0e 94 7c 09 	call	0x12f8	; 0x12f8 <lcd_puts_hu>
	lcd_gotoxy(0,1);
    318e:	61 e0       	ldi	r22, 0x01	; 1
    3190:	80 e0       	ldi	r24, 0x00	; 0
    3192:	0e 94 26 08 	call	0x104c	; 0x104c <lcd_gotoxy>
    3196:	4a e0       	ldi	r20, 0x0A	; 10
    3198:	be 01       	movw	r22, r28
    319a:	6f 5f       	subi	r22, 0xFF	; 255
    319c:	7f 4f       	sbci	r23, 0xFF	; 255
    319e:	80 91 34 09 	lds	r24, 0x0934	; 0x800934 <SwitchOnOutdoorTempMin>
    31a2:	90 91 35 09 	lds	r25, 0x0935	; 0x800935 <SwitchOnOutdoorTempMin+0x1>
    31a6:	0e 94 c5 30 	call	0x618a	; 0x618a <__itoa_ncheck>
	char buf[5];
	itoa(SwitchOnOutdoorTempMin, buf, 10);
	lcd_puts(buf);
    31aa:	ce 01       	movw	r24, r28
    31ac:	01 96       	adiw	r24, 0x01	; 1
    31ae:	0e 94 1b 09 	call	0x1236	; 0x1236 <lcd_puts>
}
    31b2:	0f 90       	pop	r0
    31b4:	0f 90       	pop	r0
    31b6:	0f 90       	pop	r0
    31b8:	0f 90       	pop	r0
    31ba:	0f 90       	pop	r0
    31bc:	df 91       	pop	r29
    31be:	cf 91       	pop	r28
    31c0:	08 95       	ret

000031c2 <DHWTempDesired_CallbackRender>:
	lcd_puts(buffer); lcd_puts_p(PSTR("/"));
	itoa(DHW.MeasuredMaximumTemp, buffer, 10);
	lcd_puts(buffer); lcd_puts_p(PSTR(" C"));
}

void DHWTempDesired_CallbackRender(uint8_t which){
    31c2:	cf 93       	push	r28
    31c4:	df 93       	push	r29
    31c6:	00 d0       	rcall	.+0      	; 0x31c8 <DHWTempDesired_CallbackRender+0x6>
    31c8:	00 d0       	rcall	.+0      	; 0x31ca <DHWTempDesired_CallbackRender+0x8>
    31ca:	cd b7       	in	r28, 0x3d	; 61
    31cc:	de b7       	in	r29, 0x3e	; 62
    31ce:	80 91 54 09 	lds	r24, 0x0954	; 0x800954 <DHWTempDesired>
    31d2:	4a e0       	ldi	r20, 0x0A	; 10
    31d4:	be 01       	movw	r22, r28
    31d6:	6f 5f       	subi	r22, 0xFF	; 255
    31d8:	7f 4f       	sbci	r23, 0xFF	; 255
    31da:	90 e0       	ldi	r25, 0x00	; 0
    31dc:	0e 94 c5 30 	call	0x618a	; 0x618a <__itoa_ncheck>
	char buf[4];
	itoa(DHWTempDesired, buf, 10);
	lcd_clrscr();
    31e0:	0e 94 46 08 	call	0x108c	; 0x108c <lcd_clrscr>
	lcd_puts_hu(PSTR("HMV kívánt hõm"));
    31e4:	8c e3       	ldi	r24, 0x3C	; 60
    31e6:	98 e0       	ldi	r25, 0x08	; 8
    31e8:	0e 94 7c 09 	call	0x12f8	; 0x12f8 <lcd_puts_hu>
	lcd_gotoxy(0,1);
    31ec:	61 e0       	ldi	r22, 0x01	; 1
    31ee:	80 e0       	ldi	r24, 0x00	; 0
    31f0:	0e 94 26 08 	call	0x104c	; 0x104c <lcd_gotoxy>
	lcd_puts(buf);
    31f4:	ce 01       	movw	r24, r28
    31f6:	01 96       	adiw	r24, 0x01	; 1
    31f8:	0e 94 1b 09 	call	0x1236	; 0x1236 <lcd_puts>
}
    31fc:	0f 90       	pop	r0
    31fe:	0f 90       	pop	r0
    3200:	0f 90       	pop	r0
    3202:	0f 90       	pop	r0
    3204:	df 91       	pop	r29
    3206:	cf 91       	pop	r28
    3208:	08 95       	ret

0000320a <DHWTempMin_CallbackRender>:
	}
	DHWTempDesired_CallbackRender(column);
	return false;
}

void DHWTempMin_CallbackRender(uint8_t which){
    320a:	cf 93       	push	r28
    320c:	df 93       	push	r29
    320e:	00 d0       	rcall	.+0      	; 0x3210 <DHWTempMin_CallbackRender+0x6>
    3210:	00 d0       	rcall	.+0      	; 0x3212 <DHWTempMin_CallbackRender+0x8>
    3212:	cd b7       	in	r28, 0x3d	; 61
    3214:	de b7       	in	r29, 0x3e	; 62
    3216:	80 91 39 09 	lds	r24, 0x0939	; 0x800939 <DHWTempMin>
    321a:	4a e0       	ldi	r20, 0x0A	; 10
    321c:	be 01       	movw	r22, r28
    321e:	6f 5f       	subi	r22, 0xFF	; 255
    3220:	7f 4f       	sbci	r23, 0xFF	; 255
    3222:	90 e0       	ldi	r25, 0x00	; 0
    3224:	0e 94 c5 30 	call	0x618a	; 0x618a <__itoa_ncheck>
	char buf[4];
	itoa(DHWTempMin, buf, 10);
	lcd_clrscr();
    3228:	0e 94 46 08 	call	0x108c	; 0x108c <lcd_clrscr>
	lcd_puts_hu(PSTR("HMV min hõm"));
    322c:	80 e3       	ldi	r24, 0x30	; 48
    322e:	98 e0       	ldi	r25, 0x08	; 8
    3230:	0e 94 7c 09 	call	0x12f8	; 0x12f8 <lcd_puts_hu>
	lcd_gotoxy(0,1);
    3234:	61 e0       	ldi	r22, 0x01	; 1
    3236:	80 e0       	ldi	r24, 0x00	; 0
    3238:	0e 94 26 08 	call	0x104c	; 0x104c <lcd_gotoxy>
	lcd_puts(buf);
    323c:	ce 01       	movw	r24, r28
    323e:	01 96       	adiw	r24, 0x01	; 1
    3240:	0e 94 1b 09 	call	0x1236	; 0x1236 <lcd_puts>
}
    3244:	0f 90       	pop	r0
    3246:	0f 90       	pop	r0
    3248:	0f 90       	pop	r0
    324a:	0f 90       	pop	r0
    324c:	df 91       	pop	r29
    324e:	cf 91       	pop	r28
    3250:	08 95       	ret

00003252 <ForwardHeatTemp_CallbackRender>:
	lcd_puts(buffer); lcd_puts_p(PSTR("/"));
	itoa(Buffer.MeasuredMaximumTemp, buffer, 10);
	lcd_puts(buffer); lcd_puts_p(PSTR(" C"));
}

void ForwardHeatTemp_CallbackRender(uint8_t which){
    3252:	cf 93       	push	r28
    3254:	df 93       	push	r29
    3256:	00 d0       	rcall	.+0      	; 0x3258 <ForwardHeatTemp_CallbackRender+0x6>
    3258:	00 d0       	rcall	.+0      	; 0x325a <ForwardHeatTemp_CallbackRender+0x8>
    325a:	cd b7       	in	r28, 0x3d	; 61
    325c:	de b7       	in	r29, 0x3e	; 62
    325e:	80 91 08 01 	lds	r24, 0x0108	; 0x800108 <ForwardHeatTemp>
    3262:	4a e0       	ldi	r20, 0x0A	; 10
    3264:	be 01       	movw	r22, r28
    3266:	6f 5f       	subi	r22, 0xFF	; 255
    3268:	7f 4f       	sbci	r23, 0xFF	; 255
    326a:	90 e0       	ldi	r25, 0x00	; 0
    326c:	0e 94 c5 30 	call	0x618a	; 0x618a <__itoa_ncheck>
	char buf[4];
	itoa(ForwardHeatTemp, buf, 10);
	lcd_clrscr();
    3270:	0e 94 46 08 	call	0x108c	; 0x108c <lcd_clrscr>
	lcd_puts_hu(PSTR("Elõremenõ hõm"));
    3274:	8c e9       	ldi	r24, 0x9C	; 156
    3276:	97 e0       	ldi	r25, 0x07	; 7
    3278:	0e 94 7c 09 	call	0x12f8	; 0x12f8 <lcd_puts_hu>
	lcd_gotoxy(0,1);
    327c:	61 e0       	ldi	r22, 0x01	; 1
    327e:	80 e0       	ldi	r24, 0x00	; 0
    3280:	0e 94 26 08 	call	0x104c	; 0x104c <lcd_gotoxy>
	lcd_puts(buf);
    3284:	ce 01       	movw	r24, r28
    3286:	01 96       	adiw	r24, 0x01	; 1
    3288:	0e 94 1b 09 	call	0x1236	; 0x1236 <lcd_puts>
}
    328c:	0f 90       	pop	r0
    328e:	0f 90       	pop	r0
    3290:	0f 90       	pop	r0
    3292:	0f 90       	pop	r0
    3294:	df 91       	pop	r29
    3296:	cf 91       	pop	r28
    3298:	08 95       	ret

0000329a <BufferMaxTemp_CallbackRender>:

	ForwardHeatTemp_CallbackRender(column);
	return false;
}

void BufferMaxTemp_CallbackRender(uint8_t which){
    329a:	cf 93       	push	r28
    329c:	df 93       	push	r29
    329e:	00 d0       	rcall	.+0      	; 0x32a0 <BufferMaxTemp_CallbackRender+0x6>
    32a0:	00 d0       	rcall	.+0      	; 0x32a2 <BufferMaxTemp_CallbackRender+0x8>
    32a2:	cd b7       	in	r28, 0x3d	; 61
    32a4:	de b7       	in	r29, 0x3e	; 62
    32a6:	80 91 07 01 	lds	r24, 0x0107	; 0x800107 <BufferMaxTemp>
    32aa:	4a e0       	ldi	r20, 0x0A	; 10
    32ac:	be 01       	movw	r22, r28
    32ae:	6f 5f       	subi	r22, 0xFF	; 255
    32b0:	7f 4f       	sbci	r23, 0xFF	; 255
    32b2:	90 e0       	ldi	r25, 0x00	; 0
    32b4:	0e 94 c5 30 	call	0x618a	; 0x618a <__itoa_ncheck>
	char buf[4];
	itoa(BufferMaxTemp, buf, 10);
	lcd_clrscr();
    32b8:	0e 94 46 08 	call	0x108c	; 0x108c <lcd_clrscr>
	lcd_puts_hu(PSTR("Puffer max hõm"));
    32bc:	8d e8       	ldi	r24, 0x8D	; 141
    32be:	97 e0       	ldi	r25, 0x07	; 7
    32c0:	0e 94 7c 09 	call	0x12f8	; 0x12f8 <lcd_puts_hu>
	lcd_gotoxy(0,1);
    32c4:	61 e0       	ldi	r22, 0x01	; 1
    32c6:	80 e0       	ldi	r24, 0x00	; 0
    32c8:	0e 94 26 08 	call	0x104c	; 0x104c <lcd_gotoxy>
	lcd_puts(buf);
    32cc:	ce 01       	movw	r24, r28
    32ce:	01 96       	adiw	r24, 0x01	; 1
    32d0:	0e 94 1b 09 	call	0x1236	; 0x1236 <lcd_puts>
}
    32d4:	0f 90       	pop	r0
    32d6:	0f 90       	pop	r0
    32d8:	0f 90       	pop	r0
    32da:	0f 90       	pop	r0
    32dc:	df 91       	pop	r29
    32de:	cf 91       	pop	r28
    32e0:	08 95       	ret

000032e2 <EngineeringTempMin_CallbackRender>:
	lcd_puts(buffer); lcd_puts_p(PSTR("/"));
	itoa(Engineering.MeasuredMaximumTemp, buffer, 10);
	lcd_puts(buffer); lcd_puts_p(PSTR(" C"));
}

void EngineeringTempMin_CallbackRender(uint8_t which){
    32e2:	cf 93       	push	r28
    32e4:	df 93       	push	r29
    32e6:	00 d0       	rcall	.+0      	; 0x32e8 <EngineeringTempMin_CallbackRender+0x6>
    32e8:	00 d0       	rcall	.+0      	; 0x32ea <EngineeringTempMin_CallbackRender+0x8>
    32ea:	cd b7       	in	r28, 0x3d	; 61
    32ec:	de b7       	in	r29, 0x3e	; 62
    32ee:	80 91 de 09 	lds	r24, 0x09DE	; 0x8009de <EngineeringTempMin>
    32f2:	4a e0       	ldi	r20, 0x0A	; 10
    32f4:	be 01       	movw	r22, r28
    32f6:	6f 5f       	subi	r22, 0xFF	; 255
    32f8:	7f 4f       	sbci	r23, 0xFF	; 255
    32fa:	90 e0       	ldi	r25, 0x00	; 0
    32fc:	0e 94 c5 30 	call	0x618a	; 0x618a <__itoa_ncheck>
	char buf[4];
	itoa(EngineeringTempMin, buf, 10);
	lcd_clrscr();
    3300:	0e 94 46 08 	call	0x108c	; 0x108c <lcd_clrscr>
	lcd_puts_hu(PSTR("Gépház min hõm"));
    3304:	83 e5       	ldi	r24, 0x53	; 83
    3306:	97 e0       	ldi	r25, 0x07	; 7
    3308:	0e 94 7c 09 	call	0x12f8	; 0x12f8 <lcd_puts_hu>
	lcd_gotoxy(0,1);
    330c:	61 e0       	ldi	r22, 0x01	; 1
    330e:	80 e0       	ldi	r24, 0x00	; 0
    3310:	0e 94 26 08 	call	0x104c	; 0x104c <lcd_gotoxy>
	lcd_puts(buf);
    3314:	ce 01       	movw	r24, r28
    3316:	01 96       	adiw	r24, 0x01	; 1
    3318:	0e 94 1b 09 	call	0x1236	; 0x1236 <lcd_puts>
}
    331c:	0f 90       	pop	r0
    331e:	0f 90       	pop	r0
    3320:	0f 90       	pop	r0
    3322:	0f 90       	pop	r0
    3324:	df 91       	pop	r29
    3326:	cf 91       	pop	r28
    3328:	08 95       	ret

0000332a <EngineeringTempDesired_CallbackRender>:

	EngineeringTempMin_CallbackRender(column);
	return false;
}

void EngineeringTempDesired_CallbackRender(uint8_t which){
    332a:	cf 93       	push	r28
    332c:	df 93       	push	r29
    332e:	cd b7       	in	r28, 0x3d	; 61
    3330:	de b7       	in	r29, 0x3e	; 62
    3332:	27 97       	sbiw	r28, 0x07	; 7
    3334:	0f b6       	in	r0, 0x3f	; 63
    3336:	f8 94       	cli
    3338:	de bf       	out	0x3e, r29	; 62
    333a:	0f be       	out	0x3f, r0	; 63
    333c:	cd bf       	out	0x3d, r28	; 61
    333e:	80 91 18 09 	lds	r24, 0x0918	; 0x800918 <EngineeringTempDesired>
    3342:	4a e0       	ldi	r20, 0x0A	; 10
    3344:	be 01       	movw	r22, r28
    3346:	6f 5f       	subi	r22, 0xFF	; 255
    3348:	7f 4f       	sbci	r23, 0xFF	; 255
    334a:	90 e0       	ldi	r25, 0x00	; 0
    334c:	0e 94 c5 30 	call	0x618a	; 0x618a <__itoa_ncheck>
	char buf[7];
	itoa(EngineeringTempDesired, buf, 10);
	lcd_clrscr();
    3350:	0e 94 46 08 	call	0x108c	; 0x108c <lcd_clrscr>
	lcd_puts_hu(PSTR("Gépház kívánt hõm"));
    3354:	81 e4       	ldi	r24, 0x41	; 65
    3356:	97 e0       	ldi	r25, 0x07	; 7
    3358:	0e 94 7c 09 	call	0x12f8	; 0x12f8 <lcd_puts_hu>
	lcd_gotoxy(0,1);
    335c:	61 e0       	ldi	r22, 0x01	; 1
    335e:	80 e0       	ldi	r24, 0x00	; 0
    3360:	0e 94 26 08 	call	0x104c	; 0x104c <lcd_gotoxy>
	lcd_puts(buf);
    3364:	ce 01       	movw	r24, r28
    3366:	01 96       	adiw	r24, 0x01	; 1
    3368:	0e 94 1b 09 	call	0x1236	; 0x1236 <lcd_puts>
}
    336c:	27 96       	adiw	r28, 0x07	; 7
    336e:	0f b6       	in	r0, 0x3f	; 63
    3370:	f8 94       	cli
    3372:	de bf       	out	0x3e, r29	; 62
    3374:	0f be       	out	0x3f, r0	; 63
    3376:	cd bf       	out	0x3d, r28	; 61
    3378:	df 91       	pop	r29
    337a:	cf 91       	pop	r28
    337c:	08 95       	ret

0000337e <MenuTimer_CallbackRender>:

	Mode_CallbackRender(column);
	return false;
}

void MenuTimer_CallbackRender(uint8_t which){
    337e:	cf 93       	push	r28
    3380:	df 93       	push	r29
    3382:	00 d0       	rcall	.+0      	; 0x3384 <MenuTimer_CallbackRender+0x6>
    3384:	00 d0       	rcall	.+0      	; 0x3386 <MenuTimer_CallbackRender+0x8>
    3386:	cd b7       	in	r28, 0x3d	; 61
    3388:	de b7       	in	r29, 0x3e	; 62
	lcd_clrscr();
    338a:	0e 94 46 08 	call	0x108c	; 0x108c <lcd_clrscr>
	lcd_puts_hu(PSTR("Menü idõzítõ (mp)"));
    338e:	8b e1       	ldi	r24, 0x1B	; 27
    3390:	95 e0       	ldi	r25, 0x05	; 5
    3392:	0e 94 7c 09 	call	0x12f8	; 0x12f8 <lcd_puts_hu>
	char buf[4];
	lcd_gotoxy(0,1);
    3396:	61 e0       	ldi	r22, 0x01	; 1
    3398:	80 e0       	ldi	r24, 0x00	; 0
    339a:	0e 94 26 08 	call	0x104c	; 0x104c <lcd_gotoxy>
    339e:	80 91 0b 01 	lds	r24, 0x010B	; 0x80010b <MenuTimer>
    33a2:	4a e0       	ldi	r20, 0x0A	; 10
    33a4:	be 01       	movw	r22, r28
    33a6:	6f 5f       	subi	r22, 0xFF	; 255
    33a8:	7f 4f       	sbci	r23, 0xFF	; 255
    33aa:	90 e0       	ldi	r25, 0x00	; 0
    33ac:	0e 94 c5 30 	call	0x618a	; 0x618a <__itoa_ncheck>
	itoa(MenuTimer, buf, 10);
	lcd_puts(buf);
    33b0:	ce 01       	movw	r24, r28
    33b2:	01 96       	adiw	r24, 0x01	; 1
    33b4:	0e 94 1b 09 	call	0x1236	; 0x1236 <lcd_puts>
}
    33b8:	0f 90       	pop	r0
    33ba:	0f 90       	pop	r0
    33bc:	0f 90       	pop	r0
    33be:	0f 90       	pop	r0
    33c0:	df 91       	pop	r29
    33c2:	cf 91       	pop	r28
    33c4:	08 95       	ret

000033c6 <LCDBackLight_CallbackRender>:

	MenuTimer_CallbackRender(column);
	return false;
}

void LCDBackLight_CallbackRender(uint8_t which){
    33c6:	cf 93       	push	r28
    33c8:	df 93       	push	r29
    33ca:	00 d0       	rcall	.+0      	; 0x33cc <LCDBackLight_CallbackRender+0x6>
    33cc:	00 d0       	rcall	.+0      	; 0x33ce <LCDBackLight_CallbackRender+0x8>
    33ce:	cd b7       	in	r28, 0x3d	; 61
    33d0:	de b7       	in	r29, 0x3e	; 62
	lcd_clrscr();
    33d2:	0e 94 46 08 	call	0x108c	; 0x108c <lcd_clrscr>
	lcd_puts_hu(PSTR("LCD háttér"));
    33d6:	80 e1       	ldi	r24, 0x10	; 16
    33d8:	95 e0       	ldi	r25, 0x05	; 5
    33da:	0e 94 7c 09 	call	0x12f8	; 0x12f8 <lcd_puts_hu>
	lcd_gotoxy(0,1);
    33de:	61 e0       	ldi	r22, 0x01	; 1
    33e0:	80 e0       	ldi	r24, 0x00	; 0
    33e2:	0e 94 26 08 	call	0x104c	; 0x104c <lcd_gotoxy>
    33e6:	80 91 76 08 	lds	r24, 0x0876	; 0x800876 <LCDBackLight>
    33ea:	4a e0       	ldi	r20, 0x0A	; 10
    33ec:	be 01       	movw	r22, r28
    33ee:	6f 5f       	subi	r22, 0xFF	; 255
    33f0:	7f 4f       	sbci	r23, 0xFF	; 255
    33f2:	90 e0       	ldi	r25, 0x00	; 0
    33f4:	0e 94 c5 30 	call	0x618a	; 0x618a <__itoa_ncheck>
	char buf[4];
	itoa(LCDBackLight, buf, 10);
	lcd_puts(buf);
    33f8:	ce 01       	movw	r24, r28
    33fa:	01 96       	adiw	r24, 0x01	; 1
    33fc:	0e 94 1b 09 	call	0x1236	; 0x1236 <lcd_puts>
}
    3400:	0f 90       	pop	r0
    3402:	0f 90       	pop	r0
    3404:	0f 90       	pop	r0
    3406:	0f 90       	pop	r0
    3408:	df 91       	pop	r29
    340a:	cf 91       	pop	r28
    340c:	08 95       	ret

0000340e <PumpPlusTime_CallbackRender>:

	LCDBackLight_CallbackRender(column);
	return false;
}

void PumpPlusTime_CallbackRender(uint8_t which){
    340e:	cf 93       	push	r28
    3410:	df 93       	push	r29
    3412:	00 d0       	rcall	.+0      	; 0x3414 <PumpPlusTime_CallbackRender+0x6>
    3414:	00 d0       	rcall	.+0      	; 0x3416 <PumpPlusTime_CallbackRender+0x8>
    3416:	cd b7       	in	r28, 0x3d	; 61
    3418:	de b7       	in	r29, 0x3e	; 62
	lcd_clrscr();
    341a:	0e 94 46 08 	call	0x108c	; 0x108c <lcd_clrscr>
	lcd_puts_hu(PSTR("Szivattyú utánfutás"));
    341e:	8c ef       	ldi	r24, 0xFC	; 252
    3420:	94 e0       	ldi	r25, 0x04	; 4
    3422:	0e 94 7c 09 	call	0x12f8	; 0x12f8 <lcd_puts_hu>
	lcd_gotoxy(0,1);
    3426:	61 e0       	ldi	r22, 0x01	; 1
    3428:	80 e0       	ldi	r24, 0x00	; 0
    342a:	0e 94 26 08 	call	0x104c	; 0x104c <lcd_gotoxy>
    342e:	4a e0       	ldi	r20, 0x0A	; 10
    3430:	be 01       	movw	r22, r28
    3432:	6f 5f       	subi	r22, 0xFF	; 255
    3434:	7f 4f       	sbci	r23, 0xFF	; 255
    3436:	80 91 f7 09 	lds	r24, 0x09F7	; 0x8009f7 <PumpPlusTime>
    343a:	90 91 f8 09 	lds	r25, 0x09F8	; 0x8009f8 <PumpPlusTime+0x1>
    343e:	0e 94 c5 30 	call	0x618a	; 0x618a <__itoa_ncheck>
	char buf[4];
	itoa(PumpPlusTime, buf, 10);
	lcd_puts(buf);
    3442:	ce 01       	movw	r24, r28
    3444:	01 96       	adiw	r24, 0x01	; 1
    3446:	0e 94 1b 09 	call	0x1236	; 0x1236 <lcd_puts>
}
    344a:	0f 90       	pop	r0
    344c:	0f 90       	pop	r0
    344e:	0f 90       	pop	r0
    3450:	0f 90       	pop	r0
    3452:	df 91       	pop	r29
    3454:	cf 91       	pop	r28
    3456:	08 95       	ret

00003458 <GasForwardHeatTemp_CallbackRender>:

	PumpPlusTime_CallbackRender(column);
	return false;
}

void GasForwardHeatTemp_CallbackRender(uint8_t which){
    3458:	cf 93       	push	r28
    345a:	df 93       	push	r29
    345c:	00 d0       	rcall	.+0      	; 0x345e <GasForwardHeatTemp_CallbackRender+0x6>
    345e:	00 d0       	rcall	.+0      	; 0x3460 <GasForwardHeatTemp_CallbackRender+0x8>
    3460:	cd b7       	in	r28, 0x3d	; 61
    3462:	de b7       	in	r29, 0x3e	; 62
	lcd_clrscr();
    3464:	0e 94 46 08 	call	0x108c	; 0x108c <lcd_clrscr>
	lcd_puts_hu(PSTR("Gáz OT elõre"));
    3468:	8f ee       	ldi	r24, 0xEF	; 239
    346a:	94 e0       	ldi	r25, 0x04	; 4
    346c:	0e 94 7c 09 	call	0x12f8	; 0x12f8 <lcd_puts_hu>
	lcd_gotoxy(0,1);
    3470:	61 e0       	ldi	r22, 0x01	; 1
    3472:	80 e0       	ldi	r24, 0x00	; 0
    3474:	0e 94 26 08 	call	0x104c	; 0x104c <lcd_gotoxy>
    3478:	80 91 06 01 	lds	r24, 0x0106	; 0x800106 <GasForwardHeatTemp>
    347c:	4a e0       	ldi	r20, 0x0A	; 10
    347e:	be 01       	movw	r22, r28
    3480:	6f 5f       	subi	r22, 0xFF	; 255
    3482:	7f 4f       	sbci	r23, 0xFF	; 255
    3484:	90 e0       	ldi	r25, 0x00	; 0
    3486:	0e 94 c5 30 	call	0x618a	; 0x618a <__itoa_ncheck>
	char buf[4];
	itoa(GasForwardHeatTemp, buf, 10);
	lcd_puts(buf);
    348a:	ce 01       	movw	r24, r28
    348c:	01 96       	adiw	r24, 0x01	; 1
    348e:	0e 94 1b 09 	call	0x1236	; 0x1236 <lcd_puts>
}
    3492:	0f 90       	pop	r0
    3494:	0f 90       	pop	r0
    3496:	0f 90       	pop	r0
    3498:	0f 90       	pop	r0
    349a:	df 91       	pop	r29
    349c:	cf 91       	pop	r28
    349e:	08 95       	ret

000034a0 <ClockHour_CallbackRender>:

	GasForwardHeatTemp_CallbackRender(column);
	return false;
}

void ClockHour_CallbackRender(uint8_t which){
    34a0:	cf 93       	push	r28
    34a2:	df 93       	push	r29
    34a4:	00 d0       	rcall	.+0      	; 0x34a6 <ClockHour_CallbackRender+0x6>
    34a6:	1f 92       	push	r1
    34a8:	cd b7       	in	r28, 0x3d	; 61
    34aa:	de b7       	in	r29, 0x3e	; 62
	lcd_clrscr();
    34ac:	0e 94 46 08 	call	0x108c	; 0x108c <lcd_clrscr>
	lcd_puts_hu(PSTR("óra"));
    34b0:	8b ee       	ldi	r24, 0xEB	; 235
    34b2:	94 e0       	ldi	r25, 0x04	; 4
    34b4:	0e 94 7c 09 	call	0x12f8	; 0x12f8 <lcd_puts_hu>
	lcd_gotoxy(0,1);
    34b8:	61 e0       	ldi	r22, 0x01	; 1
    34ba:	80 e0       	ldi	r24, 0x00	; 0
    34bc:	0e 94 26 08 	call	0x104c	; 0x104c <lcd_gotoxy>
    34c0:	80 91 6f 08 	lds	r24, 0x086F	; 0x80086f <Hour>
    34c4:	4a e0       	ldi	r20, 0x0A	; 10
    34c6:	be 01       	movw	r22, r28
    34c8:	6f 5f       	subi	r22, 0xFF	; 255
    34ca:	7f 4f       	sbci	r23, 0xFF	; 255
    34cc:	90 e0       	ldi	r25, 0x00	; 0
    34ce:	0e 94 c5 30 	call	0x618a	; 0x618a <__itoa_ncheck>
	char buf[3];
	itoa(Hour, buf, 10);
	lcd_puts(buf);
    34d2:	ce 01       	movw	r24, r28
    34d4:	01 96       	adiw	r24, 0x01	; 1
    34d6:	0e 94 1b 09 	call	0x1236	; 0x1236 <lcd_puts>
}
    34da:	0f 90       	pop	r0
    34dc:	0f 90       	pop	r0
    34de:	0f 90       	pop	r0
    34e0:	df 91       	pop	r29
    34e2:	cf 91       	pop	r28
    34e4:	08 95       	ret

000034e6 <ClockHour_ActionCallback>:

bool ClockHour_ActionCallback(MENU_BUTTON *button, uint8_t column){
	switch(button->role){
    34e6:	fc 01       	movw	r30, r24
    34e8:	90 81       	ld	r25, Z
    34ea:	91 30       	cpi	r25, 0x01	; 1
    34ec:	b1 f0       	breq	.+44     	; 0x351a <ClockHour_ActionCallback+0x34>
    34ee:	50 f0       	brcs	.+20     	; 0x3504 <ClockHour_ActionCallback+0x1e>
    34f0:	92 30       	cpi	r25, 0x02	; 2
    34f2:	21 f0       	breq	.+8      	; 0x34fc <ClockHour_ActionCallback+0x16>
    34f4:	93 30       	cpi	r25, 0x03	; 3
    34f6:	69 f4       	brne	.+26     	; 0x3512 <ClockHour_ActionCallback+0x2c>
			break;
		case MENU_CONFIRM:
			ClockInitialized = 1;
			return true;
		case MENU_CANCEL:
			return true;
    34f8:	81 e0       	ldi	r24, 0x01	; 1
	}

	ClockHour_CallbackRender(column);
	return false;
}
    34fa:	08 95       	ret
		case MENU_DOWN:
			if (--Hour == 255)
				Hour = 23;
			break;
		case MENU_CONFIRM:
			ClockInitialized = 1;
    34fc:	81 e0       	ldi	r24, 0x01	; 1
    34fe:	80 93 6c 08 	sts	0x086C, r24	; 0x80086c <ClockInitialized>
			return true;
    3502:	08 95       	ret
}

bool ClockHour_ActionCallback(MENU_BUTTON *button, uint8_t column){
	switch(button->role){
		case MENU_UP:
			if (++Hour == 24)
    3504:	80 91 6f 08 	lds	r24, 0x086F	; 0x80086f <Hour>
    3508:	8f 5f       	subi	r24, 0xFF	; 255
    350a:	88 31       	cpi	r24, 0x18	; 24
    350c:	59 f4       	brne	.+22     	; 0x3524 <ClockHour_ActionCallback+0x3e>
				Hour = 0;
    350e:	10 92 6f 08 	sts	0x086F, r1	; 0x80086f <Hour>
    3512:	86 2f       	mov	r24, r22
			return true;
		case MENU_CANCEL:
			return true;
	}

	ClockHour_CallbackRender(column);
    3514:	c5 df       	rcall	.-118    	; 0x34a0 <ClockHour_CallbackRender>
	return false;
    3516:	80 e0       	ldi	r24, 0x00	; 0
    3518:	08 95       	ret
		case MENU_UP:
			if (++Hour == 24)
				Hour = 0;
			break;
		case MENU_DOWN:
			if (--Hour == 255)
    351a:	80 91 6f 08 	lds	r24, 0x086F	; 0x80086f <Hour>
    351e:	81 50       	subi	r24, 0x01	; 1
    3520:	08 f4       	brcc	.+2      	; 0x3524 <ClockHour_ActionCallback+0x3e>
				Hour = 23;
    3522:	87 e1       	ldi	r24, 0x17	; 23
    3524:	80 93 6f 08 	sts	0x086F, r24	; 0x80086f <Hour>
			return true;
		case MENU_CANCEL:
			return true;
	}

	ClockHour_CallbackRender(column);
    3528:	86 2f       	mov	r24, r22
    352a:	ba df       	rcall	.-140    	; 0x34a0 <ClockHour_CallbackRender>
	return false;
    352c:	80 e0       	ldi	r24, 0x00	; 0
    352e:	08 95       	ret

00003530 <ClockYear_CallbackRender>:

	ClockMinute_CallbackRender(column);
	return false;
}

void ClockYear_CallbackRender(uint8_t which){
    3530:	cf 93       	push	r28
    3532:	df 93       	push	r29
    3534:	00 d0       	rcall	.+0      	; 0x3536 <ClockYear_CallbackRender+0x6>
    3536:	00 d0       	rcall	.+0      	; 0x3538 <ClockYear_CallbackRender+0x8>
    3538:	1f 92       	push	r1
    353a:	cd b7       	in	r28, 0x3d	; 61
    353c:	de b7       	in	r29, 0x3e	; 62
	lcd_clrscr();
    353e:	0e 94 46 08 	call	0x108c	; 0x108c <lcd_clrscr>
	lcd_puts_hu(PSTR("év"));
    3542:	83 ee       	ldi	r24, 0xE3	; 227
    3544:	94 e0       	ldi	r25, 0x04	; 4
    3546:	0e 94 7c 09 	call	0x12f8	; 0x12f8 <lcd_puts_hu>
	lcd_gotoxy(0,1);
    354a:	61 e0       	ldi	r22, 0x01	; 1
    354c:	80 e0       	ldi	r24, 0x00	; 0
    354e:	0e 94 26 08 	call	0x104c	; 0x104c <lcd_gotoxy>
    3552:	4a e0       	ldi	r20, 0x0A	; 10
    3554:	be 01       	movw	r22, r28
    3556:	6f 5f       	subi	r22, 0xFF	; 255
    3558:	7f 4f       	sbci	r23, 0xFF	; 255
    355a:	80 91 04 01 	lds	r24, 0x0104	; 0x800104 <Year>
    355e:	90 91 05 01 	lds	r25, 0x0105	; 0x800105 <Year+0x1>
    3562:	0e 94 c5 30 	call	0x618a	; 0x618a <__itoa_ncheck>
	char buf[5];
	itoa(Year, buf, 10);
	lcd_puts(buf);
    3566:	ce 01       	movw	r24, r28
    3568:	01 96       	adiw	r24, 0x01	; 1
    356a:	0e 94 1b 09 	call	0x1236	; 0x1236 <lcd_puts>
}
    356e:	0f 90       	pop	r0
    3570:	0f 90       	pop	r0
    3572:	0f 90       	pop	r0
    3574:	0f 90       	pop	r0
    3576:	0f 90       	pop	r0
    3578:	df 91       	pop	r29
    357a:	cf 91       	pop	r28
    357c:	08 95       	ret

0000357e <ClockYear_ActionCallback>:

bool ClockYear_ActionCallback(MENU_BUTTON *button, uint8_t column){
	switch(button->role){
    357e:	fc 01       	movw	r30, r24
    3580:	80 81       	ld	r24, Z
    3582:	81 30       	cpi	r24, 0x01	; 1
    3584:	b1 f0       	breq	.+44     	; 0x35b2 <ClockYear_ActionCallback+0x34>
    3586:	40 f0       	brcs	.+16     	; 0x3598 <ClockYear_ActionCallback+0x1a>
    3588:	84 30       	cpi	r24, 0x04	; 4
    358a:	20 f0       	brcs	.+8      	; 0x3594 <ClockYear_ActionCallback+0x16>
    358c:	86 2f       	mov	r24, r22
		case MENU_CONFIRM:
		case MENU_CANCEL:
			return true;
	}

	ClockYear_CallbackRender(column);
    358e:	d0 df       	rcall	.-96     	; 0x3530 <ClockYear_CallbackRender>
	return false;
    3590:	80 e0       	ldi	r24, 0x00	; 0
    3592:	08 95       	ret
		case MENU_DOWN:
			Year--;
			break;
		case MENU_CONFIRM:
		case MENU_CANCEL:
			return true;
    3594:	81 e0       	ldi	r24, 0x01	; 1
	}

	ClockYear_CallbackRender(column);
	return false;
}
    3596:	08 95       	ret
}

bool ClockYear_ActionCallback(MENU_BUTTON *button, uint8_t column){
	switch(button->role){
		case MENU_UP:
			Year++;
    3598:	80 91 04 01 	lds	r24, 0x0104	; 0x800104 <Year>
    359c:	90 91 05 01 	lds	r25, 0x0105	; 0x800105 <Year+0x1>
    35a0:	01 96       	adiw	r24, 0x01	; 1
    35a2:	90 93 05 01 	sts	0x0105, r25	; 0x800105 <Year+0x1>
    35a6:	80 93 04 01 	sts	0x0104, r24	; 0x800104 <Year>
		case MENU_CONFIRM:
		case MENU_CANCEL:
			return true;
	}

	ClockYear_CallbackRender(column);
    35aa:	86 2f       	mov	r24, r22
    35ac:	c1 df       	rcall	.-126    	; 0x3530 <ClockYear_CallbackRender>
	return false;
    35ae:	80 e0       	ldi	r24, 0x00	; 0
    35b0:	08 95       	ret
	switch(button->role){
		case MENU_UP:
			Year++;
			break;
		case MENU_DOWN:
			Year--;
    35b2:	80 91 04 01 	lds	r24, 0x0104	; 0x800104 <Year>
    35b6:	90 91 05 01 	lds	r25, 0x0105	; 0x800105 <Year+0x1>
    35ba:	01 97       	sbiw	r24, 0x01	; 1
    35bc:	90 93 05 01 	sts	0x0105, r25	; 0x800105 <Year+0x1>
    35c0:	80 93 04 01 	sts	0x0104, r24	; 0x800104 <Year>
		case MENU_CONFIRM:
		case MENU_CANCEL:
			return true;
	}

	ClockYear_CallbackRender(column);
    35c4:	86 2f       	mov	r24, r22
    35c6:	b4 df       	rcall	.-152    	; 0x3530 <ClockYear_CallbackRender>
	return false;
    35c8:	80 e0       	ldi	r24, 0x00	; 0
    35ca:	08 95       	ret

000035cc <ClockMonth_CallbackRender>:
}

void ClockMonth_CallbackRender(uint8_t which){
    35cc:	cf 93       	push	r28
    35ce:	df 93       	push	r29
    35d0:	00 d0       	rcall	.+0      	; 0x35d2 <ClockMonth_CallbackRender+0x6>
    35d2:	1f 92       	push	r1
    35d4:	cd b7       	in	r28, 0x3d	; 61
    35d6:	de b7       	in	r29, 0x3e	; 62
	lcd_clrscr();
    35d8:	0e 94 46 08 	call	0x108c	; 0x108c <lcd_clrscr>
	lcd_puts_hu(PSTR("hónap"));
    35dc:	8d ed       	ldi	r24, 0xDD	; 221
    35de:	94 e0       	ldi	r25, 0x04	; 4
    35e0:	0e 94 7c 09 	call	0x12f8	; 0x12f8 <lcd_puts_hu>
	lcd_gotoxy(0,1);
    35e4:	61 e0       	ldi	r22, 0x01	; 1
    35e6:	80 e0       	ldi	r24, 0x00	; 0
    35e8:	0e 94 26 08 	call	0x104c	; 0x104c <lcd_gotoxy>
    35ec:	80 91 03 01 	lds	r24, 0x0103	; 0x800103 <Month>
    35f0:	4a e0       	ldi	r20, 0x0A	; 10
    35f2:	be 01       	movw	r22, r28
    35f4:	6f 5f       	subi	r22, 0xFF	; 255
    35f6:	7f 4f       	sbci	r23, 0xFF	; 255
    35f8:	90 e0       	ldi	r25, 0x00	; 0
    35fa:	0e 94 c5 30 	call	0x618a	; 0x618a <__itoa_ncheck>
	char buf[3];
	itoa(Month, buf, 10);
	lcd_puts(buf);
    35fe:	ce 01       	movw	r24, r28
    3600:	01 96       	adiw	r24, 0x01	; 1
    3602:	0e 94 1b 09 	call	0x1236	; 0x1236 <lcd_puts>
}
    3606:	0f 90       	pop	r0
    3608:	0f 90       	pop	r0
    360a:	0f 90       	pop	r0
    360c:	df 91       	pop	r29
    360e:	cf 91       	pop	r28
    3610:	08 95       	ret

00003612 <ClockMonth_ActionCallback>:

bool ClockMonth_ActionCallback(MENU_BUTTON *button, uint8_t column){
	switch(button->role){
    3612:	fc 01       	movw	r30, r24
    3614:	80 81       	ld	r24, Z
    3616:	81 30       	cpi	r24, 0x01	; 1
    3618:	a1 f0       	breq	.+40     	; 0x3642 <ClockMonth_ActionCallback+0x30>
    361a:	40 f0       	brcs	.+16     	; 0x362c <ClockMonth_ActionCallback+0x1a>
    361c:	84 30       	cpi	r24, 0x04	; 4
    361e:	20 f0       	brcs	.+8      	; 0x3628 <ClockMonth_ActionCallback+0x16>
    3620:	86 2f       	mov	r24, r22
		case MENU_CONFIRM:
		case MENU_CANCEL:
			return true;
	}

	ClockMonth_CallbackRender(column);
    3622:	d4 df       	rcall	.-88     	; 0x35cc <ClockMonth_CallbackRender>
	return false;
    3624:	80 e0       	ldi	r24, 0x00	; 0
    3626:	08 95       	ret
			if (--Month == 0)
				Month = 12;
			break;
		case MENU_CONFIRM:
		case MENU_CANCEL:
			return true;
    3628:	81 e0       	ldi	r24, 0x01	; 1
	}

	ClockMonth_CallbackRender(column);
	return false;
}
    362a:	08 95       	ret
}

bool ClockMonth_ActionCallback(MENU_BUTTON *button, uint8_t column){
	switch(button->role){
		case MENU_UP:
			if (++Month == 13)
    362c:	80 91 03 01 	lds	r24, 0x0103	; 0x800103 <Month>
    3630:	8f 5f       	subi	r24, 0xFF	; 255
    3632:	8d 30       	cpi	r24, 0x0D	; 13
    3634:	71 f0       	breq	.+28     	; 0x3652 <ClockMonth_ActionCallback+0x40>
				Month = 1;
			break;
		case MENU_DOWN:
			if (--Month == 0)
				Month = 12;
    3636:	80 93 03 01 	sts	0x0103, r24	; 0x800103 <Month>
		case MENU_CONFIRM:
		case MENU_CANCEL:
			return true;
	}

	ClockMonth_CallbackRender(column);
    363a:	86 2f       	mov	r24, r22
    363c:	c7 df       	rcall	.-114    	; 0x35cc <ClockMonth_CallbackRender>
	return false;
    363e:	80 e0       	ldi	r24, 0x00	; 0
    3640:	08 95       	ret
		case MENU_UP:
			if (++Month == 13)
				Month = 1;
			break;
		case MENU_DOWN:
			if (--Month == 0)
    3642:	80 91 03 01 	lds	r24, 0x0103	; 0x800103 <Month>
    3646:	81 50       	subi	r24, 0x01	; 1
    3648:	b1 f7       	brne	.-20     	; 0x3636 <ClockMonth_ActionCallback+0x24>
				Month = 12;
    364a:	8c e0       	ldi	r24, 0x0C	; 12
    364c:	80 93 03 01 	sts	0x0103, r24	; 0x800103 <Month>
    3650:	f4 cf       	rjmp	.-24     	; 0x363a <ClockMonth_ActionCallback+0x28>

bool ClockMonth_ActionCallback(MENU_BUTTON *button, uint8_t column){
	switch(button->role){
		case MENU_UP:
			if (++Month == 13)
				Month = 1;
    3652:	81 e0       	ldi	r24, 0x01	; 1
    3654:	80 93 03 01 	sts	0x0103, r24	; 0x800103 <Month>
    3658:	e3 cf       	rjmp	.-58     	; 0x3620 <ClockMonth_ActionCallback+0xe>

0000365a <ClockDay_CallbackRender>:

	ClockMonth_CallbackRender(column);
	return false;
}

void ClockDay_CallbackRender(uint8_t which){
    365a:	cf 93       	push	r28
    365c:	df 93       	push	r29
    365e:	00 d0       	rcall	.+0      	; 0x3660 <ClockDay_CallbackRender+0x6>
    3660:	1f 92       	push	r1
    3662:	cd b7       	in	r28, 0x3d	; 61
    3664:	de b7       	in	r29, 0x3e	; 62
	lcd_clrscr();
    3666:	0e 94 46 08 	call	0x108c	; 0x108c <lcd_clrscr>
	lcd_puts_hu(PSTR("nap"));
    366a:	89 ed       	ldi	r24, 0xD9	; 217
    366c:	94 e0       	ldi	r25, 0x04	; 4
    366e:	0e 94 7c 09 	call	0x12f8	; 0x12f8 <lcd_puts_hu>
	lcd_gotoxy(0,1);
    3672:	61 e0       	ldi	r22, 0x01	; 1
    3674:	80 e0       	ldi	r24, 0x00	; 0
    3676:	0e 94 26 08 	call	0x104c	; 0x104c <lcd_gotoxy>
    367a:	80 91 02 01 	lds	r24, 0x0102	; 0x800102 <Day>
    367e:	4a e0       	ldi	r20, 0x0A	; 10
    3680:	be 01       	movw	r22, r28
    3682:	6f 5f       	subi	r22, 0xFF	; 255
    3684:	7f 4f       	sbci	r23, 0xFF	; 255
    3686:	90 e0       	ldi	r25, 0x00	; 0
    3688:	0e 94 c5 30 	call	0x618a	; 0x618a <__itoa_ncheck>
	char buf[3];
	itoa(Day, buf, 10);
	lcd_puts(buf);
    368c:	ce 01       	movw	r24, r28
    368e:	01 96       	adiw	r24, 0x01	; 1
    3690:	0e 94 1b 09 	call	0x1236	; 0x1236 <lcd_puts>
}
    3694:	0f 90       	pop	r0
    3696:	0f 90       	pop	r0
    3698:	0f 90       	pop	r0
    369a:	df 91       	pop	r29
    369c:	cf 91       	pop	r28
    369e:	08 95       	ret

000036a0 <ClockDay_ActionCallback>:

bool ClockDay_ActionCallback(MENU_BUTTON *button, uint8_t column){
	switch(button->role){
    36a0:	fc 01       	movw	r30, r24
    36a2:	80 81       	ld	r24, Z
    36a4:	81 30       	cpi	r24, 0x01	; 1
    36a6:	a1 f0       	breq	.+40     	; 0x36d0 <ClockDay_ActionCallback+0x30>
    36a8:	40 f0       	brcs	.+16     	; 0x36ba <ClockDay_ActionCallback+0x1a>
    36aa:	84 30       	cpi	r24, 0x04	; 4
    36ac:	20 f0       	brcs	.+8      	; 0x36b6 <ClockDay_ActionCallback+0x16>
    36ae:	86 2f       	mov	r24, r22
		case MENU_CONFIRM:
		case MENU_CANCEL:
			return true;
	}

	ClockDay_CallbackRender(column);
    36b0:	d4 df       	rcall	.-88     	; 0x365a <ClockDay_CallbackRender>
	return false;
    36b2:	80 e0       	ldi	r24, 0x00	; 0
    36b4:	08 95       	ret
			if (--Day == 0)
				Day = 31;
			break;
		case MENU_CONFIRM:
		case MENU_CANCEL:
			return true;
    36b6:	81 e0       	ldi	r24, 0x01	; 1
	}

	ClockDay_CallbackRender(column);
	return false;
}
    36b8:	08 95       	ret
}

bool ClockDay_ActionCallback(MENU_BUTTON *button, uint8_t column){
	switch(button->role){
		case MENU_UP:
			if (++Day == 32)
    36ba:	80 91 02 01 	lds	r24, 0x0102	; 0x800102 <Day>
    36be:	8f 5f       	subi	r24, 0xFF	; 255
    36c0:	80 32       	cpi	r24, 0x20	; 32
    36c2:	71 f0       	breq	.+28     	; 0x36e0 <ClockDay_ActionCallback+0x40>
				Day = 1;
			break;
		case MENU_DOWN:
			if (--Day == 0)
				Day = 31;
    36c4:	80 93 02 01 	sts	0x0102, r24	; 0x800102 <Day>
		case MENU_CONFIRM:
		case MENU_CANCEL:
			return true;
	}

	ClockDay_CallbackRender(column);
    36c8:	86 2f       	mov	r24, r22
    36ca:	c7 df       	rcall	.-114    	; 0x365a <ClockDay_CallbackRender>
	return false;
    36cc:	80 e0       	ldi	r24, 0x00	; 0
    36ce:	08 95       	ret
		case MENU_UP:
			if (++Day == 32)
				Day = 1;
			break;
		case MENU_DOWN:
			if (--Day == 0)
    36d0:	80 91 02 01 	lds	r24, 0x0102	; 0x800102 <Day>
    36d4:	81 50       	subi	r24, 0x01	; 1
    36d6:	b1 f7       	brne	.-20     	; 0x36c4 <ClockDay_ActionCallback+0x24>
				Day = 31;
    36d8:	8f e1       	ldi	r24, 0x1F	; 31
    36da:	80 93 02 01 	sts	0x0102, r24	; 0x800102 <Day>
    36de:	f4 cf       	rjmp	.-24     	; 0x36c8 <ClockDay_ActionCallback+0x28>

bool ClockDay_ActionCallback(MENU_BUTTON *button, uint8_t column){
	switch(button->role){
		case MENU_UP:
			if (++Day == 32)
				Day = 1;
    36e0:	81 e0       	ldi	r24, 0x01	; 1
    36e2:	80 93 02 01 	sts	0x0102, r24	; 0x800102 <Day>
    36e6:	e3 cf       	rjmp	.-58     	; 0x36ae <ClockDay_ActionCallback+0xe>

000036e8 <ComfortForwardTemp_CallbackRender>:

	ComfortTemp_CallbackRender(column);
	return false;
}

void ComfortForwardTemp_CallbackRender(uint8_t which){
    36e8:	cf 93       	push	r28
    36ea:	df 93       	push	r29
    36ec:	00 d0       	rcall	.+0      	; 0x36ee <ComfortForwardTemp_CallbackRender+0x6>
    36ee:	00 d0       	rcall	.+0      	; 0x36f0 <ComfortForwardTemp_CallbackRender+0x8>
    36f0:	1f 92       	push	r1
    36f2:	cd b7       	in	r28, 0x3d	; 61
    36f4:	de b7       	in	r29, 0x3e	; 62
	lcd_clrscr();
    36f6:	0e 94 46 08 	call	0x108c	; 0x108c <lcd_clrscr>
	lcd_puts_hu(PSTR("Komfort elõremenõ"));
    36fa:	82 e4       	ldi	r24, 0x42	; 66
    36fc:	94 e0       	ldi	r25, 0x04	; 4
    36fe:	0e 94 7c 09 	call	0x12f8	; 0x12f8 <lcd_puts_hu>
	lcd_gotoxy(0,1);
    3702:	61 e0       	ldi	r22, 0x01	; 1
    3704:	80 e0       	ldi	r24, 0x00	; 0
    3706:	0e 94 26 08 	call	0x104c	; 0x104c <lcd_gotoxy>
    370a:	80 91 09 01 	lds	r24, 0x0109	; 0x800109 <ComfortForwardTemp>
    370e:	4a e0       	ldi	r20, 0x0A	; 10
    3710:	be 01       	movw	r22, r28
    3712:	6f 5f       	subi	r22, 0xFF	; 255
    3714:	7f 4f       	sbci	r23, 0xFF	; 255
    3716:	90 e0       	ldi	r25, 0x00	; 0
    3718:	0e 94 c5 30 	call	0x618a	; 0x618a <__itoa_ncheck>
	char buf[5];
	itoa(ComfortForwardTemp, buf, 10);
	lcd_puts(buf);
    371c:	ce 01       	movw	r24, r28
    371e:	01 96       	adiw	r24, 0x01	; 1
    3720:	0e 94 1b 09 	call	0x1236	; 0x1236 <lcd_puts>
}
    3724:	0f 90       	pop	r0
    3726:	0f 90       	pop	r0
    3728:	0f 90       	pop	r0
    372a:	0f 90       	pop	r0
    372c:	0f 90       	pop	r0
    372e:	df 91       	pop	r29
    3730:	cf 91       	pop	r28
    3732:	08 95       	ret

00003734 <Restarts_CallbackRender>:
	{"Komfort elõremenõ", 		ComfortForwardTemp_CallbackRender,	ComfortForwardTemp_ActionCallback,	0,	NULL},
	{"Komfort min idõ", 		ComfortMinTime_CallbackRender,		ComfortMinTime_ActionCallback,		0,	NULL},
	{"Komfort max idõ", 		ComfortMaxTime_CallbackRender,		ComfortMaxTime_ActionCallback,		0,	NULL}
};

void Restarts_CallbackRender(uint8_t which){
    3734:	cf 93       	push	r28
    3736:	df 93       	push	r29
    3738:	00 d0       	rcall	.+0      	; 0x373a <Restarts_CallbackRender+0x6>
    373a:	00 d0       	rcall	.+0      	; 0x373c <Restarts_CallbackRender+0x8>
    373c:	00 d0       	rcall	.+0      	; 0x373e <Restarts_CallbackRender+0xa>
    373e:	cd b7       	in	r28, 0x3d	; 61
    3740:	de b7       	in	r29, 0x3e	; 62
	lcd_clrscr();
    3742:	0e 94 46 08 	call	0x108c	; 0x108c <lcd_clrscr>
	lcd_puts_hu(PSTR("Újraindulások"));
    3746:	80 e2       	ldi	r24, 0x20	; 32
    3748:	94 e0       	ldi	r25, 0x04	; 4
    374a:	0e 94 7c 09 	call	0x12f8	; 0x12f8 <lcd_puts_hu>
	lcd_gotoxy(0,1);
    374e:	61 e0       	ldi	r22, 0x01	; 1
    3750:	80 e0       	ldi	r24, 0x00	; 0
    3752:	0e 94 26 08 	call	0x104c	; 0x104c <lcd_gotoxy>
    3756:	4a e0       	ldi	r20, 0x0A	; 10
    3758:	be 01       	movw	r22, r28
    375a:	6f 5f       	subi	r22, 0xFF	; 255
    375c:	7f 4f       	sbci	r23, 0xFF	; 255
    375e:	80 91 74 08 	lds	r24, 0x0874	; 0x800874 <Restarts>
    3762:	90 91 75 08 	lds	r25, 0x0875	; 0x800875 <Restarts+0x1>
    3766:	0e 94 c5 30 	call	0x618a	; 0x618a <__itoa_ncheck>
	char buf[6];
	itoa(Restarts, buf, 10);
	lcd_puts(buf);
    376a:	ce 01       	movw	r24, r28
    376c:	01 96       	adiw	r24, 0x01	; 1
    376e:	0e 94 1b 09 	call	0x1236	; 0x1236 <lcd_puts>
	//lcd_gotoxy(0,2);
	//ftoa(buffer, HIHxxxxTempMin, 2);
	//lcd_puts(buffer); lcd_puts_p(PSTR("/"));
	//ftoa(buffer, HIHxxxxTempMax, 2);
	//lcd_puts(buffer); lcd_puts_p(PSTR(" C"));
}
    3772:	26 96       	adiw	r28, 0x06	; 6
    3774:	0f b6       	in	r0, 0x3f	; 63
    3776:	f8 94       	cli
    3778:	de bf       	out	0x3e, r29	; 62
    377a:	0f be       	out	0x3f, r0	; 63
    377c:	cd bf       	out	0x3d, r28	; 61
    377e:	df 91       	pop	r29
    3780:	cf 91       	pop	r28
    3782:	08 95       	ret

00003784 <DHWTempActual_CallbackRender>:
};

/*************************************************************************
 Menu DHW, submenu definitions
*************************************************************************/
void DHWTempActual_CallbackRender(uint8_t which){
    3784:	0f 93       	push	r16
    3786:	1f 93       	push	r17
    3788:	cf 93       	push	r28
    378a:	df 93       	push	r29
    378c:	cd b7       	in	r28, 0x3d	; 61
    378e:	de b7       	in	r29, 0x3e	; 62
    3790:	27 97       	sbiw	r28, 0x07	; 7
    3792:	0f b6       	in	r0, 0x3f	; 63
    3794:	f8 94       	cli
    3796:	de bf       	out	0x3e, r29	; 62
    3798:	0f be       	out	0x3f, r0	; 63
    379a:	cd bf       	out	0x3d, r28	; 61
	lcd_clrscr();
    379c:	0e 94 46 08 	call	0x108c	; 0x108c <lcd_clrscr>
	lcd_puts_hu(PSTR("HMV akt hõm"));
    37a0:	85 e5       	ldi	r24, 0x55	; 85
    37a2:	98 e0       	ldi	r25, 0x08	; 8
    37a4:	0e 94 7c 09 	call	0x12f8	; 0x12f8 <lcd_puts_hu>
	lcd_gotoxy(0,1);
    37a8:	61 e0       	ldi	r22, 0x01	; 1
    37aa:	80 e0       	ldi	r24, 0x00	; 0
    37ac:	0e 94 26 08 	call	0x104c	; 0x104c <lcd_gotoxy>
	lcd_puts(DHW.ActualTempBuffer); lcd_puts_p(PSTR(".")), lcd_puts(DHW.ActualTempFracBuffer); lcd_puts_p(PSTR(" C"));
    37b0:	8f ea       	ldi	r24, 0xAF	; 175
    37b2:	99 e0       	ldi	r25, 0x09	; 9
    37b4:	0e 94 1b 09 	call	0x1236	; 0x1236 <lcd_puts>
    37b8:	83 e5       	ldi	r24, 0x53	; 83
    37ba:	98 e0       	ldi	r25, 0x08	; 8
    37bc:	0e 94 68 08 	call	0x10d0	; 0x10d0 <lcd_puts_p>
    37c0:	83 eb       	ldi	r24, 0xB3	; 179
    37c2:	99 e0       	ldi	r25, 0x09	; 9
    37c4:	0e 94 1b 09 	call	0x1236	; 0x1236 <lcd_puts>
    37c8:	80 e5       	ldi	r24, 0x50	; 80
    37ca:	98 e0       	ldi	r25, 0x08	; 8
    37cc:	0e 94 68 08 	call	0x10d0	; 0x10d0 <lcd_puts_p>

	char buffer[7];
	lcd_gotoxy(0,2);
    37d0:	62 e0       	ldi	r22, 0x02	; 2
    37d2:	80 e0       	ldi	r24, 0x00	; 0
    37d4:	0e 94 26 08 	call	0x104c	; 0x104c <lcd_gotoxy>
	itoa(DHW.MeasuredMinimumTemp, buffer, 10);
    37d8:	0b ea       	ldi	r16, 0xAB	; 171
    37da:	19 e0       	ldi	r17, 0x09	; 9
    37dc:	f8 01       	movw	r30, r16
    37de:	82 81       	ldd	r24, Z+2	; 0x02
    37e0:	4a e0       	ldi	r20, 0x0A	; 10
    37e2:	be 01       	movw	r22, r28
    37e4:	6f 5f       	subi	r22, 0xFF	; 255
    37e6:	7f 4f       	sbci	r23, 0xFF	; 255
    37e8:	90 e0       	ldi	r25, 0x00	; 0
    37ea:	0e 94 c5 30 	call	0x618a	; 0x618a <__itoa_ncheck>
	lcd_puts(buffer); lcd_puts_p(PSTR("/"));
    37ee:	ce 01       	movw	r24, r28
    37f0:	01 96       	adiw	r24, 0x01	; 1
    37f2:	0e 94 1b 09 	call	0x1236	; 0x1236 <lcd_puts>
    37f6:	8e e4       	ldi	r24, 0x4E	; 78
    37f8:	98 e0       	ldi	r25, 0x08	; 8
    37fa:	0e 94 68 08 	call	0x10d0	; 0x10d0 <lcd_puts_p>
    37fe:	f8 01       	movw	r30, r16
    3800:	83 81       	ldd	r24, Z+3	; 0x03
    3802:	4a e0       	ldi	r20, 0x0A	; 10
    3804:	be 01       	movw	r22, r28
    3806:	6f 5f       	subi	r22, 0xFF	; 255
    3808:	7f 4f       	sbci	r23, 0xFF	; 255
    380a:	90 e0       	ldi	r25, 0x00	; 0
    380c:	0e 94 c5 30 	call	0x618a	; 0x618a <__itoa_ncheck>
	itoa(DHW.MeasuredMaximumTemp, buffer, 10);
	lcd_puts(buffer); lcd_puts_p(PSTR(" C"));
    3810:	ce 01       	movw	r24, r28
    3812:	01 96       	adiw	r24, 0x01	; 1
    3814:	0e 94 1b 09 	call	0x1236	; 0x1236 <lcd_puts>
    3818:	8b e4       	ldi	r24, 0x4B	; 75
    381a:	98 e0       	ldi	r25, 0x08	; 8
    381c:	0e 94 68 08 	call	0x10d0	; 0x10d0 <lcd_puts_p>
}
    3820:	27 96       	adiw	r28, 0x07	; 7
    3822:	0f b6       	in	r0, 0x3f	; 63
    3824:	f8 94       	cli
    3826:	de bf       	out	0x3e, r29	; 62
    3828:	0f be       	out	0x3f, r0	; 63
    382a:	cd bf       	out	0x3d, r28	; 61
    382c:	df 91       	pop	r29
    382e:	cf 91       	pop	r28
    3830:	1f 91       	pop	r17
    3832:	0f 91       	pop	r16
    3834:	08 95       	ret

00003836 <BufferTempActual_CallbackRender>:
};

/*************************************************************************
 Menu Buffer, submenu definitions
*************************************************************************/
void BufferTempActual_CallbackRender(uint8_t which){
    3836:	0f 93       	push	r16
    3838:	1f 93       	push	r17
    383a:	cf 93       	push	r28
    383c:	df 93       	push	r29
    383e:	cd b7       	in	r28, 0x3d	; 61
    3840:	de b7       	in	r29, 0x3e	; 62
    3842:	27 97       	sbiw	r28, 0x07	; 7
    3844:	0f b6       	in	r0, 0x3f	; 63
    3846:	f8 94       	cli
    3848:	de bf       	out	0x3e, r29	; 62
    384a:	0f be       	out	0x3f, r0	; 63
    384c:	cd bf       	out	0x3d, r28	; 61
	lcd_clrscr();
    384e:	0e 94 46 08 	call	0x108c	; 0x108c <lcd_clrscr>
	lcd_puts_hu(PSTR("Puffer akt hõm"));
    3852:	84 eb       	ldi	r24, 0xB4	; 180
    3854:	97 e0       	ldi	r25, 0x07	; 7
    3856:	0e 94 7c 09 	call	0x12f8	; 0x12f8 <lcd_puts_hu>
	lcd_gotoxy(0,1);
    385a:	61 e0       	ldi	r22, 0x01	; 1
    385c:	80 e0       	ldi	r24, 0x00	; 0
    385e:	0e 94 26 08 	call	0x104c	; 0x104c <lcd_gotoxy>
	lcd_puts(Buffer.ActualTempBuffer); lcd_puts_p(PSTR(".")), lcd_puts(Buffer.ActualTempFracBuffer); lcd_puts_p(PSTR(" C"));
    3862:	85 ee       	ldi	r24, 0xE5	; 229
    3864:	99 e0       	ldi	r25, 0x09	; 9
    3866:	0e 94 1b 09 	call	0x1236	; 0x1236 <lcd_puts>
    386a:	82 eb       	ldi	r24, 0xB2	; 178
    386c:	97 e0       	ldi	r25, 0x07	; 7
    386e:	0e 94 68 08 	call	0x10d0	; 0x10d0 <lcd_puts_p>
    3872:	89 ee       	ldi	r24, 0xE9	; 233
    3874:	99 e0       	ldi	r25, 0x09	; 9
    3876:	0e 94 1b 09 	call	0x1236	; 0x1236 <lcd_puts>
    387a:	8f ea       	ldi	r24, 0xAF	; 175
    387c:	97 e0       	ldi	r25, 0x07	; 7
    387e:	0e 94 68 08 	call	0x10d0	; 0x10d0 <lcd_puts_p>

	char buffer[7];
	lcd_gotoxy(0,2);
    3882:	62 e0       	ldi	r22, 0x02	; 2
    3884:	80 e0       	ldi	r24, 0x00	; 0
    3886:	0e 94 26 08 	call	0x104c	; 0x104c <lcd_gotoxy>
	itoa(Buffer.MeasuredMinimumTemp, buffer, 10);
    388a:	01 ee       	ldi	r16, 0xE1	; 225
    388c:	19 e0       	ldi	r17, 0x09	; 9
    388e:	f8 01       	movw	r30, r16
    3890:	82 81       	ldd	r24, Z+2	; 0x02
    3892:	4a e0       	ldi	r20, 0x0A	; 10
    3894:	be 01       	movw	r22, r28
    3896:	6f 5f       	subi	r22, 0xFF	; 255
    3898:	7f 4f       	sbci	r23, 0xFF	; 255
    389a:	90 e0       	ldi	r25, 0x00	; 0
    389c:	0e 94 c5 30 	call	0x618a	; 0x618a <__itoa_ncheck>
	lcd_puts(buffer); lcd_puts_p(PSTR("/"));
    38a0:	ce 01       	movw	r24, r28
    38a2:	01 96       	adiw	r24, 0x01	; 1
    38a4:	0e 94 1b 09 	call	0x1236	; 0x1236 <lcd_puts>
    38a8:	8d ea       	ldi	r24, 0xAD	; 173
    38aa:	97 e0       	ldi	r25, 0x07	; 7
    38ac:	0e 94 68 08 	call	0x10d0	; 0x10d0 <lcd_puts_p>
    38b0:	f8 01       	movw	r30, r16
    38b2:	83 81       	ldd	r24, Z+3	; 0x03
    38b4:	4a e0       	ldi	r20, 0x0A	; 10
    38b6:	be 01       	movw	r22, r28
    38b8:	6f 5f       	subi	r22, 0xFF	; 255
    38ba:	7f 4f       	sbci	r23, 0xFF	; 255
    38bc:	90 e0       	ldi	r25, 0x00	; 0
    38be:	0e 94 c5 30 	call	0x618a	; 0x618a <__itoa_ncheck>
	itoa(Buffer.MeasuredMaximumTemp, buffer, 10);
	lcd_puts(buffer); lcd_puts_p(PSTR(" C"));
    38c2:	ce 01       	movw	r24, r28
    38c4:	01 96       	adiw	r24, 0x01	; 1
    38c6:	0e 94 1b 09 	call	0x1236	; 0x1236 <lcd_puts>
    38ca:	8a ea       	ldi	r24, 0xAA	; 170
    38cc:	97 e0       	ldi	r25, 0x07	; 7
    38ce:	0e 94 68 08 	call	0x10d0	; 0x10d0 <lcd_puts_p>
}
    38d2:	27 96       	adiw	r28, 0x07	; 7
    38d4:	0f b6       	in	r0, 0x3f	; 63
    38d6:	f8 94       	cli
    38d8:	de bf       	out	0x3e, r29	; 62
    38da:	0f be       	out	0x3f, r0	; 63
    38dc:	cd bf       	out	0x3d, r28	; 61
    38de:	df 91       	pop	r29
    38e0:	cf 91       	pop	r28
    38e2:	1f 91       	pop	r17
    38e4:	0f 91       	pop	r16
    38e6:	08 95       	ret

000038e8 <EngineeringTempActual_CallbackRender>:
};

/*************************************************************************
 Menu Garage, submenu definitions
*************************************************************************/
void EngineeringTempActual_CallbackRender(uint8_t which){
    38e8:	0f 93       	push	r16
    38ea:	1f 93       	push	r17
    38ec:	cf 93       	push	r28
    38ee:	df 93       	push	r29
    38f0:	cd b7       	in	r28, 0x3d	; 61
    38f2:	de b7       	in	r29, 0x3e	; 62
    38f4:	27 97       	sbiw	r28, 0x07	; 7
    38f6:	0f b6       	in	r0, 0x3f	; 63
    38f8:	f8 94       	cli
    38fa:	de bf       	out	0x3e, r29	; 62
    38fc:	0f be       	out	0x3f, r0	; 63
    38fe:	cd bf       	out	0x3d, r28	; 61
	lcd_clrscr();
    3900:	0e 94 46 08 	call	0x108c	; 0x108c <lcd_clrscr>
	lcd_puts_hu(PSTR("Gépház akt hõm"));
    3904:	8c e6       	ldi	r24, 0x6C	; 108
    3906:	97 e0       	ldi	r25, 0x07	; 7
    3908:	0e 94 7c 09 	call	0x12f8	; 0x12f8 <lcd_puts_hu>
	lcd_gotoxy(0,1);
    390c:	61 e0       	ldi	r22, 0x01	; 1
    390e:	80 e0       	ldi	r24, 0x00	; 0
    3910:	0e 94 26 08 	call	0x104c	; 0x104c <lcd_gotoxy>
	lcd_puts(Engineering.ActualTempBuffer); lcd_puts_p(PSTR(".")), lcd_puts(Engineering.ActualTempFracBuffer); lcd_puts_p(PSTR(" C"));
    3914:	89 e5       	ldi	r24, 0x59	; 89
    3916:	99 e0       	ldi	r25, 0x09	; 9
    3918:	0e 94 1b 09 	call	0x1236	; 0x1236 <lcd_puts>
    391c:	8a e6       	ldi	r24, 0x6A	; 106
    391e:	97 e0       	ldi	r25, 0x07	; 7
    3920:	0e 94 68 08 	call	0x10d0	; 0x10d0 <lcd_puts_p>
    3924:	8d e5       	ldi	r24, 0x5D	; 93
    3926:	99 e0       	ldi	r25, 0x09	; 9
    3928:	0e 94 1b 09 	call	0x1236	; 0x1236 <lcd_puts>
    392c:	87 e6       	ldi	r24, 0x67	; 103
    392e:	97 e0       	ldi	r25, 0x07	; 7
    3930:	0e 94 68 08 	call	0x10d0	; 0x10d0 <lcd_puts_p>

	char buffer[7];
	lcd_gotoxy(0,2);
    3934:	62 e0       	ldi	r22, 0x02	; 2
    3936:	80 e0       	ldi	r24, 0x00	; 0
    3938:	0e 94 26 08 	call	0x104c	; 0x104c <lcd_gotoxy>
	itoa(Engineering.MeasuredMinimumTemp, buffer, 10);
    393c:	05 e5       	ldi	r16, 0x55	; 85
    393e:	19 e0       	ldi	r17, 0x09	; 9
    3940:	f8 01       	movw	r30, r16
    3942:	82 81       	ldd	r24, Z+2	; 0x02
    3944:	4a e0       	ldi	r20, 0x0A	; 10
    3946:	be 01       	movw	r22, r28
    3948:	6f 5f       	subi	r22, 0xFF	; 255
    394a:	7f 4f       	sbci	r23, 0xFF	; 255
    394c:	90 e0       	ldi	r25, 0x00	; 0
    394e:	0e 94 c5 30 	call	0x618a	; 0x618a <__itoa_ncheck>
	lcd_puts(buffer); lcd_puts_p(PSTR("/"));
    3952:	ce 01       	movw	r24, r28
    3954:	01 96       	adiw	r24, 0x01	; 1
    3956:	0e 94 1b 09 	call	0x1236	; 0x1236 <lcd_puts>
    395a:	85 e6       	ldi	r24, 0x65	; 101
    395c:	97 e0       	ldi	r25, 0x07	; 7
    395e:	0e 94 68 08 	call	0x10d0	; 0x10d0 <lcd_puts_p>
    3962:	f8 01       	movw	r30, r16
    3964:	83 81       	ldd	r24, Z+3	; 0x03
    3966:	4a e0       	ldi	r20, 0x0A	; 10
    3968:	be 01       	movw	r22, r28
    396a:	6f 5f       	subi	r22, 0xFF	; 255
    396c:	7f 4f       	sbci	r23, 0xFF	; 255
    396e:	90 e0       	ldi	r25, 0x00	; 0
    3970:	0e 94 c5 30 	call	0x618a	; 0x618a <__itoa_ncheck>
	itoa(Engineering.MeasuredMaximumTemp, buffer, 10);
	lcd_puts(buffer); lcd_puts_p(PSTR(" C"));
    3974:	ce 01       	movw	r24, r28
    3976:	01 96       	adiw	r24, 0x01	; 1
    3978:	0e 94 1b 09 	call	0x1236	; 0x1236 <lcd_puts>
    397c:	82 e6       	ldi	r24, 0x62	; 98
    397e:	97 e0       	ldi	r25, 0x07	; 7
    3980:	0e 94 68 08 	call	0x10d0	; 0x10d0 <lcd_puts_p>
}
    3984:	27 96       	adiw	r28, 0x07	; 7
    3986:	0f b6       	in	r0, 0x3f	; 63
    3988:	f8 94       	cli
    398a:	de bf       	out	0x3e, r29	; 62
    398c:	0f be       	out	0x3f, r0	; 63
    398e:	cd bf       	out	0x3d, r28	; 61
    3990:	df 91       	pop	r29
    3992:	cf 91       	pop	r28
    3994:	1f 91       	pop	r17
    3996:	0f 91       	pop	r16
    3998:	08 95       	ret

0000399a <DHWRelay_CallbackRender>:
/*************************************************************************
 Menu Relays, submenu definitions
*************************************************************************/

void DHWRelay_CallbackRender(uint8_t which){
	lcd_clrscr();
    399a:	0e 94 46 08 	call	0x108c	; 0x108c <lcd_clrscr>
	lcd_puts_hu(PSTR("HMV szelep állapot"));
    399e:	8c e1       	ldi	r24, 0x1C	; 28
    39a0:	97 e0       	ldi	r25, 0x07	; 7
    39a2:	0e 94 7c 09 	call	0x12f8	; 0x12f8 <lcd_puts_hu>
	lcd_gotoxy(0,1);
    39a6:	61 e0       	ldi	r22, 0x01	; 1
    39a8:	80 e0       	ldi	r24, 0x00	; 0
    39aa:	0e 94 26 08 	call	0x104c	; 0x104c <lcd_gotoxy>
	if (Relays & (1 << DHW_VALVE_RELAY))
    39ae:	80 91 70 08 	lds	r24, 0x0870	; 0x800870 <Relays>
    39b2:	80 fd       	sbrc	r24, 0
    39b4:	04 c0       	rjmp	.+8      	; 0x39be <DHWRelay_CallbackRender+0x24>
		lcd_puts_p(PSTR("Be"));
	else
		lcd_puts_p(PSTR("Ki"));
    39b6:	86 e1       	ldi	r24, 0x16	; 22
    39b8:	97 e0       	ldi	r25, 0x07	; 7
    39ba:	0c 94 68 08 	jmp	0x10d0	; 0x10d0 <lcd_puts_p>
void DHWRelay_CallbackRender(uint8_t which){
	lcd_clrscr();
	lcd_puts_hu(PSTR("HMV szelep állapot"));
	lcd_gotoxy(0,1);
	if (Relays & (1 << DHW_VALVE_RELAY))
		lcd_puts_p(PSTR("Be"));
    39be:	89 e1       	ldi	r24, 0x19	; 25
    39c0:	97 e0       	ldi	r25, 0x07	; 7
    39c2:	0c 94 68 08 	jmp	0x10d0	; 0x10d0 <lcd_puts_p>

000039c6 <ZoneValve1_CallbackRender>:
	DHWRelay_CallbackRender(column);
	return false;
}

void ZoneValve1_CallbackRender(uint8_t which){
	lcd_clrscr();
    39c6:	0e 94 46 08 	call	0x108c	; 0x108c <lcd_clrscr>
	lcd_puts_hu(PSTR("Földszinti szivattyú"));
    39ca:	81 e0       	ldi	r24, 0x01	; 1
    39cc:	97 e0       	ldi	r25, 0x07	; 7
    39ce:	0e 94 7c 09 	call	0x12f8	; 0x12f8 <lcd_puts_hu>
	lcd_gotoxy(0,1);
    39d2:	61 e0       	ldi	r22, 0x01	; 1
    39d4:	80 e0       	ldi	r24, 0x00	; 0
    39d6:	0e 94 26 08 	call	0x104c	; 0x104c <lcd_gotoxy>
	if (Relays & (1 << FIRST_FLOOR_VALVE))
    39da:	80 91 70 08 	lds	r24, 0x0870	; 0x800870 <Relays>
    39de:	87 fd       	sbrc	r24, 7
    39e0:	04 c0       	rjmp	.+8      	; 0x39ea <ZoneValve1_CallbackRender+0x24>
		lcd_puts_p(PSTR("Be"));
	else
		lcd_puts_p(PSTR("Ki"));
    39e2:	8b ef       	ldi	r24, 0xFB	; 251
    39e4:	96 e0       	ldi	r25, 0x06	; 6
    39e6:	0c 94 68 08 	jmp	0x10d0	; 0x10d0 <lcd_puts_p>
void ZoneValve1_CallbackRender(uint8_t which){
	lcd_clrscr();
	lcd_puts_hu(PSTR("Földszinti szivattyú"));
	lcd_gotoxy(0,1);
	if (Relays & (1 << FIRST_FLOOR_VALVE))
		lcd_puts_p(PSTR("Be"));
    39ea:	8e ef       	ldi	r24, 0xFE	; 254
    39ec:	96 e0       	ldi	r25, 0x06	; 6
    39ee:	0c 94 68 08 	jmp	0x10d0	; 0x10d0 <lcd_puts_p>

000039f2 <ZoneValve2_CallbackRender>:
	ZoneValve1_CallbackRender(column);
	return false;
}

void ZoneValve2_CallbackRender(uint8_t which){
	lcd_clrscr();
    39f2:	0e 94 46 08 	call	0x108c	; 0x108c <lcd_clrscr>
	lcd_puts_p(PSTR("Emeleti szivattyú"));
    39f6:	89 ee       	ldi	r24, 0xE9	; 233
    39f8:	96 e0       	ldi	r25, 0x06	; 6
    39fa:	0e 94 68 08 	call	0x10d0	; 0x10d0 <lcd_puts_p>
	lcd_gotoxy(0,1);
    39fe:	61 e0       	ldi	r22, 0x01	; 1
    3a00:	80 e0       	ldi	r24, 0x00	; 0
    3a02:	0e 94 26 08 	call	0x104c	; 0x104c <lcd_gotoxy>
	if (Relays & (1 << SECOND_FLOOR_VALVE))
    3a06:	80 91 70 08 	lds	r24, 0x0870	; 0x800870 <Relays>
    3a0a:	86 fd       	sbrc	r24, 6
    3a0c:	04 c0       	rjmp	.+8      	; 0x3a16 <ZoneValve2_CallbackRender+0x24>
			lcd_puts_p(PSTR("Be"));
		else
			lcd_puts_p(PSTR("Ki"));
    3a0e:	83 ee       	ldi	r24, 0xE3	; 227
    3a10:	96 e0       	ldi	r25, 0x06	; 6
    3a12:	0c 94 68 08 	jmp	0x10d0	; 0x10d0 <lcd_puts_p>
void ZoneValve2_CallbackRender(uint8_t which){
	lcd_clrscr();
	lcd_puts_p(PSTR("Emeleti szivattyú"));
	lcd_gotoxy(0,1);
	if (Relays & (1 << SECOND_FLOOR_VALVE))
			lcd_puts_p(PSTR("Be"));
    3a16:	86 ee       	ldi	r24, 0xE6	; 230
    3a18:	96 e0       	ldi	r25, 0x06	; 6
    3a1a:	0c 94 68 08 	jmp	0x10d0	; 0x10d0 <lcd_puts_p>

00003a1e <BufferValve_CallbackRender>:
	ZoneValve2_CallbackRender(column);
	return false;
}

void BufferValve_CallbackRender(uint8_t which){
	lcd_clrscr();
    3a1e:	0e 94 46 08 	call	0x108c	; 0x108c <lcd_clrscr>
	lcd_puts_hu(PSTR("Puffer / gáz szelep"));
    3a22:	8f ec       	ldi	r24, 0xCF	; 207
    3a24:	96 e0       	ldi	r25, 0x06	; 6
    3a26:	0e 94 7c 09 	call	0x12f8	; 0x12f8 <lcd_puts_hu>
	lcd_gotoxy(0,1);
    3a2a:	61 e0       	ldi	r22, 0x01	; 1
    3a2c:	80 e0       	ldi	r24, 0x00	; 0
    3a2e:	0e 94 26 08 	call	0x104c	; 0x104c <lcd_gotoxy>
	if (Relays & (1 << BUFFER_VALVE_RELAY))
    3a32:	80 91 70 08 	lds	r24, 0x0870	; 0x800870 <Relays>
    3a36:	85 fd       	sbrc	r24, 5
    3a38:	04 c0       	rjmp	.+8      	; 0x3a42 <BufferValve_CallbackRender+0x24>
		lcd_puts_p(PSTR("Puffer"));
	else
		lcd_puts_hu(PSTR("Gáz"));
    3a3a:	84 ec       	ldi	r24, 0xC4	; 196
    3a3c:	96 e0       	ldi	r25, 0x06	; 6
    3a3e:	0c 94 7c 09 	jmp	0x12f8	; 0x12f8 <lcd_puts_hu>
void BufferValve_CallbackRender(uint8_t which){
	lcd_clrscr();
	lcd_puts_hu(PSTR("Puffer / gáz szelep"));
	lcd_gotoxy(0,1);
	if (Relays & (1 << BUFFER_VALVE_RELAY))
		lcd_puts_p(PSTR("Puffer"));
    3a42:	88 ec       	ldi	r24, 0xC8	; 200
    3a44:	96 e0       	ldi	r25, 0x06	; 6
    3a46:	0c 94 68 08 	jmp	0x10d0	; 0x10d0 <lcd_puts_p>

00003a4a <BufferPump_CallbackRender>:
	BufferValve_CallbackRender(column);
	return false;
}

void BufferPump_CallbackRender(uint8_t which){
	lcd_clrscr();
    3a4a:	0e 94 46 08 	call	0x108c	; 0x108c <lcd_clrscr>
	lcd_puts_hu(PSTR("Puffer szivattyú"));
    3a4e:	83 eb       	ldi	r24, 0xB3	; 179
    3a50:	96 e0       	ldi	r25, 0x06	; 6
    3a52:	0e 94 7c 09 	call	0x12f8	; 0x12f8 <lcd_puts_hu>
	lcd_gotoxy(0,1);
    3a56:	61 e0       	ldi	r22, 0x01	; 1
    3a58:	80 e0       	ldi	r24, 0x00	; 0
    3a5a:	0e 94 26 08 	call	0x104c	; 0x104c <lcd_gotoxy>
	if (Relays & (1 << BUFFER_PUMP_RELAY))
    3a5e:	80 91 70 08 	lds	r24, 0x0870	; 0x800870 <Relays>
    3a62:	84 fd       	sbrc	r24, 4
    3a64:	04 c0       	rjmp	.+8      	; 0x3a6e <BufferPump_CallbackRender+0x24>
		lcd_puts_p(PSTR("Be"));
	else
		lcd_puts_p(PSTR("Ki"));
    3a66:	8d ea       	ldi	r24, 0xAD	; 173
    3a68:	96 e0       	ldi	r25, 0x06	; 6
    3a6a:	0c 94 68 08 	jmp	0x10d0	; 0x10d0 <lcd_puts_p>
void BufferPump_CallbackRender(uint8_t which){
	lcd_clrscr();
	lcd_puts_hu(PSTR("Puffer szivattyú"));
	lcd_gotoxy(0,1);
	if (Relays & (1 << BUFFER_PUMP_RELAY))
		lcd_puts_p(PSTR("Be"));
    3a6e:	80 eb       	ldi	r24, 0xB0	; 176
    3a70:	96 e0       	ldi	r25, 0x06	; 6
    3a72:	0c 94 68 08 	jmp	0x10d0	; 0x10d0 <lcd_puts_p>

00003a76 <GasRelay_CallbackRender>:
	BufferPump_CallbackRender(column);
	return false;
}

void GasRelay_CallbackRender(uint8_t which){
	lcd_clrscr();
    3a76:	0e 94 46 08 	call	0x108c	; 0x108c <lcd_clrscr>
	lcd_puts_hu(PSTR("Gáz állapot"));
    3a7a:	81 ea       	ldi	r24, 0xA1	; 161
    3a7c:	96 e0       	ldi	r25, 0x06	; 6
    3a7e:	0e 94 7c 09 	call	0x12f8	; 0x12f8 <lcd_puts_hu>
	lcd_gotoxy(0,1);
    3a82:	61 e0       	ldi	r22, 0x01	; 1
    3a84:	80 e0       	ldi	r24, 0x00	; 0
    3a86:	0e 94 26 08 	call	0x104c	; 0x104c <lcd_gotoxy>
	if (Relays & (1 << GAS_RELAY))
    3a8a:	80 91 70 08 	lds	r24, 0x0870	; 0x800870 <Relays>
    3a8e:	81 fd       	sbrc	r24, 1
    3a90:	04 c0       	rjmp	.+8      	; 0x3a9a <GasRelay_CallbackRender+0x24>
		lcd_puts_p(PSTR("Be"));
	else
		lcd_puts_p(PSTR("Ki"));
    3a92:	8b e9       	ldi	r24, 0x9B	; 155
    3a94:	96 e0       	ldi	r25, 0x06	; 6
    3a96:	0c 94 68 08 	jmp	0x10d0	; 0x10d0 <lcd_puts_p>
void GasRelay_CallbackRender(uint8_t which){
	lcd_clrscr();
	lcd_puts_hu(PSTR("Gáz állapot"));
	lcd_gotoxy(0,1);
	if (Relays & (1 << GAS_RELAY))
		lcd_puts_p(PSTR("Be"));
    3a9a:	8e e9       	ldi	r24, 0x9E	; 158
    3a9c:	96 e0       	ldi	r25, 0x06	; 6
    3a9e:	0c 94 68 08 	jmp	0x10d0	; 0x10d0 <lcd_puts_p>

00003aa2 <GarageTemp_CallbackRender>:

/*************************************************************************
 Sensors, submenu definitions
*************************************************************************/

void GarageTemp_CallbackRender(uint8_t which){
    3aa2:	0f 93       	push	r16
    3aa4:	1f 93       	push	r17
    3aa6:	cf 93       	push	r28
    3aa8:	df 93       	push	r29
    3aaa:	cd b7       	in	r28, 0x3d	; 61
    3aac:	de b7       	in	r29, 0x3e	; 62
    3aae:	27 97       	sbiw	r28, 0x07	; 7
    3ab0:	0f b6       	in	r0, 0x3f	; 63
    3ab2:	f8 94       	cli
    3ab4:	de bf       	out	0x3e, r29	; 62
    3ab6:	0f be       	out	0x3f, r0	; 63
    3ab8:	cd bf       	out	0x3d, r28	; 61
	lcd_clrscr();
    3aba:	0e 94 46 08 	call	0x108c	; 0x108c <lcd_clrscr>
	lcd_puts_hu(PSTR("Garázs akt hõm"));
    3abe:	8c e8       	ldi	r24, 0x8C	; 140
    3ac0:	96 e0       	ldi	r25, 0x06	; 6
    3ac2:	0e 94 7c 09 	call	0x12f8	; 0x12f8 <lcd_puts_hu>
	lcd_gotoxy(0,1);
    3ac6:	61 e0       	ldi	r22, 0x01	; 1
    3ac8:	80 e0       	ldi	r24, 0x00	; 0
    3aca:	0e 94 26 08 	call	0x104c	; 0x104c <lcd_gotoxy>
	lcd_puts(Garage.ActualTempBuffer); lcd_puts_p(PSTR(".")), lcd_puts(Garage.ActualTempFracBuffer); lcd_puts_p(PSTR(" C"));
    3ace:	8e e3       	ldi	r24, 0x3E	; 62
    3ad0:	99 e0       	ldi	r25, 0x09	; 9
    3ad2:	0e 94 1b 09 	call	0x1236	; 0x1236 <lcd_puts>
    3ad6:	8a e8       	ldi	r24, 0x8A	; 138
    3ad8:	96 e0       	ldi	r25, 0x06	; 6
    3ada:	0e 94 68 08 	call	0x10d0	; 0x10d0 <lcd_puts_p>
    3ade:	82 e4       	ldi	r24, 0x42	; 66
    3ae0:	99 e0       	ldi	r25, 0x09	; 9
    3ae2:	0e 94 1b 09 	call	0x1236	; 0x1236 <lcd_puts>
    3ae6:	87 e8       	ldi	r24, 0x87	; 135
    3ae8:	96 e0       	ldi	r25, 0x06	; 6
    3aea:	0e 94 68 08 	call	0x10d0	; 0x10d0 <lcd_puts_p>

	char buffer[7];
	lcd_gotoxy(0,2);
    3aee:	62 e0       	ldi	r22, 0x02	; 2
    3af0:	80 e0       	ldi	r24, 0x00	; 0
    3af2:	0e 94 26 08 	call	0x104c	; 0x104c <lcd_gotoxy>
	itoa(Garage.MeasuredMinimumTemp, buffer, 10);
    3af6:	0a e3       	ldi	r16, 0x3A	; 58
    3af8:	19 e0       	ldi	r17, 0x09	; 9
    3afa:	f8 01       	movw	r30, r16
    3afc:	82 81       	ldd	r24, Z+2	; 0x02
    3afe:	4a e0       	ldi	r20, 0x0A	; 10
    3b00:	be 01       	movw	r22, r28
    3b02:	6f 5f       	subi	r22, 0xFF	; 255
    3b04:	7f 4f       	sbci	r23, 0xFF	; 255
    3b06:	90 e0       	ldi	r25, 0x00	; 0
    3b08:	0e 94 c5 30 	call	0x618a	; 0x618a <__itoa_ncheck>
	lcd_puts(buffer); lcd_puts_p(PSTR("/"));
    3b0c:	ce 01       	movw	r24, r28
    3b0e:	01 96       	adiw	r24, 0x01	; 1
    3b10:	0e 94 1b 09 	call	0x1236	; 0x1236 <lcd_puts>
    3b14:	85 e8       	ldi	r24, 0x85	; 133
    3b16:	96 e0       	ldi	r25, 0x06	; 6
    3b18:	0e 94 68 08 	call	0x10d0	; 0x10d0 <lcd_puts_p>
    3b1c:	f8 01       	movw	r30, r16
    3b1e:	83 81       	ldd	r24, Z+3	; 0x03
    3b20:	4a e0       	ldi	r20, 0x0A	; 10
    3b22:	be 01       	movw	r22, r28
    3b24:	6f 5f       	subi	r22, 0xFF	; 255
    3b26:	7f 4f       	sbci	r23, 0xFF	; 255
    3b28:	90 e0       	ldi	r25, 0x00	; 0
    3b2a:	0e 94 c5 30 	call	0x618a	; 0x618a <__itoa_ncheck>
	itoa(Garage.MeasuredMaximumTemp, buffer, 10);
	lcd_puts(buffer); lcd_puts_p(PSTR(" C"));
    3b2e:	ce 01       	movw	r24, r28
    3b30:	01 96       	adiw	r24, 0x01	; 1
    3b32:	0e 94 1b 09 	call	0x1236	; 0x1236 <lcd_puts>
    3b36:	82 e8       	ldi	r24, 0x82	; 130
    3b38:	96 e0       	ldi	r25, 0x06	; 6
    3b3a:	0e 94 68 08 	call	0x10d0	; 0x10d0 <lcd_puts_p>
}
    3b3e:	27 96       	adiw	r28, 0x07	; 7
    3b40:	0f b6       	in	r0, 0x3f	; 63
    3b42:	f8 94       	cli
    3b44:	de bf       	out	0x3e, r29	; 62
    3b46:	0f be       	out	0x3f, r0	; 63
    3b48:	cd bf       	out	0x3d, r28	; 61
    3b4a:	df 91       	pop	r29
    3b4c:	cf 91       	pop	r28
    3b4e:	1f 91       	pop	r17
    3b50:	0f 91       	pop	r16
    3b52:	08 95       	ret

00003b54 <LivingRoomTemp_CallbackRender>:
	memcpy(&Garage.SensorID, &gSensorIDs[actSensor], OW_ROMCODE_SIZE);
	GarageSensor_CallbackRender(column);
	return false;
}

void LivingRoomTemp_CallbackRender(uint8_t which){
    3b54:	0f 93       	push	r16
    3b56:	1f 93       	push	r17
    3b58:	cf 93       	push	r28
    3b5a:	df 93       	push	r29
    3b5c:	cd b7       	in	r28, 0x3d	; 61
    3b5e:	de b7       	in	r29, 0x3e	; 62
    3b60:	27 97       	sbiw	r28, 0x07	; 7
    3b62:	0f b6       	in	r0, 0x3f	; 63
    3b64:	f8 94       	cli
    3b66:	de bf       	out	0x3e, r29	; 62
    3b68:	0f be       	out	0x3f, r0	; 63
    3b6a:	cd bf       	out	0x3d, r28	; 61
	lcd_clrscr();
    3b6c:	0e 94 46 08 	call	0x108c	; 0x108c <lcd_clrscr>
	lcd_puts_hu(PSTR("Nappali akt hõm"));
    3b70:	80 e6       	ldi	r24, 0x60	; 96
    3b72:	96 e0       	ldi	r25, 0x06	; 6
    3b74:	0e 94 7c 09 	call	0x12f8	; 0x12f8 <lcd_puts_hu>
	lcd_gotoxy(0,1);
    3b78:	61 e0       	ldi	r22, 0x01	; 1
    3b7a:	80 e0       	ldi	r24, 0x00	; 0
    3b7c:	0e 94 26 08 	call	0x104c	; 0x104c <lcd_gotoxy>
	lcd_puts(LivingRoom.ActualTempBuffer); lcd_puts_p(PSTR(".")), lcd_puts(LivingRoom.ActualTempFracBuffer); lcd_puts_p(PSTR(" C"));
    3b80:	88 e7       	ldi	r24, 0x78	; 120
    3b82:	9a e0       	ldi	r25, 0x0A	; 10
    3b84:	0e 94 1b 09 	call	0x1236	; 0x1236 <lcd_puts>
    3b88:	8e e5       	ldi	r24, 0x5E	; 94
    3b8a:	96 e0       	ldi	r25, 0x06	; 6
    3b8c:	0e 94 68 08 	call	0x10d0	; 0x10d0 <lcd_puts_p>
    3b90:	8c e7       	ldi	r24, 0x7C	; 124
    3b92:	9a e0       	ldi	r25, 0x0A	; 10
    3b94:	0e 94 1b 09 	call	0x1236	; 0x1236 <lcd_puts>
    3b98:	8b e5       	ldi	r24, 0x5B	; 91
    3b9a:	96 e0       	ldi	r25, 0x06	; 6
    3b9c:	0e 94 68 08 	call	0x10d0	; 0x10d0 <lcd_puts_p>

	char buffer[7];
	lcd_gotoxy(0,2);
    3ba0:	62 e0       	ldi	r22, 0x02	; 2
    3ba2:	80 e0       	ldi	r24, 0x00	; 0
    3ba4:	0e 94 26 08 	call	0x104c	; 0x104c <lcd_gotoxy>
	itoa(LivingRoom.MeasuredMinimumTemp, buffer, 10);
    3ba8:	04 e7       	ldi	r16, 0x74	; 116
    3baa:	1a e0       	ldi	r17, 0x0A	; 10
    3bac:	f8 01       	movw	r30, r16
    3bae:	82 81       	ldd	r24, Z+2	; 0x02
    3bb0:	4a e0       	ldi	r20, 0x0A	; 10
    3bb2:	be 01       	movw	r22, r28
    3bb4:	6f 5f       	subi	r22, 0xFF	; 255
    3bb6:	7f 4f       	sbci	r23, 0xFF	; 255
    3bb8:	90 e0       	ldi	r25, 0x00	; 0
    3bba:	0e 94 c5 30 	call	0x618a	; 0x618a <__itoa_ncheck>
	lcd_puts(buffer); lcd_puts_p(PSTR("/"));
    3bbe:	ce 01       	movw	r24, r28
    3bc0:	01 96       	adiw	r24, 0x01	; 1
    3bc2:	0e 94 1b 09 	call	0x1236	; 0x1236 <lcd_puts>
    3bc6:	89 e5       	ldi	r24, 0x59	; 89
    3bc8:	96 e0       	ldi	r25, 0x06	; 6
    3bca:	0e 94 68 08 	call	0x10d0	; 0x10d0 <lcd_puts_p>
    3bce:	f8 01       	movw	r30, r16
    3bd0:	83 81       	ldd	r24, Z+3	; 0x03
    3bd2:	4a e0       	ldi	r20, 0x0A	; 10
    3bd4:	be 01       	movw	r22, r28
    3bd6:	6f 5f       	subi	r22, 0xFF	; 255
    3bd8:	7f 4f       	sbci	r23, 0xFF	; 255
    3bda:	90 e0       	ldi	r25, 0x00	; 0
    3bdc:	0e 94 c5 30 	call	0x618a	; 0x618a <__itoa_ncheck>
	itoa(LivingRoom.MeasuredMaximumTemp, buffer, 10);
	lcd_puts(buffer); lcd_puts_p(PSTR(" C"));
    3be0:	ce 01       	movw	r24, r28
    3be2:	01 96       	adiw	r24, 0x01	; 1
    3be4:	0e 94 1b 09 	call	0x1236	; 0x1236 <lcd_puts>
    3be8:	86 e5       	ldi	r24, 0x56	; 86
    3bea:	96 e0       	ldi	r25, 0x06	; 6
    3bec:	0e 94 68 08 	call	0x10d0	; 0x10d0 <lcd_puts_p>
}
    3bf0:	27 96       	adiw	r28, 0x07	; 7
    3bf2:	0f b6       	in	r0, 0x3f	; 63
    3bf4:	f8 94       	cli
    3bf6:	de bf       	out	0x3e, r29	; 62
    3bf8:	0f be       	out	0x3f, r0	; 63
    3bfa:	cd bf       	out	0x3d, r28	; 61
    3bfc:	df 91       	pop	r29
    3bfe:	cf 91       	pop	r28
    3c00:	1f 91       	pop	r17
    3c02:	0f 91       	pop	r16
    3c04:	08 95       	ret

00003c06 <FloorTemp_CallbackRender>:
	memcpy(&LivingRoom.SensorID, &gSensorIDs[actSensor], OW_ROMCODE_SIZE);
	LivingRoomSensor_CallbackRender(column);
	return false;
}

void FloorTemp_CallbackRender(uint8_t which){
    3c06:	0f 93       	push	r16
    3c08:	1f 93       	push	r17
    3c0a:	cf 93       	push	r28
    3c0c:	df 93       	push	r29
    3c0e:	cd b7       	in	r28, 0x3d	; 61
    3c10:	de b7       	in	r29, 0x3e	; 62
    3c12:	27 97       	sbiw	r28, 0x07	; 7
    3c14:	0f b6       	in	r0, 0x3f	; 63
    3c16:	f8 94       	cli
    3c18:	de bf       	out	0x3e, r29	; 62
    3c1a:	0f be       	out	0x3f, r0	; 63
    3c1c:	cd bf       	out	0x3d, r28	; 61
	lcd_clrscr();
    3c1e:	0e 94 46 08 	call	0x108c	; 0x108c <lcd_clrscr>
	lcd_puts_hu(PSTR("Padló akt hõm"));
    3c22:	85 e3       	ldi	r24, 0x35	; 53
    3c24:	96 e0       	ldi	r25, 0x06	; 6
    3c26:	0e 94 7c 09 	call	0x12f8	; 0x12f8 <lcd_puts_hu>
	lcd_gotoxy(0,1);
    3c2a:	61 e0       	ldi	r22, 0x01	; 1
    3c2c:	80 e0       	ldi	r24, 0x00	; 0
    3c2e:	0e 94 26 08 	call	0x104c	; 0x104c <lcd_gotoxy>
	lcd_puts(Floor.ActualTempBuffer); lcd_puts_p(PSTR(".")), lcd_puts(Floor.ActualTempFracBuffer); lcd_puts_p(PSTR(" C"));
    3c32:	8c e9       	ldi	r24, 0x9C	; 156
    3c34:	99 e0       	ldi	r25, 0x09	; 9
    3c36:	0e 94 1b 09 	call	0x1236	; 0x1236 <lcd_puts>
    3c3a:	83 e3       	ldi	r24, 0x33	; 51
    3c3c:	96 e0       	ldi	r25, 0x06	; 6
    3c3e:	0e 94 68 08 	call	0x10d0	; 0x10d0 <lcd_puts_p>
    3c42:	80 ea       	ldi	r24, 0xA0	; 160
    3c44:	99 e0       	ldi	r25, 0x09	; 9
    3c46:	0e 94 1b 09 	call	0x1236	; 0x1236 <lcd_puts>
    3c4a:	80 e3       	ldi	r24, 0x30	; 48
    3c4c:	96 e0       	ldi	r25, 0x06	; 6
    3c4e:	0e 94 68 08 	call	0x10d0	; 0x10d0 <lcd_puts_p>

	char buffer[7];
	lcd_gotoxy(0,2);
    3c52:	62 e0       	ldi	r22, 0x02	; 2
    3c54:	80 e0       	ldi	r24, 0x00	; 0
    3c56:	0e 94 26 08 	call	0x104c	; 0x104c <lcd_gotoxy>
	itoa(Floor.MeasuredMinimumTemp, buffer, 10);
    3c5a:	08 e9       	ldi	r16, 0x98	; 152
    3c5c:	19 e0       	ldi	r17, 0x09	; 9
    3c5e:	f8 01       	movw	r30, r16
    3c60:	82 81       	ldd	r24, Z+2	; 0x02
    3c62:	4a e0       	ldi	r20, 0x0A	; 10
    3c64:	be 01       	movw	r22, r28
    3c66:	6f 5f       	subi	r22, 0xFF	; 255
    3c68:	7f 4f       	sbci	r23, 0xFF	; 255
    3c6a:	90 e0       	ldi	r25, 0x00	; 0
    3c6c:	0e 94 c5 30 	call	0x618a	; 0x618a <__itoa_ncheck>
	lcd_puts(buffer); lcd_puts_p(PSTR("/"));
    3c70:	ce 01       	movw	r24, r28
    3c72:	01 96       	adiw	r24, 0x01	; 1
    3c74:	0e 94 1b 09 	call	0x1236	; 0x1236 <lcd_puts>
    3c78:	8e e2       	ldi	r24, 0x2E	; 46
    3c7a:	96 e0       	ldi	r25, 0x06	; 6
    3c7c:	0e 94 68 08 	call	0x10d0	; 0x10d0 <lcd_puts_p>
    3c80:	f8 01       	movw	r30, r16
    3c82:	83 81       	ldd	r24, Z+3	; 0x03
    3c84:	4a e0       	ldi	r20, 0x0A	; 10
    3c86:	be 01       	movw	r22, r28
    3c88:	6f 5f       	subi	r22, 0xFF	; 255
    3c8a:	7f 4f       	sbci	r23, 0xFF	; 255
    3c8c:	90 e0       	ldi	r25, 0x00	; 0
    3c8e:	0e 94 c5 30 	call	0x618a	; 0x618a <__itoa_ncheck>
	itoa(Floor.MeasuredMaximumTemp, buffer, 10);
	lcd_puts(buffer); lcd_puts_p(PSTR(" C"));
    3c92:	ce 01       	movw	r24, r28
    3c94:	01 96       	adiw	r24, 0x01	; 1
    3c96:	0e 94 1b 09 	call	0x1236	; 0x1236 <lcd_puts>
    3c9a:	8b e2       	ldi	r24, 0x2B	; 43
    3c9c:	96 e0       	ldi	r25, 0x06	; 6
    3c9e:	0e 94 68 08 	call	0x10d0	; 0x10d0 <lcd_puts_p>
}
    3ca2:	27 96       	adiw	r28, 0x07	; 7
    3ca4:	0f b6       	in	r0, 0x3f	; 63
    3ca6:	f8 94       	cli
    3ca8:	de bf       	out	0x3e, r29	; 62
    3caa:	0f be       	out	0x3f, r0	; 63
    3cac:	cd bf       	out	0x3d, r28	; 61
    3cae:	df 91       	pop	r29
    3cb0:	cf 91       	pop	r28
    3cb2:	1f 91       	pop	r17
    3cb4:	0f 91       	pop	r16
    3cb6:	08 95       	ret

00003cb8 <GasForwardTemp_CallbackRender>:
	FloorSensor_CallbackRender(column);
	return false;
}

void GasForwardTemp_CallbackRender(uint8_t which){
	lcd_clrscr();
    3cb8:	0e 94 46 08 	call	0x108c	; 0x108c <lcd_clrscr>
	lcd_puts_hu(PSTR("Elõre akt hõm"));
    3cbc:	8c e0       	ldi	r24, 0x0C	; 12
    3cbe:	96 e0       	ldi	r25, 0x06	; 6
    3cc0:	0e 94 7c 09 	call	0x12f8	; 0x12f8 <lcd_puts_hu>
	lcd_gotoxy(0,1);
    3cc4:	61 e0       	ldi	r22, 0x01	; 1
    3cc6:	80 e0       	ldi	r24, 0x00	; 0
    3cc8:	0e 94 26 08 	call	0x104c	; 0x104c <lcd_gotoxy>
	lcd_puts(GasForward.ActualTempBuffer); lcd_puts_p(PSTR(".")), lcd_puts(GasForward.ActualTempFracBuffer); lcd_puts_p(PSTR(" C"));
    3ccc:	82 ec       	ldi	r24, 0xC2	; 194
    3cce:	99 e0       	ldi	r25, 0x09	; 9
    3cd0:	0e 94 1b 09 	call	0x1236	; 0x1236 <lcd_puts>
    3cd4:	8a e0       	ldi	r24, 0x0A	; 10
    3cd6:	96 e0       	ldi	r25, 0x06	; 6
    3cd8:	0e 94 68 08 	call	0x10d0	; 0x10d0 <lcd_puts_p>
    3cdc:	86 ec       	ldi	r24, 0xC6	; 198
    3cde:	99 e0       	ldi	r25, 0x09	; 9
    3ce0:	0e 94 1b 09 	call	0x1236	; 0x1236 <lcd_puts>
    3ce4:	87 e0       	ldi	r24, 0x07	; 7
    3ce6:	96 e0       	ldi	r25, 0x06	; 6
    3ce8:	0c 94 68 08 	jmp	0x10d0	; 0x10d0 <lcd_puts_p>

00003cec <GasReturnTemp_CallbackRender>:
	GasForwardSensor_CallbackRender(column);
	return false;
}

void GasReturnTemp_CallbackRender(uint8_t which){
	lcd_clrscr();
    3cec:	0e 94 46 08 	call	0x108c	; 0x108c <lcd_clrscr>
	lcd_puts_hu(PSTR("Visszatérõ akt hõm"));
    3cf0:	83 ee       	ldi	r24, 0xE3	; 227
    3cf2:	95 e0       	ldi	r25, 0x05	; 5
    3cf4:	0e 94 7c 09 	call	0x12f8	; 0x12f8 <lcd_puts_hu>
	lcd_gotoxy(0,1);
    3cf8:	61 e0       	ldi	r22, 0x01	; 1
    3cfa:	80 e0       	ldi	r24, 0x00	; 0
    3cfc:	0e 94 26 08 	call	0x104c	; 0x104c <lcd_gotoxy>
	lcd_puts(GasReturn.ActualTempBuffer); lcd_puts_p(PSTR(".")), lcd_puts(GasReturn.ActualTempFracBuffer); lcd_puts_p(PSTR(" C"));
    3d00:	8a e8       	ldi	r24, 0x8A	; 138
    3d02:	9a e0       	ldi	r25, 0x0A	; 10
    3d04:	0e 94 1b 09 	call	0x1236	; 0x1236 <lcd_puts>
    3d08:	81 ee       	ldi	r24, 0xE1	; 225
    3d0a:	95 e0       	ldi	r25, 0x05	; 5
    3d0c:	0e 94 68 08 	call	0x10d0	; 0x10d0 <lcd_puts_p>
    3d10:	8e e8       	ldi	r24, 0x8E	; 142
    3d12:	9a e0       	ldi	r25, 0x0A	; 10
    3d14:	0e 94 1b 09 	call	0x1236	; 0x1236 <lcd_puts>
    3d18:	8e ed       	ldi	r24, 0xDE	; 222
    3d1a:	95 e0       	ldi	r25, 0x05	; 5
    3d1c:	0c 94 68 08 	jmp	0x10d0	; 0x10d0 <lcd_puts_p>

00003d20 <ForwardTemp_CallbackRender>:
	GasReturnSensor_CallbackRender(column);
	return false;
}

void ForwardTemp_CallbackRender(uint8_t which){
	lcd_clrscr();
    3d20:	0e 94 46 08 	call	0x108c	; 0x108c <lcd_clrscr>
	lcd_puts_hu(PSTR("Elõre akt hõm"));
    3d24:	8e eb       	ldi	r24, 0xBE	; 190
    3d26:	95 e0       	ldi	r25, 0x05	; 5
    3d28:	0e 94 7c 09 	call	0x12f8	; 0x12f8 <lcd_puts_hu>
	lcd_gotoxy(0,1);
    3d2c:	61 e0       	ldi	r22, 0x01	; 1
    3d2e:	80 e0       	ldi	r24, 0x00	; 0
    3d30:	0e 94 26 08 	call	0x104c	; 0x104c <lcd_gotoxy>
	lcd_puts(Forward.ActualTempBuffer); lcd_puts_p(PSTR(".")), lcd_puts(Forward.ActualTempFracBuffer); lcd_puts_p(PSTR(" C"));
    3d34:	8b e6       	ldi	r24, 0x6B	; 107
    3d36:	99 e0       	ldi	r25, 0x09	; 9
    3d38:	0e 94 1b 09 	call	0x1236	; 0x1236 <lcd_puts>
    3d3c:	8c eb       	ldi	r24, 0xBC	; 188
    3d3e:	95 e0       	ldi	r25, 0x05	; 5
    3d40:	0e 94 68 08 	call	0x10d0	; 0x10d0 <lcd_puts_p>
    3d44:	8f e6       	ldi	r24, 0x6F	; 111
    3d46:	99 e0       	ldi	r25, 0x09	; 9
    3d48:	0e 94 1b 09 	call	0x1236	; 0x1236 <lcd_puts>
    3d4c:	89 eb       	ldi	r24, 0xB9	; 185
    3d4e:	95 e0       	ldi	r25, 0x05	; 5
    3d50:	0c 94 68 08 	jmp	0x10d0	; 0x10d0 <lcd_puts_p>

00003d54 <ReturnTemp_CallbackRender>:
	ForwardSensor_CallbackRender(column);
	return false;
}

void ReturnTemp_CallbackRender(uint8_t which){
	lcd_clrscr();
    3d54:	0e 94 46 08 	call	0x108c	; 0x108c <lcd_clrscr>
	lcd_puts_hu(PSTR("Visszatérõ akt hõm"));
    3d58:	85 e9       	ldi	r24, 0x95	; 149
    3d5a:	95 e0       	ldi	r25, 0x05	; 5
    3d5c:	0e 94 7c 09 	call	0x12f8	; 0x12f8 <lcd_puts_hu>
	lcd_gotoxy(0,1);
    3d60:	61 e0       	ldi	r22, 0x01	; 1
    3d62:	80 e0       	ldi	r24, 0x00	; 0
    3d64:	0e 94 26 08 	call	0x104c	; 0x104c <lcd_gotoxy>
	lcd_puts(Return.ActualTempBuffer); lcd_puts_p(PSTR(".")), lcd_puts(Return.ActualTempFracBuffer); lcd_puts_p(PSTR(" C"));
    3d68:	8e e7       	ldi	r24, 0x7E	; 126
    3d6a:	99 e0       	ldi	r25, 0x09	; 9
    3d6c:	0e 94 1b 09 	call	0x1236	; 0x1236 <lcd_puts>
    3d70:	83 e9       	ldi	r24, 0x93	; 147
    3d72:	95 e0       	ldi	r25, 0x05	; 5
    3d74:	0e 94 68 08 	call	0x10d0	; 0x10d0 <lcd_puts_p>
    3d78:	82 e8       	ldi	r24, 0x82	; 130
    3d7a:	99 e0       	ldi	r25, 0x09	; 9
    3d7c:	0e 94 1b 09 	call	0x1236	; 0x1236 <lcd_puts>
    3d80:	80 e9       	ldi	r24, 0x90	; 144
    3d82:	95 e0       	ldi	r25, 0x05	; 5
    3d84:	0c 94 68 08 	jmp	0x10d0	; 0x10d0 <lcd_puts_p>

00003d88 <MixedTemp_CallbackRender>:
	ReturnSensor_CallbackRender(column);
	return false;
}

void MixedTemp_CallbackRender(uint8_t which){
	lcd_clrscr();
    3d88:	0e 94 46 08 	call	0x108c	; 0x108c <lcd_clrscr>
	lcd_puts_hu(PSTR("Kevert akt hõm"));
    3d8c:	8f e6       	ldi	r24, 0x6F	; 111
    3d8e:	95 e0       	ldi	r25, 0x05	; 5
    3d90:	0e 94 7c 09 	call	0x12f8	; 0x12f8 <lcd_puts_hu>
	lcd_gotoxy(0,1);
    3d94:	61 e0       	ldi	r22, 0x01	; 1
    3d96:	80 e0       	ldi	r24, 0x00	; 0
    3d98:	0e 94 26 08 	call	0x104c	; 0x104c <lcd_gotoxy>
	lcd_puts(Mixed.ActualTempBuffer); lcd_puts_p(PSTR(".")), lcd_puts(Mixed.ActualTempFracBuffer); lcd_puts_p(PSTR(" C"));
    3d9c:	8e ea       	ldi	r24, 0xAE	; 174
    3d9e:	9a e0       	ldi	r25, 0x0A	; 10
    3da0:	0e 94 1b 09 	call	0x1236	; 0x1236 <lcd_puts>
    3da4:	8d e6       	ldi	r24, 0x6D	; 109
    3da6:	95 e0       	ldi	r25, 0x05	; 5
    3da8:	0e 94 68 08 	call	0x10d0	; 0x10d0 <lcd_puts_p>
    3dac:	82 eb       	ldi	r24, 0xB2	; 178
    3dae:	9a e0       	ldi	r25, 0x0A	; 10
    3db0:	0e 94 1b 09 	call	0x1236	; 0x1236 <lcd_puts>
    3db4:	8a e6       	ldi	r24, 0x6A	; 106
    3db6:	95 e0       	ldi	r25, 0x05	; 5
    3db8:	0c 94 68 08 	jmp	0x10d0	; 0x10d0 <lcd_puts_p>

00003dbc <ClockMinute_CallbackRender>:

	ClockHour_CallbackRender(column);
	return false;
}

void ClockMinute_CallbackRender(uint8_t which){
    3dbc:	cf 93       	push	r28
    3dbe:	df 93       	push	r29
    3dc0:	00 d0       	rcall	.+0      	; 0x3dc2 <ClockMinute_CallbackRender+0x6>
    3dc2:	1f 92       	push	r1
    3dc4:	cd b7       	in	r28, 0x3d	; 61
    3dc6:	de b7       	in	r29, 0x3e	; 62
	lcd_clrscr();
    3dc8:	0e 94 46 08 	call	0x108c	; 0x108c <lcd_clrscr>
	lcd_puts_p(PSTR("perc"));
    3dcc:	86 ee       	ldi	r24, 0xE6	; 230
    3dce:	94 e0       	ldi	r25, 0x04	; 4
    3dd0:	0e 94 68 08 	call	0x10d0	; 0x10d0 <lcd_puts_p>
	lcd_gotoxy(0,1);
    3dd4:	61 e0       	ldi	r22, 0x01	; 1
    3dd6:	80 e0       	ldi	r24, 0x00	; 0
    3dd8:	0e 94 26 08 	call	0x104c	; 0x104c <lcd_gotoxy>
    3ddc:	80 91 6e 08 	lds	r24, 0x086E	; 0x80086e <Minute>
    3de0:	4a e0       	ldi	r20, 0x0A	; 10
    3de2:	be 01       	movw	r22, r28
    3de4:	6f 5f       	subi	r22, 0xFF	; 255
    3de6:	7f 4f       	sbci	r23, 0xFF	; 255
    3de8:	90 e0       	ldi	r25, 0x00	; 0
    3dea:	0e 94 c5 30 	call	0x618a	; 0x618a <__itoa_ncheck>
	char buf[3];
	itoa(Minute, buf, 10);
	lcd_puts(buf);
    3dee:	ce 01       	movw	r24, r28
    3df0:	01 96       	adiw	r24, 0x01	; 1
    3df2:	0e 94 1b 09 	call	0x1236	; 0x1236 <lcd_puts>
}
    3df6:	0f 90       	pop	r0
    3df8:	0f 90       	pop	r0
    3dfa:	0f 90       	pop	r0
    3dfc:	df 91       	pop	r29
    3dfe:	cf 91       	pop	r28
    3e00:	08 95       	ret

00003e02 <ClockMinute_ActionCallback>:

bool ClockMinute_ActionCallback(MENU_BUTTON *button, uint8_t column){
	switch(button->role){
    3e02:	fc 01       	movw	r30, r24
    3e04:	90 81       	ld	r25, Z
    3e06:	91 30       	cpi	r25, 0x01	; 1
    3e08:	b1 f0       	breq	.+44     	; 0x3e36 <ClockMinute_ActionCallback+0x34>
    3e0a:	50 f0       	brcs	.+20     	; 0x3e20 <ClockMinute_ActionCallback+0x1e>
    3e0c:	92 30       	cpi	r25, 0x02	; 2
    3e0e:	21 f0       	breq	.+8      	; 0x3e18 <ClockMinute_ActionCallback+0x16>
    3e10:	93 30       	cpi	r25, 0x03	; 3
    3e12:	69 f4       	brne	.+26     	; 0x3e2e <ClockMinute_ActionCallback+0x2c>
			break;
		case MENU_CONFIRM:
			ClockInitialized = 1;
			return true;
		case MENU_CANCEL:
			return true;
    3e14:	81 e0       	ldi	r24, 0x01	; 1
	}

	ClockMinute_CallbackRender(column);
	return false;
}
    3e16:	08 95       	ret
		case MENU_DOWN:
			if (--Minute == 255)
				Minute = 59;
			break;
		case MENU_CONFIRM:
			ClockInitialized = 1;
    3e18:	81 e0       	ldi	r24, 0x01	; 1
    3e1a:	80 93 6c 08 	sts	0x086C, r24	; 0x80086c <ClockInitialized>
			return true;
    3e1e:	08 95       	ret
}

bool ClockMinute_ActionCallback(MENU_BUTTON *button, uint8_t column){
	switch(button->role){
		case MENU_UP:
			if (++Minute == 60)
    3e20:	80 91 6e 08 	lds	r24, 0x086E	; 0x80086e <Minute>
    3e24:	8f 5f       	subi	r24, 0xFF	; 255
    3e26:	8c 33       	cpi	r24, 0x3C	; 60
    3e28:	59 f4       	brne	.+22     	; 0x3e40 <ClockMinute_ActionCallback+0x3e>
				Minute = 0;
    3e2a:	10 92 6e 08 	sts	0x086E, r1	; 0x80086e <Minute>
    3e2e:	86 2f       	mov	r24, r22
			return true;
		case MENU_CANCEL:
			return true;
	}

	ClockMinute_CallbackRender(column);
    3e30:	c5 df       	rcall	.-118    	; 0x3dbc <ClockMinute_CallbackRender>
	return false;
    3e32:	80 e0       	ldi	r24, 0x00	; 0
    3e34:	08 95       	ret
		case MENU_UP:
			if (++Minute == 60)
				Minute = 0;
			break;
		case MENU_DOWN:
			if (--Minute == 255)
    3e36:	80 91 6e 08 	lds	r24, 0x086E	; 0x80086e <Minute>
    3e3a:	81 50       	subi	r24, 0x01	; 1
    3e3c:	08 f4       	brcc	.+2      	; 0x3e40 <ClockMinute_ActionCallback+0x3e>
				Minute = 59;
    3e3e:	8b e3       	ldi	r24, 0x3B	; 59
    3e40:	80 93 6e 08 	sts	0x086E, r24	; 0x80086e <Minute>
			return true;
		case MENU_CANCEL:
			return true;
	}

	ClockMinute_CallbackRender(column);
    3e44:	86 2f       	mov	r24, r22
    3e46:	ba df       	rcall	.-140    	; 0x3dbc <ClockMinute_CallbackRender>
	return false;
    3e48:	80 e0       	ldi	r24, 0x00	; 0
    3e4a:	08 95       	ret

00003e4c <ComfortMode_CallbackRender>:
};


void ComfortMode_CallbackRender(uint8_t which){
	
	lcd_clrscr();
    3e4c:	0e 94 46 08 	call	0x108c	; 0x108c <lcd_clrscr>
	lcd_puts_hu(PSTR("Komfort mód"));
    3e50:	81 e9       	ldi	r24, 0x91	; 145
    3e52:	94 e0       	ldi	r25, 0x04	; 4
    3e54:	0e 94 7c 09 	call	0x12f8	; 0x12f8 <lcd_puts_hu>
	lcd_gotoxy(0,1);
    3e58:	61 e0       	ldi	r22, 0x01	; 1
    3e5a:	80 e0       	ldi	r24, 0x00	; 0
    3e5c:	0e 94 26 08 	call	0x104c	; 0x104c <lcd_gotoxy>
	if (ComfortMode == 0)
    3e60:	80 91 f3 09 	lds	r24, 0x09F3	; 0x8009f3 <ComfortMode>
    3e64:	88 23       	and	r24, r24
    3e66:	39 f0       	breq	.+14     	; 0x3e76 <ComfortMode_CallbackRender+0x2a>
		lcd_puts_p(PSTR("Kikapcsolva"));
	else if (ComfortMode == 1)
    3e68:	81 30       	cpi	r24, 0x01	; 1
    3e6a:	69 f0       	breq	.+26     	; 0x3e86 <ComfortMode_CallbackRender+0x3a>
		lcd_puts_hu(PSTR("Alsó szint"));
	else if (ComfortMode == 2)
    3e6c:	82 30       	cpi	r24, 0x02	; 2
    3e6e:	79 f0       	breq	.+30     	; 0x3e8e <ComfortMode_CallbackRender+0x42>
		lcd_puts_hu(PSTR("Felsõ szint"));
	else if (ComfortMode == 3)
    3e70:	83 30       	cpi	r24, 0x03	; 3
    3e72:	29 f0       	breq	.+10     	; 0x3e7e <ComfortMode_CallbackRender+0x32>
    3e74:	08 95       	ret
	
	lcd_clrscr();
	lcd_puts_hu(PSTR("Komfort mód"));
	lcd_gotoxy(0,1);
	if (ComfortMode == 0)
		lcd_puts_p(PSTR("Kikapcsolva"));
    3e76:	85 e8       	ldi	r24, 0x85	; 133
    3e78:	94 e0       	ldi	r25, 0x04	; 4
    3e7a:	0c 94 68 08 	jmp	0x10d0	; 0x10d0 <lcd_puts_p>
	else if (ComfortMode == 1)
		lcd_puts_hu(PSTR("Alsó szint"));
	else if (ComfortMode == 2)
		lcd_puts_hu(PSTR("Felsõ szint"));
	else if (ComfortMode == 3)
		lcd_puts_hu(PSTR("Mindkét szint"));
    3e7e:	80 e6       	ldi	r24, 0x60	; 96
    3e80:	94 e0       	ldi	r25, 0x04	; 4
    3e82:	0c 94 7c 09 	jmp	0x12f8	; 0x12f8 <lcd_puts_hu>
	lcd_puts_hu(PSTR("Komfort mód"));
	lcd_gotoxy(0,1);
	if (ComfortMode == 0)
		lcd_puts_p(PSTR("Kikapcsolva"));
	else if (ComfortMode == 1)
		lcd_puts_hu(PSTR("Alsó szint"));
    3e86:	8a e7       	ldi	r24, 0x7A	; 122
    3e88:	94 e0       	ldi	r25, 0x04	; 4
    3e8a:	0c 94 7c 09 	jmp	0x12f8	; 0x12f8 <lcd_puts_hu>
	else if (ComfortMode == 2)
		lcd_puts_hu(PSTR("Felsõ szint"));
    3e8e:	8e e6       	ldi	r24, 0x6E	; 110
    3e90:	94 e0       	ldi	r25, 0x04	; 4
    3e92:	0c 94 7c 09 	jmp	0x12f8	; 0x12f8 <lcd_puts_hu>

00003e96 <DHWMinTime_CallbackRender>:
	DHWSensor_CallbackRender(column);
	return false;
}

void DHWMinTime_CallbackRender(uint8_t which){
	lcd_clrscr();
    3e96:	0e 94 46 08 	call	0x108c	; 0x108c <lcd_clrscr>
	lcd_puts_hu(PSTR("Min idõ"));
    3e9a:	89 e1       	ldi	r24, 0x19	; 25
    3e9c:	98 e0       	ldi	r25, 0x08	; 8
    3e9e:	0e 94 7c 09 	call	0x12f8	; 0x12f8 <lcd_puts_hu>
	lcd_gotoxy(0,1);
    3ea2:	61 e0       	ldi	r22, 0x01	; 1
    3ea4:	80 e0       	ldi	r24, 0x00	; 0
    3ea6:	0e 94 26 08 	call	0x104c	; 0x104c <lcd_gotoxy>
	lcd_puti(DHWMinTimeHour); lcd_puts_p(PSTR(":")); lcd_puti(DHWMinTimeMinute);
    3eaa:	80 91 32 09 	lds	r24, 0x0932	; 0x800932 <DHWMinTimeHour>
    3eae:	90 e0       	ldi	r25, 0x00	; 0
    3eb0:	0e 94 2a 09 	call	0x1254	; 0x1254 <lcd_puti>
    3eb4:	87 e1       	ldi	r24, 0x17	; 23
    3eb6:	98 e0       	ldi	r25, 0x08	; 8
    3eb8:	0e 94 68 08 	call	0x10d0	; 0x10d0 <lcd_puts_p>
    3ebc:	80 91 33 09 	lds	r24, 0x0933	; 0x800933 <DHWMinTimeMinute>
    3ec0:	90 e0       	ldi	r25, 0x00	; 0
    3ec2:	0c 94 2a 09 	jmp	0x1254	; 0x1254 <lcd_puti>

00003ec6 <DHWMinTime_ActionCallback>:
	//itoa(DHWMinTime, buf, 10);
	//lcd_puts(buf);
}

bool DHWMinTime_ActionCallback(MENU_BUTTON *button, uint8_t column){
	switch(button->role){
    3ec6:	fc 01       	movw	r30, r24
    3ec8:	90 81       	ld	r25, Z
    3eca:	91 30       	cpi	r25, 0x01	; 1
    3ecc:	39 f1       	breq	.+78     	; 0x3f1c <DHWMinTime_ActionCallback+0x56>
    3ece:	a0 f0       	brcs	.+40     	; 0x3ef8 <DHWMinTime_ActionCallback+0x32>
    3ed0:	92 30       	cpi	r25, 0x02	; 2
    3ed2:	21 f0       	breq	.+8      	; 0x3edc <DHWMinTime_ActionCallback+0x16>
    3ed4:	93 30       	cpi	r25, 0x03	; 3
    3ed6:	f1 f4       	brne	.+60     	; 0x3f14 <DHWMinTime_ActionCallback+0x4e>
		break;
		case MENU_CONFIRM:
			eeprom_update_byte(&eeDHWMinTimeHour, DHWMinTimeHour);
			eeprom_update_byte(&eeDHWMinTimeMinute, DHWMinTimeMinute);
		case MENU_CANCEL:
			return true;
    3ed8:	81 e0       	ldi	r24, 0x01	; 1
	}

	DHWMinTime_CallbackRender(column);
	return false;
}
    3eda:	08 95       	ret
			}
			//else
			//	DHWMaxTime -= 10;
		break;
		case MENU_CONFIRM:
			eeprom_update_byte(&eeDHWMinTimeHour, DHWMinTimeHour);
    3edc:	60 91 32 09 	lds	r22, 0x0932	; 0x800932 <DHWMinTimeHour>
    3ee0:	8c e7       	ldi	r24, 0x7C	; 124
    3ee2:	90 e0       	ldi	r25, 0x00	; 0
    3ee4:	0e 94 d5 33 	call	0x67aa	; 0x67aa <eeprom_update_byte>
			eeprom_update_byte(&eeDHWMinTimeMinute, DHWMinTimeMinute);
    3ee8:	60 91 33 09 	lds	r22, 0x0933	; 0x800933 <DHWMinTimeMinute>
    3eec:	8b e7       	ldi	r24, 0x7B	; 123
    3eee:	90 e0       	ldi	r25, 0x00	; 0
    3ef0:	0e 94 d5 33 	call	0x67aa	; 0x67aa <eeprom_update_byte>
		case MENU_CANCEL:
			return true;
    3ef4:	81 e0       	ldi	r24, 0x01	; 1
    3ef6:	08 95       	ret
}

bool DHWMinTime_ActionCallback(MENU_BUTTON *button, uint8_t column){
	switch(button->role){
		case MENU_UP:
			if (++DHWMinTimeMinute == 60)
    3ef8:	80 91 33 09 	lds	r24, 0x0933	; 0x800933 <DHWMinTimeMinute>
    3efc:	8f 5f       	subi	r24, 0xFF	; 255
    3efe:	8c 33       	cpi	r24, 0x3C	; 60
    3f00:	89 f4       	brne	.+34     	; 0x3f24 <DHWMinTime_ActionCallback+0x5e>
			{
				DHWMinTimeMinute = 0;
    3f02:	10 92 33 09 	sts	0x0933, r1	; 0x800933 <DHWMinTimeMinute>
				if (++DHWMinTimeHour == 24)
    3f06:	80 91 32 09 	lds	r24, 0x0932	; 0x800932 <DHWMinTimeHour>
    3f0a:	8f 5f       	subi	r24, 0xFF	; 255
    3f0c:	88 31       	cpi	r24, 0x18	; 24
    3f0e:	b9 f4       	brne	.+46     	; 0x3f3e <DHWMinTime_ActionCallback+0x78>
				DHWMinTimeHour = 0;
    3f10:	10 92 32 09 	sts	0x0932, r1	; 0x800932 <DHWMinTimeHour>
			eeprom_update_byte(&eeDHWMinTimeMinute, DHWMinTimeMinute);
		case MENU_CANCEL:
			return true;
	}

	DHWMinTime_CallbackRender(column);
    3f14:	86 2f       	mov	r24, r22
    3f16:	bf df       	rcall	.-130    	; 0x3e96 <DHWMinTime_CallbackRender>
	return false;
    3f18:	80 e0       	ldi	r24, 0x00	; 0
    3f1a:	08 95       	ret
				if (++DHWMinTimeHour == 24)
				DHWMinTimeHour = 0;
			}
		break;
		case MENU_DOWN:
			if (--DHWMinTimeMinute == 255)
    3f1c:	80 91 33 09 	lds	r24, 0x0933	; 0x800933 <DHWMinTimeMinute>
    3f20:	81 50       	subi	r24, 0x01	; 1
    3f22:	30 f0       	brcs	.+12     	; 0x3f30 <DHWMinTime_ActionCallback+0x6a>
    3f24:	80 93 33 09 	sts	0x0933, r24	; 0x800933 <DHWMinTimeMinute>
			eeprom_update_byte(&eeDHWMinTimeMinute, DHWMinTimeMinute);
		case MENU_CANCEL:
			return true;
	}

	DHWMinTime_CallbackRender(column);
    3f28:	86 2f       	mov	r24, r22
    3f2a:	b5 df       	rcall	.-150    	; 0x3e96 <DHWMinTime_CallbackRender>
	return false;
    3f2c:	80 e0       	ldi	r24, 0x00	; 0
    3f2e:	08 95       	ret
			}
		break;
		case MENU_DOWN:
			if (--DHWMinTimeMinute == 255)
			{
				DHWMinTimeMinute = 59;
    3f30:	8b e3       	ldi	r24, 0x3B	; 59
    3f32:	80 93 33 09 	sts	0x0933, r24	; 0x800933 <DHWMinTimeMinute>
				if (--DHWMinTimeHour == 255)
    3f36:	80 91 32 09 	lds	r24, 0x0932	; 0x800932 <DHWMinTimeHour>
    3f3a:	81 50       	subi	r24, 0x01	; 1
    3f3c:	18 f0       	brcs	.+6      	; 0x3f44 <DHWMinTime_ActionCallback+0x7e>
					DHWMinTimeHour = 23;
    3f3e:	80 93 32 09 	sts	0x0932, r24	; 0x800932 <DHWMinTimeHour>
    3f42:	e8 cf       	rjmp	.-48     	; 0x3f14 <DHWMinTime_ActionCallback+0x4e>
    3f44:	87 e1       	ldi	r24, 0x17	; 23
    3f46:	fb cf       	rjmp	.-10     	; 0x3f3e <DHWMinTime_ActionCallback+0x78>

00003f48 <DHWMaxTime_CallbackRender>:
	DHWMinTime_CallbackRender(column);
	return false;
}

void DHWMaxTime_CallbackRender(uint8_t which){
	lcd_clrscr();
    3f48:	0e 94 46 08 	call	0x108c	; 0x108c <lcd_clrscr>
	lcd_puts_hu(PSTR("Max idõ"));
    3f4c:	8f e0       	ldi	r24, 0x0F	; 15
    3f4e:	98 e0       	ldi	r25, 0x08	; 8
    3f50:	0e 94 7c 09 	call	0x12f8	; 0x12f8 <lcd_puts_hu>
	lcd_gotoxy(0,1);
    3f54:	61 e0       	ldi	r22, 0x01	; 1
    3f56:	80 e0       	ldi	r24, 0x00	; 0
    3f58:	0e 94 26 08 	call	0x104c	; 0x104c <lcd_gotoxy>
	lcd_puti(DHWMaxTimeHour); lcd_puts_p(PSTR(":")); lcd_puti(DHWMaxTimeMinute);
    3f5c:	80 91 71 0a 	lds	r24, 0x0A71	; 0x800a71 <DHWMaxTimeHour>
    3f60:	90 e0       	ldi	r25, 0x00	; 0
    3f62:	0e 94 2a 09 	call	0x1254	; 0x1254 <lcd_puti>
    3f66:	8d e0       	ldi	r24, 0x0D	; 13
    3f68:	98 e0       	ldi	r25, 0x08	; 8
    3f6a:	0e 94 68 08 	call	0x10d0	; 0x10d0 <lcd_puts_p>
    3f6e:	80 91 d0 09 	lds	r24, 0x09D0	; 0x8009d0 <DHWMaxTimeMinute>
    3f72:	90 e0       	ldi	r25, 0x00	; 0
    3f74:	0c 94 2a 09 	jmp	0x1254	; 0x1254 <lcd_puti>

00003f78 <DHWMaxTime_ActionCallback>:
	//itoa(DHWMaxTimeHour, buf, 10);
	//lcd_puts(buf);
}

bool DHWMaxTime_ActionCallback(MENU_BUTTON *button, uint8_t column){
	switch(button->role){
    3f78:	fc 01       	movw	r30, r24
    3f7a:	90 81       	ld	r25, Z
    3f7c:	91 30       	cpi	r25, 0x01	; 1
    3f7e:	39 f1       	breq	.+78     	; 0x3fce <DHWMaxTime_ActionCallback+0x56>
    3f80:	a0 f0       	brcs	.+40     	; 0x3faa <DHWMaxTime_ActionCallback+0x32>
    3f82:	92 30       	cpi	r25, 0x02	; 2
    3f84:	21 f0       	breq	.+8      	; 0x3f8e <DHWMaxTime_ActionCallback+0x16>
    3f86:	93 30       	cpi	r25, 0x03	; 3
    3f88:	f1 f4       	brne	.+60     	; 0x3fc6 <DHWMaxTime_ActionCallback+0x4e>
			break;
		case MENU_CONFIRM:
			eeprom_update_byte(&eeDHWMaxTimeHour, DHWMaxTimeHour);
			eeprom_update_byte(&eeDHWMaxTimeMinute, DHWMaxTimeMinute);
		case MENU_CANCEL:
		return true;
    3f8a:	81 e0       	ldi	r24, 0x01	; 1
	}

	DHWMaxTime_CallbackRender(column);
	return false;
}
    3f8c:	08 95       	ret
			}
			//else
			//	DHWMaxTime -= 10;
			break;
		case MENU_CONFIRM:
			eeprom_update_byte(&eeDHWMaxTimeHour, DHWMaxTimeHour);
    3f8e:	60 91 71 0a 	lds	r22, 0x0A71	; 0x800a71 <DHWMaxTimeHour>
    3f92:	8a e7       	ldi	r24, 0x7A	; 122
    3f94:	90 e0       	ldi	r25, 0x00	; 0
    3f96:	0e 94 d5 33 	call	0x67aa	; 0x67aa <eeprom_update_byte>
			eeprom_update_byte(&eeDHWMaxTimeMinute, DHWMaxTimeMinute);
    3f9a:	60 91 d0 09 	lds	r22, 0x09D0	; 0x8009d0 <DHWMaxTimeMinute>
    3f9e:	89 e7       	ldi	r24, 0x79	; 121
    3fa0:	90 e0       	ldi	r25, 0x00	; 0
    3fa2:	0e 94 d5 33 	call	0x67aa	; 0x67aa <eeprom_update_byte>
		case MENU_CANCEL:
		return true;
    3fa6:	81 e0       	ldi	r24, 0x01	; 1
    3fa8:	08 95       	ret
}

bool DHWMaxTime_ActionCallback(MENU_BUTTON *button, uint8_t column){
	switch(button->role){
		case MENU_UP:
			if (++DHWMaxTimeMinute == 60)
    3faa:	80 91 d0 09 	lds	r24, 0x09D0	; 0x8009d0 <DHWMaxTimeMinute>
    3fae:	8f 5f       	subi	r24, 0xFF	; 255
    3fb0:	8c 33       	cpi	r24, 0x3C	; 60
    3fb2:	89 f4       	brne	.+34     	; 0x3fd6 <DHWMaxTime_ActionCallback+0x5e>
			{
				DHWMaxTimeMinute = 0;
    3fb4:	10 92 d0 09 	sts	0x09D0, r1	; 0x8009d0 <DHWMaxTimeMinute>
				if (++DHWMaxTimeHour == 24)
    3fb8:	80 91 71 0a 	lds	r24, 0x0A71	; 0x800a71 <DHWMaxTimeHour>
    3fbc:	8f 5f       	subi	r24, 0xFF	; 255
    3fbe:	88 31       	cpi	r24, 0x18	; 24
    3fc0:	b9 f4       	brne	.+46     	; 0x3ff0 <DHWMaxTime_ActionCallback+0x78>
					DHWMaxTimeHour = 0;
    3fc2:	10 92 71 0a 	sts	0x0A71, r1	; 0x800a71 <DHWMaxTimeHour>
			eeprom_update_byte(&eeDHWMaxTimeMinute, DHWMaxTimeMinute);
		case MENU_CANCEL:
		return true;
	}

	DHWMaxTime_CallbackRender(column);
    3fc6:	86 2f       	mov	r24, r22
    3fc8:	bf df       	rcall	.-130    	; 0x3f48 <DHWMaxTime_CallbackRender>
	return false;
    3fca:	80 e0       	ldi	r24, 0x00	; 0
    3fcc:	08 95       	ret
				if (++DHWMaxTimeHour == 24)
					DHWMaxTimeHour = 0;
			}
			break;
		case MENU_DOWN:
			if (--DHWMaxTimeMinute == 255)
    3fce:	80 91 d0 09 	lds	r24, 0x09D0	; 0x8009d0 <DHWMaxTimeMinute>
    3fd2:	81 50       	subi	r24, 0x01	; 1
    3fd4:	30 f0       	brcs	.+12     	; 0x3fe2 <DHWMaxTime_ActionCallback+0x6a>
    3fd6:	80 93 d0 09 	sts	0x09D0, r24	; 0x8009d0 <DHWMaxTimeMinute>
			eeprom_update_byte(&eeDHWMaxTimeMinute, DHWMaxTimeMinute);
		case MENU_CANCEL:
		return true;
	}

	DHWMaxTime_CallbackRender(column);
    3fda:	86 2f       	mov	r24, r22
    3fdc:	b5 df       	rcall	.-150    	; 0x3f48 <DHWMaxTime_CallbackRender>
	return false;
    3fde:	80 e0       	ldi	r24, 0x00	; 0
    3fe0:	08 95       	ret
			}
			break;
		case MENU_DOWN:
			if (--DHWMaxTimeMinute == 255)
			{
				DHWMaxTimeMinute = 59;
    3fe2:	8b e3       	ldi	r24, 0x3B	; 59
    3fe4:	80 93 d0 09 	sts	0x09D0, r24	; 0x8009d0 <DHWMaxTimeMinute>
				if (--DHWMaxTimeHour == 255)
    3fe8:	80 91 71 0a 	lds	r24, 0x0A71	; 0x800a71 <DHWMaxTimeHour>
    3fec:	81 50       	subi	r24, 0x01	; 1
    3fee:	18 f0       	brcs	.+6      	; 0x3ff6 <DHWMaxTime_ActionCallback+0x7e>
					DHWMaxTimeHour = 23;
    3ff0:	80 93 71 0a 	sts	0x0A71, r24	; 0x800a71 <DHWMaxTimeHour>
    3ff4:	e8 cf       	rjmp	.-48     	; 0x3fc6 <DHWMaxTime_ActionCallback+0x4e>
    3ff6:	87 e1       	ldi	r24, 0x17	; 23
    3ff8:	fb cf       	rjmp	.-10     	; 0x3ff0 <DHWMaxTime_ActionCallback+0x78>

00003ffa <ComfortMinTime_CallbackRender>:
	ComfortForwardTemp_CallbackRender(column);
	return false;
}

void ComfortMinTime_CallbackRender(uint8_t which){
	lcd_clrscr();
    3ffa:	0e 94 46 08 	call	0x108c	; 0x108c <lcd_clrscr>
	lcd_puts_hu(PSTR("Min idõ"));
    3ffe:	8a e3       	ldi	r24, 0x3A	; 58
    4000:	94 e0       	ldi	r25, 0x04	; 4
    4002:	0e 94 7c 09 	call	0x12f8	; 0x12f8 <lcd_puts_hu>
	lcd_gotoxy(0,1);	
    4006:	61 e0       	ldi	r22, 0x01	; 1
    4008:	80 e0       	ldi	r24, 0x00	; 0
    400a:	0e 94 26 08 	call	0x104c	; 0x104c <lcd_gotoxy>
	lcd_puti(ComfortMinTimeHour); lcd_puts_p(PSTR(":")); lcd_puti(ComfortMinTimeMinute);
    400e:	80 91 96 09 	lds	r24, 0x0996	; 0x800996 <ComfortMinTimeHour>
    4012:	90 e0       	ldi	r25, 0x00	; 0
    4014:	0e 94 2a 09 	call	0x1254	; 0x1254 <lcd_puti>
    4018:	88 e3       	ldi	r24, 0x38	; 56
    401a:	94 e0       	ldi	r25, 0x04	; 4
    401c:	0e 94 68 08 	call	0x10d0	; 0x10d0 <lcd_puts_p>
    4020:	80 91 bd 09 	lds	r24, 0x09BD	; 0x8009bd <ComfortMinTimeMinute>
    4024:	90 e0       	ldi	r25, 0x00	; 0
    4026:	0c 94 2a 09 	jmp	0x1254	; 0x1254 <lcd_puti>

0000402a <ComfortMinTime_ActionCallback>:
}

bool ComfortMinTime_ActionCallback(MENU_BUTTON *button, uint8_t column){
	switch(button->role){
    402a:	fc 01       	movw	r30, r24
    402c:	90 81       	ld	r25, Z
    402e:	91 30       	cpi	r25, 0x01	; 1
    4030:	39 f1       	breq	.+78     	; 0x4080 <ComfortMinTime_ActionCallback+0x56>
    4032:	a0 f0       	brcs	.+40     	; 0x405c <ComfortMinTime_ActionCallback+0x32>
    4034:	92 30       	cpi	r25, 0x02	; 2
    4036:	21 f0       	breq	.+8      	; 0x4040 <ComfortMinTime_ActionCallback+0x16>
    4038:	93 30       	cpi	r25, 0x03	; 3
    403a:	f1 f4       	brne	.+60     	; 0x4078 <ComfortMinTime_ActionCallback+0x4e>
		break;
		case MENU_CONFIRM:
			eeprom_update_byte(&eeComfortMinTimeHour, ComfortMinTimeHour);
			eeprom_update_byte(&eeComfortMinTimeMinute, ComfortMinTimeMinute);
		case MENU_CANCEL:
		return true;
    403c:	81 e0       	ldi	r24, 0x01	; 1
	}

	ComfortMinTime_CallbackRender(column);
	return false;
}
    403e:	08 95       	ret
				if (--ComfortMinTimeHour == 255)
					ComfortMinTimeHour = 23;
			}
		break;
		case MENU_CONFIRM:
			eeprom_update_byte(&eeComfortMinTimeHour, ComfortMinTimeHour);
    4040:	60 91 96 09 	lds	r22, 0x0996	; 0x800996 <ComfortMinTimeHour>
    4044:	82 e8       	ldi	r24, 0x82	; 130
    4046:	90 e0       	ldi	r25, 0x00	; 0
    4048:	0e 94 d5 33 	call	0x67aa	; 0x67aa <eeprom_update_byte>
			eeprom_update_byte(&eeComfortMinTimeMinute, ComfortMinTimeMinute);
    404c:	60 91 bd 09 	lds	r22, 0x09BD	; 0x8009bd <ComfortMinTimeMinute>
    4050:	81 e8       	ldi	r24, 0x81	; 129
    4052:	90 e0       	ldi	r25, 0x00	; 0
    4054:	0e 94 d5 33 	call	0x67aa	; 0x67aa <eeprom_update_byte>
		case MENU_CANCEL:
		return true;
    4058:	81 e0       	ldi	r24, 0x01	; 1
    405a:	08 95       	ret
}

bool ComfortMinTime_ActionCallback(MENU_BUTTON *button, uint8_t column){
	switch(button->role){
		case MENU_UP:
			if (++ComfortMinTimeMinute == 60)
    405c:	80 91 bd 09 	lds	r24, 0x09BD	; 0x8009bd <ComfortMinTimeMinute>
    4060:	8f 5f       	subi	r24, 0xFF	; 255
    4062:	8c 33       	cpi	r24, 0x3C	; 60
    4064:	89 f4       	brne	.+34     	; 0x4088 <ComfortMinTime_ActionCallback+0x5e>
			{
				ComfortMinTimeMinute = 0;
    4066:	10 92 bd 09 	sts	0x09BD, r1	; 0x8009bd <ComfortMinTimeMinute>
				if (++ComfortMinTimeHour == 24)
    406a:	80 91 96 09 	lds	r24, 0x0996	; 0x800996 <ComfortMinTimeHour>
    406e:	8f 5f       	subi	r24, 0xFF	; 255
    4070:	88 31       	cpi	r24, 0x18	; 24
    4072:	b9 f4       	brne	.+46     	; 0x40a2 <ComfortMinTime_ActionCallback+0x78>
				ComfortMinTimeHour = 0;
    4074:	10 92 96 09 	sts	0x0996, r1	; 0x800996 <ComfortMinTimeHour>
			eeprom_update_byte(&eeComfortMinTimeMinute, ComfortMinTimeMinute);
		case MENU_CANCEL:
		return true;
	}

	ComfortMinTime_CallbackRender(column);
    4078:	86 2f       	mov	r24, r22
    407a:	bf df       	rcall	.-130    	; 0x3ffa <ComfortMinTime_CallbackRender>
	return false;
    407c:	80 e0       	ldi	r24, 0x00	; 0
    407e:	08 95       	ret
				if (++ComfortMinTimeHour == 24)
				ComfortMinTimeHour = 0;
			}
		break;
		case MENU_DOWN:
			if (--ComfortMinTimeMinute == 255)
    4080:	80 91 bd 09 	lds	r24, 0x09BD	; 0x8009bd <ComfortMinTimeMinute>
    4084:	81 50       	subi	r24, 0x01	; 1
    4086:	30 f0       	brcs	.+12     	; 0x4094 <ComfortMinTime_ActionCallback+0x6a>
    4088:	80 93 bd 09 	sts	0x09BD, r24	; 0x8009bd <ComfortMinTimeMinute>
			eeprom_update_byte(&eeComfortMinTimeMinute, ComfortMinTimeMinute);
		case MENU_CANCEL:
		return true;
	}

	ComfortMinTime_CallbackRender(column);
    408c:	86 2f       	mov	r24, r22
    408e:	b5 df       	rcall	.-150    	; 0x3ffa <ComfortMinTime_CallbackRender>
	return false;
    4090:	80 e0       	ldi	r24, 0x00	; 0
    4092:	08 95       	ret
			}
		break;
		case MENU_DOWN:
			if (--ComfortMinTimeMinute == 255)
			{
				ComfortMinTimeMinute = 59;
    4094:	8b e3       	ldi	r24, 0x3B	; 59
    4096:	80 93 bd 09 	sts	0x09BD, r24	; 0x8009bd <ComfortMinTimeMinute>
				if (--ComfortMinTimeHour == 255)
    409a:	80 91 96 09 	lds	r24, 0x0996	; 0x800996 <ComfortMinTimeHour>
    409e:	81 50       	subi	r24, 0x01	; 1
    40a0:	18 f0       	brcs	.+6      	; 0x40a8 <ComfortMinTime_ActionCallback+0x7e>
					ComfortMinTimeHour = 23;
    40a2:	80 93 96 09 	sts	0x0996, r24	; 0x800996 <ComfortMinTimeHour>
    40a6:	e8 cf       	rjmp	.-48     	; 0x4078 <ComfortMinTime_ActionCallback+0x4e>
    40a8:	87 e1       	ldi	r24, 0x17	; 23
    40aa:	fb cf       	rjmp	.-10     	; 0x40a2 <ComfortMinTime_ActionCallback+0x78>

000040ac <ComfortMaxTime_CallbackRender>:
	ComfortMinTime_CallbackRender(column);
	return false;
}

void ComfortMaxTime_CallbackRender(uint8_t which){
	lcd_clrscr();
    40ac:	0e 94 46 08 	call	0x108c	; 0x108c <lcd_clrscr>
	lcd_puts_hu(PSTR("Max idõ"));
    40b0:	80 e3       	ldi	r24, 0x30	; 48
    40b2:	94 e0       	ldi	r25, 0x04	; 4
    40b4:	0e 94 7c 09 	call	0x12f8	; 0x12f8 <lcd_puts_hu>
	lcd_gotoxy(0,1);	
    40b8:	61 e0       	ldi	r22, 0x01	; 1
    40ba:	80 e0       	ldi	r24, 0x00	; 0
    40bc:	0e 94 26 08 	call	0x104c	; 0x104c <lcd_gotoxy>
	lcd_puti(ComfortMaxTimeHour); lcd_puts_p(PSTR(":")); lcd_puti(ComfortMaxTimeMinute);
    40c0:	80 91 17 09 	lds	r24, 0x0917	; 0x800917 <ComfortMaxTimeHour>
    40c4:	90 e0       	ldi	r25, 0x00	; 0
    40c6:	0e 94 2a 09 	call	0x1254	; 0x1254 <lcd_puti>
    40ca:	8e e2       	ldi	r24, 0x2E	; 46
    40cc:	94 e0       	ldi	r25, 0x04	; 4
    40ce:	0e 94 68 08 	call	0x10d0	; 0x10d0 <lcd_puts_p>
    40d2:	80 91 37 09 	lds	r24, 0x0937	; 0x800937 <ComfortMaxTimeMinute>
    40d6:	90 e0       	ldi	r25, 0x00	; 0
    40d8:	0c 94 2a 09 	jmp	0x1254	; 0x1254 <lcd_puti>

000040dc <ComfortMaxTime_ActionCallback>:
}

bool ComfortMaxTime_ActionCallback(MENU_BUTTON *button, uint8_t column){
	switch(button->role){
    40dc:	fc 01       	movw	r30, r24
    40de:	90 81       	ld	r25, Z
    40e0:	91 30       	cpi	r25, 0x01	; 1
    40e2:	39 f1       	breq	.+78     	; 0x4132 <ComfortMaxTime_ActionCallback+0x56>
    40e4:	a0 f0       	brcs	.+40     	; 0x410e <ComfortMaxTime_ActionCallback+0x32>
    40e6:	92 30       	cpi	r25, 0x02	; 2
    40e8:	21 f0       	breq	.+8      	; 0x40f2 <ComfortMaxTime_ActionCallback+0x16>
    40ea:	93 30       	cpi	r25, 0x03	; 3
    40ec:	f1 f4       	brne	.+60     	; 0x412a <ComfortMaxTime_ActionCallback+0x4e>
		break;
		case MENU_CONFIRM:
			eeprom_update_byte(&eeComfortMaxTimeHour, ComfortMaxTimeHour);
			eeprom_update_byte(&eeComfortMaxTimeMinute, ComfortMaxTimeMinute);
		case MENU_CANCEL:
		return true;
    40ee:	81 e0       	ldi	r24, 0x01	; 1
	}

	ComfortMaxTime_CallbackRender(column);
	return false;
}
    40f0:	08 95       	ret
				if (--ComfortMaxTimeHour == 255)
					ComfortMaxTimeHour = 23;
			}
		break;
		case MENU_CONFIRM:
			eeprom_update_byte(&eeComfortMaxTimeHour, ComfortMaxTimeHour);
    40f2:	60 91 17 09 	lds	r22, 0x0917	; 0x800917 <ComfortMaxTimeHour>
    40f6:	84 e8       	ldi	r24, 0x84	; 132
    40f8:	90 e0       	ldi	r25, 0x00	; 0
    40fa:	0e 94 d5 33 	call	0x67aa	; 0x67aa <eeprom_update_byte>
			eeprom_update_byte(&eeComfortMaxTimeMinute, ComfortMaxTimeMinute);
    40fe:	60 91 37 09 	lds	r22, 0x0937	; 0x800937 <ComfortMaxTimeMinute>
    4102:	83 e8       	ldi	r24, 0x83	; 131
    4104:	90 e0       	ldi	r25, 0x00	; 0
    4106:	0e 94 d5 33 	call	0x67aa	; 0x67aa <eeprom_update_byte>
		case MENU_CANCEL:
		return true;
    410a:	81 e0       	ldi	r24, 0x01	; 1
    410c:	08 95       	ret
}

bool ComfortMaxTime_ActionCallback(MENU_BUTTON *button, uint8_t column){
	switch(button->role){
		case MENU_UP:
		if (++ComfortMaxTimeMinute == 60)
    410e:	80 91 37 09 	lds	r24, 0x0937	; 0x800937 <ComfortMaxTimeMinute>
    4112:	8f 5f       	subi	r24, 0xFF	; 255
    4114:	8c 33       	cpi	r24, 0x3C	; 60
    4116:	89 f4       	brne	.+34     	; 0x413a <ComfortMaxTime_ActionCallback+0x5e>
		{
			ComfortMaxTimeMinute = 0;
    4118:	10 92 37 09 	sts	0x0937, r1	; 0x800937 <ComfortMaxTimeMinute>
			if (++ComfortMaxTimeHour == 24)
    411c:	80 91 17 09 	lds	r24, 0x0917	; 0x800917 <ComfortMaxTimeHour>
    4120:	8f 5f       	subi	r24, 0xFF	; 255
    4122:	88 31       	cpi	r24, 0x18	; 24
    4124:	b9 f4       	brne	.+46     	; 0x4154 <ComfortMaxTime_ActionCallback+0x78>
			ComfortMaxTimeHour = 0;
    4126:	10 92 17 09 	sts	0x0917, r1	; 0x800917 <ComfortMaxTimeHour>
			eeprom_update_byte(&eeComfortMaxTimeMinute, ComfortMaxTimeMinute);
		case MENU_CANCEL:
		return true;
	}

	ComfortMaxTime_CallbackRender(column);
    412a:	86 2f       	mov	r24, r22
    412c:	bf df       	rcall	.-130    	; 0x40ac <ComfortMaxTime_CallbackRender>
	return false;
    412e:	80 e0       	ldi	r24, 0x00	; 0
    4130:	08 95       	ret
			if (++ComfortMaxTimeHour == 24)
			ComfortMaxTimeHour = 0;
		}
		break;
		case MENU_DOWN:
			if (--ComfortMaxTimeMinute == 255)
    4132:	80 91 37 09 	lds	r24, 0x0937	; 0x800937 <ComfortMaxTimeMinute>
    4136:	81 50       	subi	r24, 0x01	; 1
    4138:	30 f0       	brcs	.+12     	; 0x4146 <ComfortMaxTime_ActionCallback+0x6a>
    413a:	80 93 37 09 	sts	0x0937, r24	; 0x800937 <ComfortMaxTimeMinute>
			eeprom_update_byte(&eeComfortMaxTimeMinute, ComfortMaxTimeMinute);
		case MENU_CANCEL:
		return true;
	}

	ComfortMaxTime_CallbackRender(column);
    413e:	86 2f       	mov	r24, r22
    4140:	b5 df       	rcall	.-150    	; 0x40ac <ComfortMaxTime_CallbackRender>
	return false;
    4142:	80 e0       	ldi	r24, 0x00	; 0
    4144:	08 95       	ret
		}
		break;
		case MENU_DOWN:
			if (--ComfortMaxTimeMinute == 255)
			{
				ComfortMaxTimeMinute = 59;
    4146:	8b e3       	ldi	r24, 0x3B	; 59
    4148:	80 93 37 09 	sts	0x0937, r24	; 0x800937 <ComfortMaxTimeMinute>
				if (--ComfortMaxTimeHour == 255)
    414c:	80 91 17 09 	lds	r24, 0x0917	; 0x800917 <ComfortMaxTimeHour>
    4150:	81 50       	subi	r24, 0x01	; 1
    4152:	18 f0       	brcs	.+6      	; 0x415a <ComfortMaxTime_ActionCallback+0x7e>
					ComfortMaxTimeHour = 23;
    4154:	80 93 17 09 	sts	0x0917, r24	; 0x800917 <ComfortMaxTimeHour>
    4158:	e8 cf       	rjmp	.-48     	; 0x412a <ComfortMaxTime_ActionCallback+0x4e>
    415a:	87 e1       	ldi	r24, 0x17	; 23
    415c:	fb cf       	rjmp	.-10     	; 0x4154 <ComfortMaxTime_ActionCallback+0x78>

0000415e <Wood_CallbackRender>:

/*************************************************************************
 Menu Wood, submenu definitions
*************************************************************************/
void Wood_CallbackRender(uint8_t which)
{
    415e:	cf 93       	push	r28
    4160:	df 93       	push	r29
    4162:	c8 2f       	mov	r28, r24
	lcd_clrscr();
    4164:	0e 94 46 08 	call	0x108c	; 0x108c <lcd_clrscr>
	lcd_puts_hu(PSTR("Vegyes kazán "));
    4168:	8e e9       	ldi	r24, 0x9E	; 158
    416a:	98 e0       	ldi	r25, 0x08	; 8
    416c:	0e 94 7c 09 	call	0x12f8	; 0x12f8 <lcd_puts_hu>
	lcd_gotoxy(13,0);
    4170:	60 e0       	ldi	r22, 0x00	; 0
    4172:	8d e0       	ldi	r24, 0x0D	; 13
    4174:	0e 94 26 08 	call	0x104c	; 0x104c <lcd_gotoxy>
	switch (which)
    4178:	8c 2f       	mov	r24, r28
    417a:	90 e0       	ldi	r25, 0x00	; 0
    417c:	87 30       	cpi	r24, 0x07	; 7
    417e:	91 05       	cpc	r25, r1
    4180:	18 f0       	brcs	.+6      	; 0x4188 <Wood_CallbackRender+0x2a>
				lcd_putbyte_hex(Wood.SensorID[i]);
			}
		break;
	}
	
}
    4182:	df 91       	pop	r29
    4184:	cf 91       	pop	r28
    4186:	08 95       	ret
void Wood_CallbackRender(uint8_t which)
{
	lcd_clrscr();
	lcd_puts_hu(PSTR("Vegyes kazán "));
	lcd_gotoxy(13,0);
	switch (which)
    4188:	fc 01       	movw	r30, r24
    418a:	ed 55       	subi	r30, 0x5D	; 93
    418c:	ff 4f       	sbci	r31, 0xFF	; 255
    418e:	0c 94 a7 30 	jmp	0x614e	; 0x614e <__tablejump2__>
			lcd_gotoxy(0,1);
			lcd_puti(WoodToPut);
		break;
		
		case 5:
			lcd_puts_hu(PSTR("hõm r."));
    4192:	84 e6       	ldi	r24, 0x64	; 100
    4194:	98 e0       	ldi	r25, 0x08	; 8
    4196:	0e 94 7c 09 	call	0x12f8	; 0x12f8 <lcd_puts_hu>
			lcd_gotoxy(0,1);
    419a:	61 e0       	ldi	r22, 0x01	; 1
    419c:	80 e0       	ldi	r24, 0x00	; 0
    419e:	0e 94 26 08 	call	0x104c	; 0x104c <lcd_gotoxy>
			lcd_puti(WoodTempAlert);		
    41a2:	80 91 79 09 	lds	r24, 0x0979	; 0x800979 <WoodTempAlert>
    41a6:	90 e0       	ldi	r25, 0x00	; 0
				lcd_putbyte_hex(Wood.SensorID[i]);
			}
		break;
	}
	
}
    41a8:	df 91       	pop	r29
    41aa:	cf 91       	pop	r28
		break;
		
		case 5:
			lcd_puts_hu(PSTR("hõm r."));
			lcd_gotoxy(0,1);
			lcd_puti(WoodTempAlert);		
    41ac:	0c 94 2a 09 	jmp	0x1254	; 0x1254 <lcd_puti>
		break;
		
		case 6:
			lcd_gotoxy(12,0);
    41b0:	60 e0       	ldi	r22, 0x00	; 0
    41b2:	8c e0       	ldi	r24, 0x0C	; 12
    41b4:	0e 94 26 08 	call	0x104c	; 0x104c <lcd_gotoxy>
			lcd_puts_hu(PSTR("ID"));
    41b8:	81 e6       	ldi	r24, 0x61	; 97
    41ba:	98 e0       	ldi	r25, 0x08	; 8
    41bc:	0e 94 7c 09 	call	0x12f8	; 0x12f8 <lcd_puts_hu>
			lcd_gotoxy(0,1);
    41c0:	61 e0       	ldi	r22, 0x01	; 1
    41c2:	80 e0       	ldi	r24, 0x00	; 0
    41c4:	0e 94 26 08 	call	0x104c	; 0x104c <lcd_gotoxy>
    41c8:	c2 ea       	ldi	r28, 0xA2	; 162
    41ca:	da e0       	ldi	r29, 0x0A	; 10
			for (uint8_t i = 0; i < OW_ROMCODE_SIZE; i++)
			{
				lcd_putbyte_hex(Wood.SensorID[i]);
    41cc:	89 91       	ld	r24, Y+
    41ce:	0e 94 d4 08 	call	0x11a8	; 0x11a8 <lcd_putbyte_hex>
		
		case 6:
			lcd_gotoxy(12,0);
			lcd_puts_hu(PSTR("ID"));
			lcd_gotoxy(0,1);
			for (uint8_t i = 0; i < OW_ROMCODE_SIZE; i++)
    41d2:	8a e0       	ldi	r24, 0x0A	; 10
    41d4:	ca 3a       	cpi	r28, 0xAA	; 170
    41d6:	d8 07       	cpc	r29, r24
    41d8:	c9 f7       	brne	.-14     	; 0x41cc <Wood_CallbackRender+0x6e>
				lcd_putbyte_hex(Wood.SensorID[i]);
			}
		break;
	}
	
}
    41da:	df 91       	pop	r29
    41dc:	cf 91       	pop	r28
    41de:	08 95       	ret
	lcd_puts_hu(PSTR("Vegyes kazán "));
	lcd_gotoxy(13,0);
	switch (which)
	{
		case 0:
			lcd_puts_hu(PSTR("hõm"));
    41e0:	8a e9       	ldi	r24, 0x9A	; 154
    41e2:	98 e0       	ldi	r25, 0x08	; 8
    41e4:	0e 94 7c 09 	call	0x12f8	; 0x12f8 <lcd_puts_hu>
			lcd_gotoxy(0,1);
    41e8:	61 e0       	ldi	r22, 0x01	; 1
    41ea:	80 e0       	ldi	r24, 0x00	; 0
    41ec:	0e 94 26 08 	call	0x104c	; 0x104c <lcd_gotoxy>
			lcd_puts(Wood.ActualTempBuffer); lcd_puts_p(PSTR(".")); lcd_puts(Wood.ActualTempFracBuffer); lcd_puts_p(PSTR(" C"));
    41f0:	8c e9       	ldi	r24, 0x9C	; 156
    41f2:	9a e0       	ldi	r25, 0x0A	; 10
    41f4:	0e 94 1b 09 	call	0x1236	; 0x1236 <lcd_puts>
    41f8:	88 e9       	ldi	r24, 0x98	; 152
    41fa:	98 e0       	ldi	r25, 0x08	; 8
    41fc:	0e 94 68 08 	call	0x10d0	; 0x10d0 <lcd_puts_p>
    4200:	80 ea       	ldi	r24, 0xA0	; 160
    4202:	9a e0       	ldi	r25, 0x0A	; 10
    4204:	0e 94 1b 09 	call	0x1236	; 0x1236 <lcd_puts>
    4208:	85 e9       	ldi	r24, 0x95	; 149
    420a:	98 e0       	ldi	r25, 0x08	; 8
				lcd_putbyte_hex(Wood.SensorID[i]);
			}
		break;
	}
	
}
    420c:	df 91       	pop	r29
    420e:	cf 91       	pop	r28
	switch (which)
	{
		case 0:
			lcd_puts_hu(PSTR("hõm"));
			lcd_gotoxy(0,1);
			lcd_puts(Wood.ActualTempBuffer); lcd_puts_p(PSTR(".")); lcd_puts(Wood.ActualTempFracBuffer); lcd_puts_p(PSTR(" C"));
    4210:	0c 94 68 08 	jmp	0x10d0	; 0x10d0 <lcd_puts_p>
		break;
		
		case 1:
			lcd_puts_hu(PSTR("nyomás"));
    4214:	8e e8       	ldi	r24, 0x8E	; 142
    4216:	98 e0       	ldi	r25, 0x08	; 8
    4218:	0e 94 7c 09 	call	0x12f8	; 0x12f8 <lcd_puts_hu>
			
			lcd_gotoxy(0,1);
    421c:	61 e0       	ldi	r22, 0x01	; 1
    421e:	80 e0       	ldi	r24, 0x00	; 0
    4220:	0e 94 26 08 	call	0x104c	; 0x104c <lcd_gotoxy>
			lcd_puts_hu(PSTR("elõtt"));
    4224:	88 e8       	ldi	r24, 0x88	; 136
    4226:	98 e0       	ldi	r25, 0x08	; 8
    4228:	0e 94 7c 09 	call	0x12f8	; 0x12f8 <lcd_puts_hu>
			lcd_gotoxy(10,1);
    422c:	61 e0       	ldi	r22, 0x01	; 1
    422e:	8a e0       	ldi	r24, 0x0A	; 10
    4230:	0e 94 26 08 	call	0x104c	; 0x104c <lcd_gotoxy>
			lcd_puti16(WoodPressureBefore);
    4234:	80 91 19 09 	lds	r24, 0x0919	; 0x800919 <WoodPressureBefore>
    4238:	90 91 1a 09 	lds	r25, 0x091A	; 0x80091a <WoodPressureBefore+0x1>
    423c:	0e 94 56 09 	call	0x12ac	; 0x12ac <lcd_puti16>
			
			lcd_gotoxy(0,2);
    4240:	62 e0       	ldi	r22, 0x02	; 2
    4242:	80 e0       	ldi	r24, 0x00	; 0
    4244:	0e 94 26 08 	call	0x104c	; 0x104c <lcd_gotoxy>
			lcd_puts_hu(PSTR("után"));
    4248:	83 e8       	ldi	r24, 0x83	; 131
    424a:	98 e0       	ldi	r25, 0x08	; 8
    424c:	0e 94 7c 09 	call	0x12f8	; 0x12f8 <lcd_puts_hu>
			lcd_gotoxy(10,2);
    4250:	62 e0       	ldi	r22, 0x02	; 2
    4252:	8a e0       	ldi	r24, 0x0A	; 10
    4254:	0e 94 26 08 	call	0x104c	; 0x104c <lcd_gotoxy>
			lcd_puti16(WoodPressureAfter);
    4258:	80 91 f4 09 	lds	r24, 0x09F4	; 0x8009f4 <WoodPressureAfter>
    425c:	90 91 f5 09 	lds	r25, 0x09F5	; 0x8009f5 <WoodPressureAfter+0x1>
				lcd_putbyte_hex(Wood.SensorID[i]);
			}
		break;
	}
	
}
    4260:	df 91       	pop	r29
    4262:	cf 91       	pop	r28
			lcd_puti16(WoodPressureBefore);
			
			lcd_gotoxy(0,2);
			lcd_puts_hu(PSTR("után"));
			lcd_gotoxy(10,2);
			lcd_puti16(WoodPressureAfter);
    4264:	0c 94 56 09 	jmp	0x12ac	; 0x12ac <lcd_puti16>
			
		break;
		
		case 2:
			lcd_puts_hu(PSTR("sziv dt"));
    4268:	8b e7       	ldi	r24, 0x7B	; 123
    426a:	98 e0       	ldi	r25, 0x08	; 8
    426c:	0e 94 7c 09 	call	0x12f8	; 0x12f8 <lcd_puts_hu>
			lcd_gotoxy(0,1);
    4270:	61 e0       	ldi	r22, 0x01	; 1
    4272:	80 e0       	ldi	r24, 0x00	; 0
    4274:	0e 94 26 08 	call	0x104c	; 0x104c <lcd_gotoxy>
			lcd_puti(WoodDelta); lcd_puts_p(PSTR(" C"));
    4278:	80 91 31 09 	lds	r24, 0x0931	; 0x800931 <WoodDelta>
    427c:	90 e0       	ldi	r25, 0x00	; 0
    427e:	0e 94 2a 09 	call	0x1254	; 0x1254 <lcd_puti>
    4282:	88 e7       	ldi	r24, 0x78	; 120
    4284:	98 e0       	ldi	r25, 0x08	; 8
				lcd_putbyte_hex(Wood.SensorID[i]);
			}
		break;
	}
	
}
    4286:	df 91       	pop	r29
    4288:	cf 91       	pop	r28
		break;
		
		case 2:
			lcd_puts_hu(PSTR("sziv dt"));
			lcd_gotoxy(0,1);
			lcd_puti(WoodDelta); lcd_puts_p(PSTR(" C"));
    428a:	0c 94 68 08 	jmp	0x10d0	; 0x10d0 <lcd_puts_p>
		break;
		
		case 3:
			lcd_puts_hu(PSTR("nyom r"));
    428e:	81 e7       	ldi	r24, 0x71	; 113
    4290:	98 e0       	ldi	r25, 0x08	; 8
    4292:	0e 94 7c 09 	call	0x12f8	; 0x12f8 <lcd_puts_hu>
			lcd_gotoxy(0,1);
    4296:	61 e0       	ldi	r22, 0x01	; 1
    4298:	80 e0       	ldi	r24, 0x00	; 0
    429a:	0e 94 26 08 	call	0x104c	; 0x104c <lcd_gotoxy>
			lcd_puti16(WoodPressureAlert);
    429e:	80 91 72 0a 	lds	r24, 0x0A72	; 0x800a72 <WoodPressureAlert>
    42a2:	90 91 73 0a 	lds	r25, 0x0A73	; 0x800a73 <WoodPressureAlert+0x1>
				lcd_putbyte_hex(Wood.SensorID[i]);
			}
		break;
	}
	
}
    42a6:	df 91       	pop	r29
    42a8:	cf 91       	pop	r28
		break;
		
		case 3:
			lcd_puts_hu(PSTR("nyom r"));
			lcd_gotoxy(0,1);
			lcd_puti16(WoodPressureAlert);
    42aa:	0c 94 56 09 	jmp	0x12ac	; 0x12ac <lcd_puti16>
		break;
		
		case 4:
			lcd_puts_hu(PSTR("rárak"));
    42ae:	8b e6       	ldi	r24, 0x6B	; 107
    42b0:	98 e0       	ldi	r25, 0x08	; 8
    42b2:	0e 94 7c 09 	call	0x12f8	; 0x12f8 <lcd_puts_hu>
			lcd_gotoxy(0,1);
    42b6:	61 e0       	ldi	r22, 0x01	; 1
    42b8:	80 e0       	ldi	r24, 0x00	; 0
    42ba:	0e 94 26 08 	call	0x104c	; 0x104c <lcd_gotoxy>
			lcd_puti(WoodToPut);
    42be:	80 91 aa 09 	lds	r24, 0x09AA	; 0x8009aa <WoodToPut>
		break;
		
		case 5:
			lcd_puts_hu(PSTR("hõm r."));
			lcd_gotoxy(0,1);
			lcd_puti(WoodTempAlert);		
    42c2:	90 e0       	ldi	r25, 0x00	; 0
				lcd_putbyte_hex(Wood.SensorID[i]);
			}
		break;
	}
	
}
    42c4:	df 91       	pop	r29
    42c6:	cf 91       	pop	r28
		break;
		
		case 5:
			lcd_puts_hu(PSTR("hõm r."));
			lcd_gotoxy(0,1);
			lcd_puti(WoodTempAlert);		
    42c8:	0c 94 2a 09 	jmp	0x1254	; 0x1254 <lcd_puti>

000042cc <DHWSensor_CallbackRender>:

	DHWTempMin_CallbackRender(column);
	return false;
}

void DHWSensor_CallbackRender(uint8_t which){
    42cc:	cf 93       	push	r28
    42ce:	df 93       	push	r29
	lcd_clrscr();
    42d0:	0e 94 46 08 	call	0x108c	; 0x108c <lcd_clrscr>
	lcd_puts_hu(PSTR("HMV szenzor ID"));
    42d4:	81 e2       	ldi	r24, 0x21	; 33
    42d6:	98 e0       	ldi	r25, 0x08	; 8
    42d8:	0e 94 7c 09 	call	0x12f8	; 0x12f8 <lcd_puts_hu>
	lcd_gotoxy(0,1);
    42dc:	61 e0       	ldi	r22, 0x01	; 1
    42de:	80 e0       	ldi	r24, 0x00	; 0
    42e0:	0e 94 26 08 	call	0x104c	; 0x104c <lcd_gotoxy>
    42e4:	c5 eb       	ldi	r28, 0xB5	; 181
    42e6:	d9 e0       	ldi	r29, 0x09	; 9
	//char buf[4];
	//itoa(DHW.SensorID, buf, 10);
	for (uint8_t i = 0; i < OW_ROMCODE_SIZE; i++)
	{
		lcd_putbyte_hex(DHW.SensorID[i]);
    42e8:	89 91       	ld	r24, Y+
    42ea:	0e 94 d4 08 	call	0x11a8	; 0x11a8 <lcd_putbyte_hex>
	lcd_clrscr();
	lcd_puts_hu(PSTR("HMV szenzor ID"));
	lcd_gotoxy(0,1);
	//char buf[4];
	//itoa(DHW.SensorID, buf, 10);
	for (uint8_t i = 0; i < OW_ROMCODE_SIZE; i++)
    42ee:	89 e0       	ldi	r24, 0x09	; 9
    42f0:	cd 3b       	cpi	r28, 0xBD	; 189
    42f2:	d8 07       	cpc	r29, r24
    42f4:	c9 f7       	brne	.-14     	; 0x42e8 <DHWSensor_CallbackRender+0x1c>
	{
		lcd_putbyte_hex(DHW.SensorID[i]);
	}
	
}
    42f6:	df 91       	pop	r29
    42f8:	cf 91       	pop	r28
    42fa:	08 95       	ret

000042fc <BufferSensor_CallbackRender>:

	ForwardHeatTemp_CallbackRender(column);
	return false;
}

void BufferSensor_CallbackRender(uint8_t which){
    42fc:	cf 93       	push	r28
    42fe:	df 93       	push	r29
	lcd_clrscr();
    4300:	0e 94 46 08 	call	0x108c	; 0x108c <lcd_clrscr>
	lcd_puts_hu(PSTR("Puffer szenzor ID"));
    4304:	8b e7       	ldi	r24, 0x7B	; 123
    4306:	97 e0       	ldi	r25, 0x07	; 7
    4308:	0e 94 7c 09 	call	0x12f8	; 0x12f8 <lcd_puts_hu>
	lcd_gotoxy(0,1);
    430c:	61 e0       	ldi	r22, 0x01	; 1
    430e:	80 e0       	ldi	r24, 0x00	; 0
    4310:	0e 94 26 08 	call	0x104c	; 0x104c <lcd_gotoxy>
    4314:	cb ee       	ldi	r28, 0xEB	; 235
    4316:	d9 e0       	ldi	r29, 0x09	; 9
	for (uint8_t i = 0; i < OW_ROMCODE_SIZE; i++)
	{
		lcd_putbyte_hex(Buffer.SensorID[i]);
    4318:	89 91       	ld	r24, Y+
    431a:	0e 94 d4 08 	call	0x11a8	; 0x11a8 <lcd_putbyte_hex>

void BufferSensor_CallbackRender(uint8_t which){
	lcd_clrscr();
	lcd_puts_hu(PSTR("Puffer szenzor ID"));
	lcd_gotoxy(0,1);
	for (uint8_t i = 0; i < OW_ROMCODE_SIZE; i++)
    431e:	89 e0       	ldi	r24, 0x09	; 9
    4320:	c3 3f       	cpi	r28, 0xF3	; 243
    4322:	d8 07       	cpc	r29, r24
    4324:	c9 f7       	brne	.-14     	; 0x4318 <BufferSensor_CallbackRender+0x1c>
	{
		lcd_putbyte_hex(Buffer.SensorID[i]);
	}
}
    4326:	df 91       	pop	r29
    4328:	cf 91       	pop	r28
    432a:	08 95       	ret

0000432c <EngineeringSensor_CallbackRender>:
	}
	EngineeringTempDesired_CallbackRender(column);
	return false;
}

void EngineeringSensor_CallbackRender(uint8_t which){
    432c:	cf 93       	push	r28
    432e:	df 93       	push	r29
	lcd_clrscr();
    4330:	0e 94 46 08 	call	0x108c	; 0x108c <lcd_clrscr>
	lcd_puts_hu(PSTR("Gépház szenzor ID"));
    4334:	8f e2       	ldi	r24, 0x2F	; 47
    4336:	97 e0       	ldi	r25, 0x07	; 7
    4338:	0e 94 7c 09 	call	0x12f8	; 0x12f8 <lcd_puts_hu>
	lcd_gotoxy(0,1);
    433c:	61 e0       	ldi	r22, 0x01	; 1
    433e:	80 e0       	ldi	r24, 0x00	; 0
    4340:	0e 94 26 08 	call	0x104c	; 0x104c <lcd_gotoxy>
    4344:	cf e5       	ldi	r28, 0x5F	; 95
    4346:	d9 e0       	ldi	r29, 0x09	; 9
	for (uint8_t i = 0; i < OW_ROMCODE_SIZE; i++)
	{
		lcd_putbyte_hex(Engineering.SensorID[i]);
    4348:	89 91       	ld	r24, Y+
    434a:	0e 94 d4 08 	call	0x11a8	; 0x11a8 <lcd_putbyte_hex>

void EngineeringSensor_CallbackRender(uint8_t which){
	lcd_clrscr();
	lcd_puts_hu(PSTR("Gépház szenzor ID"));
	lcd_gotoxy(0,1);
	for (uint8_t i = 0; i < OW_ROMCODE_SIZE; i++)
    434e:	89 e0       	ldi	r24, 0x09	; 9
    4350:	c7 36       	cpi	r28, 0x67	; 103
    4352:	d8 07       	cpc	r29, r24
    4354:	c9 f7       	brne	.-14     	; 0x4348 <EngineeringSensor_CallbackRender+0x1c>
	{
		lcd_putbyte_hex(Engineering.SensorID[i]);
	}
}
    4356:	df 91       	pop	r29
    4358:	cf 91       	pop	r28
    435a:	08 95       	ret

0000435c <GarageSensor_CallbackRender>:
	lcd_puts(buffer); lcd_puts_p(PSTR("/"));
	itoa(Garage.MeasuredMaximumTemp, buffer, 10);
	lcd_puts(buffer); lcd_puts_p(PSTR(" C"));
}

void GarageSensor_CallbackRender(uint8_t which){
    435c:	cf 93       	push	r28
    435e:	df 93       	push	r29
	lcd_clrscr();
    4360:	0e 94 46 08 	call	0x108c	; 0x108c <lcd_clrscr>
	lcd_puts_hu(PSTR("Garázs szenzor ID"));
    4364:	80 e7       	ldi	r24, 0x70	; 112
    4366:	96 e0       	ldi	r25, 0x06	; 6
    4368:	0e 94 7c 09 	call	0x12f8	; 0x12f8 <lcd_puts_hu>
	lcd_gotoxy(0,1);
    436c:	61 e0       	ldi	r22, 0x01	; 1
    436e:	80 e0       	ldi	r24, 0x00	; 0
    4370:	0e 94 26 08 	call	0x104c	; 0x104c <lcd_gotoxy>
    4374:	c4 e4       	ldi	r28, 0x44	; 68
    4376:	d9 e0       	ldi	r29, 0x09	; 9
	for (uint8_t i = 0; i < OW_ROMCODE_SIZE; i++)
	{
		lcd_putbyte_hex(Garage.SensorID[i]);
    4378:	89 91       	ld	r24, Y+
    437a:	0e 94 d4 08 	call	0x11a8	; 0x11a8 <lcd_putbyte_hex>

void GarageSensor_CallbackRender(uint8_t which){
	lcd_clrscr();
	lcd_puts_hu(PSTR("Garázs szenzor ID"));
	lcd_gotoxy(0,1);
	for (uint8_t i = 0; i < OW_ROMCODE_SIZE; i++)
    437e:	89 e0       	ldi	r24, 0x09	; 9
    4380:	cc 34       	cpi	r28, 0x4C	; 76
    4382:	d8 07       	cpc	r29, r24
    4384:	c9 f7       	brne	.-14     	; 0x4378 <GarageSensor_CallbackRender+0x1c>
	{
		lcd_putbyte_hex(Garage.SensorID[i]);
	}
}
    4386:	df 91       	pop	r29
    4388:	cf 91       	pop	r28
    438a:	08 95       	ret

0000438c <LivingRoomSensor_CallbackRender>:
	lcd_puts(buffer); lcd_puts_p(PSTR("/"));
	itoa(LivingRoom.MeasuredMaximumTemp, buffer, 10);
	lcd_puts(buffer); lcd_puts_p(PSTR(" C"));
}

void LivingRoomSensor_CallbackRender(uint8_t which){
    438c:	cf 93       	push	r28
    438e:	df 93       	push	r29
	lcd_clrscr();
    4390:	0e 94 46 08 	call	0x108c	; 0x108c <lcd_clrscr>
	lcd_puts_hu(PSTR("Nappali szenzor ID"));
    4394:	83 e4       	ldi	r24, 0x43	; 67
    4396:	96 e0       	ldi	r25, 0x06	; 6
    4398:	0e 94 7c 09 	call	0x12f8	; 0x12f8 <lcd_puts_hu>
	lcd_gotoxy(0,1);
    439c:	61 e0       	ldi	r22, 0x01	; 1
    439e:	80 e0       	ldi	r24, 0x00	; 0
    43a0:	0e 94 26 08 	call	0x104c	; 0x104c <lcd_gotoxy>
    43a4:	ce e7       	ldi	r28, 0x7E	; 126
    43a6:	da e0       	ldi	r29, 0x0A	; 10
	for (uint8_t i = 0; i < OW_ROMCODE_SIZE; i++)
	{
		lcd_putbyte_hex(LivingRoom.SensorID[i]);
    43a8:	89 91       	ld	r24, Y+
    43aa:	0e 94 d4 08 	call	0x11a8	; 0x11a8 <lcd_putbyte_hex>

void LivingRoomSensor_CallbackRender(uint8_t which){
	lcd_clrscr();
	lcd_puts_hu(PSTR("Nappali szenzor ID"));
	lcd_gotoxy(0,1);
	for (uint8_t i = 0; i < OW_ROMCODE_SIZE; i++)
    43ae:	8a e0       	ldi	r24, 0x0A	; 10
    43b0:	c6 38       	cpi	r28, 0x86	; 134
    43b2:	d8 07       	cpc	r29, r24
    43b4:	c9 f7       	brne	.-14     	; 0x43a8 <LivingRoomSensor_CallbackRender+0x1c>
	{
		lcd_putbyte_hex(LivingRoom.SensorID[i]);
	}
}
    43b6:	df 91       	pop	r29
    43b8:	cf 91       	pop	r28
    43ba:	08 95       	ret

000043bc <FloorSensor_CallbackRender>:
	lcd_puts(buffer); lcd_puts_p(PSTR("/"));
	itoa(Floor.MeasuredMaximumTemp, buffer, 10);
	lcd_puts(buffer); lcd_puts_p(PSTR(" C"));
}

void FloorSensor_CallbackRender(uint8_t which){
    43bc:	cf 93       	push	r28
    43be:	df 93       	push	r29
	lcd_clrscr();
    43c0:	0e 94 46 08 	call	0x108c	; 0x108c <lcd_clrscr>
	lcd_puts_hu(PSTR("Padló szenzor ID"));
    43c4:	8a e1       	ldi	r24, 0x1A	; 26
    43c6:	96 e0       	ldi	r25, 0x06	; 6
    43c8:	0e 94 7c 09 	call	0x12f8	; 0x12f8 <lcd_puts_hu>
	lcd_gotoxy(0,1);
    43cc:	61 e0       	ldi	r22, 0x01	; 1
    43ce:	80 e0       	ldi	r24, 0x00	; 0
    43d0:	0e 94 26 08 	call	0x104c	; 0x104c <lcd_gotoxy>
    43d4:	c2 ea       	ldi	r28, 0xA2	; 162
    43d6:	d9 e0       	ldi	r29, 0x09	; 9
	for (uint8_t i = 0; i < OW_ROMCODE_SIZE; i++)
	{
		lcd_putbyte_hex(Floor.SensorID[i]);
    43d8:	89 91       	ld	r24, Y+
    43da:	0e 94 d4 08 	call	0x11a8	; 0x11a8 <lcd_putbyte_hex>

void FloorSensor_CallbackRender(uint8_t which){
	lcd_clrscr();
	lcd_puts_hu(PSTR("Padló szenzor ID"));
	lcd_gotoxy(0,1);
	for (uint8_t i = 0; i < OW_ROMCODE_SIZE; i++)
    43de:	89 e0       	ldi	r24, 0x09	; 9
    43e0:	ca 3a       	cpi	r28, 0xAA	; 170
    43e2:	d8 07       	cpc	r29, r24
    43e4:	c9 f7       	brne	.-14     	; 0x43d8 <FloorSensor_CallbackRender+0x1c>
	{
		lcd_putbyte_hex(Floor.SensorID[i]);
	}
}
    43e6:	df 91       	pop	r29
    43e8:	cf 91       	pop	r28
    43ea:	08 95       	ret

000043ec <GasForwardSensor_CallbackRender>:
	lcd_puts_hu(PSTR("Elõre akt hõm"));
	lcd_gotoxy(0,1);
	lcd_puts(GasForward.ActualTempBuffer); lcd_puts_p(PSTR(".")), lcd_puts(GasForward.ActualTempFracBuffer); lcd_puts_p(PSTR(" C"));
}

void GasForwardSensor_CallbackRender(uint8_t which){
    43ec:	cf 93       	push	r28
    43ee:	df 93       	push	r29
	lcd_clrscr();
    43f0:	0e 94 46 08 	call	0x108c	; 0x108c <lcd_clrscr>
	lcd_puts_hu(PSTR("Elõre szenzor ID"));
    43f4:	86 ef       	ldi	r24, 0xF6	; 246
    43f6:	95 e0       	ldi	r25, 0x05	; 5
    43f8:	0e 94 7c 09 	call	0x12f8	; 0x12f8 <lcd_puts_hu>
	lcd_gotoxy(0,1);
    43fc:	61 e0       	ldi	r22, 0x01	; 1
    43fe:	80 e0       	ldi	r24, 0x00	; 0
    4400:	0e 94 26 08 	call	0x104c	; 0x104c <lcd_gotoxy>
    4404:	c8 ec       	ldi	r28, 0xC8	; 200
    4406:	d9 e0       	ldi	r29, 0x09	; 9
	for (uint8_t i = 0; i < OW_ROMCODE_SIZE; i++)
	{
		lcd_putbyte_hex(GasForward.SensorID[i]);
    4408:	89 91       	ld	r24, Y+
    440a:	0e 94 d4 08 	call	0x11a8	; 0x11a8 <lcd_putbyte_hex>

void GasForwardSensor_CallbackRender(uint8_t which){
	lcd_clrscr();
	lcd_puts_hu(PSTR("Elõre szenzor ID"));
	lcd_gotoxy(0,1);
	for (uint8_t i = 0; i < OW_ROMCODE_SIZE; i++)
    440e:	89 e0       	ldi	r24, 0x09	; 9
    4410:	c0 3d       	cpi	r28, 0xD0	; 208
    4412:	d8 07       	cpc	r29, r24
    4414:	c9 f7       	brne	.-14     	; 0x4408 <GasForwardSensor_CallbackRender+0x1c>
	{
		lcd_putbyte_hex(GasForward.SensorID[i]);
	}
}
    4416:	df 91       	pop	r29
    4418:	cf 91       	pop	r28
    441a:	08 95       	ret

0000441c <GasReturnSensor_CallbackRender>:
	lcd_puts_hu(PSTR("Visszatérõ akt hõm"));
	lcd_gotoxy(0,1);
	lcd_puts(GasReturn.ActualTempBuffer); lcd_puts_p(PSTR(".")), lcd_puts(GasReturn.ActualTempFracBuffer); lcd_puts_p(PSTR(" C"));
}

void GasReturnSensor_CallbackRender(uint8_t which){
    441c:	cf 93       	push	r28
    441e:	df 93       	push	r29
	lcd_clrscr();
    4420:	0e 94 46 08 	call	0x108c	; 0x108c <lcd_clrscr>
	lcd_puts_hu(PSTR("Vissza szenzor ID"));
    4424:	8c ec       	ldi	r24, 0xCC	; 204
    4426:	95 e0       	ldi	r25, 0x05	; 5
    4428:	0e 94 7c 09 	call	0x12f8	; 0x12f8 <lcd_puts_hu>
	lcd_gotoxy(0,1);
    442c:	61 e0       	ldi	r22, 0x01	; 1
    442e:	80 e0       	ldi	r24, 0x00	; 0
    4430:	0e 94 26 08 	call	0x104c	; 0x104c <lcd_gotoxy>
    4434:	c0 e9       	ldi	r28, 0x90	; 144
    4436:	da e0       	ldi	r29, 0x0A	; 10
	for (uint8_t i = 0; i < OW_ROMCODE_SIZE; i++)
	{
		lcd_putbyte_hex(GasReturn.SensorID[i]);
    4438:	89 91       	ld	r24, Y+
    443a:	0e 94 d4 08 	call	0x11a8	; 0x11a8 <lcd_putbyte_hex>

void GasReturnSensor_CallbackRender(uint8_t which){
	lcd_clrscr();
	lcd_puts_hu(PSTR("Vissza szenzor ID"));
	lcd_gotoxy(0,1);
	for (uint8_t i = 0; i < OW_ROMCODE_SIZE; i++)
    443e:	8a e0       	ldi	r24, 0x0A	; 10
    4440:	c8 39       	cpi	r28, 0x98	; 152
    4442:	d8 07       	cpc	r29, r24
    4444:	c9 f7       	brne	.-14     	; 0x4438 <GasReturnSensor_CallbackRender+0x1c>
	{
		lcd_putbyte_hex(GasReturn.SensorID[i]);
	}
}
    4446:	df 91       	pop	r29
    4448:	cf 91       	pop	r28
    444a:	08 95       	ret

0000444c <ForwardSensor_CallbackRender>:
	lcd_puts_hu(PSTR("Elõre akt hõm"));
	lcd_gotoxy(0,1);
	lcd_puts(Forward.ActualTempBuffer); lcd_puts_p(PSTR(".")), lcd_puts(Forward.ActualTempFracBuffer); lcd_puts_p(PSTR(" C"));
}

void ForwardSensor_CallbackRender(uint8_t which){
    444c:	cf 93       	push	r28
    444e:	df 93       	push	r29
	lcd_clrscr();
    4450:	0e 94 46 08 	call	0x108c	; 0x108c <lcd_clrscr>
	lcd_puts_hu(PSTR("Elõre szenzor ID"));
    4454:	88 ea       	ldi	r24, 0xA8	; 168
    4456:	95 e0       	ldi	r25, 0x05	; 5
    4458:	0e 94 7c 09 	call	0x12f8	; 0x12f8 <lcd_puts_hu>
	lcd_gotoxy(0,1);
    445c:	61 e0       	ldi	r22, 0x01	; 1
    445e:	80 e0       	ldi	r24, 0x00	; 0
    4460:	0e 94 26 08 	call	0x104c	; 0x104c <lcd_gotoxy>
    4464:	c1 e7       	ldi	r28, 0x71	; 113
    4466:	d9 e0       	ldi	r29, 0x09	; 9
	for (uint8_t i = 0; i < OW_ROMCODE_SIZE; i++)
	{
		lcd_putbyte_hex(Forward.SensorID[i]);
    4468:	89 91       	ld	r24, Y+
    446a:	0e 94 d4 08 	call	0x11a8	; 0x11a8 <lcd_putbyte_hex>

void ForwardSensor_CallbackRender(uint8_t which){
	lcd_clrscr();
	lcd_puts_hu(PSTR("Elõre szenzor ID"));
	lcd_gotoxy(0,1);
	for (uint8_t i = 0; i < OW_ROMCODE_SIZE; i++)
    446e:	89 e0       	ldi	r24, 0x09	; 9
    4470:	c9 37       	cpi	r28, 0x79	; 121
    4472:	d8 07       	cpc	r29, r24
    4474:	c9 f7       	brne	.-14     	; 0x4468 <ForwardSensor_CallbackRender+0x1c>
	{
		lcd_putbyte_hex(Forward.SensorID[i]);
	}
}
    4476:	df 91       	pop	r29
    4478:	cf 91       	pop	r28
    447a:	08 95       	ret

0000447c <ReturnSensor_CallbackRender>:
	lcd_puts_hu(PSTR("Visszatérõ akt hõm"));
	lcd_gotoxy(0,1);
	lcd_puts(Return.ActualTempBuffer); lcd_puts_p(PSTR(".")), lcd_puts(Return.ActualTempFracBuffer); lcd_puts_p(PSTR(" C"));
}

void ReturnSensor_CallbackRender(uint8_t which){
    447c:	cf 93       	push	r28
    447e:	df 93       	push	r29
	lcd_clrscr();
    4480:	0e 94 46 08 	call	0x108c	; 0x108c <lcd_clrscr>
	lcd_puts_hu(PSTR("Vissza szenzor ID"));
    4484:	8e e7       	ldi	r24, 0x7E	; 126
    4486:	95 e0       	ldi	r25, 0x05	; 5
    4488:	0e 94 7c 09 	call	0x12f8	; 0x12f8 <lcd_puts_hu>
	lcd_gotoxy(0,1);
    448c:	61 e0       	ldi	r22, 0x01	; 1
    448e:	80 e0       	ldi	r24, 0x00	; 0
    4490:	0e 94 26 08 	call	0x104c	; 0x104c <lcd_gotoxy>
    4494:	c4 e8       	ldi	r28, 0x84	; 132
    4496:	d9 e0       	ldi	r29, 0x09	; 9
	for (uint8_t i = 0; i < OW_ROMCODE_SIZE; i++)
	{
		lcd_putbyte_hex(Return.SensorID[i]);
    4498:	89 91       	ld	r24, Y+
    449a:	0e 94 d4 08 	call	0x11a8	; 0x11a8 <lcd_putbyte_hex>

void ReturnSensor_CallbackRender(uint8_t which){
	lcd_clrscr();
	lcd_puts_hu(PSTR("Vissza szenzor ID"));
	lcd_gotoxy(0,1);
	for (uint8_t i = 0; i < OW_ROMCODE_SIZE; i++)
    449e:	89 e0       	ldi	r24, 0x09	; 9
    44a0:	cc 38       	cpi	r28, 0x8C	; 140
    44a2:	d8 07       	cpc	r29, r24
    44a4:	c9 f7       	brne	.-14     	; 0x4498 <ReturnSensor_CallbackRender+0x1c>
	{
		lcd_putbyte_hex(Return.SensorID[i]);
	}
}
    44a6:	df 91       	pop	r29
    44a8:	cf 91       	pop	r28
    44aa:	08 95       	ret

000044ac <MixedSensor_CallbackRender>:
	lcd_puts_hu(PSTR("Kevert akt hõm"));
	lcd_gotoxy(0,1);
	lcd_puts(Mixed.ActualTempBuffer); lcd_puts_p(PSTR(".")), lcd_puts(Mixed.ActualTempFracBuffer); lcd_puts_p(PSTR(" C"));
}

void MixedSensor_CallbackRender(uint8_t which){
    44ac:	cf 93       	push	r28
    44ae:	df 93       	push	r29
	lcd_clrscr();
    44b0:	0e 94 46 08 	call	0x108c	; 0x108c <lcd_clrscr>
	lcd_puts_hu(PSTR("Kevert szenzor ID"));
    44b4:	88 e5       	ldi	r24, 0x58	; 88
    44b6:	95 e0       	ldi	r25, 0x05	; 5
    44b8:	0e 94 7c 09 	call	0x12f8	; 0x12f8 <lcd_puts_hu>
	lcd_gotoxy(0,1);
    44bc:	61 e0       	ldi	r22, 0x01	; 1
    44be:	80 e0       	ldi	r24, 0x00	; 0
    44c0:	0e 94 26 08 	call	0x104c	; 0x104c <lcd_gotoxy>
    44c4:	c4 eb       	ldi	r28, 0xB4	; 180
    44c6:	da e0       	ldi	r29, 0x0A	; 10
	for (uint8_t i = 0; i < OW_ROMCODE_SIZE; i++)
	{
		lcd_putbyte_hex(Mixed.SensorID[i]);
    44c8:	89 91       	ld	r24, Y+
    44ca:	0e 94 d4 08 	call	0x11a8	; 0x11a8 <lcd_putbyte_hex>

void MixedSensor_CallbackRender(uint8_t which){
	lcd_clrscr();
	lcd_puts_hu(PSTR("Kevert szenzor ID"));
	lcd_gotoxy(0,1);
	for (uint8_t i = 0; i < OW_ROMCODE_SIZE; i++)
    44ce:	8a e0       	ldi	r24, 0x0A	; 10
    44d0:	cc 3b       	cpi	r28, 0xBC	; 188
    44d2:	d8 07       	cpc	r29, r24
    44d4:	c9 f7       	brne	.-14     	; 0x44c8 <MixedSensor_CallbackRender+0x1c>
	{
		lcd_putbyte_hex(Mixed.SensorID[i]);
	}
}
    44d6:	df 91       	pop	r29
    44d8:	cf 91       	pop	r28
    44da:	08 95       	ret

000044dc <ComfortTemp_CallbackRender>:
	
	 ComfortMode_CallbackRender(column);
	 return false;
}

void ComfortTemp_CallbackRender(uint8_t which){
    44dc:	0f 93       	push	r16
    44de:	1f 93       	push	r17
    44e0:	cf 93       	push	r28
    44e2:	df 93       	push	r29
    44e4:	cd b7       	in	r28, 0x3d	; 61
    44e6:	de b7       	in	r29, 0x3e	; 62
    44e8:	27 97       	sbiw	r28, 0x07	; 7
    44ea:	0f b6       	in	r0, 0x3f	; 63
    44ec:	f8 94       	cli
    44ee:	de bf       	out	0x3e, r29	; 62
    44f0:	0f be       	out	0x3f, r0	; 63
    44f2:	cd bf       	out	0x3d, r28	; 61
    44f4:	80 91 16 09 	lds	r24, 0x0916	; 0x800916 <ComfortTemp>
    44f8:	4a e0       	ldi	r20, 0x0A	; 10
    44fa:	8e 01       	movw	r16, r28
    44fc:	0f 5f       	subi	r16, 0xFF	; 255
    44fe:	1f 4f       	sbci	r17, 0xFF	; 255
    4500:	b8 01       	movw	r22, r16
    4502:	90 e0       	ldi	r25, 0x00	; 0
    4504:	0e 94 c5 30 	call	0x618a	; 0x618a <__itoa_ncheck>
	char buf1[5];
	char buf2[2];
	itoa(ComfortTemp, buf1, 10);
	strcat(buf1, ".");
    4508:	f8 01       	movw	r30, r16
    450a:	01 90       	ld	r0, Z+
    450c:	00 20       	and	r0, r0
    450e:	e9 f7       	brne	.-6      	; 0x450a <ComfortTemp_CallbackRender+0x2e>
    4510:	31 97       	sbiw	r30, 0x01	; 1
    4512:	8e e2       	ldi	r24, 0x2E	; 46
    4514:	90 e0       	ldi	r25, 0x00	; 0
    4516:	91 83       	std	Z+1, r25	; 0x01
    4518:	80 83       	st	Z, r24
    451a:	80 91 53 09 	lds	r24, 0x0953	; 0x800953 <ComfortTempFrac>
    451e:	4a e0       	ldi	r20, 0x0A	; 10
    4520:	be 01       	movw	r22, r28
    4522:	6a 5f       	subi	r22, 0xFA	; 250
    4524:	7f 4f       	sbci	r23, 0xFF	; 255
    4526:	90 e0       	ldi	r25, 0x00	; 0
    4528:	0e 94 c5 30 	call	0x618a	; 0x618a <__itoa_ncheck>
	itoa(ComfortTempFrac, buf2, 10);
	strcat(buf1, buf2);
    452c:	be 01       	movw	r22, r28
    452e:	6a 5f       	subi	r22, 0xFA	; 250
    4530:	7f 4f       	sbci	r23, 0xFF	; 255
    4532:	c8 01       	movw	r24, r16
    4534:	0e 94 ba 30 	call	0x6174	; 0x6174 <strcat>
	
	lcd_clrscr();
    4538:	0e 94 46 08 	call	0x108c	; 0x108c <lcd_clrscr>
	lcd_puts_hu(PSTR("Komfort hõm"));
    453c:	84 e5       	ldi	r24, 0x54	; 84
    453e:	94 e0       	ldi	r25, 0x04	; 4
    4540:	0e 94 7c 09 	call	0x12f8	; 0x12f8 <lcd_puts_hu>
	lcd_gotoxy(0,1);
    4544:	61 e0       	ldi	r22, 0x01	; 1
    4546:	80 e0       	ldi	r24, 0x00	; 0
    4548:	0e 94 26 08 	call	0x104c	; 0x104c <lcd_gotoxy>
	lcd_puts(buf1);
    454c:	c8 01       	movw	r24, r16
    454e:	0e 94 1b 09 	call	0x1236	; 0x1236 <lcd_puts>
}
    4552:	27 96       	adiw	r28, 0x07	; 7
    4554:	0f b6       	in	r0, 0x3f	; 63
    4556:	f8 94       	cli
    4558:	de bf       	out	0x3e, r29	; 62
    455a:	0f be       	out	0x3f, r0	; 63
    455c:	cd bf       	out	0x3d, r28	; 61
    455e:	df 91       	pop	r29
    4560:	cf 91       	pop	r28
    4562:	1f 91       	pop	r17
    4564:	0f 91       	pop	r16
    4566:	08 95       	ret

00004568 <SecondFloor_CallbackRender>:

/*************************************************************************
 Menu SecondFloor, submenu definitions
*************************************************************************/
void SecondFloor_CallbackRender(uint8_t which)
{
    4568:	0f 93       	push	r16
    456a:	1f 93       	push	r17
    456c:	cf 93       	push	r28
    456e:	df 93       	push	r29
    4570:	cd b7       	in	r28, 0x3d	; 61
    4572:	de b7       	in	r29, 0x3e	; 62
    4574:	27 97       	sbiw	r28, 0x07	; 7
    4576:	0f b6       	in	r0, 0x3f	; 63
    4578:	f8 94       	cli
    457a:	de bf       	out	0x3e, r29	; 62
    457c:	0f be       	out	0x3f, r0	; 63
    457e:	cd bf       	out	0x3d, r28	; 61
    4580:	18 2f       	mov	r17, r24
	lcd_clrscr();
    4582:	0e 94 46 08 	call	0x108c	; 0x108c <lcd_clrscr>
	lcd_puts_hu(PSTR("Felsõ szint"));
    4586:	81 e0       	ldi	r24, 0x01	; 1
    4588:	98 e0       	ldi	r25, 0x08	; 8
    458a:	0e 94 7c 09 	call	0x12f8	; 0x12f8 <lcd_puts_hu>
	char buf1[5];
	char buf2[2];
	switch (which)
    458e:	12 30       	cpi	r17, 0x02	; 2
    4590:	09 f4       	brne	.+2      	; 0x4594 <SecondFloor_CallbackRender+0x2c>
    4592:	96 c0       	rjmp	.+300    	; 0x46c0 <SecondFloor_CallbackRender+0x158>
    4594:	08 f0       	brcs	.+2      	; 0x4598 <SecondFloor_CallbackRender+0x30>
    4596:	41 c0       	rjmp	.+130    	; 0x461a <SecondFloor_CallbackRender+0xb2>
    4598:	11 23       	and	r17, r17
    459a:	09 f4       	brne	.+2      	; 0x459e <SecondFloor_CallbackRender+0x36>
    459c:	74 c0       	rjmp	.+232    	; 0x4686 <SecondFloor_CallbackRender+0x11e>
    459e:	11 30       	cpi	r17, 0x01	; 1
    45a0:	89 f5       	brne	.+98     	; 0x4604 <SecondFloor_CallbackRender+0x9c>
    45a2:	80 91 97 09 	lds	r24, 0x0997	; 0x800997 <SecondFloorDesired>
    45a6:	4a e0       	ldi	r20, 0x0A	; 10
    45a8:	8e 01       	movw	r16, r28
    45aa:	0f 5f       	subi	r16, 0xFF	; 255
    45ac:	1f 4f       	sbci	r17, 0xFF	; 255
    45ae:	b8 01       	movw	r22, r16
    45b0:	90 e0       	ldi	r25, 0x00	; 0
    45b2:	0e 94 c5 30 	call	0x618a	; 0x618a <__itoa_ncheck>
			lcd_puts(SecondFloor.ActualTempBuffer); lcd_puts_p(PSTR(".")); lcd_puts(SecondFloor.ActualTempFracBuffer); lcd_puts_p(PSTR(" C"));
		break;
		
		case 1:			
			itoa(SecondFloorDesired, buf1, 10);
			strcat(buf1, ".");
    45b6:	f8 01       	movw	r30, r16
    45b8:	01 90       	ld	r0, Z+
    45ba:	00 20       	and	r0, r0
    45bc:	e9 f7       	brne	.-6      	; 0x45b8 <SecondFloor_CallbackRender+0x50>
    45be:	31 97       	sbiw	r30, 0x01	; 1
    45c0:	8e e2       	ldi	r24, 0x2E	; 46
    45c2:	90 e0       	ldi	r25, 0x00	; 0
    45c4:	91 83       	std	Z+1, r25	; 0x01
    45c6:	80 83       	st	Z, r24
    45c8:	80 91 36 09 	lds	r24, 0x0936	; 0x800936 <SecondFloorFracDesired>
    45cc:	4a e0       	ldi	r20, 0x0A	; 10
    45ce:	be 01       	movw	r22, r28
    45d0:	6a 5f       	subi	r22, 0xFA	; 250
    45d2:	7f 4f       	sbci	r23, 0xFF	; 255
    45d4:	90 e0       	ldi	r25, 0x00	; 0
    45d6:	0e 94 c5 30 	call	0x618a	; 0x618a <__itoa_ncheck>
			itoa(SecondFloorFracDesired, buf2, 10);
			strcat(buf1, buf2);			
    45da:	be 01       	movw	r22, r28
    45dc:	6a 5f       	subi	r22, 0xFA	; 250
    45de:	7f 4f       	sbci	r23, 0xFF	; 255
    45e0:	c8 01       	movw	r24, r16
    45e2:	0e 94 ba 30 	call	0x6174	; 0x6174 <strcat>
			lcd_gotoxy(12,0);
    45e6:	60 e0       	ldi	r22, 0x00	; 0
    45e8:	8c e0       	ldi	r24, 0x0C	; 12
    45ea:	0e 94 26 08 	call	0x104c	; 0x104c <lcd_gotoxy>
			lcd_puts_hu(PSTR("kívánt"));
    45ee:	81 ef       	ldi	r24, 0xF1	; 241
    45f0:	97 e0       	ldi	r25, 0x07	; 7
    45f2:	0e 94 7c 09 	call	0x12f8	; 0x12f8 <lcd_puts_hu>
			lcd_gotoxy(0,1);
    45f6:	61 e0       	ldi	r22, 0x01	; 1
    45f8:	80 e0       	ldi	r24, 0x00	; 0
    45fa:	0e 94 26 08 	call	0x104c	; 0x104c <lcd_gotoxy>
			lcd_puts(buf1);
    45fe:	c8 01       	movw	r24, r16
    4600:	0e 94 1b 09 	call	0x1236	; 0x1236 <lcd_puts>
				lcd_putbyte_hex(SecondFloor.SensorID[i]);
			}
		break;
	}
	
}
    4604:	27 96       	adiw	r28, 0x07	; 7
    4606:	0f b6       	in	r0, 0x3f	; 63
    4608:	f8 94       	cli
    460a:	de bf       	out	0x3e, r29	; 62
    460c:	0f be       	out	0x3f, r0	; 63
    460e:	cd bf       	out	0x3d, r28	; 61
    4610:	df 91       	pop	r29
    4612:	cf 91       	pop	r28
    4614:	1f 91       	pop	r17
    4616:	0f 91       	pop	r16
    4618:	08 95       	ret
{
	lcd_clrscr();
	lcd_puts_hu(PSTR("Felsõ szint"));
	char buf1[5];
	char buf2[2];
	switch (which)
    461a:	13 30       	cpi	r17, 0x03	; 3
    461c:	d1 f0       	breq	.+52     	; 0x4652 <SecondFloor_CallbackRender+0xea>
    461e:	14 30       	cpi	r17, 0x04	; 4
    4620:	89 f7       	brne	.-30     	; 0x4604 <SecondFloor_CallbackRender+0x9c>
			lcd_gotoxy(0,1);
			lcd_puts_p(PSTR("0.")); lcd_putc((char)(SecondFloorHysteresis + 48)); lcd_puts_p(PSTR(" C"));
		break;
		
		case 4:
			lcd_gotoxy(12,0);
    4622:	60 e0       	ldi	r22, 0x00	; 0
    4624:	8c e0       	ldi	r24, 0x0C	; 12
    4626:	0e 94 26 08 	call	0x104c	; 0x104c <lcd_gotoxy>
			lcd_puts_hu(PSTR("ID"));
    462a:	83 ec       	ldi	r24, 0xC3	; 195
    462c:	97 e0       	ldi	r25, 0x07	; 7
    462e:	0e 94 7c 09 	call	0x12f8	; 0x12f8 <lcd_puts_hu>
			lcd_gotoxy(0,1);
    4632:	61 e0       	ldi	r22, 0x01	; 1
    4634:	80 e0       	ldi	r24, 0x00	; 0
    4636:	0e 94 26 08 	call	0x104c	; 0x104c <lcd_gotoxy>
    463a:	05 e2       	ldi	r16, 0x25	; 37
    463c:	19 e0       	ldi	r17, 0x09	; 9
			for (uint8_t i = 0; i < OW_ROMCODE_SIZE; i++)
			{
				lcd_putbyte_hex(SecondFloor.SensorID[i]);
    463e:	f8 01       	movw	r30, r16
    4640:	81 91       	ld	r24, Z+
    4642:	8f 01       	movw	r16, r30
    4644:	0e 94 d4 08 	call	0x11a8	; 0x11a8 <lcd_putbyte_hex>
		
		case 4:
			lcd_gotoxy(12,0);
			lcd_puts_hu(PSTR("ID"));
			lcd_gotoxy(0,1);
			for (uint8_t i = 0; i < OW_ROMCODE_SIZE; i++)
    4648:	f9 e0       	ldi	r31, 0x09	; 9
    464a:	0d 32       	cpi	r16, 0x2D	; 45
    464c:	1f 07       	cpc	r17, r31
    464e:	b9 f7       	brne	.-18     	; 0x463e <SecondFloor_CallbackRender+0xd6>
    4650:	d9 cf       	rjmp	.-78     	; 0x4604 <SecondFloor_CallbackRender+0x9c>
			else
				lcd_puts_p(PSTR("kikapcsolva"));
		break;
		
		case 3:
			lcd_gotoxy(12,0);
    4652:	60 e0       	ldi	r22, 0x00	; 0
    4654:	8c e0       	ldi	r24, 0x0C	; 12
    4656:	0e 94 26 08 	call	0x104c	; 0x104c <lcd_gotoxy>
			lcd_puts_hu(PSTR("hiszt."));
    465a:	8c ec       	ldi	r24, 0xCC	; 204
    465c:	97 e0       	ldi	r25, 0x07	; 7
    465e:	0e 94 7c 09 	call	0x12f8	; 0x12f8 <lcd_puts_hu>
			lcd_gotoxy(0,1);
    4662:	61 e0       	ldi	r22, 0x01	; 1
    4664:	80 e0       	ldi	r24, 0x00	; 0
    4666:	0e 94 26 08 	call	0x104c	; 0x104c <lcd_gotoxy>
			lcd_puts_p(PSTR("0.")); lcd_putc((char)(SecondFloorHysteresis + 48)); lcd_puts_p(PSTR(" C"));
    466a:	89 ec       	ldi	r24, 0xC9	; 201
    466c:	97 e0       	ldi	r25, 0x07	; 7
    466e:	0e 94 68 08 	call	0x10d0	; 0x10d0 <lcd_puts_p>
    4672:	80 91 f6 09 	lds	r24, 0x09F6	; 0x8009f6 <SecondFloorHysteresis>
    4676:	80 5d       	subi	r24, 0xD0	; 208
    4678:	0e 94 4a 08 	call	0x1094	; 0x1094 <lcd_putc>
    467c:	86 ec       	ldi	r24, 0xC6	; 198
    467e:	97 e0       	ldi	r25, 0x07	; 7
    4680:	0e 94 68 08 	call	0x10d0	; 0x10d0 <lcd_puts_p>
		break;
    4684:	bf cf       	rjmp	.-130    	; 0x4604 <SecondFloor_CallbackRender+0x9c>
	char buf1[5];
	char buf2[2];
	switch (which)
	{
		case 0:
			lcd_gotoxy(12,0);
    4686:	60 e0       	ldi	r22, 0x00	; 0
    4688:	8c e0       	ldi	r24, 0x0C	; 12
    468a:	0e 94 26 08 	call	0x104c	; 0x104c <lcd_gotoxy>
			lcd_puts_hu(PSTR("hõm"));
    468e:	8d ef       	ldi	r24, 0xFD	; 253
    4690:	97 e0       	ldi	r25, 0x07	; 7
    4692:	0e 94 7c 09 	call	0x12f8	; 0x12f8 <lcd_puts_hu>
			lcd_gotoxy(0,1);
    4696:	61 e0       	ldi	r22, 0x01	; 1
    4698:	80 e0       	ldi	r24, 0x00	; 0
    469a:	0e 94 26 08 	call	0x104c	; 0x104c <lcd_gotoxy>
			lcd_puts(SecondFloor.ActualTempBuffer); lcd_puts_p(PSTR(".")); lcd_puts(SecondFloor.ActualTempFracBuffer); lcd_puts_p(PSTR(" C"));
    469e:	8f e1       	ldi	r24, 0x1F	; 31
    46a0:	99 e0       	ldi	r25, 0x09	; 9
    46a2:	0e 94 1b 09 	call	0x1236	; 0x1236 <lcd_puts>
    46a6:	8b ef       	ldi	r24, 0xFB	; 251
    46a8:	97 e0       	ldi	r25, 0x07	; 7
    46aa:	0e 94 68 08 	call	0x10d0	; 0x10d0 <lcd_puts_p>
    46ae:	83 e2       	ldi	r24, 0x23	; 35
    46b0:	99 e0       	ldi	r25, 0x09	; 9
    46b2:	0e 94 1b 09 	call	0x1236	; 0x1236 <lcd_puts>
    46b6:	88 ef       	ldi	r24, 0xF8	; 248
    46b8:	97 e0       	ldi	r25, 0x07	; 7
    46ba:	0e 94 68 08 	call	0x10d0	; 0x10d0 <lcd_puts_p>
		break;
    46be:	a2 cf       	rjmp	.-188    	; 0x4604 <SecondFloor_CallbackRender+0x9c>
			lcd_gotoxy(0,1);
			lcd_puts(buf1);
		break;
		
		case 2:
			lcd_gotoxy(12,0);
    46c0:	60 e0       	ldi	r22, 0x00	; 0
    46c2:	8c e0       	ldi	r24, 0x0C	; 12
    46c4:	0e 94 26 08 	call	0x104c	; 0x104c <lcd_gotoxy>
			lcd_puts_hu(PSTR("term."));
    46c8:	8b ee       	ldi	r24, 0xEB	; 235
    46ca:	97 e0       	ldi	r25, 0x07	; 7
    46cc:	0e 94 7c 09 	call	0x12f8	; 0x12f8 <lcd_puts_hu>
			lcd_gotoxy(0,1);
    46d0:	61 e0       	ldi	r22, 0x01	; 1
    46d2:	80 e0       	ldi	r24, 0x00	; 0
    46d4:	0e 94 26 08 	call	0x104c	; 0x104c <lcd_gotoxy>
			if (SecondFloorThermostatActive)
    46d8:	80 91 4c 09 	lds	r24, 0x094C	; 0x80094c <SecondFloorThermostatActive>
    46dc:	88 23       	and	r24, r24
    46de:	29 f0       	breq	.+10     	; 0x46ea <SecondFloor_CallbackRender+0x182>
				lcd_puts_p(PSTR("bekapcsolva")); 
    46e0:	8f ed       	ldi	r24, 0xDF	; 223
    46e2:	97 e0       	ldi	r25, 0x07	; 7
    46e4:	0e 94 68 08 	call	0x10d0	; 0x10d0 <lcd_puts_p>
    46e8:	8d cf       	rjmp	.-230    	; 0x4604 <SecondFloor_CallbackRender+0x9c>
			else
				lcd_puts_p(PSTR("kikapcsolva"));
    46ea:	83 ed       	ldi	r24, 0xD3	; 211
    46ec:	97 e0       	ldi	r25, 0x07	; 7
    46ee:	0e 94 68 08 	call	0x10d0	; 0x10d0 <lcd_puts_p>
    46f2:	88 cf       	rjmp	.-240    	; 0x4604 <SecondFloor_CallbackRender+0x9c>

000046f4 <DHWRelay_ActionCallback>:
		lcd_puts_p(PSTR("Be"));
	else
		lcd_puts_p(PSTR("Ki"));
}

bool DHWRelay_ActionCallback(MENU_BUTTON *button, uint8_t column){
    46f4:	cf 93       	push	r28
    46f6:	c6 2f       	mov	r28, r22
	switch(button->role){
    46f8:	fc 01       	movw	r30, r24
    46fa:	80 81       	ld	r24, Z
    46fc:	82 30       	cpi	r24, 0x02	; 2
    46fe:	50 f0       	brcs	.+20     	; 0x4714 <DHWRelay_ActionCallback+0x20>
    4700:	84 30       	cpi	r24, 0x04	; 4
    4702:	28 f0       	brcs	.+10     	; 0x470e <DHWRelay_ActionCallback+0x1a>
			return true;
		case MENU_CANCEL:
			return true;
	}

	DHWRelay_CallbackRender(column);
    4704:	8c 2f       	mov	r24, r28
    4706:	49 d9       	rcall	.-3438   	; 0x399a <DHWRelay_CallbackRender>
	return false;
    4708:	80 e0       	ldi	r24, 0x00	; 0
}
    470a:	cf 91       	pop	r28
    470c:	08 95       	ret
			Relays ^= (1 << DHW_VALVE_RELAY);
			SwitchRelays();
			break;
		}
		case MENU_CONFIRM:
			return true;
    470e:	81 e0       	ldi	r24, 0x01	; 1
			return true;
	}

	DHWRelay_CallbackRender(column);
	return false;
}
    4710:	cf 91       	pop	r28
    4712:	08 95       	ret
bool DHWRelay_ActionCallback(MENU_BUTTON *button, uint8_t column){
	switch(button->role){
		case MENU_UP:
		case MENU_DOWN:
		{
			Relays ^= (1 << DHW_VALVE_RELAY);
    4714:	90 91 70 08 	lds	r25, 0x0870	; 0x800870 <Relays>
    4718:	81 e0       	ldi	r24, 0x01	; 1
    471a:	89 27       	eor	r24, r25
    471c:	80 93 70 08 	sts	0x0870, r24	; 0x800870 <Relays>
			SwitchRelays();
    4720:	0e 94 03 10 	call	0x2006	; 0x2006 <SwitchRelays>
			break;
    4724:	ef cf       	rjmp	.-34     	; 0x4704 <DHWRelay_ActionCallback+0x10>

00004726 <ZoneValve1_ActionCallback>:
		lcd_puts_p(PSTR("Be"));
	else
		lcd_puts_p(PSTR("Ki"));
}

bool ZoneValve1_ActionCallback(MENU_BUTTON *button, uint8_t column){
    4726:	cf 93       	push	r28
    4728:	c6 2f       	mov	r28, r22
	switch(button->role){
    472a:	fc 01       	movw	r30, r24
    472c:	80 81       	ld	r24, Z
    472e:	82 30       	cpi	r24, 0x02	; 2
    4730:	50 f0       	brcs	.+20     	; 0x4746 <ZoneValve1_ActionCallback+0x20>
    4732:	84 30       	cpi	r24, 0x04	; 4
    4734:	28 f0       	brcs	.+10     	; 0x4740 <ZoneValve1_ActionCallback+0x1a>
		return true;
		case MENU_CANCEL:
		return true;
	}

	ZoneValve1_CallbackRender(column);
    4736:	8c 2f       	mov	r24, r28
    4738:	46 d9       	rcall	.-3444   	; 0x39c6 <ZoneValve1_CallbackRender>
	return false;
    473a:	80 e0       	ldi	r24, 0x00	; 0
}
    473c:	cf 91       	pop	r28
    473e:	08 95       	ret
		case MENU_DOWN:
			Relays ^= (1 << FIRST_FLOOR_VALVE);
			SwitchRelays();
			break;
		case MENU_CONFIRM:
		return true;
    4740:	81 e0       	ldi	r24, 0x01	; 1
		return true;
	}

	ZoneValve1_CallbackRender(column);
	return false;
}
    4742:	cf 91       	pop	r28
    4744:	08 95       	ret

bool ZoneValve1_ActionCallback(MENU_BUTTON *button, uint8_t column){
	switch(button->role){
		case MENU_UP:
		case MENU_DOWN:
			Relays ^= (1 << FIRST_FLOOR_VALVE);
    4746:	80 91 70 08 	lds	r24, 0x0870	; 0x800870 <Relays>
    474a:	80 58       	subi	r24, 0x80	; 128
    474c:	80 93 70 08 	sts	0x0870, r24	; 0x800870 <Relays>
			SwitchRelays();
    4750:	0e 94 03 10 	call	0x2006	; 0x2006 <SwitchRelays>
			break;
    4754:	f0 cf       	rjmp	.-32     	; 0x4736 <ZoneValve1_ActionCallback+0x10>

00004756 <ZoneValve2_ActionCallback>:
			lcd_puts_p(PSTR("Be"));
		else
			lcd_puts_p(PSTR("Ki"));
}

bool ZoneValve2_ActionCallback(MENU_BUTTON *button, uint8_t column){
    4756:	cf 93       	push	r28
    4758:	c6 2f       	mov	r28, r22
	switch(button->role){
    475a:	fc 01       	movw	r30, r24
    475c:	80 81       	ld	r24, Z
    475e:	82 30       	cpi	r24, 0x02	; 2
    4760:	50 f0       	brcs	.+20     	; 0x4776 <ZoneValve2_ActionCallback+0x20>
    4762:	84 30       	cpi	r24, 0x04	; 4
    4764:	28 f0       	brcs	.+10     	; 0x4770 <ZoneValve2_ActionCallback+0x1a>
		return true;
		case MENU_CANCEL:
		return true;
	}

	ZoneValve2_CallbackRender(column);
    4766:	8c 2f       	mov	r24, r28
    4768:	44 d9       	rcall	.-3448   	; 0x39f2 <ZoneValve2_CallbackRender>
	return false;
    476a:	80 e0       	ldi	r24, 0x00	; 0
}
    476c:	cf 91       	pop	r28
    476e:	08 95       	ret
		case MENU_DOWN:
			Relays ^= (1 << SECOND_FLOOR_VALVE);
			SwitchRelays();
			break;
		case MENU_CONFIRM:
		return true;
    4770:	81 e0       	ldi	r24, 0x01	; 1
		return true;
	}

	ZoneValve2_CallbackRender(column);
	return false;
}
    4772:	cf 91       	pop	r28
    4774:	08 95       	ret

bool ZoneValve2_ActionCallback(MENU_BUTTON *button, uint8_t column){
	switch(button->role){
		case MENU_UP:
		case MENU_DOWN:
			Relays ^= (1 << SECOND_FLOOR_VALVE);
    4776:	90 91 70 08 	lds	r25, 0x0870	; 0x800870 <Relays>
    477a:	80 e4       	ldi	r24, 0x40	; 64
    477c:	89 27       	eor	r24, r25
    477e:	80 93 70 08 	sts	0x0870, r24	; 0x800870 <Relays>
			SwitchRelays();
    4782:	0e 94 03 10 	call	0x2006	; 0x2006 <SwitchRelays>
			break;
    4786:	ef cf       	rjmp	.-34     	; 0x4766 <ZoneValve2_ActionCallback+0x10>

00004788 <BufferValve_ActionCallback>:
		lcd_puts_p(PSTR("Puffer"));
	else
		lcd_puts_hu(PSTR("Gáz"));
}

bool BufferValve_ActionCallback(MENU_BUTTON *button, uint8_t column){
    4788:	cf 93       	push	r28
    478a:	c6 2f       	mov	r28, r22
	switch(button->role){
    478c:	fc 01       	movw	r30, r24
    478e:	80 81       	ld	r24, Z
    4790:	82 30       	cpi	r24, 0x02	; 2
    4792:	50 f0       	brcs	.+20     	; 0x47a8 <BufferValve_ActionCallback+0x20>
    4794:	84 30       	cpi	r24, 0x04	; 4
    4796:	28 f0       	brcs	.+10     	; 0x47a2 <BufferValve_ActionCallback+0x1a>
		return true;
		case MENU_CANCEL:
		return true;
	}

	BufferValve_CallbackRender(column);
    4798:	8c 2f       	mov	r24, r28
    479a:	41 d9       	rcall	.-3454   	; 0x3a1e <BufferValve_CallbackRender>
	return false;
    479c:	80 e0       	ldi	r24, 0x00	; 0
}
    479e:	cf 91       	pop	r28
    47a0:	08 95       	ret
		case MENU_DOWN:
			Relays ^= (1 << BUFFER_VALVE_RELAY);
			SwitchRelays();
			break;
		case MENU_CONFIRM:
		return true;
    47a2:	81 e0       	ldi	r24, 0x01	; 1
		return true;
	}

	BufferValve_CallbackRender(column);
	return false;
}
    47a4:	cf 91       	pop	r28
    47a6:	08 95       	ret

bool BufferValve_ActionCallback(MENU_BUTTON *button, uint8_t column){
	switch(button->role){
		case MENU_UP:
		case MENU_DOWN:
			Relays ^= (1 << BUFFER_VALVE_RELAY);
    47a8:	90 91 70 08 	lds	r25, 0x0870	; 0x800870 <Relays>
    47ac:	80 e2       	ldi	r24, 0x20	; 32
    47ae:	89 27       	eor	r24, r25
    47b0:	80 93 70 08 	sts	0x0870, r24	; 0x800870 <Relays>
			SwitchRelays();
    47b4:	0e 94 03 10 	call	0x2006	; 0x2006 <SwitchRelays>
			break;
    47b8:	ef cf       	rjmp	.-34     	; 0x4798 <BufferValve_ActionCallback+0x10>

000047ba <BufferPump_ActionCallback>:
		lcd_puts_p(PSTR("Be"));
	else
		lcd_puts_p(PSTR("Ki"));
}

bool BufferPump_ActionCallback(MENU_BUTTON *button, uint8_t column){
    47ba:	cf 93       	push	r28
    47bc:	c6 2f       	mov	r28, r22
	switch(button->role){
    47be:	fc 01       	movw	r30, r24
    47c0:	80 81       	ld	r24, Z
    47c2:	82 30       	cpi	r24, 0x02	; 2
    47c4:	50 f0       	brcs	.+20     	; 0x47da <BufferPump_ActionCallback+0x20>
    47c6:	84 30       	cpi	r24, 0x04	; 4
    47c8:	28 f0       	brcs	.+10     	; 0x47d4 <BufferPump_ActionCallback+0x1a>
		return true;
		case MENU_CANCEL:
		return true;
	}

	BufferPump_CallbackRender(column);
    47ca:	8c 2f       	mov	r24, r28
    47cc:	3e d9       	rcall	.-3460   	; 0x3a4a <BufferPump_CallbackRender>
	return false;
    47ce:	80 e0       	ldi	r24, 0x00	; 0
}
    47d0:	cf 91       	pop	r28
    47d2:	08 95       	ret
		case MENU_DOWN:
			Relays ^= (1 << BUFFER_PUMP_RELAY);
			SwitchRelays();
			break;
		case MENU_CONFIRM:
		return true;
    47d4:	81 e0       	ldi	r24, 0x01	; 1
		return true;
	}

	BufferPump_CallbackRender(column);
	return false;
}
    47d6:	cf 91       	pop	r28
    47d8:	08 95       	ret

bool BufferPump_ActionCallback(MENU_BUTTON *button, uint8_t column){
	switch(button->role){
		case MENU_UP:
		case MENU_DOWN:
			Relays ^= (1 << BUFFER_PUMP_RELAY);
    47da:	90 91 70 08 	lds	r25, 0x0870	; 0x800870 <Relays>
    47de:	80 e1       	ldi	r24, 0x10	; 16
    47e0:	89 27       	eor	r24, r25
    47e2:	80 93 70 08 	sts	0x0870, r24	; 0x800870 <Relays>
			SwitchRelays();
    47e6:	0e 94 03 10 	call	0x2006	; 0x2006 <SwitchRelays>
			break;
    47ea:	ef cf       	rjmp	.-34     	; 0x47ca <BufferPump_ActionCallback+0x10>

000047ec <GasRelay_ActionCallback>:
		lcd_puts_p(PSTR("Be"));
	else
		lcd_puts_p(PSTR("Ki"));
}

bool GasRelay_ActionCallback(MENU_BUTTON *button, uint8_t column){
    47ec:	cf 93       	push	r28
    47ee:	c6 2f       	mov	r28, r22
	switch(button->role){
    47f0:	fc 01       	movw	r30, r24
    47f2:	80 81       	ld	r24, Z
    47f4:	82 30       	cpi	r24, 0x02	; 2
    47f6:	50 f0       	brcs	.+20     	; 0x480c <GasRelay_ActionCallback+0x20>
    47f8:	84 30       	cpi	r24, 0x04	; 4
    47fa:	28 f0       	brcs	.+10     	; 0x4806 <GasRelay_ActionCallback+0x1a>
		return true;
		case MENU_CANCEL:
		return true;
	}

	GasRelay_CallbackRender(column);
    47fc:	8c 2f       	mov	r24, r28
    47fe:	3b d9       	rcall	.-3466   	; 0x3a76 <GasRelay_CallbackRender>
	return false;
    4800:	80 e0       	ldi	r24, 0x00	; 0
}
    4802:	cf 91       	pop	r28
    4804:	08 95       	ret
		case MENU_DOWN:
			Relays ^= (1 << GAS_RELAY);
			SwitchRelays();
			break;
		case MENU_CONFIRM:
		return true;
    4806:	81 e0       	ldi	r24, 0x01	; 1
		return true;
	}

	GasRelay_CallbackRender(column);
	return false;
}
    4808:	cf 91       	pop	r28
    480a:	08 95       	ret

bool GasRelay_ActionCallback(MENU_BUTTON *button, uint8_t column){
	switch(button->role){
		case MENU_UP:
		case MENU_DOWN:
			Relays ^= (1 << GAS_RELAY);
    480c:	90 91 70 08 	lds	r25, 0x0870	; 0x800870 <Relays>
    4810:	82 e0       	ldi	r24, 0x02	; 2
    4812:	89 27       	eor	r24, r25
    4814:	80 93 70 08 	sts	0x0870, r24	; 0x800870 <Relays>
			SwitchRelays();
    4818:	0e 94 03 10 	call	0x2006	; 0x2006 <SwitchRelays>
			break;
    481c:	ef cf       	rjmp	.-34     	; 0x47fc <GasRelay_ActionCallback+0x10>

0000481e <SwitchOnOutdoorTemp_ActionCallback>:
	else
		lcd_puts_hu(PSTR("letiltva"));
}

bool SwitchOnOutdoorTemp_ActionCallback(MENU_BUTTON *button, uint8_t column){
	switch(button->role){
    481e:	fc 01       	movw	r30, r24
    4820:	90 81       	ld	r25, Z
    4822:	92 30       	cpi	r25, 0x02	; 2
    4824:	81 f0       	breq	.+32     	; 0x4846 <SwitchOnOutdoorTemp_ActionCallback+0x28>
    4826:	20 f0       	brcs	.+8      	; 0x4830 <SwitchOnOutdoorTemp_ActionCallback+0x12>
    4828:	93 30       	cpi	r25, 0x03	; 3
    482a:	41 f4       	brne	.+16     	; 0x483c <SwitchOnOutdoorTemp_ActionCallback+0x1e>
		break;
		case MENU_CONFIRM:
			eeprom_update_byte(&eeSwitchOnOutdoorTemp, SwitchOnOutdoorTemp);
		return true;
		case MENU_CANCEL:
		return true;
    482c:	81 e0       	ldi	r24, 0x01	; 1
	}

	SwitchOnOutdoorTemp_CallbackRender(column);
	return false;
}
    482e:	08 95       	ret

bool SwitchOnOutdoorTemp_ActionCallback(MENU_BUTTON *button, uint8_t column){
	switch(button->role){
		case MENU_UP:
		case MENU_DOWN:
			SwitchOnOutdoorTemp ^= (1 << 0);			
    4830:	90 91 dd 09 	lds	r25, 0x09DD	; 0x8009dd <SwitchOnOutdoorTemp>
    4834:	81 e0       	ldi	r24, 0x01	; 1
    4836:	89 27       	eor	r24, r25
    4838:	80 93 dd 09 	sts	0x09DD, r24	; 0x8009dd <SwitchOnOutdoorTemp>
		return true;
		case MENU_CANCEL:
		return true;
	}

	SwitchOnOutdoorTemp_CallbackRender(column);
    483c:	86 2f       	mov	r24, r22
    483e:	0e 94 12 18 	call	0x3024	; 0x3024 <SwitchOnOutdoorTemp_CallbackRender>
	return false;
    4842:	80 e0       	ldi	r24, 0x00	; 0
    4844:	08 95       	ret
		case MENU_UP:
		case MENU_DOWN:
			SwitchOnOutdoorTemp ^= (1 << 0);			
		break;
		case MENU_CONFIRM:
			eeprom_update_byte(&eeSwitchOnOutdoorTemp, SwitchOnOutdoorTemp);
    4846:	60 91 dd 09 	lds	r22, 0x09DD	; 0x8009dd <SwitchOnOutdoorTemp>
    484a:	88 e6       	ldi	r24, 0x68	; 104
    484c:	90 e0       	ldi	r25, 0x00	; 0
    484e:	0e 94 d5 33 	call	0x67aa	; 0x67aa <eeprom_update_byte>
    4852:	81 e0       	ldi	r24, 0x01	; 1
    4854:	08 95       	ret

00004856 <DHWTempDesired_ActionCallback>:
	lcd_gotoxy(0,1);
	lcd_puts(buf);
}

bool DHWTempDesired_ActionCallback(MENU_BUTTON *button, uint8_t column){
	switch(button->role){
    4856:	fc 01       	movw	r30, r24
    4858:	90 81       	ld	r25, Z
    485a:	91 30       	cpi	r25, 0x01	; 1
    485c:	d9 f0       	breq	.+54     	; 0x4894 <DHWTempDesired_ActionCallback+0x3e>
    485e:	70 f0       	brcs	.+28     	; 0x487c <DHWTempDesired_ActionCallback+0x26>
    4860:	92 30       	cpi	r25, 0x02	; 2
    4862:	21 f0       	breq	.+8      	; 0x486c <DHWTempDesired_ActionCallback+0x16>
    4864:	93 30       	cpi	r25, 0x03	; 3
    4866:	89 f4       	brne	.+34     	; 0x488a <DHWTempDesired_ActionCallback+0x34>
			break;
		case MENU_CONFIRM:
			eeprom_update_byte(&eeDHWTempDesired, DHWTempDesired);
			return true;
		case MENU_CANCEL:
			return true;
    4868:	81 e0       	ldi	r24, 0x01	; 1
	}
	DHWTempDesired_CallbackRender(column);
	return false;
}
    486a:	08 95       	ret
		case MENU_DOWN:
			if (DHWTempDesired > DHWTempMin)
				--DHWTempDesired;
			break;
		case MENU_CONFIRM:
			eeprom_update_byte(&eeDHWTempDesired, DHWTempDesired);
    486c:	60 91 54 09 	lds	r22, 0x0954	; 0x800954 <DHWTempDesired>
    4870:	8e e7       	ldi	r24, 0x7E	; 126
    4872:	90 e0       	ldi	r25, 0x00	; 0
    4874:	0e 94 d5 33 	call	0x67aa	; 0x67aa <eeprom_update_byte>
    4878:	81 e0       	ldi	r24, 0x01	; 1
    487a:	08 95       	ret
}

bool DHWTempDesired_ActionCallback(MENU_BUTTON *button, uint8_t column){
	switch(button->role){
		case MENU_UP:
			if (DHWTempDesired != 90)
    487c:	80 91 54 09 	lds	r24, 0x0954	; 0x800954 <DHWTempDesired>
    4880:	8a 35       	cpi	r24, 0x5A	; 90
    4882:	19 f0       	breq	.+6      	; 0x488a <DHWTempDesired_ActionCallback+0x34>
				++DHWTempDesired;
    4884:	8f 5f       	subi	r24, 0xFF	; 255
    4886:	80 93 54 09 	sts	0x0954, r24	; 0x800954 <DHWTempDesired>
			eeprom_update_byte(&eeDHWTempDesired, DHWTempDesired);
			return true;
		case MENU_CANCEL:
			return true;
	}
	DHWTempDesired_CallbackRender(column);
    488a:	86 2f       	mov	r24, r22
    488c:	0e 94 e1 18 	call	0x31c2	; 0x31c2 <DHWTempDesired_CallbackRender>
	return false;
    4890:	80 e0       	ldi	r24, 0x00	; 0
    4892:	08 95       	ret
		case MENU_UP:
			if (DHWTempDesired != 90)
				++DHWTempDesired;
			break;
		case MENU_DOWN:
			if (DHWTempDesired > DHWTempMin)
    4894:	80 91 54 09 	lds	r24, 0x0954	; 0x800954 <DHWTempDesired>
    4898:	90 91 39 09 	lds	r25, 0x0939	; 0x800939 <DHWTempMin>
    489c:	98 17       	cp	r25, r24
    489e:	a8 f7       	brcc	.-22     	; 0x488a <DHWTempDesired_ActionCallback+0x34>
				--DHWTempDesired;
    48a0:	81 50       	subi	r24, 0x01	; 1
    48a2:	80 93 54 09 	sts	0x0954, r24	; 0x800954 <DHWTempDesired>
			eeprom_update_byte(&eeDHWTempDesired, DHWTempDesired);
			return true;
		case MENU_CANCEL:
			return true;
	}
	DHWTempDesired_CallbackRender(column);
    48a6:	86 2f       	mov	r24, r22
    48a8:	0e 94 e1 18 	call	0x31c2	; 0x31c2 <DHWTempDesired_CallbackRender>
	return false;
    48ac:	80 e0       	ldi	r24, 0x00	; 0
    48ae:	08 95       	ret

000048b0 <DHWTempMin_ActionCallback>:
	lcd_gotoxy(0,1);
	lcd_puts(buf);
}

bool DHWTempMin_ActionCallback(MENU_BUTTON *button, uint8_t column){
	switch(button->role){
    48b0:	fc 01       	movw	r30, r24
    48b2:	90 81       	ld	r25, Z
    48b4:	91 30       	cpi	r25, 0x01	; 1
    48b6:	e9 f0       	breq	.+58     	; 0x48f2 <DHWTempMin_ActionCallback+0x42>
    48b8:	70 f0       	brcs	.+28     	; 0x48d6 <DHWTempMin_ActionCallback+0x26>
    48ba:	92 30       	cpi	r25, 0x02	; 2
    48bc:	21 f0       	breq	.+8      	; 0x48c6 <DHWTempMin_ActionCallback+0x16>
    48be:	93 30       	cpi	r25, 0x03	; 3
    48c0:	99 f4       	brne	.+38     	; 0x48e8 <DHWTempMin_ActionCallback+0x38>
			break;
		case MENU_CONFIRM:
			eeprom_update_byte(&eeDHWTempMin, DHWTempMin);
			return true;
		case MENU_CANCEL:
			return true;
    48c2:	81 e0       	ldi	r24, 0x01	; 1
	}

	DHWTempMin_CallbackRender(column);
	return false;
}
    48c4:	08 95       	ret
		case MENU_DOWN:
			if (DHWTempMin > 5)
				--DHWTempMin;
			break;
		case MENU_CONFIRM:
			eeprom_update_byte(&eeDHWTempMin, DHWTempMin);
    48c6:	60 91 39 09 	lds	r22, 0x0939	; 0x800939 <DHWTempMin>
    48ca:	8d e7       	ldi	r24, 0x7D	; 125
    48cc:	90 e0       	ldi	r25, 0x00	; 0
    48ce:	0e 94 d5 33 	call	0x67aa	; 0x67aa <eeprom_update_byte>
    48d2:	81 e0       	ldi	r24, 0x01	; 1
    48d4:	08 95       	ret
}

bool DHWTempMin_ActionCallback(MENU_BUTTON *button, uint8_t column){
	switch(button->role){
		case MENU_UP:
			if (DHWTempMin < DHWTempDesired)
    48d6:	80 91 39 09 	lds	r24, 0x0939	; 0x800939 <DHWTempMin>
    48da:	90 91 54 09 	lds	r25, 0x0954	; 0x800954 <DHWTempDesired>
    48de:	89 17       	cp	r24, r25
    48e0:	18 f4       	brcc	.+6      	; 0x48e8 <DHWTempMin_ActionCallback+0x38>
				++DHWTempMin;
    48e2:	8f 5f       	subi	r24, 0xFF	; 255
    48e4:	80 93 39 09 	sts	0x0939, r24	; 0x800939 <DHWTempMin>
			return true;
		case MENU_CANCEL:
			return true;
	}

	DHWTempMin_CallbackRender(column);
    48e8:	86 2f       	mov	r24, r22
    48ea:	0e 94 05 19 	call	0x320a	; 0x320a <DHWTempMin_CallbackRender>
	return false;
    48ee:	80 e0       	ldi	r24, 0x00	; 0
    48f0:	08 95       	ret
		case MENU_UP:
			if (DHWTempMin < DHWTempDesired)
				++DHWTempMin;
			break;
		case MENU_DOWN:
			if (DHWTempMin > 5)
    48f2:	80 91 39 09 	lds	r24, 0x0939	; 0x800939 <DHWTempMin>
    48f6:	86 30       	cpi	r24, 0x06	; 6
    48f8:	b8 f3       	brcs	.-18     	; 0x48e8 <DHWTempMin_ActionCallback+0x38>
				--DHWTempMin;
    48fa:	81 50       	subi	r24, 0x01	; 1
    48fc:	80 93 39 09 	sts	0x0939, r24	; 0x800939 <DHWTempMin>
			return true;
		case MENU_CANCEL:
			return true;
	}

	DHWTempMin_CallbackRender(column);
    4900:	86 2f       	mov	r24, r22
    4902:	0e 94 05 19 	call	0x320a	; 0x320a <DHWTempMin_CallbackRender>
	return false;
    4906:	80 e0       	ldi	r24, 0x00	; 0
    4908:	08 95       	ret

0000490a <ForwardHeatTemp_ActionCallback>:
	lcd_gotoxy(0,1);
	lcd_puts(buf);
}

bool ForwardHeatTemp_ActionCallback(MENU_BUTTON *button, uint8_t column){
	switch(button->role){
    490a:	fc 01       	movw	r30, r24
    490c:	90 81       	ld	r25, Z
    490e:	91 30       	cpi	r25, 0x01	; 1
    4910:	d9 f0       	breq	.+54     	; 0x4948 <ForwardHeatTemp_ActionCallback+0x3e>
    4912:	70 f0       	brcs	.+28     	; 0x4930 <ForwardHeatTemp_ActionCallback+0x26>
    4914:	92 30       	cpi	r25, 0x02	; 2
    4916:	21 f0       	breq	.+8      	; 0x4920 <ForwardHeatTemp_ActionCallback+0x16>
    4918:	93 30       	cpi	r25, 0x03	; 3
    491a:	89 f4       	brne	.+34     	; 0x493e <ForwardHeatTemp_ActionCallback+0x34>
			break;
		case MENU_CONFIRM:
			eeprom_update_byte(&eeForwardHeatTemp, ForwardHeatTemp);
			return true;
		case MENU_CANCEL:
			return true;
    491c:	81 e0       	ldi	r24, 0x01	; 1
	}

	ForwardHeatTemp_CallbackRender(column);
	return false;
}
    491e:	08 95       	ret
		case MENU_DOWN:
			if (ForwardHeatTemp > 20)
				--ForwardHeatTemp;
			break;
		case MENU_CONFIRM:
			eeprom_update_byte(&eeForwardHeatTemp, ForwardHeatTemp);
    4920:	60 91 08 01 	lds	r22, 0x0108	; 0x800108 <ForwardHeatTemp>
    4924:	88 e7       	ldi	r24, 0x78	; 120
    4926:	90 e0       	ldi	r25, 0x00	; 0
    4928:	0e 94 d5 33 	call	0x67aa	; 0x67aa <eeprom_update_byte>
    492c:	81 e0       	ldi	r24, 0x01	; 1
    492e:	08 95       	ret
}

bool ForwardHeatTemp_ActionCallback(MENU_BUTTON *button, uint8_t column){
	switch(button->role){
		case MENU_UP:
			if (ForwardHeatTemp != 90)
    4930:	80 91 08 01 	lds	r24, 0x0108	; 0x800108 <ForwardHeatTemp>
    4934:	8a 35       	cpi	r24, 0x5A	; 90
    4936:	19 f0       	breq	.+6      	; 0x493e <ForwardHeatTemp_ActionCallback+0x34>
				++ForwardHeatTemp;
    4938:	8f 5f       	subi	r24, 0xFF	; 255
    493a:	80 93 08 01 	sts	0x0108, r24	; 0x800108 <ForwardHeatTemp>
			return true;
		case MENU_CANCEL:
			return true;
	}

	ForwardHeatTemp_CallbackRender(column);
    493e:	86 2f       	mov	r24, r22
    4940:	0e 94 29 19 	call	0x3252	; 0x3252 <ForwardHeatTemp_CallbackRender>
	return false;
    4944:	80 e0       	ldi	r24, 0x00	; 0
    4946:	08 95       	ret
		case MENU_UP:
			if (ForwardHeatTemp != 90)
				++ForwardHeatTemp;
			break;
		case MENU_DOWN:
			if (ForwardHeatTemp > 20)
    4948:	80 91 08 01 	lds	r24, 0x0108	; 0x800108 <ForwardHeatTemp>
    494c:	85 31       	cpi	r24, 0x15	; 21
    494e:	b8 f3       	brcs	.-18     	; 0x493e <ForwardHeatTemp_ActionCallback+0x34>
				--ForwardHeatTemp;
    4950:	81 50       	subi	r24, 0x01	; 1
    4952:	80 93 08 01 	sts	0x0108, r24	; 0x800108 <ForwardHeatTemp>
			return true;
		case MENU_CANCEL:
			return true;
	}

	ForwardHeatTemp_CallbackRender(column);
    4956:	86 2f       	mov	r24, r22
    4958:	0e 94 29 19 	call	0x3252	; 0x3252 <ForwardHeatTemp_CallbackRender>
	return false;
    495c:	80 e0       	ldi	r24, 0x00	; 0
    495e:	08 95       	ret

00004960 <BufferMaxTemp_ActionCallback>:
	lcd_gotoxy(0,1);
	lcd_puts(buf);
}

bool BufferMaxTemp_ActionCallback(MENU_BUTTON *button, uint8_t column){
	switch(button->role){
    4960:	fc 01       	movw	r30, r24
    4962:	90 81       	ld	r25, Z
    4964:	91 30       	cpi	r25, 0x01	; 1
    4966:	d9 f0       	breq	.+54     	; 0x499e <BufferMaxTemp_ActionCallback+0x3e>
    4968:	70 f0       	brcs	.+28     	; 0x4986 <BufferMaxTemp_ActionCallback+0x26>
    496a:	92 30       	cpi	r25, 0x02	; 2
    496c:	21 f0       	breq	.+8      	; 0x4976 <BufferMaxTemp_ActionCallback+0x16>
    496e:	93 30       	cpi	r25, 0x03	; 3
    4970:	89 f4       	brne	.+34     	; 0x4994 <BufferMaxTemp_ActionCallback+0x34>
			break;
		case MENU_CONFIRM:
			eeprom_update_byte(&eeBufferMaxTemp, BufferMaxTemp);
			return true;
		case MENU_CANCEL:
			return true;
    4972:	81 e0       	ldi	r24, 0x01	; 1
	}

	ForwardHeatTemp_CallbackRender(column);
	return false;
}
    4974:	08 95       	ret
		case MENU_DOWN:
			if (BufferMaxTemp > 60)
				--BufferMaxTemp;
			break;
		case MENU_CONFIRM:
			eeprom_update_byte(&eeBufferMaxTemp, BufferMaxTemp);
    4976:	60 91 07 01 	lds	r22, 0x0107	; 0x800107 <BufferMaxTemp>
    497a:	87 e7       	ldi	r24, 0x77	; 119
    497c:	90 e0       	ldi	r25, 0x00	; 0
    497e:	0e 94 d5 33 	call	0x67aa	; 0x67aa <eeprom_update_byte>
    4982:	81 e0       	ldi	r24, 0x01	; 1
    4984:	08 95       	ret
}

bool BufferMaxTemp_ActionCallback(MENU_BUTTON *button, uint8_t column){
	switch(button->role){
		case MENU_UP:
			if (BufferMaxTemp != 99)
    4986:	80 91 07 01 	lds	r24, 0x0107	; 0x800107 <BufferMaxTemp>
    498a:	83 36       	cpi	r24, 0x63	; 99
    498c:	19 f0       	breq	.+6      	; 0x4994 <BufferMaxTemp_ActionCallback+0x34>
				++BufferMaxTemp;
    498e:	8f 5f       	subi	r24, 0xFF	; 255
    4990:	80 93 07 01 	sts	0x0107, r24	; 0x800107 <BufferMaxTemp>
			return true;
		case MENU_CANCEL:
			return true;
	}

	ForwardHeatTemp_CallbackRender(column);
    4994:	86 2f       	mov	r24, r22
    4996:	0e 94 29 19 	call	0x3252	; 0x3252 <ForwardHeatTemp_CallbackRender>
	return false;
    499a:	80 e0       	ldi	r24, 0x00	; 0
    499c:	08 95       	ret
		case MENU_UP:
			if (BufferMaxTemp != 99)
				++BufferMaxTemp;
			break;
		case MENU_DOWN:
			if (BufferMaxTemp > 60)
    499e:	80 91 07 01 	lds	r24, 0x0107	; 0x800107 <BufferMaxTemp>
    49a2:	8d 33       	cpi	r24, 0x3D	; 61
    49a4:	b8 f3       	brcs	.-18     	; 0x4994 <BufferMaxTemp_ActionCallback+0x34>
				--BufferMaxTemp;
    49a6:	81 50       	subi	r24, 0x01	; 1
    49a8:	80 93 07 01 	sts	0x0107, r24	; 0x800107 <BufferMaxTemp>
			return true;
		case MENU_CANCEL:
			return true;
	}

	ForwardHeatTemp_CallbackRender(column);
    49ac:	86 2f       	mov	r24, r22
    49ae:	0e 94 29 19 	call	0x3252	; 0x3252 <ForwardHeatTemp_CallbackRender>
	return false;
    49b2:	80 e0       	ldi	r24, 0x00	; 0
    49b4:	08 95       	ret

000049b6 <EngineeringTempMin_ActionCallback>:
	lcd_gotoxy(0,1);
	lcd_puts(buf);
}

bool EngineeringTempMin_ActionCallback(MENU_BUTTON *button, uint8_t column){
	switch(button->role){
    49b6:	fc 01       	movw	r30, r24
    49b8:	90 81       	ld	r25, Z
    49ba:	91 30       	cpi	r25, 0x01	; 1
    49bc:	e9 f0       	breq	.+58     	; 0x49f8 <EngineeringTempMin_ActionCallback+0x42>
    49be:	70 f0       	brcs	.+28     	; 0x49dc <EngineeringTempMin_ActionCallback+0x26>
    49c0:	92 30       	cpi	r25, 0x02	; 2
    49c2:	21 f0       	breq	.+8      	; 0x49cc <EngineeringTempMin_ActionCallback+0x16>
    49c4:	93 30       	cpi	r25, 0x03	; 3
    49c6:	99 f4       	brne	.+38     	; 0x49ee <EngineeringTempMin_ActionCallback+0x38>
			break;
		case MENU_CONFIRM:
			eeprom_update_byte(&eeEngineeringTempMin, EngineeringTempMin);
			return true;
		case MENU_CANCEL:
			return true;
    49c8:	81 e0       	ldi	r24, 0x01	; 1
	}

	EngineeringTempMin_CallbackRender(column);
	return false;
}
    49ca:	08 95       	ret
		case MENU_DOWN:
			if (EngineeringTempMin > 5)
				--EngineeringTempMin;
			break;
		case MENU_CONFIRM:
			eeprom_update_byte(&eeEngineeringTempMin, EngineeringTempMin);
    49cc:	60 91 de 09 	lds	r22, 0x09DE	; 0x8009de <EngineeringTempMin>
    49d0:	84 e7       	ldi	r24, 0x74	; 116
    49d2:	90 e0       	ldi	r25, 0x00	; 0
    49d4:	0e 94 d5 33 	call	0x67aa	; 0x67aa <eeprom_update_byte>
    49d8:	81 e0       	ldi	r24, 0x01	; 1
    49da:	08 95       	ret
}

bool EngineeringTempMin_ActionCallback(MENU_BUTTON *button, uint8_t column){
	switch(button->role){
		case MENU_UP:
			if (EngineeringTempMin < EngineeringTempDesired)
    49dc:	80 91 de 09 	lds	r24, 0x09DE	; 0x8009de <EngineeringTempMin>
    49e0:	90 91 18 09 	lds	r25, 0x0918	; 0x800918 <EngineeringTempDesired>
    49e4:	89 17       	cp	r24, r25
    49e6:	18 f4       	brcc	.+6      	; 0x49ee <EngineeringTempMin_ActionCallback+0x38>
				++EngineeringTempMin;
    49e8:	8f 5f       	subi	r24, 0xFF	; 255
    49ea:	80 93 de 09 	sts	0x09DE, r24	; 0x8009de <EngineeringTempMin>
			return true;
		case MENU_CANCEL:
			return true;
	}

	EngineeringTempMin_CallbackRender(column);
    49ee:	86 2f       	mov	r24, r22
    49f0:	0e 94 71 19 	call	0x32e2	; 0x32e2 <EngineeringTempMin_CallbackRender>
	return false;
    49f4:	80 e0       	ldi	r24, 0x00	; 0
    49f6:	08 95       	ret
		case MENU_UP:
			if (EngineeringTempMin < EngineeringTempDesired)
				++EngineeringTempMin;
			break;
		case MENU_DOWN:
			if (EngineeringTempMin > 5)
    49f8:	80 91 de 09 	lds	r24, 0x09DE	; 0x8009de <EngineeringTempMin>
    49fc:	86 30       	cpi	r24, 0x06	; 6
    49fe:	b8 f3       	brcs	.-18     	; 0x49ee <EngineeringTempMin_ActionCallback+0x38>
				--EngineeringTempMin;
    4a00:	81 50       	subi	r24, 0x01	; 1
    4a02:	80 93 de 09 	sts	0x09DE, r24	; 0x8009de <EngineeringTempMin>
			return true;
		case MENU_CANCEL:
			return true;
	}

	EngineeringTempMin_CallbackRender(column);
    4a06:	86 2f       	mov	r24, r22
    4a08:	0e 94 71 19 	call	0x32e2	; 0x32e2 <EngineeringTempMin_CallbackRender>
	return false;
    4a0c:	80 e0       	ldi	r24, 0x00	; 0
    4a0e:	08 95       	ret

00004a10 <EngineeringTempDesired_ActionCallback>:
	lcd_gotoxy(0,1);
	lcd_puts(buf);
}

bool EngineeringTempDesired_ActionCallback(MENU_BUTTON *button, uint8_t column){
	switch(button->role){
    4a10:	fc 01       	movw	r30, r24
    4a12:	90 81       	ld	r25, Z
    4a14:	91 30       	cpi	r25, 0x01	; 1
    4a16:	d9 f0       	breq	.+54     	; 0x4a4e <EngineeringTempDesired_ActionCallback+0x3e>
    4a18:	70 f0       	brcs	.+28     	; 0x4a36 <EngineeringTempDesired_ActionCallback+0x26>
    4a1a:	92 30       	cpi	r25, 0x02	; 2
    4a1c:	21 f0       	breq	.+8      	; 0x4a26 <EngineeringTempDesired_ActionCallback+0x16>
    4a1e:	93 30       	cpi	r25, 0x03	; 3
    4a20:	89 f4       	brne	.+34     	; 0x4a44 <EngineeringTempDesired_ActionCallback+0x34>
			break;
		case MENU_CONFIRM:
			eeprom_update_byte(&eeEngineeringTempDesired, EngineeringTempDesired);
			return true;
		case MENU_CANCEL:
			return true;
    4a22:	81 e0       	ldi	r24, 0x01	; 1
	}
	EngineeringTempDesired_CallbackRender(column);
	return false;
}
    4a24:	08 95       	ret
		case MENU_DOWN:
			if (EngineeringTempDesired > EngineeringTempMin)
				--EngineeringTempDesired;
			break;
		case MENU_CONFIRM:
			eeprom_update_byte(&eeEngineeringTempDesired, EngineeringTempDesired);
    4a26:	60 91 18 09 	lds	r22, 0x0918	; 0x800918 <EngineeringTempDesired>
    4a2a:	85 e7       	ldi	r24, 0x75	; 117
    4a2c:	90 e0       	ldi	r25, 0x00	; 0
    4a2e:	0e 94 d5 33 	call	0x67aa	; 0x67aa <eeprom_update_byte>
    4a32:	81 e0       	ldi	r24, 0x01	; 1
    4a34:	08 95       	ret
}

bool EngineeringTempDesired_ActionCallback(MENU_BUTTON *button, uint8_t column){
	switch(button->role){
		case MENU_UP:
			if (EngineeringTempDesired < 35)
    4a36:	80 91 18 09 	lds	r24, 0x0918	; 0x800918 <EngineeringTempDesired>
    4a3a:	83 32       	cpi	r24, 0x23	; 35
    4a3c:	18 f4       	brcc	.+6      	; 0x4a44 <EngineeringTempDesired_ActionCallback+0x34>
				++EngineeringTempDesired;
    4a3e:	8f 5f       	subi	r24, 0xFF	; 255
    4a40:	80 93 18 09 	sts	0x0918, r24	; 0x800918 <EngineeringTempDesired>
			eeprom_update_byte(&eeEngineeringTempDesired, EngineeringTempDesired);
			return true;
		case MENU_CANCEL:
			return true;
	}
	EngineeringTempDesired_CallbackRender(column);
    4a44:	86 2f       	mov	r24, r22
    4a46:	0e 94 95 19 	call	0x332a	; 0x332a <EngineeringTempDesired_CallbackRender>
	return false;
    4a4a:	80 e0       	ldi	r24, 0x00	; 0
    4a4c:	08 95       	ret
		case MENU_UP:
			if (EngineeringTempDesired < 35)
				++EngineeringTempDesired;
			break;
		case MENU_DOWN:
			if (EngineeringTempDesired > EngineeringTempMin)
    4a4e:	80 91 18 09 	lds	r24, 0x0918	; 0x800918 <EngineeringTempDesired>
    4a52:	90 91 de 09 	lds	r25, 0x09DE	; 0x8009de <EngineeringTempMin>
    4a56:	98 17       	cp	r25, r24
    4a58:	a8 f7       	brcc	.-22     	; 0x4a44 <EngineeringTempDesired_ActionCallback+0x34>
				--EngineeringTempDesired;
    4a5a:	81 50       	subi	r24, 0x01	; 1
    4a5c:	80 93 18 09 	sts	0x0918, r24	; 0x800918 <EngineeringTempDesired>
			eeprom_update_byte(&eeEngineeringTempDesired, EngineeringTempDesired);
			return true;
		case MENU_CANCEL:
			return true;
	}
	EngineeringTempDesired_CallbackRender(column);
    4a60:	86 2f       	mov	r24, r22
    4a62:	0e 94 95 19 	call	0x332a	; 0x332a <EngineeringTempDesired_CallbackRender>
	return false;
    4a66:	80 e0       	ldi	r24, 0x00	; 0
    4a68:	08 95       	ret

00004a6a <Mode_ActionCallback>:
			break;		
	}
}

bool Mode_ActionCallback(MENU_BUTTON *button, uint8_t column){
	switch(button->role){
    4a6a:	fc 01       	movw	r30, r24
    4a6c:	90 81       	ld	r25, Z
    4a6e:	91 30       	cpi	r25, 0x01	; 1
    4a70:	d9 f0       	breq	.+54     	; 0x4aa8 <Mode_ActionCallback+0x3e>
    4a72:	70 f0       	brcs	.+28     	; 0x4a90 <Mode_ActionCallback+0x26>
    4a74:	92 30       	cpi	r25, 0x02	; 2
    4a76:	21 f0       	breq	.+8      	; 0x4a80 <Mode_ActionCallback+0x16>
    4a78:	93 30       	cpi	r25, 0x03	; 3
    4a7a:	89 f4       	brne	.+34     	; 0x4a9e <Mode_ActionCallback+0x34>
			break;
		case MENU_CONFIRM:
			eeprom_update_byte(&eeMode, Mode);
			return true;
		case MENU_CANCEL:
			return true;
    4a7c:	81 e0       	ldi	r24, 0x01	; 1
	}

	Mode_CallbackRender(column);
	return false;
}
    4a7e:	08 95       	ret
		case MENU_DOWN:
			if (--Mode == 255)
				Mode = 2;
			break;
		case MENU_CONFIRM:
			eeprom_update_byte(&eeMode, Mode);
    4a80:	60 91 77 08 	lds	r22, 0x0877	; 0x800877 <Mode>
    4a84:	8d e8       	ldi	r24, 0x8D	; 141
    4a86:	90 e0       	ldi	r25, 0x00	; 0
    4a88:	0e 94 d5 33 	call	0x67aa	; 0x67aa <eeprom_update_byte>
    4a8c:	81 e0       	ldi	r24, 0x01	; 1
    4a8e:	08 95       	ret
}

bool Mode_ActionCallback(MENU_BUTTON *button, uint8_t column){
	switch(button->role){
		case MENU_UP:
			if (++Mode == 3)
    4a90:	80 91 77 08 	lds	r24, 0x0877	; 0x800877 <Mode>
    4a94:	8f 5f       	subi	r24, 0xFF	; 255
    4a96:	83 30       	cpi	r24, 0x03	; 3
    4a98:	61 f4       	brne	.+24     	; 0x4ab2 <Mode_ActionCallback+0x48>
				Mode = 0;
    4a9a:	10 92 77 08 	sts	0x0877, r1	; 0x800877 <Mode>
			return true;
		case MENU_CANCEL:
			return true;
	}

	Mode_CallbackRender(column);
    4a9e:	86 2f       	mov	r24, r22
    4aa0:	0e 94 28 18 	call	0x3050	; 0x3050 <Mode_CallbackRender>
	return false;
    4aa4:	80 e0       	ldi	r24, 0x00	; 0
    4aa6:	08 95       	ret
		case MENU_UP:
			if (++Mode == 3)
				Mode = 0;
			break;
		case MENU_DOWN:
			if (--Mode == 255)
    4aa8:	80 91 77 08 	lds	r24, 0x0877	; 0x800877 <Mode>
    4aac:	81 50       	subi	r24, 0x01	; 1
    4aae:	08 f4       	brcc	.+2      	; 0x4ab2 <Mode_ActionCallback+0x48>
				Mode = 2;
    4ab0:	82 e0       	ldi	r24, 0x02	; 2
    4ab2:	80 93 77 08 	sts	0x0877, r24	; 0x800877 <Mode>
			return true;
		case MENU_CANCEL:
			return true;
	}

	Mode_CallbackRender(column);
    4ab6:	86 2f       	mov	r24, r22
    4ab8:	0e 94 28 18 	call	0x3050	; 0x3050 <Mode_CallbackRender>
	return false;
    4abc:	80 e0       	ldi	r24, 0x00	; 0
    4abe:	08 95       	ret

00004ac0 <MenuTimer_ActionCallback>:
	itoa(MenuTimer, buf, 10);
	lcd_puts(buf);
}

bool MenuTimer_ActionCallback(MENU_BUTTON *button, uint8_t column){
	switch(button->role){
    4ac0:	fc 01       	movw	r30, r24
    4ac2:	90 81       	ld	r25, Z
    4ac4:	91 30       	cpi	r25, 0x01	; 1
    4ac6:	c9 f0       	breq	.+50     	; 0x4afa <MenuTimer_ActionCallback+0x3a>
    4ac8:	70 f0       	brcs	.+28     	; 0x4ae6 <MenuTimer_ActionCallback+0x26>
    4aca:	92 30       	cpi	r25, 0x02	; 2
    4acc:	21 f0       	breq	.+8      	; 0x4ad6 <MenuTimer_ActionCallback+0x16>
    4ace:	93 30       	cpi	r25, 0x03	; 3
    4ad0:	79 f4       	brne	.+30     	; 0x4af0 <MenuTimer_ActionCallback+0x30>
			break;
		case MENU_CONFIRM:
			eeprom_update_byte(&eeMenuTimer, MenuTimer);
			return true;
		case MENU_CANCEL:
			return true;
    4ad2:	81 e0       	ldi	r24, 0x01	; 1
	}

	MenuTimer_CallbackRender(column);
	return false;
}
    4ad4:	08 95       	ret
			break;
		case MENU_DOWN:
			--MenuTimer;
			break;
		case MENU_CONFIRM:
			eeprom_update_byte(&eeMenuTimer, MenuTimer);
    4ad6:	60 91 0b 01 	lds	r22, 0x010B	; 0x80010b <MenuTimer>
    4ada:	8c e8       	ldi	r24, 0x8C	; 140
    4adc:	90 e0       	ldi	r25, 0x00	; 0
    4ade:	0e 94 d5 33 	call	0x67aa	; 0x67aa <eeprom_update_byte>
    4ae2:	81 e0       	ldi	r24, 0x01	; 1
    4ae4:	08 95       	ret
}

bool MenuTimer_ActionCallback(MENU_BUTTON *button, uint8_t column){
	switch(button->role){
		case MENU_UP:
			++MenuTimer;
    4ae6:	80 91 0b 01 	lds	r24, 0x010B	; 0x80010b <MenuTimer>
    4aea:	8f 5f       	subi	r24, 0xFF	; 255
    4aec:	80 93 0b 01 	sts	0x010B, r24	; 0x80010b <MenuTimer>
			return true;
		case MENU_CANCEL:
			return true;
	}

	MenuTimer_CallbackRender(column);
    4af0:	86 2f       	mov	r24, r22
    4af2:	0e 94 bf 19 	call	0x337e	; 0x337e <MenuTimer_CallbackRender>
	return false;
    4af6:	80 e0       	ldi	r24, 0x00	; 0
    4af8:	08 95       	ret
	switch(button->role){
		case MENU_UP:
			++MenuTimer;
			break;
		case MENU_DOWN:
			--MenuTimer;
    4afa:	80 91 0b 01 	lds	r24, 0x010B	; 0x80010b <MenuTimer>
    4afe:	81 50       	subi	r24, 0x01	; 1
    4b00:	80 93 0b 01 	sts	0x010B, r24	; 0x80010b <MenuTimer>
			return true;
		case MENU_CANCEL:
			return true;
	}

	MenuTimer_CallbackRender(column);
    4b04:	86 2f       	mov	r24, r22
    4b06:	0e 94 bf 19 	call	0x337e	; 0x337e <MenuTimer_CallbackRender>
	return false;
    4b0a:	80 e0       	ldi	r24, 0x00	; 0
    4b0c:	08 95       	ret

00004b0e <LCDBackLight_ActionCallback>:
	itoa(LCDBackLight, buf, 10);
	lcd_puts(buf);
}

bool LCDBackLight_ActionCallback(MENU_BUTTON *button, uint8_t column){
	switch(button->role){
    4b0e:	fc 01       	movw	r30, r24
    4b10:	90 81       	ld	r25, Z
    4b12:	91 30       	cpi	r25, 0x01	; 1
    4b14:	19 f1       	breq	.+70     	; 0x4b5c <LCDBackLight_ActionCallback+0x4e>
    4b16:	e0 f0       	brcs	.+56     	; 0x4b50 <LCDBackLight_ActionCallback+0x42>
    4b18:	92 30       	cpi	r25, 0x02	; 2
    4b1a:	21 f0       	breq	.+8      	; 0x4b24 <LCDBackLight_ActionCallback+0x16>
    4b1c:	93 30       	cpi	r25, 0x03	; 3
    4b1e:	51 f4       	brne	.+20     	; 0x4b34 <LCDBackLight_ActionCallback+0x26>
			break;
		case MENU_CONFIRM:
			eeprom_update_byte(&eeLCDBackLight, LCDBackLight);
			return true;
		case MENU_CANCEL:
			return true;
    4b20:	81 e0       	ldi	r24, 0x01	; 1
	if (LCDBackLight != 0)
		OCR3C = LCDBackLight;

	LCDBackLight_CallbackRender(column);
	return false;
}
    4b22:	08 95       	ret
			break;
		case MENU_DOWN:
			--LCDBackLight;
			break;
		case MENU_CONFIRM:
			eeprom_update_byte(&eeLCDBackLight, LCDBackLight);
    4b24:	60 91 76 08 	lds	r22, 0x0876	; 0x800876 <LCDBackLight>
    4b28:	8b e8       	ldi	r24, 0x8B	; 139
    4b2a:	90 e0       	ldi	r25, 0x00	; 0
    4b2c:	0e 94 d5 33 	call	0x67aa	; 0x67aa <eeprom_update_byte>
    4b30:	81 e0       	ldi	r24, 0x01	; 1
    4b32:	08 95       	ret
    4b34:	20 91 76 08 	lds	r18, 0x0876	; 0x800876 <LCDBackLight>
			return true;
		case MENU_CANCEL:
			return true;
	}
	if (LCDBackLight != 0)
    4b38:	22 23       	and	r18, r18
    4b3a:	29 f0       	breq	.+10     	; 0x4b46 <LCDBackLight_ActionCallback+0x38>
		OCR3C = LCDBackLight;
    4b3c:	30 e0       	ldi	r19, 0x00	; 0
    4b3e:	30 93 83 00 	sts	0x0083, r19	; 0x800083 <__TEXT_REGION_LENGTH__+0x7f0083>
    4b42:	20 93 82 00 	sts	0x0082, r18	; 0x800082 <__TEXT_REGION_LENGTH__+0x7f0082>

	LCDBackLight_CallbackRender(column);
    4b46:	86 2f       	mov	r24, r22
    4b48:	0e 94 e3 19 	call	0x33c6	; 0x33c6 <LCDBackLight_CallbackRender>
	return false;
    4b4c:	80 e0       	ldi	r24, 0x00	; 0
    4b4e:	08 95       	ret
}

bool LCDBackLight_ActionCallback(MENU_BUTTON *button, uint8_t column){
	switch(button->role){
		case MENU_UP:
			++LCDBackLight;
    4b50:	20 91 76 08 	lds	r18, 0x0876	; 0x800876 <LCDBackLight>
    4b54:	2f 5f       	subi	r18, 0xFF	; 255
    4b56:	20 93 76 08 	sts	0x0876, r18	; 0x800876 <LCDBackLight>
			break;
    4b5a:	ee cf       	rjmp	.-36     	; 0x4b38 <LCDBackLight_ActionCallback+0x2a>
		case MENU_DOWN:
			--LCDBackLight;
    4b5c:	20 91 76 08 	lds	r18, 0x0876	; 0x800876 <LCDBackLight>
    4b60:	21 50       	subi	r18, 0x01	; 1
    4b62:	20 93 76 08 	sts	0x0876, r18	; 0x800876 <LCDBackLight>
			break;
    4b66:	e8 cf       	rjmp	.-48     	; 0x4b38 <LCDBackLight_ActionCallback+0x2a>

00004b68 <GasForwardHeatTemp_ActionCallback>:
	itoa(GasForwardHeatTemp, buf, 10);
	lcd_puts(buf);
}

bool GasForwardHeatTemp_ActionCallback(MENU_BUTTON *button, uint8_t column){
	switch(button->role){
    4b68:	fc 01       	movw	r30, r24
    4b6a:	90 81       	ld	r25, Z
    4b6c:	91 30       	cpi	r25, 0x01	; 1
    4b6e:	c9 f0       	breq	.+50     	; 0x4ba2 <GasForwardHeatTemp_ActionCallback+0x3a>
    4b70:	70 f0       	brcs	.+28     	; 0x4b8e <GasForwardHeatTemp_ActionCallback+0x26>
    4b72:	92 30       	cpi	r25, 0x02	; 2
    4b74:	21 f0       	breq	.+8      	; 0x4b7e <GasForwardHeatTemp_ActionCallback+0x16>
    4b76:	93 30       	cpi	r25, 0x03	; 3
    4b78:	79 f4       	brne	.+30     	; 0x4b98 <GasForwardHeatTemp_ActionCallback+0x30>
			break;
		case MENU_CONFIRM:
			eeprom_update_byte(&eeGasForwardHeatTemp, GasForwardHeatTemp);
			return true;
		case MENU_CANCEL:
			return true;
    4b7a:	81 e0       	ldi	r24, 0x01	; 1
	}

	GasForwardHeatTemp_CallbackRender(column);
	return false;
}
    4b7c:	08 95       	ret
			break;
		case MENU_DOWN:
			--GasForwardHeatTemp;
			break;
		case MENU_CONFIRM:
			eeprom_update_byte(&eeGasForwardHeatTemp, GasForwardHeatTemp);
    4b7e:	60 91 06 01 	lds	r22, 0x0106	; 0x800106 <GasForwardHeatTemp>
    4b82:	86 e7       	ldi	r24, 0x76	; 118
    4b84:	90 e0       	ldi	r25, 0x00	; 0
    4b86:	0e 94 d5 33 	call	0x67aa	; 0x67aa <eeprom_update_byte>
    4b8a:	81 e0       	ldi	r24, 0x01	; 1
    4b8c:	08 95       	ret
}

bool GasForwardHeatTemp_ActionCallback(MENU_BUTTON *button, uint8_t column){
	switch(button->role){
		case MENU_UP:
			++GasForwardHeatTemp;
    4b8e:	80 91 06 01 	lds	r24, 0x0106	; 0x800106 <GasForwardHeatTemp>
    4b92:	8f 5f       	subi	r24, 0xFF	; 255
    4b94:	80 93 06 01 	sts	0x0106, r24	; 0x800106 <GasForwardHeatTemp>
			return true;
		case MENU_CANCEL:
			return true;
	}

	GasForwardHeatTemp_CallbackRender(column);
    4b98:	86 2f       	mov	r24, r22
    4b9a:	0e 94 2c 1a 	call	0x3458	; 0x3458 <GasForwardHeatTemp_CallbackRender>
	return false;
    4b9e:	80 e0       	ldi	r24, 0x00	; 0
    4ba0:	08 95       	ret
	switch(button->role){
		case MENU_UP:
			++GasForwardHeatTemp;
			break;
		case MENU_DOWN:
			--GasForwardHeatTemp;
    4ba2:	80 91 06 01 	lds	r24, 0x0106	; 0x800106 <GasForwardHeatTemp>
    4ba6:	81 50       	subi	r24, 0x01	; 1
    4ba8:	80 93 06 01 	sts	0x0106, r24	; 0x800106 <GasForwardHeatTemp>
			return true;
		case MENU_CANCEL:
			return true;
	}

	GasForwardHeatTemp_CallbackRender(column);
    4bac:	86 2f       	mov	r24, r22
    4bae:	0e 94 2c 1a 	call	0x3458	; 0x3458 <GasForwardHeatTemp_CallbackRender>
	return false;
    4bb2:	80 e0       	ldi	r24, 0x00	; 0
    4bb4:	08 95       	ret

00004bb6 <ComfortForwardTemp_ActionCallback>:
	itoa(ComfortForwardTemp, buf, 10);
	lcd_puts(buf);
}

bool ComfortForwardTemp_ActionCallback(MENU_BUTTON *button, uint8_t column){
	switch(button->role){
    4bb6:	fc 01       	movw	r30, r24
    4bb8:	90 81       	ld	r25, Z
    4bba:	91 30       	cpi	r25, 0x01	; 1
    4bbc:	01 f1       	breq	.+64     	; 0x4bfe <ComfortForwardTemp_ActionCallback+0x48>
    4bbe:	70 f0       	brcs	.+28     	; 0x4bdc <ComfortForwardTemp_ActionCallback+0x26>
    4bc0:	92 30       	cpi	r25, 0x02	; 2
    4bc2:	21 f0       	breq	.+8      	; 0x4bcc <ComfortForwardTemp_ActionCallback+0x16>
    4bc4:	93 30       	cpi	r25, 0x03	; 3
    4bc6:	b1 f4       	brne	.+44     	; 0x4bf4 <ComfortForwardTemp_ActionCallback+0x3e>
			break;
		case MENU_CONFIRM:
			eeprom_update_byte(&eeComfortForwardTemp, ComfortForwardTemp);
			return true;
		case MENU_CANCEL:
			return true;
    4bc8:	81 e0       	ldi	r24, 0x01	; 1
	}

	ComfortForwardTemp_CallbackRender(column);
	return false;
}
    4bca:	08 95       	ret
		case MENU_DOWN:
			if (--ComfortForwardTemp == 10)
				ComfortForwardTemp++;
			break;
		case MENU_CONFIRM:
			eeprom_update_byte(&eeComfortForwardTemp, ComfortForwardTemp);
    4bcc:	60 91 09 01 	lds	r22, 0x0109	; 0x800109 <ComfortForwardTemp>
    4bd0:	85 e8       	ldi	r24, 0x85	; 133
    4bd2:	90 e0       	ldi	r25, 0x00	; 0
    4bd4:	0e 94 d5 33 	call	0x67aa	; 0x67aa <eeprom_update_byte>
    4bd8:	81 e0       	ldi	r24, 0x01	; 1
    4bda:	08 95       	ret
}

bool ComfortForwardTemp_ActionCallback(MENU_BUTTON *button, uint8_t column){
	switch(button->role){
		case MENU_UP:
			if (++ComfortForwardTemp == ForwardHeatTemp)
    4bdc:	90 91 09 01 	lds	r25, 0x0109	; 0x800109 <ComfortForwardTemp>
    4be0:	81 e0       	ldi	r24, 0x01	; 1
    4be2:	89 0f       	add	r24, r25
    4be4:	80 93 09 01 	sts	0x0109, r24	; 0x800109 <ComfortForwardTemp>
    4be8:	20 91 08 01 	lds	r18, 0x0108	; 0x800108 <ForwardHeatTemp>
    4bec:	82 13       	cpse	r24, r18
    4bee:	02 c0       	rjmp	.+4      	; 0x4bf4 <ComfortForwardTemp_ActionCallback+0x3e>
				ComfortForwardTemp--;
    4bf0:	90 93 09 01 	sts	0x0109, r25	; 0x800109 <ComfortForwardTemp>
			return true;
		case MENU_CANCEL:
			return true;
	}

	ComfortForwardTemp_CallbackRender(column);
    4bf4:	86 2f       	mov	r24, r22
    4bf6:	0e 94 74 1b 	call	0x36e8	; 0x36e8 <ComfortForwardTemp_CallbackRender>
	return false;
    4bfa:	80 e0       	ldi	r24, 0x00	; 0
    4bfc:	08 95       	ret
		case MENU_UP:
			if (++ComfortForwardTemp == ForwardHeatTemp)
				ComfortForwardTemp--;
			break;
		case MENU_DOWN:
			if (--ComfortForwardTemp == 10)
    4bfe:	80 91 09 01 	lds	r24, 0x0109	; 0x800109 <ComfortForwardTemp>
    4c02:	81 50       	subi	r24, 0x01	; 1
    4c04:	8a 30       	cpi	r24, 0x0A	; 10
    4c06:	b1 f3       	breq	.-20     	; 0x4bf4 <ComfortForwardTemp_ActionCallback+0x3e>
    4c08:	80 93 09 01 	sts	0x0109, r24	; 0x800109 <ComfortForwardTemp>
			return true;
		case MENU_CANCEL:
			return true;
	}

	ComfortForwardTemp_CallbackRender(column);
    4c0c:	86 2f       	mov	r24, r22
    4c0e:	0e 94 74 1b 	call	0x36e8	; 0x36e8 <ComfortForwardTemp_CallbackRender>
	return false;
    4c12:	80 e0       	ldi	r24, 0x00	; 0
    4c14:	08 95       	ret

00004c16 <SwitchOnOutdoorTempMin_ActionCallback>:
	itoa(SwitchOnOutdoorTempMin, buf, 10);
	lcd_puts(buf);
}

bool SwitchOnOutdoorTempMin_ActionCallback(MENU_BUTTON *button, uint8_t column){
	switch(button->role){
    4c16:	fc 01       	movw	r30, r24
    4c18:	90 81       	ld	r25, Z
    4c1a:	91 30       	cpi	r25, 0x01	; 1
    4c1c:	21 f1       	breq	.+72     	; 0x4c66 <SwitchOnOutdoorTempMin_ActionCallback+0x50>
    4c1e:	80 f0       	brcs	.+32     	; 0x4c40 <SwitchOnOutdoorTempMin_ActionCallback+0x2a>
    4c20:	92 30       	cpi	r25, 0x02	; 2
    4c22:	21 f0       	breq	.+8      	; 0x4c2c <SwitchOnOutdoorTempMin_ActionCallback+0x16>
    4c24:	93 30       	cpi	r25, 0x03	; 3
    4c26:	d1 f4       	brne	.+52     	; 0x4c5c <SwitchOnOutdoorTempMin_ActionCallback+0x46>
			break;
		case MENU_CONFIRM:
			eeprom_update_word(&eeSwitchOnOutdoorTempMin, (uint16_t)SwitchOnOutdoorTempMin);
			return true;
		case MENU_CANCEL:
			return true;
    4c28:	81 e0       	ldi	r24, 0x01	; 1
	}

	SwitchOnOutdoorTempMin_CallbackRender(column);
	return false;
}
    4c2a:	08 95       	ret
				SwitchOnOutdoorTempMin--;
			else
				SwitchOnOutdoorTempMin = 350;
			break;
		case MENU_CONFIRM:
			eeprom_update_word(&eeSwitchOnOutdoorTempMin, (uint16_t)SwitchOnOutdoorTempMin);
    4c2c:	60 91 34 09 	lds	r22, 0x0934	; 0x800934 <SwitchOnOutdoorTempMin>
    4c30:	70 91 35 09 	lds	r23, 0x0935	; 0x800935 <SwitchOnOutdoorTempMin+0x1>
    4c34:	89 e6       	ldi	r24, 0x69	; 105
    4c36:	90 e0       	ldi	r25, 0x00	; 0
    4c38:	0e 94 e6 33 	call	0x67cc	; 0x67cc <eeprom_update_word>
    4c3c:	81 e0       	ldi	r24, 0x01	; 1
    4c3e:	08 95       	ret
}

bool SwitchOnOutdoorTempMin_ActionCallback(MENU_BUTTON *button, uint8_t column){
	switch(button->role){
		case MENU_UP:
			if (SwitchOnOutdoorTempMin > 349)
    4c40:	80 91 34 09 	lds	r24, 0x0934	; 0x800934 <SwitchOnOutdoorTempMin>
    4c44:	90 91 35 09 	lds	r25, 0x0935	; 0x800935 <SwitchOnOutdoorTempMin+0x1>
    4c48:	8e 35       	cpi	r24, 0x5E	; 94
    4c4a:	f1 e0       	ldi	r31, 0x01	; 1
    4c4c:	9f 07       	cpc	r25, r31
    4c4e:	3c f1       	brlt	.+78     	; 0x4c9e <SwitchOnOutdoorTempMin_ActionCallback+0x88>
				SwitchOnOutdoorTempMin = 31;
    4c50:	8f e1       	ldi	r24, 0x1F	; 31
    4c52:	90 e0       	ldi	r25, 0x00	; 0
    4c54:	90 93 35 09 	sts	0x0935, r25	; 0x800935 <SwitchOnOutdoorTempMin+0x1>
    4c58:	80 93 34 09 	sts	0x0934, r24	; 0x800934 <SwitchOnOutdoorTempMin>
			return true;
		case MENU_CANCEL:
			return true;
	}

	SwitchOnOutdoorTempMin_CallbackRender(column);
    4c5c:	86 2f       	mov	r24, r22
    4c5e:	0e 94 ba 18 	call	0x3174	; 0x3174 <SwitchOnOutdoorTempMin_CallbackRender>
	return false;
    4c62:	80 e0       	ldi	r24, 0x00	; 0
    4c64:	08 95       	ret
				SwitchOnOutdoorTempMin = 31;
			else
				SwitchOnOutdoorTempMin++;
			break;
		case MENU_DOWN:
			if (SwitchOnOutdoorTempMin > 31)
    4c66:	80 91 34 09 	lds	r24, 0x0934	; 0x800934 <SwitchOnOutdoorTempMin>
    4c6a:	90 91 35 09 	lds	r25, 0x0935	; 0x800935 <SwitchOnOutdoorTempMin+0x1>
    4c6e:	80 32       	cpi	r24, 0x20	; 32
    4c70:	91 05       	cpc	r25, r1
    4c72:	54 f0       	brlt	.+20     	; 0x4c88 <SwitchOnOutdoorTempMin_ActionCallback+0x72>
				SwitchOnOutdoorTempMin--;
    4c74:	01 97       	sbiw	r24, 0x01	; 1
    4c76:	90 93 35 09 	sts	0x0935, r25	; 0x800935 <SwitchOnOutdoorTempMin+0x1>
    4c7a:	80 93 34 09 	sts	0x0934, r24	; 0x800934 <SwitchOnOutdoorTempMin>
			return true;
		case MENU_CANCEL:
			return true;
	}

	SwitchOnOutdoorTempMin_CallbackRender(column);
    4c7e:	86 2f       	mov	r24, r22
    4c80:	0e 94 ba 18 	call	0x3174	; 0x3174 <SwitchOnOutdoorTempMin_CallbackRender>
	return false;
    4c84:	80 e0       	ldi	r24, 0x00	; 0
    4c86:	08 95       	ret
			break;
		case MENU_DOWN:
			if (SwitchOnOutdoorTempMin > 31)
				SwitchOnOutdoorTempMin--;
			else
				SwitchOnOutdoorTempMin = 350;
    4c88:	8e e5       	ldi	r24, 0x5E	; 94
    4c8a:	91 e0       	ldi	r25, 0x01	; 1
    4c8c:	90 93 35 09 	sts	0x0935, r25	; 0x800935 <SwitchOnOutdoorTempMin+0x1>
    4c90:	80 93 34 09 	sts	0x0934, r24	; 0x800934 <SwitchOnOutdoorTempMin>
			return true;
		case MENU_CANCEL:
			return true;
	}

	SwitchOnOutdoorTempMin_CallbackRender(column);
    4c94:	86 2f       	mov	r24, r22
    4c96:	0e 94 ba 18 	call	0x3174	; 0x3174 <SwitchOnOutdoorTempMin_CallbackRender>
	return false;
    4c9a:	80 e0       	ldi	r24, 0x00	; 0
    4c9c:	08 95       	ret
	switch(button->role){
		case MENU_UP:
			if (SwitchOnOutdoorTempMin > 349)
				SwitchOnOutdoorTempMin = 31;
			else
				SwitchOnOutdoorTempMin++;
    4c9e:	01 96       	adiw	r24, 0x01	; 1
    4ca0:	90 93 35 09 	sts	0x0935, r25	; 0x800935 <SwitchOnOutdoorTempMin+0x1>
    4ca4:	80 93 34 09 	sts	0x0934, r24	; 0x800934 <SwitchOnOutdoorTempMin>
			return true;
		case MENU_CANCEL:
			return true;
	}

	SwitchOnOutdoorTempMin_CallbackRender(column);
    4ca8:	86 2f       	mov	r24, r22
    4caa:	0e 94 ba 18 	call	0x3174	; 0x3174 <SwitchOnOutdoorTempMin_CallbackRender>
	return false;
    4cae:	80 e0       	ldi	r24, 0x00	; 0
    4cb0:	08 95       	ret

00004cb2 <PumpPlusTime_ActionCallback>:
	itoa(PumpPlusTime, buf, 10);
	lcd_puts(buf);
}

bool PumpPlusTime_ActionCallback(MENU_BUTTON *button, uint8_t column){
	switch(button->role){
    4cb2:	fc 01       	movw	r30, r24
    4cb4:	90 81       	ld	r25, Z
    4cb6:	91 30       	cpi	r25, 0x01	; 1
    4cb8:	f9 f0       	breq	.+62     	; 0x4cf8 <PumpPlusTime_ActionCallback+0x46>
    4cba:	80 f0       	brcs	.+32     	; 0x4cdc <PumpPlusTime_ActionCallback+0x2a>
    4cbc:	92 30       	cpi	r25, 0x02	; 2
    4cbe:	21 f0       	breq	.+8      	; 0x4cc8 <PumpPlusTime_ActionCallback+0x16>
    4cc0:	93 30       	cpi	r25, 0x03	; 3
    4cc2:	a9 f4       	brne	.+42     	; 0x4cee <PumpPlusTime_ActionCallback+0x3c>
			break;
		case MENU_CONFIRM:
			eeprom_update_word(&eePumpPlusTime, PumpPlusTime);
			return true;
		case MENU_CANCEL:
			return true;
    4cc4:	81 e0       	ldi	r24, 0x01	; 1
	}

	PumpPlusTime_CallbackRender(column);
	return false;
}
    4cc6:	08 95       	ret
			break;
		case MENU_DOWN:
			--PumpPlusTime;
			break;
		case MENU_CONFIRM:
			eeprom_update_word(&eePumpPlusTime, PumpPlusTime);
    4cc8:	60 91 f7 09 	lds	r22, 0x09F7	; 0x8009f7 <PumpPlusTime>
    4ccc:	70 91 f8 09 	lds	r23, 0x09F8	; 0x8009f8 <PumpPlusTime+0x1>
    4cd0:	89 e8       	ldi	r24, 0x89	; 137
    4cd2:	90 e0       	ldi	r25, 0x00	; 0
    4cd4:	0e 94 e6 33 	call	0x67cc	; 0x67cc <eeprom_update_word>
    4cd8:	81 e0       	ldi	r24, 0x01	; 1
    4cda:	08 95       	ret
}

bool PumpPlusTime_ActionCallback(MENU_BUTTON *button, uint8_t column){
	switch(button->role){
		case MENU_UP:
			++PumpPlusTime;
    4cdc:	80 91 f7 09 	lds	r24, 0x09F7	; 0x8009f7 <PumpPlusTime>
    4ce0:	90 91 f8 09 	lds	r25, 0x09F8	; 0x8009f8 <PumpPlusTime+0x1>
    4ce4:	01 96       	adiw	r24, 0x01	; 1
    4ce6:	90 93 f8 09 	sts	0x09F8, r25	; 0x8009f8 <PumpPlusTime+0x1>
    4cea:	80 93 f7 09 	sts	0x09F7, r24	; 0x8009f7 <PumpPlusTime>
			return true;
		case MENU_CANCEL:
			return true;
	}

	PumpPlusTime_CallbackRender(column);
    4cee:	86 2f       	mov	r24, r22
    4cf0:	0e 94 07 1a 	call	0x340e	; 0x340e <PumpPlusTime_CallbackRender>
	return false;
    4cf4:	80 e0       	ldi	r24, 0x00	; 0
    4cf6:	08 95       	ret
	switch(button->role){
		case MENU_UP:
			++PumpPlusTime;
			break;
		case MENU_DOWN:
			--PumpPlusTime;
    4cf8:	80 91 f7 09 	lds	r24, 0x09F7	; 0x8009f7 <PumpPlusTime>
    4cfc:	90 91 f8 09 	lds	r25, 0x09F8	; 0x8009f8 <PumpPlusTime+0x1>
    4d00:	01 97       	sbiw	r24, 0x01	; 1
    4d02:	90 93 f8 09 	sts	0x09F8, r25	; 0x8009f8 <PumpPlusTime+0x1>
    4d06:	80 93 f7 09 	sts	0x09F7, r24	; 0x8009f7 <PumpPlusTime>
			return true;
		case MENU_CANCEL:
			return true;
	}

	PumpPlusTime_CallbackRender(column);
    4d0a:	86 2f       	mov	r24, r22
    4d0c:	0e 94 07 1a 	call	0x340e	; 0x340e <PumpPlusTime_CallbackRender>
	return false;
    4d10:	80 e0       	ldi	r24, 0x00	; 0
    4d12:	08 95       	ret

00004d14 <Restarts_ActionCallback>:
	//ftoa(buffer, HIHxxxxTempMax, 2);
	//lcd_puts(buffer); lcd_puts_p(PSTR(" C"));
}

bool Restarts_ActionCallback(MENU_BUTTON *button, uint8_t column){
	switch(button->role){
    4d14:	fc 01       	movw	r30, r24
    4d16:	80 81       	ld	r24, Z
    4d18:	83 30       	cpi	r24, 0x03	; 3
    4d1a:	20 f0       	brcs	.+8      	; 0x4d24 <Restarts_ActionCallback+0x10>
    4d1c:	83 30       	cpi	r24, 0x03	; 3
    4d1e:	61 f4       	brne	.+24     	; 0x4d38 <Restarts_ActionCallback+0x24>
		case MENU_CONFIRM:
			eeprom_update_word(&eeRestarts, 0);
			Restarts = 0;
			break;
		case MENU_CANCEL:
		return true;
    4d20:	81 e0       	ldi	r24, 0x01	; 1
	}
	return false;
}
    4d22:	08 95       	ret
bool Restarts_ActionCallback(MENU_BUTTON *button, uint8_t column){
	switch(button->role){
		case MENU_UP:
		case MENU_DOWN:
		case MENU_CONFIRM:
			eeprom_update_word(&eeRestarts, 0);
    4d24:	60 e0       	ldi	r22, 0x00	; 0
    4d26:	70 e0       	ldi	r23, 0x00	; 0
    4d28:	8f e7       	ldi	r24, 0x7F	; 127
    4d2a:	90 e0       	ldi	r25, 0x00	; 0
    4d2c:	0e 94 e6 33 	call	0x67cc	; 0x67cc <eeprom_update_word>
			Restarts = 0;
    4d30:	10 92 75 08 	sts	0x0875, r1	; 0x800875 <Restarts+0x1>
    4d34:	10 92 74 08 	sts	0x0874, r1	; 0x800874 <Restarts>
    4d38:	80 e0       	ldi	r24, 0x00	; 0
    4d3a:	08 95       	ret

00004d3c <ComfortMode_ActionCallback>:
	else if (ComfortMode == 3)
		lcd_puts_hu(PSTR("Mindkét szint"));
}

bool ComfortMode_ActionCallback(MENU_BUTTON *button, uint8_t column){
	switch(button->role){
    4d3c:	fc 01       	movw	r30, r24
    4d3e:	90 81       	ld	r25, Z
    4d40:	91 30       	cpi	r25, 0x01	; 1
    4d42:	d1 f0       	breq	.+52     	; 0x4d78 <ComfortMode_ActionCallback+0x3c>
    4d44:	70 f0       	brcs	.+28     	; 0x4d62 <ComfortMode_ActionCallback+0x26>
    4d46:	92 30       	cpi	r25, 0x02	; 2
    4d48:	21 f0       	breq	.+8      	; 0x4d52 <ComfortMode_ActionCallback+0x16>
    4d4a:	93 30       	cpi	r25, 0x03	; 3
    4d4c:	89 f4       	brne	.+34     	; 0x4d70 <ComfortMode_ActionCallback+0x34>
		break;
		case MENU_CONFIRM:
			eeprom_update_byte(&eeComfortMode, ComfortMode);
			return true;
		case MENU_CANCEL:
			return true;
    4d4e:	81 e0       	ldi	r24, 0x01	; 1
	}
	
	 ComfortMode_CallbackRender(column);
	 return false;
}
    4d50:	08 95       	ret
		case MENU_DOWN:
			if (--ComfortMode == 255)
				ComfortMode = 3;
		break;
		case MENU_CONFIRM:
			eeprom_update_byte(&eeComfortMode, ComfortMode);
    4d52:	60 91 f3 09 	lds	r22, 0x09F3	; 0x8009f3 <ComfortMode>
    4d56:	88 e8       	ldi	r24, 0x88	; 136
    4d58:	90 e0       	ldi	r25, 0x00	; 0
    4d5a:	0e 94 d5 33 	call	0x67aa	; 0x67aa <eeprom_update_byte>
    4d5e:	81 e0       	ldi	r24, 0x01	; 1
    4d60:	08 95       	ret
}

bool ComfortMode_ActionCallback(MENU_BUTTON *button, uint8_t column){
	switch(button->role){
		case MENU_UP:
			if (++ComfortMode > 3)
    4d62:	80 91 f3 09 	lds	r24, 0x09F3	; 0x8009f3 <ComfortMode>
    4d66:	8f 5f       	subi	r24, 0xFF	; 255
    4d68:	84 30       	cpi	r24, 0x04	; 4
    4d6a:	58 f0       	brcs	.+22     	; 0x4d82 <ComfortMode_ActionCallback+0x46>
				ComfortMode = 0;
    4d6c:	10 92 f3 09 	sts	0x09F3, r1	; 0x8009f3 <ComfortMode>
			return true;
		case MENU_CANCEL:
			return true;
	}
	
	 ComfortMode_CallbackRender(column);
    4d70:	86 2f       	mov	r24, r22
    4d72:	6c d8       	rcall	.-3880   	; 0x3e4c <ComfortMode_CallbackRender>
	 return false;
    4d74:	80 e0       	ldi	r24, 0x00	; 0
    4d76:	08 95       	ret
		case MENU_UP:
			if (++ComfortMode > 3)
				ComfortMode = 0;
		break;
		case MENU_DOWN:
			if (--ComfortMode == 255)
    4d78:	80 91 f3 09 	lds	r24, 0x09F3	; 0x8009f3 <ComfortMode>
    4d7c:	81 50       	subi	r24, 0x01	; 1
    4d7e:	08 f4       	brcc	.+2      	; 0x4d82 <ComfortMode_ActionCallback+0x46>
				ComfortMode = 3;
    4d80:	83 e0       	ldi	r24, 0x03	; 3
    4d82:	80 93 f3 09 	sts	0x09F3, r24	; 0x8009f3 <ComfortMode>
			return true;
		case MENU_CANCEL:
			return true;
	}
	
	 ComfortMode_CallbackRender(column);
    4d86:	86 2f       	mov	r24, r22
    4d88:	61 d8       	rcall	.-3902   	; 0x3e4c <ComfortMode_CallbackRender>
	 return false;
    4d8a:	80 e0       	ldi	r24, 0x00	; 0
    4d8c:	08 95       	ret

00004d8e <ComfortTemp_ActionCallback>:
	lcd_gotoxy(0,1);
	lcd_puts(buf1);
}

bool ComfortTemp_ActionCallback(MENU_BUTTON *button, uint8_t column){
	switch(button->role){
    4d8e:	fc 01       	movw	r30, r24
    4d90:	90 81       	ld	r25, Z
    4d92:	91 30       	cpi	r25, 0x01	; 1
    4d94:	39 f1       	breq	.+78     	; 0x4de4 <ComfortTemp_ActionCallback+0x56>
    4d96:	a0 f0       	brcs	.+40     	; 0x4dc0 <ComfortTemp_ActionCallback+0x32>
    4d98:	92 30       	cpi	r25, 0x02	; 2
    4d9a:	21 f0       	breq	.+8      	; 0x4da4 <ComfortTemp_ActionCallback+0x16>
    4d9c:	93 30       	cpi	r25, 0x03	; 3
    4d9e:	f1 f4       	brne	.+60     	; 0x4ddc <ComfortTemp_ActionCallback+0x4e>
		case MENU_CONFIRM:
			eeprom_update_byte(&eeComfortTemp, ComfortTemp);
			eeprom_update_byte(&eeComfortTempFrac, ComfortTempFrac);
			return true;
		case MENU_CANCEL:
			return true;
    4da0:	81 e0       	ldi	r24, 0x01	; 1
	}

	ComfortTemp_CallbackRender(column);
	return false;
}
    4da2:	08 95       	ret
				ComfortTemp--;
				ComfortTempFrac = 9;
			}
			break;
		case MENU_CONFIRM:
			eeprom_update_byte(&eeComfortTemp, ComfortTemp);
    4da4:	60 91 16 09 	lds	r22, 0x0916	; 0x800916 <ComfortTemp>
    4da8:	87 e8       	ldi	r24, 0x87	; 135
    4daa:	90 e0       	ldi	r25, 0x00	; 0
    4dac:	0e 94 d5 33 	call	0x67aa	; 0x67aa <eeprom_update_byte>
			eeprom_update_byte(&eeComfortTempFrac, ComfortTempFrac);
    4db0:	60 91 53 09 	lds	r22, 0x0953	; 0x800953 <ComfortTempFrac>
    4db4:	86 e8       	ldi	r24, 0x86	; 134
    4db6:	90 e0       	ldi	r25, 0x00	; 0
    4db8:	0e 94 d5 33 	call	0x67aa	; 0x67aa <eeprom_update_byte>
    4dbc:	81 e0       	ldi	r24, 0x01	; 1
    4dbe:	08 95       	ret
}

bool ComfortTemp_ActionCallback(MENU_BUTTON *button, uint8_t column){
	switch(button->role){
		case MENU_UP:
			if (++ComfortTempFrac == 10)
    4dc0:	80 91 53 09 	lds	r24, 0x0953	; 0x800953 <ComfortTempFrac>
    4dc4:	8f 5f       	subi	r24, 0xFF	; 255
    4dc6:	80 93 53 09 	sts	0x0953, r24	; 0x800953 <ComfortTempFrac>
    4dca:	8a 30       	cpi	r24, 0x0A	; 10
    4dcc:	39 f4       	brne	.+14     	; 0x4ddc <ComfortTemp_ActionCallback+0x4e>
			{
				ComfortTemp++;
    4dce:	80 91 16 09 	lds	r24, 0x0916	; 0x800916 <ComfortTemp>
    4dd2:	8f 5f       	subi	r24, 0xFF	; 255
    4dd4:	80 93 16 09 	sts	0x0916, r24	; 0x800916 <ComfortTemp>
				ComfortTempFrac = 0;
    4dd8:	10 92 53 09 	sts	0x0953, r1	; 0x800953 <ComfortTempFrac>
			return true;
		case MENU_CANCEL:
			return true;
	}

	ComfortTemp_CallbackRender(column);
    4ddc:	86 2f       	mov	r24, r22
    4dde:	7e db       	rcall	.-2308   	; 0x44dc <ComfortTemp_CallbackRender>
	return false;
    4de0:	80 e0       	ldi	r24, 0x00	; 0
    4de2:	08 95       	ret
				ComfortTemp++;
				ComfortTempFrac = 0;
			}
			break;
		case MENU_DOWN:
			if (--ComfortTempFrac == 0xFF)
    4de4:	80 91 53 09 	lds	r24, 0x0953	; 0x800953 <ComfortTempFrac>
    4de8:	81 50       	subi	r24, 0x01	; 1
    4dea:	80 93 53 09 	sts	0x0953, r24	; 0x800953 <ComfortTempFrac>
    4dee:	8f 3f       	cpi	r24, 0xFF	; 255
    4df0:	a9 f7       	brne	.-22     	; 0x4ddc <ComfortTemp_ActionCallback+0x4e>
			{
				ComfortTemp--;
    4df2:	80 91 16 09 	lds	r24, 0x0916	; 0x800916 <ComfortTemp>
    4df6:	81 50       	subi	r24, 0x01	; 1
    4df8:	80 93 16 09 	sts	0x0916, r24	; 0x800916 <ComfortTemp>
				ComfortTempFrac = 9;
    4dfc:	89 e0       	ldi	r24, 0x09	; 9
    4dfe:	80 93 53 09 	sts	0x0953, r24	; 0x800953 <ComfortTempFrac>
    4e02:	ec cf       	rjmp	.-40     	; 0x4ddc <ComfortTemp_ActionCallback+0x4e>

00004e04 <FindActSensor>:
	}
	return false;
}

uint8_t FindActSensor(uint8_t id[])
{
    4e04:	ef 92       	push	r14
    4e06:	ff 92       	push	r15
    4e08:	0f 93       	push	r16
    4e0a:	1f 93       	push	r17
    4e0c:	cf 93       	push	r28
    4e0e:	df 93       	push	r29
	for (uint8_t i = 0; i < nSensors; i++)
    4e10:	d0 91 38 09 	lds	r29, 0x0938	; 0x800938 <nSensors>
    4e14:	dd 23       	and	r29, r29
    4e16:	99 f0       	breq	.+38     	; 0x4e3e <FindActSensor+0x3a>
    4e18:	7c 01       	movw	r14, r24
    4e1a:	09 ef       	ldi	r16, 0xF9	; 249
    4e1c:	19 e0       	ldi	r17, 0x09	; 9
    4e1e:	c0 e0       	ldi	r28, 0x00	; 0
    4e20:	05 c0       	rjmp	.+10     	; 0x4e2c <FindActSensor+0x28>
    4e22:	cf 5f       	subi	r28, 0xFF	; 255
    4e24:	08 5f       	subi	r16, 0xF8	; 248
    4e26:	1f 4f       	sbci	r17, 0xFF	; 255
    4e28:	cd 17       	cp	r28, r29
    4e2a:	89 f0       	breq	.+34     	; 0x4e4e <FindActSensor+0x4a>
	{
		if (memcmp(gSensorIDs[i], id, sizeof(uint8_t)*OW_ROMCODE_SIZE) == 0)
    4e2c:	48 e0       	ldi	r20, 0x08	; 8
    4e2e:	50 e0       	ldi	r21, 0x00	; 0
    4e30:	b7 01       	movw	r22, r14
    4e32:	c8 01       	movw	r24, r16
    4e34:	0e 94 ad 30 	call	0x615a	; 0x615a <memcmp>
    4e38:	89 2b       	or	r24, r25
    4e3a:	99 f7       	brne	.-26     	; 0x4e22 <FindActSensor+0x1e>
    4e3c:	dc 2f       	mov	r29, r28
			return i;
	}
	return 0;
}
    4e3e:	8d 2f       	mov	r24, r29
    4e40:	df 91       	pop	r29
    4e42:	cf 91       	pop	r28
    4e44:	1f 91       	pop	r17
    4e46:	0f 91       	pop	r16
    4e48:	ff 90       	pop	r15
    4e4a:	ef 90       	pop	r14
    4e4c:	08 95       	ret
	for (uint8_t i = 0; i < nSensors; i++)
	{
		if (memcmp(gSensorIDs[i], id, sizeof(uint8_t)*OW_ROMCODE_SIZE) == 0)
			return i;
	}
	return 0;
    4e4e:	d0 e0       	ldi	r29, 0x00	; 0
}
    4e50:	8d 2f       	mov	r24, r29
    4e52:	df 91       	pop	r29
    4e54:	cf 91       	pop	r28
    4e56:	1f 91       	pop	r17
    4e58:	0f 91       	pop	r16
    4e5a:	ff 90       	pop	r15
    4e5c:	ef 90       	pop	r14
    4e5e:	08 95       	ret

00004e60 <Wood_ActionCallback>:
	}
	
}

bool Wood_ActionCallback(MENU_BUTTON *button, uint8_t column)
{
    4e60:	0f 93       	push	r16
    4e62:	1f 93       	push	r17
    4e64:	cf 93       	push	r28
    4e66:	8c 01       	movw	r16, r24
    4e68:	c6 2f       	mov	r28, r22
	uint8_t actSensor = FindActSensor(Wood.SensorID);
    4e6a:	82 ea       	ldi	r24, 0xA2	; 162
    4e6c:	9a e0       	ldi	r25, 0x0A	; 10
    4e6e:	ca df       	rcall	.-108    	; 0x4e04 <FindActSensor>
	switch(button->role){
    4e70:	f8 01       	movw	r30, r16
    4e72:	90 81       	ld	r25, Z
    4e74:	91 30       	cpi	r25, 0x01	; 1
    4e76:	09 f4       	brne	.+2      	; 0x4e7a <Wood_ActionCallback+0x1a>
    4e78:	43 c0       	rjmp	.+134    	; 0x4f00 <Wood_ActionCallback+0xa0>
    4e7a:	60 f1       	brcs	.+88     	; 0x4ed4 <Wood_ActionCallback+0x74>
    4e7c:	92 30       	cpi	r25, 0x02	; 2
    4e7e:	d1 f0       	breq	.+52     	; 0x4eb4 <Wood_ActionCallback+0x54>
    4e80:	93 30       	cpi	r25, 0x03	; 3
    4e82:	19 f1       	breq	.+70     	; 0x4eca <Wood_ActionCallback+0x6a>
    4e84:	e8 2f       	mov	r30, r24
    4e86:	f0 e0       	ldi	r31, 0x00	; 0
		return true;
		
		case MENU_CANCEL:
			return true;
	}
	memcpy(&Wood.SensorID, &gSensorIDs[actSensor], OW_ROMCODE_SIZE);
    4e88:	ee 0f       	add	r30, r30
    4e8a:	ff 1f       	adc	r31, r31
    4e8c:	ee 0f       	add	r30, r30
    4e8e:	ff 1f       	adc	r31, r31
    4e90:	ee 0f       	add	r30, r30
    4e92:	ff 1f       	adc	r31, r31
    4e94:	e7 50       	subi	r30, 0x07	; 7
    4e96:	f6 4f       	sbci	r31, 0xF6	; 246
    4e98:	88 e0       	ldi	r24, 0x08	; 8
    4e9a:	a2 ea       	ldi	r26, 0xA2	; 162
    4e9c:	ba e0       	ldi	r27, 0x0A	; 10
    4e9e:	01 90       	ld	r0, Z+
    4ea0:	0d 92       	st	X+, r0
    4ea2:	8a 95       	dec	r24
    4ea4:	e1 f7       	brne	.-8      	; 0x4e9e <Wood_ActionCallback+0x3e>
	Wood_CallbackRender(column);
    4ea6:	8c 2f       	mov	r24, r28
    4ea8:	5a d9       	rcall	.-3404   	; 0x415e <Wood_CallbackRender>
	return false;
    4eaa:	80 e0       	ldi	r24, 0x00	; 0
}
    4eac:	cf 91       	pop	r28
    4eae:	1f 91       	pop	r17
    4eb0:	0f 91       	pop	r16
    4eb2:	08 95       	ret
		
		
		break;
		
		case MENU_CONFIRM:
		switch (column)
    4eb4:	c4 30       	cpi	r28, 0x04	; 4
    4eb6:	09 f4       	brne	.+2      	; 0x4eba <Wood_ActionCallback+0x5a>
    4eb8:	6d c0       	rjmp	.+218    	; 0x4f94 <Wood_ActionCallback+0x134>
    4eba:	08 f0       	brcs	.+2      	; 0x4ebe <Wood_ActionCallback+0x5e>
    4ebc:	46 c0       	rjmp	.+140    	; 0x4f4a <Wood_ActionCallback+0xea>
    4ebe:	c2 30       	cpi	r28, 0x02	; 2
    4ec0:	09 f4       	brne	.+2      	; 0x4ec4 <Wood_ActionCallback+0x64>
    4ec2:	a2 c0       	rjmp	.+324    	; 0x5008 <Wood_ActionCallback+0x1a8>
    4ec4:	c3 30       	cpi	r28, 0x03	; 3
    4ec6:	09 f4       	brne	.+2      	; 0x4eca <Wood_ActionCallback+0x6a>
    4ec8:	7d c0       	rjmp	.+250    	; 0x4fc4 <Wood_ActionCallback+0x164>
		{
			case 0:
			case 1:
				return true;
    4eca:	81 e0       	ldi	r24, 0x01	; 1
			return true;
	}
	memcpy(&Wood.SensorID, &gSensorIDs[actSensor], OW_ROMCODE_SIZE);
	Wood_CallbackRender(column);
	return false;
}
    4ecc:	cf 91       	pop	r28
    4ece:	1f 91       	pop	r17
    4ed0:	0f 91       	pop	r16
    4ed2:	08 95       	ret
bool Wood_ActionCallback(MENU_BUTTON *button, uint8_t column)
{
	uint8_t actSensor = FindActSensor(Wood.SensorID);
	switch(button->role){
		case MENU_UP:
		switch (column)
    4ed4:	c4 30       	cpi	r28, 0x04	; 4
    4ed6:	09 f4       	brne	.+2      	; 0x4eda <Wood_ActionCallback+0x7a>
    4ed8:	65 c0       	rjmp	.+202    	; 0x4fa4 <Wood_ActionCallback+0x144>
    4eda:	48 f5       	brcc	.+82     	; 0x4f2e <Wood_ActionCallback+0xce>
    4edc:	c2 30       	cpi	r28, 0x02	; 2
    4ede:	09 f4       	brne	.+2      	; 0x4ee2 <Wood_ActionCallback+0x82>
    4ee0:	7b c0       	rjmp	.+246    	; 0x4fd8 <Wood_ActionCallback+0x178>
    4ee2:	c3 30       	cpi	r28, 0x03	; 3
    4ee4:	79 f6       	brne	.-98     	; 0x4e84 <Wood_ActionCallback+0x24>
			case 2:
				++WoodDelta;
			break;
			
			case 3:
				++WoodPressureAlert;
    4ee6:	20 91 72 0a 	lds	r18, 0x0A72	; 0x800a72 <WoodPressureAlert>
    4eea:	30 91 73 0a 	lds	r19, 0x0A73	; 0x800a73 <WoodPressureAlert+0x1>
    4eee:	2f 5f       	subi	r18, 0xFF	; 255
    4ef0:	3f 4f       	sbci	r19, 0xFF	; 255
    4ef2:	30 93 73 0a 	sts	0x0A73, r19	; 0x800a73 <WoodPressureAlert+0x1>
    4ef6:	20 93 72 0a 	sts	0x0A72, r18	; 0x800a72 <WoodPressureAlert>
    4efa:	e8 2f       	mov	r30, r24
    4efc:	f0 e0       	ldi	r31, 0x00	; 0
			break;
    4efe:	c4 cf       	rjmp	.-120    	; 0x4e88 <Wood_ActionCallback+0x28>
			break;
		}
		break;
		
		case MENU_DOWN:
		switch (column)
    4f00:	c4 30       	cpi	r28, 0x04	; 4
    4f02:	09 f4       	brne	.+2      	; 0x4f06 <Wood_ActionCallback+0xa6>
    4f04:	57 c0       	rjmp	.+174    	; 0x4fb4 <Wood_ActionCallback+0x154>
    4f06:	c0 f5       	brcc	.+112    	; 0x4f78 <Wood_ActionCallback+0x118>
    4f08:	c2 30       	cpi	r28, 0x02	; 2
    4f0a:	09 f4       	brne	.+2      	; 0x4f0e <Wood_ActionCallback+0xae>
    4f0c:	6d c0       	rjmp	.+218    	; 0x4fe8 <Wood_ActionCallback+0x188>
    4f0e:	c3 30       	cpi	r28, 0x03	; 3
    4f10:	09 f0       	breq	.+2      	; 0x4f14 <Wood_ActionCallback+0xb4>
    4f12:	b8 cf       	rjmp	.-144    	; 0x4e84 <Wood_ActionCallback+0x24>
			case 2:
				--WoodDelta;
			break;
				
			case 3:
				--WoodPressureAlert;
    4f14:	20 91 72 0a 	lds	r18, 0x0A72	; 0x800a72 <WoodPressureAlert>
    4f18:	30 91 73 0a 	lds	r19, 0x0A73	; 0x800a73 <WoodPressureAlert+0x1>
    4f1c:	21 50       	subi	r18, 0x01	; 1
    4f1e:	31 09       	sbc	r19, r1
    4f20:	30 93 73 0a 	sts	0x0A73, r19	; 0x800a73 <WoodPressureAlert+0x1>
    4f24:	20 93 72 0a 	sts	0x0A72, r18	; 0x800a72 <WoodPressureAlert>
    4f28:	e8 2f       	mov	r30, r24
    4f2a:	f0 e0       	ldi	r31, 0x00	; 0
			break;
    4f2c:	ad cf       	rjmp	.-166    	; 0x4e88 <Wood_ActionCallback+0x28>
bool Wood_ActionCallback(MENU_BUTTON *button, uint8_t column)
{
	uint8_t actSensor = FindActSensor(Wood.SensorID);
	switch(button->role){
		case MENU_UP:
		switch (column)
    4f2e:	c5 30       	cpi	r28, 0x05	; 5
    4f30:	09 f4       	brne	.+2      	; 0x4f34 <Wood_ActionCallback+0xd4>
    4f32:	62 c0       	rjmp	.+196    	; 0x4ff8 <Wood_ActionCallback+0x198>
    4f34:	c6 30       	cpi	r28, 0x06	; 6
    4f36:	09 f0       	breq	.+2      	; 0x4f3a <Wood_ActionCallback+0xda>
    4f38:	a5 cf       	rjmp	.-182    	; 0x4e84 <Wood_ActionCallback+0x24>
			case 5:
				++WoodTempAlert;
			break;
			
			case 6:
				if (++actSensor == nSensors)
    4f3a:	8f 5f       	subi	r24, 0xFF	; 255
    4f3c:	90 91 38 09 	lds	r25, 0x0938	; 0x800938 <nSensors>
    4f40:	89 13       	cpse	r24, r25
    4f42:	a0 cf       	rjmp	.-192    	; 0x4e84 <Wood_ActionCallback+0x24>
    4f44:	e0 e0       	ldi	r30, 0x00	; 0
    4f46:	f0 e0       	ldi	r31, 0x00	; 0
    4f48:	9f cf       	rjmp	.-194    	; 0x4e88 <Wood_ActionCallback+0x28>
		
		
		break;
		
		case MENU_CONFIRM:
		switch (column)
    4f4a:	c5 30       	cpi	r28, 0x05	; 5
    4f4c:	09 f4       	brne	.+2      	; 0x4f50 <Wood_ActionCallback+0xf0>
    4f4e:	6c c0       	rjmp	.+216    	; 0x5028 <Wood_ActionCallback+0x1c8>
    4f50:	c6 30       	cpi	r28, 0x06	; 6
    4f52:	09 f0       	breq	.+2      	; 0x4f56 <Wood_ActionCallback+0xf6>
    4f54:	ba cf       	rjmp	.-140    	; 0x4eca <Wood_ActionCallback+0x6a>
			case 5:
				eeprom_update_byte(&eeWoodTempAlert, WoodTempAlert);
			break;
			
			case 6:
				eeprom_update_block(gSensorIDs[actSensor], &eeWoodSensorID, OW_ROMCODE_SIZE);
    4f56:	90 e0       	ldi	r25, 0x00	; 0
    4f58:	88 0f       	add	r24, r24
    4f5a:	99 1f       	adc	r25, r25
    4f5c:	88 0f       	add	r24, r24
    4f5e:	99 1f       	adc	r25, r25
    4f60:	88 0f       	add	r24, r24
    4f62:	99 1f       	adc	r25, r25
    4f64:	48 e0       	ldi	r20, 0x08	; 8
    4f66:	50 e0       	ldi	r21, 0x00	; 0
    4f68:	60 e0       	ldi	r22, 0x00	; 0
    4f6a:	70 e0       	ldi	r23, 0x00	; 0
    4f6c:	87 50       	subi	r24, 0x07	; 7
    4f6e:	96 4f       	sbci	r25, 0xF6	; 246
    4f70:	0e 94 c6 33 	call	0x678c	; 0x678c <eeprom_update_block>
			break;
		}
		return true;
    4f74:	81 e0       	ldi	r24, 0x01	; 1
				eeprom_update_byte(&eeWoodTempAlert, WoodTempAlert);
			break;
			
			case 6:
				eeprom_update_block(gSensorIDs[actSensor], &eeWoodSensorID, OW_ROMCODE_SIZE);
			break;
    4f76:	9a cf       	rjmp	.-204    	; 0x4eac <Wood_ActionCallback+0x4c>
			break;
		}
		break;
		
		case MENU_DOWN:
		switch (column)
    4f78:	c5 30       	cpi	r28, 0x05	; 5
    4f7a:	09 f4       	brne	.+2      	; 0x4f7e <Wood_ActionCallback+0x11e>
    4f7c:	4d c0       	rjmp	.+154    	; 0x5018 <Wood_ActionCallback+0x1b8>
    4f7e:	c6 30       	cpi	r28, 0x06	; 6
    4f80:	09 f0       	breq	.+2      	; 0x4f84 <Wood_ActionCallback+0x124>
    4f82:	80 cf       	rjmp	.-256    	; 0x4e84 <Wood_ActionCallback+0x24>
			case 5:
				--WoodTempAlert;
			break;
			
			case 6:
				if (--actSensor == 255)
    4f84:	81 50       	subi	r24, 0x01	; 1
    4f86:	08 f0       	brcs	.+2      	; 0x4f8a <Wood_ActionCallback+0x12a>
    4f88:	7d cf       	rjmp	.-262    	; 0x4e84 <Wood_ActionCallback+0x24>
    4f8a:	e0 91 38 09 	lds	r30, 0x0938	; 0x800938 <nSensors>
    4f8e:	e1 50       	subi	r30, 0x01	; 1
    4f90:	f0 e0       	ldi	r31, 0x00	; 0
    4f92:	7a cf       	rjmp	.-268    	; 0x4e88 <Wood_ActionCallback+0x28>
			case 3:
				eeprom_update_word(&eeWoodPressureAlert, WoodPressureAlert);
			break;
			
			case 4:
				eeprom_update_byte(&eeWoodToPut, WoodToPut);
    4f94:	60 91 aa 09 	lds	r22, 0x09AA	; 0x8009aa <WoodToPut>
    4f98:	8f e6       	ldi	r24, 0x6F	; 111
    4f9a:	90 e0       	ldi	r25, 0x00	; 0
    4f9c:	0e 94 d5 33 	call	0x67aa	; 0x67aa <eeprom_update_byte>
			
			case 6:
				eeprom_update_block(gSensorIDs[actSensor], &eeWoodSensorID, OW_ROMCODE_SIZE);
			break;
		}
		return true;
    4fa0:	81 e0       	ldi	r24, 0x01	; 1
				eeprom_update_word(&eeWoodPressureAlert, WoodPressureAlert);
			break;
			
			case 4:
				eeprom_update_byte(&eeWoodToPut, WoodToPut);
			break;
    4fa2:	84 cf       	rjmp	.-248    	; 0x4eac <Wood_ActionCallback+0x4c>
			case 3:
				++WoodPressureAlert;
			break;
			
			case 4:
				++WoodToPut;
    4fa4:	90 91 aa 09 	lds	r25, 0x09AA	; 0x8009aa <WoodToPut>
    4fa8:	9f 5f       	subi	r25, 0xFF	; 255
    4faa:	90 93 aa 09 	sts	0x09AA, r25	; 0x8009aa <WoodToPut>
    4fae:	e8 2f       	mov	r30, r24
    4fb0:	f0 e0       	ldi	r31, 0x00	; 0
			break;
    4fb2:	6a cf       	rjmp	.-300    	; 0x4e88 <Wood_ActionCallback+0x28>
			case 3:
				--WoodPressureAlert;
			break;
			
			case 4:
				--WoodToPut;
    4fb4:	90 91 aa 09 	lds	r25, 0x09AA	; 0x8009aa <WoodToPut>
    4fb8:	91 50       	subi	r25, 0x01	; 1
    4fba:	90 93 aa 09 	sts	0x09AA, r25	; 0x8009aa <WoodToPut>
    4fbe:	e8 2f       	mov	r30, r24
    4fc0:	f0 e0       	ldi	r31, 0x00	; 0
			break;
    4fc2:	62 cf       	rjmp	.-316    	; 0x4e88 <Wood_ActionCallback+0x28>
			case 2:
				eeprom_update_byte(&eeWoodDelta, WoodDelta);
			break;
				
			case 3:
				eeprom_update_word(&eeWoodPressureAlert, WoodPressureAlert);
    4fc4:	60 91 72 0a 	lds	r22, 0x0A72	; 0x800a72 <WoodPressureAlert>
    4fc8:	70 91 73 0a 	lds	r23, 0x0A73	; 0x800a73 <WoodPressureAlert+0x1>
    4fcc:	8b e6       	ldi	r24, 0x6B	; 107
    4fce:	90 e0       	ldi	r25, 0x00	; 0
    4fd0:	0e 94 e6 33 	call	0x67cc	; 0x67cc <eeprom_update_word>
			
			case 6:
				eeprom_update_block(gSensorIDs[actSensor], &eeWoodSensorID, OW_ROMCODE_SIZE);
			break;
		}
		return true;
    4fd4:	81 e0       	ldi	r24, 0x01	; 1
				eeprom_update_byte(&eeWoodDelta, WoodDelta);
			break;
				
			case 3:
				eeprom_update_word(&eeWoodPressureAlert, WoodPressureAlert);
			break;
    4fd6:	6a cf       	rjmp	.-300    	; 0x4eac <Wood_ActionCallback+0x4c>
	switch(button->role){
		case MENU_UP:
		switch (column)
		{
			case 2:
				++WoodDelta;
    4fd8:	90 91 31 09 	lds	r25, 0x0931	; 0x800931 <WoodDelta>
    4fdc:	9f 5f       	subi	r25, 0xFF	; 255
    4fde:	90 93 31 09 	sts	0x0931, r25	; 0x800931 <WoodDelta>
    4fe2:	e8 2f       	mov	r30, r24
    4fe4:	f0 e0       	ldi	r31, 0x00	; 0
			break;
    4fe6:	50 cf       	rjmp	.-352    	; 0x4e88 <Wood_ActionCallback+0x28>
		
		case MENU_DOWN:
		switch (column)
		{		
			case 2:
				--WoodDelta;
    4fe8:	90 91 31 09 	lds	r25, 0x0931	; 0x800931 <WoodDelta>
    4fec:	91 50       	subi	r25, 0x01	; 1
    4fee:	90 93 31 09 	sts	0x0931, r25	; 0x800931 <WoodDelta>
    4ff2:	e8 2f       	mov	r30, r24
    4ff4:	f0 e0       	ldi	r31, 0x00	; 0
			break;
    4ff6:	48 cf       	rjmp	.-368    	; 0x4e88 <Wood_ActionCallback+0x28>
			case 4:
				++WoodToPut;
			break;
			
			case 5:
				++WoodTempAlert;
    4ff8:	90 91 79 09 	lds	r25, 0x0979	; 0x800979 <WoodTempAlert>
    4ffc:	9f 5f       	subi	r25, 0xFF	; 255
    4ffe:	90 93 79 09 	sts	0x0979, r25	; 0x800979 <WoodTempAlert>
    5002:	e8 2f       	mov	r30, r24
    5004:	f0 e0       	ldi	r31, 0x00	; 0
			break;
    5006:	40 cf       	rjmp	.-384    	; 0x4e88 <Wood_ActionCallback+0x28>
			case 0:
			case 1:
				return true;
				
			case 2:
				eeprom_update_byte(&eeWoodDelta, WoodDelta);
    5008:	60 91 31 09 	lds	r22, 0x0931	; 0x800931 <WoodDelta>
    500c:	8d e6       	ldi	r24, 0x6D	; 109
    500e:	90 e0       	ldi	r25, 0x00	; 0
    5010:	0e 94 d5 33 	call	0x67aa	; 0x67aa <eeprom_update_byte>
			
			case 6:
				eeprom_update_block(gSensorIDs[actSensor], &eeWoodSensorID, OW_ROMCODE_SIZE);
			break;
		}
		return true;
    5014:	81 e0       	ldi	r24, 0x01	; 1
			case 1:
				return true;
				
			case 2:
				eeprom_update_byte(&eeWoodDelta, WoodDelta);
			break;
    5016:	4a cf       	rjmp	.-364    	; 0x4eac <Wood_ActionCallback+0x4c>
			case 4:
				--WoodToPut;
			break;
			
			case 5:
				--WoodTempAlert;
    5018:	90 91 79 09 	lds	r25, 0x0979	; 0x800979 <WoodTempAlert>
    501c:	91 50       	subi	r25, 0x01	; 1
    501e:	90 93 79 09 	sts	0x0979, r25	; 0x800979 <WoodTempAlert>
    5022:	e8 2f       	mov	r30, r24
    5024:	f0 e0       	ldi	r31, 0x00	; 0
			break;
    5026:	30 cf       	rjmp	.-416    	; 0x4e88 <Wood_ActionCallback+0x28>
			case 4:
				eeprom_update_byte(&eeWoodToPut, WoodToPut);
			break;
			
			case 5:
				eeprom_update_byte(&eeWoodTempAlert, WoodTempAlert);
    5028:	60 91 79 09 	lds	r22, 0x0979	; 0x800979 <WoodTempAlert>
    502c:	8e e6       	ldi	r24, 0x6E	; 110
    502e:	90 e0       	ldi	r25, 0x00	; 0
    5030:	0e 94 d5 33 	call	0x67aa	; 0x67aa <eeprom_update_byte>
			
			case 6:
				eeprom_update_block(gSensorIDs[actSensor], &eeWoodSensorID, OW_ROMCODE_SIZE);
			break;
		}
		return true;
    5034:	81 e0       	ldi	r24, 0x01	; 1
				eeprom_update_byte(&eeWoodToPut, WoodToPut);
			break;
			
			case 5:
				eeprom_update_byte(&eeWoodTempAlert, WoodTempAlert);
			break;
    5036:	3a cf       	rjmp	.-396    	; 0x4eac <Wood_ActionCallback+0x4c>

00005038 <DHWSensor_ActionCallback>:
		lcd_putbyte_hex(DHW.SensorID[i]);
	}
	
}

bool DHWSensor_ActionCallback(MENU_BUTTON *button, uint8_t column){
    5038:	1f 93       	push	r17
    503a:	cf 93       	push	r28
    503c:	df 93       	push	r29
    503e:	ec 01       	movw	r28, r24
    5040:	16 2f       	mov	r17, r22
	uint8_t actSensor = FindActSensor(DHW.SensorID);
    5042:	85 eb       	ldi	r24, 0xB5	; 181
    5044:	99 e0       	ldi	r25, 0x09	; 9
    5046:	de de       	rcall	.-580    	; 0x4e04 <FindActSensor>
	switch(button->role){
    5048:	98 81       	ld	r25, Y
    504a:	91 30       	cpi	r25, 0x01	; 1
    504c:	d9 f1       	breq	.+118    	; 0x50c4 <DHWSensor_ActionCallback+0x8c>
    504e:	e8 f0       	brcs	.+58     	; 0x508a <DHWSensor_ActionCallback+0x52>
    5050:	92 30       	cpi	r25, 0x02	; 2
    5052:	39 f0       	breq	.+14     	; 0x5062 <DHWSensor_ActionCallback+0x2a>
    5054:	93 30       	cpi	r25, 0x03	; 3
    5056:	f1 f4       	brne	.+60     	; 0x5094 <DHWSensor_ActionCallback+0x5c>
			break;
		case MENU_CONFIRM:			
			eeprom_update_block(gSensorIDs[actSensor], &eeDHWSensorID, OW_ROMCODE_SIZE);
			return true;
		case MENU_CANCEL:
			return true;
    5058:	81 e0       	ldi	r24, 0x01	; 1
	}
	memcpy(&DHW.SensorID, &gSensorIDs[actSensor], OW_ROMCODE_SIZE);
	DHWSensor_CallbackRender(column);
	return false;
}
    505a:	df 91       	pop	r29
    505c:	cf 91       	pop	r28
    505e:	1f 91       	pop	r17
    5060:	08 95       	ret
		case MENU_DOWN:
			if (--actSensor == 255)
				actSensor = nSensors - 1;
			break;
		case MENU_CONFIRM:			
			eeprom_update_block(gSensorIDs[actSensor], &eeDHWSensorID, OW_ROMCODE_SIZE);
    5062:	90 e0       	ldi	r25, 0x00	; 0
    5064:	88 0f       	add	r24, r24
    5066:	99 1f       	adc	r25, r25
    5068:	88 0f       	add	r24, r24
    506a:	99 1f       	adc	r25, r25
    506c:	88 0f       	add	r24, r24
    506e:	99 1f       	adc	r25, r25
    5070:	48 e0       	ldi	r20, 0x08	; 8
    5072:	50 e0       	ldi	r21, 0x00	; 0
    5074:	60 e6       	ldi	r22, 0x60	; 96
    5076:	70 e0       	ldi	r23, 0x00	; 0
    5078:	87 50       	subi	r24, 0x07	; 7
    507a:	96 4f       	sbci	r25, 0xF6	; 246
    507c:	0e 94 c6 33 	call	0x678c	; 0x678c <eeprom_update_block>
			return true;
    5080:	81 e0       	ldi	r24, 0x01	; 1
			return true;
	}
	memcpy(&DHW.SensorID, &gSensorIDs[actSensor], OW_ROMCODE_SIZE);
	DHWSensor_CallbackRender(column);
	return false;
}
    5082:	df 91       	pop	r29
    5084:	cf 91       	pop	r28
    5086:	1f 91       	pop	r17
    5088:	08 95       	ret

bool DHWSensor_ActionCallback(MENU_BUTTON *button, uint8_t column){
	uint8_t actSensor = FindActSensor(DHW.SensorID);
	switch(button->role){
		case MENU_UP:
			if (++actSensor == nSensors)
    508a:	8f 5f       	subi	r24, 0xFF	; 255
    508c:	90 91 38 09 	lds	r25, 0x0938	; 0x800938 <nSensors>
    5090:	89 17       	cp	r24, r25
    5092:	f9 f0       	breq	.+62     	; 0x50d2 <DHWSensor_ActionCallback+0x9a>
    5094:	e8 2f       	mov	r30, r24
    5096:	f0 e0       	ldi	r31, 0x00	; 0
			eeprom_update_block(gSensorIDs[actSensor], &eeDHWSensorID, OW_ROMCODE_SIZE);
			return true;
		case MENU_CANCEL:
			return true;
	}
	memcpy(&DHW.SensorID, &gSensorIDs[actSensor], OW_ROMCODE_SIZE);
    5098:	ee 0f       	add	r30, r30
    509a:	ff 1f       	adc	r31, r31
    509c:	ee 0f       	add	r30, r30
    509e:	ff 1f       	adc	r31, r31
    50a0:	ee 0f       	add	r30, r30
    50a2:	ff 1f       	adc	r31, r31
    50a4:	e7 50       	subi	r30, 0x07	; 7
    50a6:	f6 4f       	sbci	r31, 0xF6	; 246
    50a8:	88 e0       	ldi	r24, 0x08	; 8
    50aa:	a5 eb       	ldi	r26, 0xB5	; 181
    50ac:	b9 e0       	ldi	r27, 0x09	; 9
    50ae:	01 90       	ld	r0, Z+
    50b0:	0d 92       	st	X+, r0
    50b2:	8a 95       	dec	r24
    50b4:	e1 f7       	brne	.-8      	; 0x50ae <DHWSensor_ActionCallback+0x76>
	DHWSensor_CallbackRender(column);
    50b6:	81 2f       	mov	r24, r17
    50b8:	09 d9       	rcall	.-3566   	; 0x42cc <DHWSensor_CallbackRender>
	return false;
    50ba:	80 e0       	ldi	r24, 0x00	; 0
}
    50bc:	df 91       	pop	r29
    50be:	cf 91       	pop	r28
    50c0:	1f 91       	pop	r17
    50c2:	08 95       	ret
		case MENU_UP:
			if (++actSensor == nSensors)
				actSensor = 0;
			break;
		case MENU_DOWN:
			if (--actSensor == 255)
    50c4:	81 50       	subi	r24, 0x01	; 1
    50c6:	30 f7       	brcc	.-52     	; 0x5094 <DHWSensor_ActionCallback+0x5c>
    50c8:	e0 91 38 09 	lds	r30, 0x0938	; 0x800938 <nSensors>
    50cc:	e1 50       	subi	r30, 0x01	; 1
    50ce:	f0 e0       	ldi	r31, 0x00	; 0
    50d0:	e3 cf       	rjmp	.-58     	; 0x5098 <DHWSensor_ActionCallback+0x60>
    50d2:	e0 e0       	ldi	r30, 0x00	; 0
    50d4:	f0 e0       	ldi	r31, 0x00	; 0
    50d6:	e0 cf       	rjmp	.-64     	; 0x5098 <DHWSensor_ActionCallback+0x60>

000050d8 <SecondFloor_ActionCallback>:
	}
	
}

bool SecondFloor_ActionCallback(MENU_BUTTON *button, uint8_t column)
{
    50d8:	0f 93       	push	r16
    50da:	1f 93       	push	r17
    50dc:	cf 93       	push	r28
    50de:	8c 01       	movw	r16, r24
    50e0:	c6 2f       	mov	r28, r22
	uint8_t actSensor = FindActSensor(SecondFloor.SensorID);
    50e2:	85 e2       	ldi	r24, 0x25	; 37
    50e4:	99 e0       	ldi	r25, 0x09	; 9
    50e6:	8e de       	rcall	.-740    	; 0x4e04 <FindActSensor>
	switch(button->role){
    50e8:	f8 01       	movw	r30, r16
    50ea:	90 81       	ld	r25, Z
    50ec:	91 30       	cpi	r25, 0x01	; 1
    50ee:	09 f4       	brne	.+2      	; 0x50f2 <SecondFloor_ActionCallback+0x1a>
    50f0:	3e c0       	rjmp	.+124    	; 0x516e <SecondFloor_ActionCallback+0x96>
    50f2:	60 f1       	brcs	.+88     	; 0x514c <SecondFloor_ActionCallback+0x74>
    50f4:	92 30       	cpi	r25, 0x02	; 2
    50f6:	d1 f0       	breq	.+52     	; 0x512c <SecondFloor_ActionCallback+0x54>
    50f8:	93 30       	cpi	r25, 0x03	; 3
    50fa:	19 f1       	breq	.+70     	; 0x5142 <SecondFloor_ActionCallback+0x6a>
    50fc:	e8 2f       	mov	r30, r24
    50fe:	f0 e0       	ldi	r31, 0x00	; 0
			return true;
					
		case MENU_CANCEL:
		return true;
	}
	memcpy(&SecondFloor.SensorID, &gSensorIDs[actSensor], OW_ROMCODE_SIZE);
    5100:	ee 0f       	add	r30, r30
    5102:	ff 1f       	adc	r31, r31
    5104:	ee 0f       	add	r30, r30
    5106:	ff 1f       	adc	r31, r31
    5108:	ee 0f       	add	r30, r30
    510a:	ff 1f       	adc	r31, r31
    510c:	e7 50       	subi	r30, 0x07	; 7
    510e:	f6 4f       	sbci	r31, 0xF6	; 246
    5110:	88 e0       	ldi	r24, 0x08	; 8
    5112:	a5 e2       	ldi	r26, 0x25	; 37
    5114:	b9 e0       	ldi	r27, 0x09	; 9
    5116:	01 90       	ld	r0, Z+
    5118:	0d 92       	st	X+, r0
    511a:	8a 95       	dec	r24
    511c:	e1 f7       	brne	.-8      	; 0x5116 <SecondFloor_ActionCallback+0x3e>
	SecondFloor_CallbackRender(column);
    511e:	8c 2f       	mov	r24, r28
    5120:	23 da       	rcall	.-3002   	; 0x4568 <SecondFloor_CallbackRender>
	return false;
    5122:	80 e0       	ldi	r24, 0x00	; 0
}
    5124:	cf 91       	pop	r28
    5126:	1f 91       	pop	r17
    5128:	0f 91       	pop	r16
    512a:	08 95       	ret
		
		
		break;
		
		case MENU_CONFIRM:
			switch (column)
    512c:	c2 30       	cpi	r28, 0x02	; 2
    512e:	09 f4       	brne	.+2      	; 0x5132 <SecondFloor_ActionCallback+0x5a>
    5130:	6c c0       	rjmp	.+216    	; 0x520a <SecondFloor_ActionCallback+0x132>
    5132:	08 f4       	brcc	.+2      	; 0x5136 <SecondFloor_ActionCallback+0x5e>
    5134:	43 c0       	rjmp	.+134    	; 0x51bc <SecondFloor_ActionCallback+0xe4>
    5136:	c3 30       	cpi	r28, 0x03	; 3
    5138:	09 f4       	brne	.+2      	; 0x513c <SecondFloor_ActionCallback+0x64>
    513a:	97 c0       	rjmp	.+302    	; 0x526a <SecondFloor_ActionCallback+0x192>
    513c:	c4 30       	cpi	r28, 0x04	; 4
    513e:	09 f4       	brne	.+2      	; 0x5142 <SecondFloor_ActionCallback+0x6a>
    5140:	7b c0       	rjmp	.+246    	; 0x5238 <SecondFloor_ActionCallback+0x160>
				
				case 4:
					eeprom_update_block(gSensorIDs[actSensor], &eeSecondFloorSensorID, OW_ROMCODE_SIZE);
				break;
			}
			return true;
    5142:	81 e0       	ldi	r24, 0x01	; 1
		return true;
	}
	memcpy(&SecondFloor.SensorID, &gSensorIDs[actSensor], OW_ROMCODE_SIZE);
	SecondFloor_CallbackRender(column);
	return false;
}
    5144:	cf 91       	pop	r28
    5146:	1f 91       	pop	r17
    5148:	0f 91       	pop	r16
    514a:	08 95       	ret
bool SecondFloor_ActionCallback(MENU_BUTTON *button, uint8_t column)
{
	uint8_t actSensor = FindActSensor(SecondFloor.SensorID);
	switch(button->role){
		case MENU_UP:
			switch (column)
    514c:	c2 30       	cpi	r28, 0x02	; 2
    514e:	09 f4       	brne	.+2      	; 0x5152 <SecondFloor_ActionCallback+0x7a>
    5150:	64 c0       	rjmp	.+200    	; 0x521a <SecondFloor_ActionCallback+0x142>
    5152:	f8 f0       	brcs	.+62     	; 0x5192 <SecondFloor_ActionCallback+0xba>
    5154:	c3 30       	cpi	r28, 0x03	; 3
    5156:	09 f4       	brne	.+2      	; 0x515a <SecondFloor_ActionCallback+0x82>
    5158:	90 c0       	rjmp	.+288    	; 0x527a <SecondFloor_ActionCallback+0x1a2>
    515a:	c4 30       	cpi	r28, 0x04	; 4
    515c:	79 f6       	brne	.-98     	; 0x50fc <SecondFloor_ActionCallback+0x24>
					if (++SecondFloorHysteresis == 10)
						SecondFloorHysteresis = 0;					
				break;
				
				case 4:
					if (++actSensor == nSensors)
    515e:	8f 5f       	subi	r24, 0xFF	; 255
    5160:	90 91 38 09 	lds	r25, 0x0938	; 0x800938 <nSensors>
    5164:	89 13       	cpse	r24, r25
    5166:	ca cf       	rjmp	.-108    	; 0x50fc <SecondFloor_ActionCallback+0x24>
    5168:	e0 e0       	ldi	r30, 0x00	; 0
    516a:	f0 e0       	ldi	r31, 0x00	; 0
    516c:	c9 cf       	rjmp	.-110    	; 0x5100 <SecondFloor_ActionCallback+0x28>
				break;
			}			
		break;
		
		case MENU_DOWN:
			switch (column)
    516e:	c2 30       	cpi	r28, 0x02	; 2
    5170:	09 f4       	brne	.+2      	; 0x5174 <SecondFloor_ActionCallback+0x9c>
    5172:	5c c0       	rjmp	.+184    	; 0x522c <SecondFloor_ActionCallback+0x154>
    5174:	a0 f1       	brcs	.+104    	; 0x51de <SecondFloor_ActionCallback+0x106>
    5176:	c3 30       	cpi	r28, 0x03	; 3
    5178:	09 f4       	brne	.+2      	; 0x517c <SecondFloor_ActionCallback+0xa4>
    517a:	6f c0       	rjmp	.+222    	; 0x525a <SecondFloor_ActionCallback+0x182>
    517c:	c4 30       	cpi	r28, 0x04	; 4
    517e:	09 f0       	breq	.+2      	; 0x5182 <SecondFloor_ActionCallback+0xaa>
    5180:	bd cf       	rjmp	.-134    	; 0x50fc <SecondFloor_ActionCallback+0x24>
					if (++SecondFloorHysteresis == 255)
						SecondFloorHysteresis = 9;
				break;
				
				case 4:
					if (--actSensor == 255)
    5182:	81 50       	subi	r24, 0x01	; 1
    5184:	08 f0       	brcs	.+2      	; 0x5188 <SecondFloor_ActionCallback+0xb0>
    5186:	ba cf       	rjmp	.-140    	; 0x50fc <SecondFloor_ActionCallback+0x24>
    5188:	e0 91 38 09 	lds	r30, 0x0938	; 0x800938 <nSensors>
    518c:	e1 50       	subi	r30, 0x01	; 1
    518e:	f0 e0       	ldi	r31, 0x00	; 0
    5190:	b7 cf       	rjmp	.-146    	; 0x5100 <SecondFloor_ActionCallback+0x28>
bool SecondFloor_ActionCallback(MENU_BUTTON *button, uint8_t column)
{
	uint8_t actSensor = FindActSensor(SecondFloor.SensorID);
	switch(button->role){
		case MENU_UP:
			switch (column)
    5192:	c1 30       	cpi	r28, 0x01	; 1
    5194:	09 f0       	breq	.+2      	; 0x5198 <SecondFloor_ActionCallback+0xc0>
    5196:	b2 cf       	rjmp	.-156    	; 0x50fc <SecondFloor_ActionCallback+0x24>
			{
				case 1:
					if (++SecondFloorFracDesired == 10)
    5198:	90 91 36 09 	lds	r25, 0x0936	; 0x800936 <SecondFloorFracDesired>
    519c:	9f 5f       	subi	r25, 0xFF	; 255
    519e:	90 93 36 09 	sts	0x0936, r25	; 0x800936 <SecondFloorFracDesired>
    51a2:	9a 30       	cpi	r25, 0x0A	; 10
    51a4:	09 f0       	breq	.+2      	; 0x51a8 <SecondFloor_ActionCallback+0xd0>
    51a6:	aa cf       	rjmp	.-172    	; 0x50fc <SecondFloor_ActionCallback+0x24>
					{
						++SecondFloorDesired;
    51a8:	90 91 97 09 	lds	r25, 0x0997	; 0x800997 <SecondFloorDesired>
    51ac:	9f 5f       	subi	r25, 0xFF	; 255
    51ae:	90 93 97 09 	sts	0x0997, r25	; 0x800997 <SecondFloorDesired>
						SecondFloorFracDesired = 0;
    51b2:	10 92 36 09 	sts	0x0936, r1	; 0x800936 <SecondFloorFracDesired>
    51b6:	e8 2f       	mov	r30, r24
    51b8:	f0 e0       	ldi	r31, 0x00	; 0
    51ba:	a2 cf       	rjmp	.-188    	; 0x5100 <SecondFloor_ActionCallback+0x28>
		
		
		break;
		
		case MENU_CONFIRM:
			switch (column)
    51bc:	c1 30       	cpi	r28, 0x01	; 1
    51be:	09 f0       	breq	.+2      	; 0x51c2 <SecondFloor_ActionCallback+0xea>
    51c0:	c0 cf       	rjmp	.-128    	; 0x5142 <SecondFloor_ActionCallback+0x6a>
			{	
				case 1:
					eeprom_update_byte(&eeSecondFloorDesired, SecondFloorDesired);
    51c2:	60 91 97 09 	lds	r22, 0x0997	; 0x800997 <SecondFloorDesired>
    51c6:	83 e7       	ldi	r24, 0x73	; 115
    51c8:	90 e0       	ldi	r25, 0x00	; 0
    51ca:	0e 94 d5 33 	call	0x67aa	; 0x67aa <eeprom_update_byte>
					eeprom_update_byte(&eeSecondFloorFracDesired, SecondFloorFracDesired);
    51ce:	60 91 36 09 	lds	r22, 0x0936	; 0x800936 <SecondFloorFracDesired>
    51d2:	82 e7       	ldi	r24, 0x72	; 114
    51d4:	90 e0       	ldi	r25, 0x00	; 0
    51d6:	0e 94 d5 33 	call	0x67aa	; 0x67aa <eeprom_update_byte>
				
				case 4:
					eeprom_update_block(gSensorIDs[actSensor], &eeSecondFloorSensorID, OW_ROMCODE_SIZE);
				break;
			}
			return true;
    51da:	81 e0       	ldi	r24, 0x01	; 1
			switch (column)
			{	
				case 1:
					eeprom_update_byte(&eeSecondFloorDesired, SecondFloorDesired);
					eeprom_update_byte(&eeSecondFloorFracDesired, SecondFloorFracDesired);
					break;
    51dc:	a3 cf       	rjmp	.-186    	; 0x5124 <SecondFloor_ActionCallback+0x4c>
				break;
			}			
		break;
		
		case MENU_DOWN:
			switch (column)
    51de:	c1 30       	cpi	r28, 0x01	; 1
    51e0:	09 f0       	breq	.+2      	; 0x51e4 <SecondFloor_ActionCallback+0x10c>
    51e2:	8c cf       	rjmp	.-232    	; 0x50fc <SecondFloor_ActionCallback+0x24>
			{
				case 1:
					if (--SecondFloorFracDesired == 255)
    51e4:	90 91 36 09 	lds	r25, 0x0936	; 0x800936 <SecondFloorFracDesired>
    51e8:	91 50       	subi	r25, 0x01	; 1
    51ea:	90 93 36 09 	sts	0x0936, r25	; 0x800936 <SecondFloorFracDesired>
    51ee:	9f 3f       	cpi	r25, 0xFF	; 255
    51f0:	09 f0       	breq	.+2      	; 0x51f4 <SecondFloor_ActionCallback+0x11c>
    51f2:	84 cf       	rjmp	.-248    	; 0x50fc <SecondFloor_ActionCallback+0x24>
					{
						--SecondFloorDesired;
    51f4:	90 91 97 09 	lds	r25, 0x0997	; 0x800997 <SecondFloorDesired>
    51f8:	91 50       	subi	r25, 0x01	; 1
    51fa:	90 93 97 09 	sts	0x0997, r25	; 0x800997 <SecondFloorDesired>
						SecondFloorFracDesired = 9;
    51fe:	99 e0       	ldi	r25, 0x09	; 9
    5200:	90 93 36 09 	sts	0x0936, r25	; 0x800936 <SecondFloorFracDesired>
    5204:	e8 2f       	mov	r30, r24
    5206:	f0 e0       	ldi	r31, 0x00	; 0
    5208:	7b cf       	rjmp	.-266    	; 0x5100 <SecondFloor_ActionCallback+0x28>
					eeprom_update_byte(&eeSecondFloorDesired, SecondFloorDesired);
					eeprom_update_byte(&eeSecondFloorFracDesired, SecondFloorFracDesired);
					break;
					
				case 2:
					eeprom_update_byte(&eeSecondFloorThermostatActive, SecondFloorThermostatActive);
    520a:	60 91 4c 09 	lds	r22, 0x094C	; 0x80094c <SecondFloorThermostatActive>
    520e:	81 e7       	ldi	r24, 0x71	; 113
    5210:	90 e0       	ldi	r25, 0x00	; 0
    5212:	0e 94 d5 33 	call	0x67aa	; 0x67aa <eeprom_update_byte>
				
				case 4:
					eeprom_update_block(gSensorIDs[actSensor], &eeSecondFloorSensorID, OW_ROMCODE_SIZE);
				break;
			}
			return true;
    5216:	81 e0       	ldi	r24, 0x01	; 1
					eeprom_update_byte(&eeSecondFloorFracDesired, SecondFloorFracDesired);
					break;
					
				case 2:
					eeprom_update_byte(&eeSecondFloorThermostatActive, SecondFloorThermostatActive);
				break;
    5218:	85 cf       	rjmp	.-246    	; 0x5124 <SecondFloor_ActionCallback+0x4c>
						SecondFloorFracDesired = 0;
					}
				break;
				
				case 2:
					SecondFloorThermostatActive ^= (1 << 0);
    521a:	20 91 4c 09 	lds	r18, 0x094C	; 0x80094c <SecondFloorThermostatActive>
    521e:	91 e0       	ldi	r25, 0x01	; 1
    5220:	92 27       	eor	r25, r18
    5222:	90 93 4c 09 	sts	0x094C, r25	; 0x80094c <SecondFloorThermostatActive>
    5226:	e8 2f       	mov	r30, r24
    5228:	f0 e0       	ldi	r31, 0x00	; 0
					break;
    522a:	6a cf       	rjmp	.-300    	; 0x5100 <SecondFloor_ActionCallback+0x28>
						SecondFloorFracDesired = 9;
					}
				break;
				
				case 2:
					SecondFloorThermostatActive ^= (1 << 0);
    522c:	20 91 4c 09 	lds	r18, 0x094C	; 0x80094c <SecondFloorThermostatActive>
    5230:	92 27       	eor	r25, r18
    5232:	90 93 4c 09 	sts	0x094C, r25	; 0x80094c <SecondFloorThermostatActive>
    5236:	62 cf       	rjmp	.-316    	; 0x50fc <SecondFloor_ActionCallback+0x24>
				case 3:
					eeprom_update_byte(&eeSecondFloorHysteresis, SecondFloorHysteresis);
				break;
				
				case 4:
					eeprom_update_block(gSensorIDs[actSensor], &eeSecondFloorSensorID, OW_ROMCODE_SIZE);
    5238:	90 e0       	ldi	r25, 0x00	; 0
    523a:	88 0f       	add	r24, r24
    523c:	99 1f       	adc	r25, r25
    523e:	88 0f       	add	r24, r24
    5240:	99 1f       	adc	r25, r25
    5242:	88 0f       	add	r24, r24
    5244:	99 1f       	adc	r25, r25
    5246:	48 e0       	ldi	r20, 0x08	; 8
    5248:	50 e0       	ldi	r21, 0x00	; 0
    524a:	68 e0       	ldi	r22, 0x08	; 8
    524c:	70 e0       	ldi	r23, 0x00	; 0
    524e:	87 50       	subi	r24, 0x07	; 7
    5250:	96 4f       	sbci	r25, 0xF6	; 246
    5252:	0e 94 c6 33 	call	0x678c	; 0x678c <eeprom_update_block>
				break;
			}
			return true;
    5256:	81 e0       	ldi	r24, 0x01	; 1
					eeprom_update_byte(&eeSecondFloorHysteresis, SecondFloorHysteresis);
				break;
				
				case 4:
					eeprom_update_block(gSensorIDs[actSensor], &eeSecondFloorSensorID, OW_ROMCODE_SIZE);
				break;
    5258:	65 cf       	rjmp	.-310    	; 0x5124 <SecondFloor_ActionCallback+0x4c>
				case 2:
					SecondFloorThermostatActive ^= (1 << 0);
				break;
				
				case 3:
					if (++SecondFloorHysteresis == 255)
    525a:	90 91 f6 09 	lds	r25, 0x09F6	; 0x8009f6 <SecondFloorHysteresis>
    525e:	9f 5f       	subi	r25, 0xFF	; 255
    5260:	9f 3f       	cpi	r25, 0xFF	; 255
    5262:	a9 f0       	breq	.+42     	; 0x528e <SecondFloor_ActionCallback+0x1b6>
						SecondFloorHysteresis = 9;
    5264:	90 93 f6 09 	sts	0x09F6, r25	; 0x8009f6 <SecondFloorHysteresis>
    5268:	49 cf       	rjmp	.-366    	; 0x50fc <SecondFloor_ActionCallback+0x24>
				case 2:
					eeprom_update_byte(&eeSecondFloorThermostatActive, SecondFloorThermostatActive);
				break;
					
				case 3:
					eeprom_update_byte(&eeSecondFloorHysteresis, SecondFloorHysteresis);
    526a:	60 91 f6 09 	lds	r22, 0x09F6	; 0x8009f6 <SecondFloorHysteresis>
    526e:	80 e7       	ldi	r24, 0x70	; 112
    5270:	90 e0       	ldi	r25, 0x00	; 0
    5272:	0e 94 d5 33 	call	0x67aa	; 0x67aa <eeprom_update_byte>
				
				case 4:
					eeprom_update_block(gSensorIDs[actSensor], &eeSecondFloorSensorID, OW_ROMCODE_SIZE);
				break;
			}
			return true;
    5276:	81 e0       	ldi	r24, 0x01	; 1
					eeprom_update_byte(&eeSecondFloorThermostatActive, SecondFloorThermostatActive);
				break;
					
				case 3:
					eeprom_update_byte(&eeSecondFloorHysteresis, SecondFloorHysteresis);
				break;
    5278:	55 cf       	rjmp	.-342    	; 0x5124 <SecondFloor_ActionCallback+0x4c>
				case 2:
					SecondFloorThermostatActive ^= (1 << 0);
					break;
				
				case 3:
					if (++SecondFloorHysteresis == 10)
    527a:	90 91 f6 09 	lds	r25, 0x09F6	; 0x8009f6 <SecondFloorHysteresis>
    527e:	9f 5f       	subi	r25, 0xFF	; 255
    5280:	9a 30       	cpi	r25, 0x0A	; 10
    5282:	39 f0       	breq	.+14     	; 0x5292 <SecondFloor_ActionCallback+0x1ba>
    5284:	90 93 f6 09 	sts	0x09F6, r25	; 0x8009f6 <SecondFloorHysteresis>
    5288:	e8 2f       	mov	r30, r24
    528a:	f0 e0       	ldi	r31, 0x00	; 0
    528c:	39 cf       	rjmp	.-398    	; 0x5100 <SecondFloor_ActionCallback+0x28>
					SecondFloorThermostatActive ^= (1 << 0);
				break;
				
				case 3:
					if (++SecondFloorHysteresis == 255)
						SecondFloorHysteresis = 9;
    528e:	99 e0       	ldi	r25, 0x09	; 9
    5290:	e9 cf       	rjmp	.-46     	; 0x5264 <SecondFloor_ActionCallback+0x18c>
					SecondFloorThermostatActive ^= (1 << 0);
					break;
				
				case 3:
					if (++SecondFloorHysteresis == 10)
						SecondFloorHysteresis = 0;					
    5292:	10 92 f6 09 	sts	0x09F6, r1	; 0x8009f6 <SecondFloorHysteresis>
    5296:	e8 2f       	mov	r30, r24
    5298:	f0 e0       	ldi	r31, 0x00	; 0
    529a:	32 cf       	rjmp	.-412    	; 0x5100 <SecondFloor_ActionCallback+0x28>

0000529c <BufferSensor_ActionCallback>:
	{
		lcd_putbyte_hex(Buffer.SensorID[i]);
	}
}

bool BufferSensor_ActionCallback(MENU_BUTTON *button, uint8_t column){
    529c:	1f 93       	push	r17
    529e:	cf 93       	push	r28
    52a0:	df 93       	push	r29
    52a2:	ec 01       	movw	r28, r24
    52a4:	16 2f       	mov	r17, r22
	uint8_t actSensor = FindActSensor(Buffer.SensorID);
    52a6:	8b ee       	ldi	r24, 0xEB	; 235
    52a8:	99 e0       	ldi	r25, 0x09	; 9
    52aa:	ac dd       	rcall	.-1192   	; 0x4e04 <FindActSensor>
	switch(button->role){
    52ac:	98 81       	ld	r25, Y
    52ae:	91 30       	cpi	r25, 0x01	; 1
    52b0:	e1 f1       	breq	.+120    	; 0x532a <BufferSensor_ActionCallback+0x8e>
    52b2:	e8 f0       	brcs	.+58     	; 0x52ee <BufferSensor_ActionCallback+0x52>
    52b4:	92 30       	cpi	r25, 0x02	; 2
    52b6:	39 f0       	breq	.+14     	; 0x52c6 <BufferSensor_ActionCallback+0x2a>
    52b8:	93 30       	cpi	r25, 0x03	; 3
    52ba:	f1 f4       	brne	.+60     	; 0x52f8 <BufferSensor_ActionCallback+0x5c>
			break;
		case MENU_CONFIRM:			
			eeprom_update_block(gSensorIDs[actSensor], &eeBufferSensorID, OW_ROMCODE_SIZE);
			return true;
		case MENU_CANCEL:
			return true;
    52bc:	81 e0       	ldi	r24, 0x01	; 1
	}
	memcpy(&Buffer.SensorID, &gSensorIDs[actSensor], OW_ROMCODE_SIZE);
	BufferSensor_CallbackRender(column);
	return false;
}
    52be:	df 91       	pop	r29
    52c0:	cf 91       	pop	r28
    52c2:	1f 91       	pop	r17
    52c4:	08 95       	ret
		case MENU_DOWN:
			if (--actSensor == 255)
				actSensor = nSensors - 1;
			break;
		case MENU_CONFIRM:			
			eeprom_update_block(gSensorIDs[actSensor], &eeBufferSensorID, OW_ROMCODE_SIZE);
    52c6:	90 e0       	ldi	r25, 0x00	; 0
    52c8:	88 0f       	add	r24, r24
    52ca:	99 1f       	adc	r25, r25
    52cc:	88 0f       	add	r24, r24
    52ce:	99 1f       	adc	r25, r25
    52d0:	88 0f       	add	r24, r24
    52d2:	99 1f       	adc	r25, r25
    52d4:	48 e0       	ldi	r20, 0x08	; 8
    52d6:	50 e0       	ldi	r21, 0x00	; 0
    52d8:	68 e5       	ldi	r22, 0x58	; 88
    52da:	70 e0       	ldi	r23, 0x00	; 0
    52dc:	87 50       	subi	r24, 0x07	; 7
    52de:	96 4f       	sbci	r25, 0xF6	; 246
    52e0:	0e 94 c6 33 	call	0x678c	; 0x678c <eeprom_update_block>
			return true;
    52e4:	81 e0       	ldi	r24, 0x01	; 1
			return true;
	}
	memcpy(&Buffer.SensorID, &gSensorIDs[actSensor], OW_ROMCODE_SIZE);
	BufferSensor_CallbackRender(column);
	return false;
}
    52e6:	df 91       	pop	r29
    52e8:	cf 91       	pop	r28
    52ea:	1f 91       	pop	r17
    52ec:	08 95       	ret

bool BufferSensor_ActionCallback(MENU_BUTTON *button, uint8_t column){
	uint8_t actSensor = FindActSensor(Buffer.SensorID);
	switch(button->role){
		case MENU_UP:
			if (++actSensor == nSensors)
    52ee:	8f 5f       	subi	r24, 0xFF	; 255
    52f0:	90 91 38 09 	lds	r25, 0x0938	; 0x800938 <nSensors>
    52f4:	89 17       	cp	r24, r25
    52f6:	01 f1       	breq	.+64     	; 0x5338 <BufferSensor_ActionCallback+0x9c>
    52f8:	e8 2f       	mov	r30, r24
    52fa:	f0 e0       	ldi	r31, 0x00	; 0
			eeprom_update_block(gSensorIDs[actSensor], &eeBufferSensorID, OW_ROMCODE_SIZE);
			return true;
		case MENU_CANCEL:
			return true;
	}
	memcpy(&Buffer.SensorID, &gSensorIDs[actSensor], OW_ROMCODE_SIZE);
    52fc:	ee 0f       	add	r30, r30
    52fe:	ff 1f       	adc	r31, r31
    5300:	ee 0f       	add	r30, r30
    5302:	ff 1f       	adc	r31, r31
    5304:	ee 0f       	add	r30, r30
    5306:	ff 1f       	adc	r31, r31
    5308:	e7 50       	subi	r30, 0x07	; 7
    530a:	f6 4f       	sbci	r31, 0xF6	; 246
    530c:	88 e0       	ldi	r24, 0x08	; 8
    530e:	ab ee       	ldi	r26, 0xEB	; 235
    5310:	b9 e0       	ldi	r27, 0x09	; 9
    5312:	01 90       	ld	r0, Z+
    5314:	0d 92       	st	X+, r0
    5316:	8a 95       	dec	r24
    5318:	e1 f7       	brne	.-8      	; 0x5312 <BufferSensor_ActionCallback+0x76>
	BufferSensor_CallbackRender(column);
    531a:	81 2f       	mov	r24, r17
    531c:	0e 94 7e 21 	call	0x42fc	; 0x42fc <BufferSensor_CallbackRender>
	return false;
    5320:	80 e0       	ldi	r24, 0x00	; 0
}
    5322:	df 91       	pop	r29
    5324:	cf 91       	pop	r28
    5326:	1f 91       	pop	r17
    5328:	08 95       	ret
		case MENU_UP:
			if (++actSensor == nSensors)
				actSensor = 0;
			break;
		case MENU_DOWN:
			if (--actSensor == 255)
    532a:	81 50       	subi	r24, 0x01	; 1
    532c:	28 f7       	brcc	.-54     	; 0x52f8 <BufferSensor_ActionCallback+0x5c>
    532e:	e0 91 38 09 	lds	r30, 0x0938	; 0x800938 <nSensors>
    5332:	e1 50       	subi	r30, 0x01	; 1
    5334:	f0 e0       	ldi	r31, 0x00	; 0
    5336:	e2 cf       	rjmp	.-60     	; 0x52fc <BufferSensor_ActionCallback+0x60>
    5338:	e0 e0       	ldi	r30, 0x00	; 0
    533a:	f0 e0       	ldi	r31, 0x00	; 0
    533c:	df cf       	rjmp	.-66     	; 0x52fc <BufferSensor_ActionCallback+0x60>

0000533e <EngineeringSensor_ActionCallback>:
	{
		lcd_putbyte_hex(Engineering.SensorID[i]);
	}
}

bool EngineeringSensor_ActionCallback(MENU_BUTTON *button, uint8_t column){
    533e:	1f 93       	push	r17
    5340:	cf 93       	push	r28
    5342:	df 93       	push	r29
    5344:	ec 01       	movw	r28, r24
    5346:	16 2f       	mov	r17, r22
	uint8_t actSensor = FindActSensor(Engineering.SensorID);
    5348:	8f e5       	ldi	r24, 0x5F	; 95
    534a:	99 e0       	ldi	r25, 0x09	; 9
    534c:	5b dd       	rcall	.-1354   	; 0x4e04 <FindActSensor>
	switch(button->role){
    534e:	98 81       	ld	r25, Y
    5350:	91 30       	cpi	r25, 0x01	; 1
    5352:	e1 f1       	breq	.+120    	; 0x53cc <EngineeringSensor_ActionCallback+0x8e>
    5354:	e8 f0       	brcs	.+58     	; 0x5390 <EngineeringSensor_ActionCallback+0x52>
    5356:	92 30       	cpi	r25, 0x02	; 2
    5358:	39 f0       	breq	.+14     	; 0x5368 <EngineeringSensor_ActionCallback+0x2a>
    535a:	93 30       	cpi	r25, 0x03	; 3
    535c:	f1 f4       	brne	.+60     	; 0x539a <EngineeringSensor_ActionCallback+0x5c>
			break;
		case MENU_CONFIRM:
			eeprom_update_block(gSensorIDs[actSensor], &eeEngineeringSensorID, OW_ROMCODE_SIZE);
			return true;
		case MENU_CANCEL:
			return true;
    535e:	81 e0       	ldi	r24, 0x01	; 1
	}
	memcpy(&Engineering.SensorID, &gSensorIDs[actSensor], OW_ROMCODE_SIZE);
	EngineeringSensor_CallbackRender(column);
	return false;
}
    5360:	df 91       	pop	r29
    5362:	cf 91       	pop	r28
    5364:	1f 91       	pop	r17
    5366:	08 95       	ret
		case MENU_DOWN:
			if (--actSensor == 255)
				actSensor = nSensors - 1;
			break;
		case MENU_CONFIRM:
			eeprom_update_block(gSensorIDs[actSensor], &eeEngineeringSensorID, OW_ROMCODE_SIZE);
    5368:	90 e0       	ldi	r25, 0x00	; 0
    536a:	88 0f       	add	r24, r24
    536c:	99 1f       	adc	r25, r25
    536e:	88 0f       	add	r24, r24
    5370:	99 1f       	adc	r25, r25
    5372:	88 0f       	add	r24, r24
    5374:	99 1f       	adc	r25, r25
    5376:	48 e0       	ldi	r20, 0x08	; 8
    5378:	50 e0       	ldi	r21, 0x00	; 0
    537a:	68 e4       	ldi	r22, 0x48	; 72
    537c:	70 e0       	ldi	r23, 0x00	; 0
    537e:	87 50       	subi	r24, 0x07	; 7
    5380:	96 4f       	sbci	r25, 0xF6	; 246
    5382:	0e 94 c6 33 	call	0x678c	; 0x678c <eeprom_update_block>
			return true;
    5386:	81 e0       	ldi	r24, 0x01	; 1
			return true;
	}
	memcpy(&Engineering.SensorID, &gSensorIDs[actSensor], OW_ROMCODE_SIZE);
	EngineeringSensor_CallbackRender(column);
	return false;
}
    5388:	df 91       	pop	r29
    538a:	cf 91       	pop	r28
    538c:	1f 91       	pop	r17
    538e:	08 95       	ret

bool EngineeringSensor_ActionCallback(MENU_BUTTON *button, uint8_t column){
	uint8_t actSensor = FindActSensor(Engineering.SensorID);
	switch(button->role){
		case MENU_UP:
			if (++actSensor == nSensors)
    5390:	8f 5f       	subi	r24, 0xFF	; 255
    5392:	90 91 38 09 	lds	r25, 0x0938	; 0x800938 <nSensors>
    5396:	89 17       	cp	r24, r25
    5398:	01 f1       	breq	.+64     	; 0x53da <EngineeringSensor_ActionCallback+0x9c>
    539a:	e8 2f       	mov	r30, r24
    539c:	f0 e0       	ldi	r31, 0x00	; 0
			eeprom_update_block(gSensorIDs[actSensor], &eeEngineeringSensorID, OW_ROMCODE_SIZE);
			return true;
		case MENU_CANCEL:
			return true;
	}
	memcpy(&Engineering.SensorID, &gSensorIDs[actSensor], OW_ROMCODE_SIZE);
    539e:	ee 0f       	add	r30, r30
    53a0:	ff 1f       	adc	r31, r31
    53a2:	ee 0f       	add	r30, r30
    53a4:	ff 1f       	adc	r31, r31
    53a6:	ee 0f       	add	r30, r30
    53a8:	ff 1f       	adc	r31, r31
    53aa:	e7 50       	subi	r30, 0x07	; 7
    53ac:	f6 4f       	sbci	r31, 0xF6	; 246
    53ae:	88 e0       	ldi	r24, 0x08	; 8
    53b0:	af e5       	ldi	r26, 0x5F	; 95
    53b2:	b9 e0       	ldi	r27, 0x09	; 9
    53b4:	01 90       	ld	r0, Z+
    53b6:	0d 92       	st	X+, r0
    53b8:	8a 95       	dec	r24
    53ba:	e1 f7       	brne	.-8      	; 0x53b4 <EngineeringSensor_ActionCallback+0x76>
	EngineeringSensor_CallbackRender(column);
    53bc:	81 2f       	mov	r24, r17
    53be:	0e 94 96 21 	call	0x432c	; 0x432c <EngineeringSensor_CallbackRender>
	return false;
    53c2:	80 e0       	ldi	r24, 0x00	; 0
}
    53c4:	df 91       	pop	r29
    53c6:	cf 91       	pop	r28
    53c8:	1f 91       	pop	r17
    53ca:	08 95       	ret
		case MENU_UP:
			if (++actSensor == nSensors)
				actSensor = 0;
			break;
		case MENU_DOWN:
			if (--actSensor == 255)
    53cc:	81 50       	subi	r24, 0x01	; 1
    53ce:	28 f7       	brcc	.-54     	; 0x539a <EngineeringSensor_ActionCallback+0x5c>
    53d0:	e0 91 38 09 	lds	r30, 0x0938	; 0x800938 <nSensors>
    53d4:	e1 50       	subi	r30, 0x01	; 1
    53d6:	f0 e0       	ldi	r31, 0x00	; 0
    53d8:	e2 cf       	rjmp	.-60     	; 0x539e <EngineeringSensor_ActionCallback+0x60>
    53da:	e0 e0       	ldi	r30, 0x00	; 0
    53dc:	f0 e0       	ldi	r31, 0x00	; 0
    53de:	df cf       	rjmp	.-66     	; 0x539e <EngineeringSensor_ActionCallback+0x60>

000053e0 <GarageSensor_ActionCallback>:
	{
		lcd_putbyte_hex(Garage.SensorID[i]);
	}
}

bool GarageSensor_ActionCallback(MENU_BUTTON *button, uint8_t column){
    53e0:	1f 93       	push	r17
    53e2:	cf 93       	push	r28
    53e4:	df 93       	push	r29
    53e6:	ec 01       	movw	r28, r24
    53e8:	16 2f       	mov	r17, r22
	uint8_t actSensor = FindActSensor(Garage.SensorID);
    53ea:	84 e4       	ldi	r24, 0x44	; 68
    53ec:	99 e0       	ldi	r25, 0x09	; 9
    53ee:	0a dd       	rcall	.-1516   	; 0x4e04 <FindActSensor>
	switch(button->role){
    53f0:	98 81       	ld	r25, Y
    53f2:	91 30       	cpi	r25, 0x01	; 1
    53f4:	e1 f1       	breq	.+120    	; 0x546e <GarageSensor_ActionCallback+0x8e>
    53f6:	e8 f0       	brcs	.+58     	; 0x5432 <GarageSensor_ActionCallback+0x52>
    53f8:	92 30       	cpi	r25, 0x02	; 2
    53fa:	39 f0       	breq	.+14     	; 0x540a <GarageSensor_ActionCallback+0x2a>
    53fc:	93 30       	cpi	r25, 0x03	; 3
    53fe:	f1 f4       	brne	.+60     	; 0x543c <GarageSensor_ActionCallback+0x5c>
			break;
		case MENU_CONFIRM:
			eeprom_update_block(gSensorIDs[actSensor], &eeGarageSensorID, OW_ROMCODE_SIZE);
			return true;
		case MENU_CANCEL:
			return true;
    5400:	81 e0       	ldi	r24, 0x01	; 1
	}
	memcpy(&Garage.SensorID, &gSensorIDs[actSensor], OW_ROMCODE_SIZE);
	GarageSensor_CallbackRender(column);
	return false;
}
    5402:	df 91       	pop	r29
    5404:	cf 91       	pop	r28
    5406:	1f 91       	pop	r17
    5408:	08 95       	ret
		case MENU_DOWN:
			if (--actSensor == 255)
				actSensor = nSensors - 1;
			break;
		case MENU_CONFIRM:
			eeprom_update_block(gSensorIDs[actSensor], &eeGarageSensorID, OW_ROMCODE_SIZE);
    540a:	90 e0       	ldi	r25, 0x00	; 0
    540c:	88 0f       	add	r24, r24
    540e:	99 1f       	adc	r25, r25
    5410:	88 0f       	add	r24, r24
    5412:	99 1f       	adc	r25, r25
    5414:	88 0f       	add	r24, r24
    5416:	99 1f       	adc	r25, r25
    5418:	48 e0       	ldi	r20, 0x08	; 8
    541a:	50 e0       	ldi	r21, 0x00	; 0
    541c:	60 e5       	ldi	r22, 0x50	; 80
    541e:	70 e0       	ldi	r23, 0x00	; 0
    5420:	87 50       	subi	r24, 0x07	; 7
    5422:	96 4f       	sbci	r25, 0xF6	; 246
    5424:	0e 94 c6 33 	call	0x678c	; 0x678c <eeprom_update_block>
			return true;
    5428:	81 e0       	ldi	r24, 0x01	; 1
			return true;
	}
	memcpy(&Garage.SensorID, &gSensorIDs[actSensor], OW_ROMCODE_SIZE);
	GarageSensor_CallbackRender(column);
	return false;
}
    542a:	df 91       	pop	r29
    542c:	cf 91       	pop	r28
    542e:	1f 91       	pop	r17
    5430:	08 95       	ret

bool GarageSensor_ActionCallback(MENU_BUTTON *button, uint8_t column){
	uint8_t actSensor = FindActSensor(Garage.SensorID);
	switch(button->role){
		case MENU_UP:
			if (++actSensor == nSensors)
    5432:	8f 5f       	subi	r24, 0xFF	; 255
    5434:	90 91 38 09 	lds	r25, 0x0938	; 0x800938 <nSensors>
    5438:	89 17       	cp	r24, r25
    543a:	01 f1       	breq	.+64     	; 0x547c <GarageSensor_ActionCallback+0x9c>
    543c:	e8 2f       	mov	r30, r24
    543e:	f0 e0       	ldi	r31, 0x00	; 0
			eeprom_update_block(gSensorIDs[actSensor], &eeGarageSensorID, OW_ROMCODE_SIZE);
			return true;
		case MENU_CANCEL:
			return true;
	}
	memcpy(&Garage.SensorID, &gSensorIDs[actSensor], OW_ROMCODE_SIZE);
    5440:	ee 0f       	add	r30, r30
    5442:	ff 1f       	adc	r31, r31
    5444:	ee 0f       	add	r30, r30
    5446:	ff 1f       	adc	r31, r31
    5448:	ee 0f       	add	r30, r30
    544a:	ff 1f       	adc	r31, r31
    544c:	e7 50       	subi	r30, 0x07	; 7
    544e:	f6 4f       	sbci	r31, 0xF6	; 246
    5450:	88 e0       	ldi	r24, 0x08	; 8
    5452:	a4 e4       	ldi	r26, 0x44	; 68
    5454:	b9 e0       	ldi	r27, 0x09	; 9
    5456:	01 90       	ld	r0, Z+
    5458:	0d 92       	st	X+, r0
    545a:	8a 95       	dec	r24
    545c:	e1 f7       	brne	.-8      	; 0x5456 <GarageSensor_ActionCallback+0x76>
	GarageSensor_CallbackRender(column);
    545e:	81 2f       	mov	r24, r17
    5460:	0e 94 ae 21 	call	0x435c	; 0x435c <GarageSensor_CallbackRender>
	return false;
    5464:	80 e0       	ldi	r24, 0x00	; 0
}
    5466:	df 91       	pop	r29
    5468:	cf 91       	pop	r28
    546a:	1f 91       	pop	r17
    546c:	08 95       	ret
		case MENU_UP:
			if (++actSensor == nSensors)
				actSensor = 0;
			break;
		case MENU_DOWN:
			if (--actSensor == 255)
    546e:	81 50       	subi	r24, 0x01	; 1
    5470:	28 f7       	brcc	.-54     	; 0x543c <GarageSensor_ActionCallback+0x5c>
    5472:	e0 91 38 09 	lds	r30, 0x0938	; 0x800938 <nSensors>
    5476:	e1 50       	subi	r30, 0x01	; 1
    5478:	f0 e0       	ldi	r31, 0x00	; 0
    547a:	e2 cf       	rjmp	.-60     	; 0x5440 <GarageSensor_ActionCallback+0x60>
    547c:	e0 e0       	ldi	r30, 0x00	; 0
    547e:	f0 e0       	ldi	r31, 0x00	; 0
    5480:	df cf       	rjmp	.-66     	; 0x5440 <GarageSensor_ActionCallback+0x60>

00005482 <LivingRoomSensor_ActionCallback>:
	{
		lcd_putbyte_hex(LivingRoom.SensorID[i]);
	}
}

bool LivingRoomSensor_ActionCallback(MENU_BUTTON *button, uint8_t column){
    5482:	1f 93       	push	r17
    5484:	cf 93       	push	r28
    5486:	df 93       	push	r29
    5488:	ec 01       	movw	r28, r24
    548a:	16 2f       	mov	r17, r22
	uint8_t actSensor = FindActSensor(LivingRoom.SensorID);
    548c:	8e e7       	ldi	r24, 0x7E	; 126
    548e:	9a e0       	ldi	r25, 0x0A	; 10
    5490:	b9 dc       	rcall	.-1678   	; 0x4e04 <FindActSensor>
	switch(button->role){
    5492:	98 81       	ld	r25, Y
    5494:	91 30       	cpi	r25, 0x01	; 1
    5496:	e1 f1       	breq	.+120    	; 0x5510 <LivingRoomSensor_ActionCallback+0x8e>
    5498:	e8 f0       	brcs	.+58     	; 0x54d4 <LivingRoomSensor_ActionCallback+0x52>
    549a:	92 30       	cpi	r25, 0x02	; 2
    549c:	39 f0       	breq	.+14     	; 0x54ac <LivingRoomSensor_ActionCallback+0x2a>
    549e:	93 30       	cpi	r25, 0x03	; 3
    54a0:	f1 f4       	brne	.+60     	; 0x54de <LivingRoomSensor_ActionCallback+0x5c>
			break;
		case MENU_CONFIRM:
			eeprom_update_block(gSensorIDs[actSensor], &eeLivingRoomSensorID, OW_ROMCODE_SIZE);
			return true;
		case MENU_CANCEL:
			return true;
    54a2:	81 e0       	ldi	r24, 0x01	; 1
	}
	memcpy(&LivingRoom.SensorID, &gSensorIDs[actSensor], OW_ROMCODE_SIZE);
	LivingRoomSensor_CallbackRender(column);
	return false;
}
    54a4:	df 91       	pop	r29
    54a6:	cf 91       	pop	r28
    54a8:	1f 91       	pop	r17
    54aa:	08 95       	ret
		case MENU_DOWN:
			if (--actSensor == 255)
				actSensor = nSensors - 1;
			break;
		case MENU_CONFIRM:
			eeprom_update_block(gSensorIDs[actSensor], &eeLivingRoomSensorID, OW_ROMCODE_SIZE);
    54ac:	90 e0       	ldi	r25, 0x00	; 0
    54ae:	88 0f       	add	r24, r24
    54b0:	99 1f       	adc	r25, r25
    54b2:	88 0f       	add	r24, r24
    54b4:	99 1f       	adc	r25, r25
    54b6:	88 0f       	add	r24, r24
    54b8:	99 1f       	adc	r25, r25
    54ba:	48 e0       	ldi	r20, 0x08	; 8
    54bc:	50 e0       	ldi	r21, 0x00	; 0
    54be:	60 e4       	ldi	r22, 0x40	; 64
    54c0:	70 e0       	ldi	r23, 0x00	; 0
    54c2:	87 50       	subi	r24, 0x07	; 7
    54c4:	96 4f       	sbci	r25, 0xF6	; 246
    54c6:	0e 94 c6 33 	call	0x678c	; 0x678c <eeprom_update_block>
			return true;
    54ca:	81 e0       	ldi	r24, 0x01	; 1
			return true;
	}
	memcpy(&LivingRoom.SensorID, &gSensorIDs[actSensor], OW_ROMCODE_SIZE);
	LivingRoomSensor_CallbackRender(column);
	return false;
}
    54cc:	df 91       	pop	r29
    54ce:	cf 91       	pop	r28
    54d0:	1f 91       	pop	r17
    54d2:	08 95       	ret

bool LivingRoomSensor_ActionCallback(MENU_BUTTON *button, uint8_t column){
	uint8_t actSensor = FindActSensor(LivingRoom.SensorID);
	switch(button->role){
		case MENU_UP:
			if (++actSensor == nSensors)
    54d4:	8f 5f       	subi	r24, 0xFF	; 255
    54d6:	90 91 38 09 	lds	r25, 0x0938	; 0x800938 <nSensors>
    54da:	89 17       	cp	r24, r25
    54dc:	01 f1       	breq	.+64     	; 0x551e <LivingRoomSensor_ActionCallback+0x9c>
    54de:	e8 2f       	mov	r30, r24
    54e0:	f0 e0       	ldi	r31, 0x00	; 0
			eeprom_update_block(gSensorIDs[actSensor], &eeLivingRoomSensorID, OW_ROMCODE_SIZE);
			return true;
		case MENU_CANCEL:
			return true;
	}
	memcpy(&LivingRoom.SensorID, &gSensorIDs[actSensor], OW_ROMCODE_SIZE);
    54e2:	ee 0f       	add	r30, r30
    54e4:	ff 1f       	adc	r31, r31
    54e6:	ee 0f       	add	r30, r30
    54e8:	ff 1f       	adc	r31, r31
    54ea:	ee 0f       	add	r30, r30
    54ec:	ff 1f       	adc	r31, r31
    54ee:	e7 50       	subi	r30, 0x07	; 7
    54f0:	f6 4f       	sbci	r31, 0xF6	; 246
    54f2:	88 e0       	ldi	r24, 0x08	; 8
    54f4:	ae e7       	ldi	r26, 0x7E	; 126
    54f6:	ba e0       	ldi	r27, 0x0A	; 10
    54f8:	01 90       	ld	r0, Z+
    54fa:	0d 92       	st	X+, r0
    54fc:	8a 95       	dec	r24
    54fe:	e1 f7       	brne	.-8      	; 0x54f8 <LivingRoomSensor_ActionCallback+0x76>
	LivingRoomSensor_CallbackRender(column);
    5500:	81 2f       	mov	r24, r17
    5502:	0e 94 c6 21 	call	0x438c	; 0x438c <LivingRoomSensor_CallbackRender>
	return false;
    5506:	80 e0       	ldi	r24, 0x00	; 0
}
    5508:	df 91       	pop	r29
    550a:	cf 91       	pop	r28
    550c:	1f 91       	pop	r17
    550e:	08 95       	ret
		case MENU_UP:
			if (++actSensor == nSensors)
				actSensor = 0;
			break;
		case MENU_DOWN:
			if (--actSensor == 255)
    5510:	81 50       	subi	r24, 0x01	; 1
    5512:	28 f7       	brcc	.-54     	; 0x54de <LivingRoomSensor_ActionCallback+0x5c>
    5514:	e0 91 38 09 	lds	r30, 0x0938	; 0x800938 <nSensors>
    5518:	e1 50       	subi	r30, 0x01	; 1
    551a:	f0 e0       	ldi	r31, 0x00	; 0
    551c:	e2 cf       	rjmp	.-60     	; 0x54e2 <LivingRoomSensor_ActionCallback+0x60>
    551e:	e0 e0       	ldi	r30, 0x00	; 0
    5520:	f0 e0       	ldi	r31, 0x00	; 0
    5522:	df cf       	rjmp	.-66     	; 0x54e2 <LivingRoomSensor_ActionCallback+0x60>

00005524 <FloorSensor_ActionCallback>:
	{
		lcd_putbyte_hex(Floor.SensorID[i]);
	}
}

bool FloorSensor_ActionCallback(MENU_BUTTON *button, uint8_t column){
    5524:	1f 93       	push	r17
    5526:	cf 93       	push	r28
    5528:	df 93       	push	r29
    552a:	ec 01       	movw	r28, r24
    552c:	16 2f       	mov	r17, r22
	uint8_t actSensor = FindActSensor(Floor.SensorID);
    552e:	82 ea       	ldi	r24, 0xA2	; 162
    5530:	99 e0       	ldi	r25, 0x09	; 9
    5532:	68 dc       	rcall	.-1840   	; 0x4e04 <FindActSensor>
	switch(button->role){
    5534:	98 81       	ld	r25, Y
    5536:	91 30       	cpi	r25, 0x01	; 1
    5538:	e1 f1       	breq	.+120    	; 0x55b2 <FloorSensor_ActionCallback+0x8e>
    553a:	e8 f0       	brcs	.+58     	; 0x5576 <FloorSensor_ActionCallback+0x52>
    553c:	92 30       	cpi	r25, 0x02	; 2
    553e:	39 f0       	breq	.+14     	; 0x554e <FloorSensor_ActionCallback+0x2a>
    5540:	93 30       	cpi	r25, 0x03	; 3
    5542:	f1 f4       	brne	.+60     	; 0x5580 <FloorSensor_ActionCallback+0x5c>
			break;
		case MENU_CONFIRM:
			eeprom_update_block(gSensorIDs[actSensor], &eeFloorSensorID, OW_ROMCODE_SIZE);
			return true;
		case MENU_CANCEL:
			return true;
    5544:	81 e0       	ldi	r24, 0x01	; 1
	}

	memcpy(&Floor.SensorID, &gSensorIDs[actSensor], OW_ROMCODE_SIZE);
	FloorSensor_CallbackRender(column);
	return false;
}
    5546:	df 91       	pop	r29
    5548:	cf 91       	pop	r28
    554a:	1f 91       	pop	r17
    554c:	08 95       	ret
		case MENU_DOWN:
			if (--actSensor == 255)
				actSensor = nSensors - 1;
			break;
		case MENU_CONFIRM:
			eeprom_update_block(gSensorIDs[actSensor], &eeFloorSensorID, OW_ROMCODE_SIZE);
    554e:	90 e0       	ldi	r25, 0x00	; 0
    5550:	88 0f       	add	r24, r24
    5552:	99 1f       	adc	r25, r25
    5554:	88 0f       	add	r24, r24
    5556:	99 1f       	adc	r25, r25
    5558:	88 0f       	add	r24, r24
    555a:	99 1f       	adc	r25, r25
    555c:	48 e0       	ldi	r20, 0x08	; 8
    555e:	50 e0       	ldi	r21, 0x00	; 0
    5560:	68 e3       	ldi	r22, 0x38	; 56
    5562:	70 e0       	ldi	r23, 0x00	; 0
    5564:	87 50       	subi	r24, 0x07	; 7
    5566:	96 4f       	sbci	r25, 0xF6	; 246
    5568:	0e 94 c6 33 	call	0x678c	; 0x678c <eeprom_update_block>
			return true;
    556c:	81 e0       	ldi	r24, 0x01	; 1
	}

	memcpy(&Floor.SensorID, &gSensorIDs[actSensor], OW_ROMCODE_SIZE);
	FloorSensor_CallbackRender(column);
	return false;
}
    556e:	df 91       	pop	r29
    5570:	cf 91       	pop	r28
    5572:	1f 91       	pop	r17
    5574:	08 95       	ret

bool FloorSensor_ActionCallback(MENU_BUTTON *button, uint8_t column){
	uint8_t actSensor = FindActSensor(Floor.SensorID);
	switch(button->role){
		case MENU_UP:
			if (++actSensor == nSensors)
    5576:	8f 5f       	subi	r24, 0xFF	; 255
    5578:	90 91 38 09 	lds	r25, 0x0938	; 0x800938 <nSensors>
    557c:	89 17       	cp	r24, r25
    557e:	01 f1       	breq	.+64     	; 0x55c0 <FloorSensor_ActionCallback+0x9c>
    5580:	e8 2f       	mov	r30, r24
    5582:	f0 e0       	ldi	r31, 0x00	; 0
			return true;
		case MENU_CANCEL:
			return true;
	}

	memcpy(&Floor.SensorID, &gSensorIDs[actSensor], OW_ROMCODE_SIZE);
    5584:	ee 0f       	add	r30, r30
    5586:	ff 1f       	adc	r31, r31
    5588:	ee 0f       	add	r30, r30
    558a:	ff 1f       	adc	r31, r31
    558c:	ee 0f       	add	r30, r30
    558e:	ff 1f       	adc	r31, r31
    5590:	e7 50       	subi	r30, 0x07	; 7
    5592:	f6 4f       	sbci	r31, 0xF6	; 246
    5594:	88 e0       	ldi	r24, 0x08	; 8
    5596:	a2 ea       	ldi	r26, 0xA2	; 162
    5598:	b9 e0       	ldi	r27, 0x09	; 9
    559a:	01 90       	ld	r0, Z+
    559c:	0d 92       	st	X+, r0
    559e:	8a 95       	dec	r24
    55a0:	e1 f7       	brne	.-8      	; 0x559a <FloorSensor_ActionCallback+0x76>
	FloorSensor_CallbackRender(column);
    55a2:	81 2f       	mov	r24, r17
    55a4:	0e 94 de 21 	call	0x43bc	; 0x43bc <FloorSensor_CallbackRender>
	return false;
    55a8:	80 e0       	ldi	r24, 0x00	; 0
}
    55aa:	df 91       	pop	r29
    55ac:	cf 91       	pop	r28
    55ae:	1f 91       	pop	r17
    55b0:	08 95       	ret
		case MENU_UP:
			if (++actSensor == nSensors)
				actSensor = 0;
			break;
		case MENU_DOWN:
			if (--actSensor == 255)
    55b2:	81 50       	subi	r24, 0x01	; 1
    55b4:	28 f7       	brcc	.-54     	; 0x5580 <FloorSensor_ActionCallback+0x5c>
    55b6:	e0 91 38 09 	lds	r30, 0x0938	; 0x800938 <nSensors>
    55ba:	e1 50       	subi	r30, 0x01	; 1
    55bc:	f0 e0       	ldi	r31, 0x00	; 0
    55be:	e2 cf       	rjmp	.-60     	; 0x5584 <FloorSensor_ActionCallback+0x60>
    55c0:	e0 e0       	ldi	r30, 0x00	; 0
    55c2:	f0 e0       	ldi	r31, 0x00	; 0
    55c4:	df cf       	rjmp	.-66     	; 0x5584 <FloorSensor_ActionCallback+0x60>

000055c6 <GasForwardSensor_ActionCallback>:
	{
		lcd_putbyte_hex(GasForward.SensorID[i]);
	}
}

bool GasForwardSensor_ActionCallback(MENU_BUTTON *button, uint8_t column){
    55c6:	1f 93       	push	r17
    55c8:	cf 93       	push	r28
    55ca:	df 93       	push	r29
    55cc:	ec 01       	movw	r28, r24
    55ce:	16 2f       	mov	r17, r22
	uint8_t actSensor = FindActSensor(GasForward.SensorID);
    55d0:	88 ec       	ldi	r24, 0xC8	; 200
    55d2:	99 e0       	ldi	r25, 0x09	; 9
    55d4:	17 dc       	rcall	.-2002   	; 0x4e04 <FindActSensor>
	switch(button->role){
    55d6:	98 81       	ld	r25, Y
    55d8:	91 30       	cpi	r25, 0x01	; 1
    55da:	e1 f1       	breq	.+120    	; 0x5654 <GasForwardSensor_ActionCallback+0x8e>
    55dc:	e8 f0       	brcs	.+58     	; 0x5618 <GasForwardSensor_ActionCallback+0x52>
    55de:	92 30       	cpi	r25, 0x02	; 2
    55e0:	39 f0       	breq	.+14     	; 0x55f0 <GasForwardSensor_ActionCallback+0x2a>
    55e2:	93 30       	cpi	r25, 0x03	; 3
    55e4:	f1 f4       	brne	.+60     	; 0x5622 <GasForwardSensor_ActionCallback+0x5c>
			break;
		case MENU_CONFIRM:
			eeprom_update_block(gSensorIDs[actSensor], &eeGasForwardTempSensorID, OW_ROMCODE_SIZE);
			return true;
		case MENU_CANCEL:
			return true;
    55e6:	81 e0       	ldi	r24, 0x01	; 1
	}

	memcpy(&GasForward.SensorID, &gSensorIDs[actSensor], OW_ROMCODE_SIZE);
	GasForwardSensor_CallbackRender(column);
	return false;
}
    55e8:	df 91       	pop	r29
    55ea:	cf 91       	pop	r28
    55ec:	1f 91       	pop	r17
    55ee:	08 95       	ret
		case MENU_DOWN:
			if (--actSensor == 255)
				actSensor = nSensors - 1;
			break;
		case MENU_CONFIRM:
			eeprom_update_block(gSensorIDs[actSensor], &eeGasForwardTempSensorID, OW_ROMCODE_SIZE);
    55f0:	90 e0       	ldi	r25, 0x00	; 0
    55f2:	88 0f       	add	r24, r24
    55f4:	99 1f       	adc	r25, r25
    55f6:	88 0f       	add	r24, r24
    55f8:	99 1f       	adc	r25, r25
    55fa:	88 0f       	add	r24, r24
    55fc:	99 1f       	adc	r25, r25
    55fe:	48 e0       	ldi	r20, 0x08	; 8
    5600:	50 e0       	ldi	r21, 0x00	; 0
    5602:	60 e3       	ldi	r22, 0x30	; 48
    5604:	70 e0       	ldi	r23, 0x00	; 0
    5606:	87 50       	subi	r24, 0x07	; 7
    5608:	96 4f       	sbci	r25, 0xF6	; 246
    560a:	0e 94 c6 33 	call	0x678c	; 0x678c <eeprom_update_block>
			return true;
    560e:	81 e0       	ldi	r24, 0x01	; 1
	}

	memcpy(&GasForward.SensorID, &gSensorIDs[actSensor], OW_ROMCODE_SIZE);
	GasForwardSensor_CallbackRender(column);
	return false;
}
    5610:	df 91       	pop	r29
    5612:	cf 91       	pop	r28
    5614:	1f 91       	pop	r17
    5616:	08 95       	ret

bool GasForwardSensor_ActionCallback(MENU_BUTTON *button, uint8_t column){
	uint8_t actSensor = FindActSensor(GasForward.SensorID);
	switch(button->role){
		case MENU_UP:
			if (++actSensor == nSensors)
    5618:	8f 5f       	subi	r24, 0xFF	; 255
    561a:	90 91 38 09 	lds	r25, 0x0938	; 0x800938 <nSensors>
    561e:	89 17       	cp	r24, r25
    5620:	01 f1       	breq	.+64     	; 0x5662 <GasForwardSensor_ActionCallback+0x9c>
    5622:	e8 2f       	mov	r30, r24
    5624:	f0 e0       	ldi	r31, 0x00	; 0
			return true;
		case MENU_CANCEL:
			return true;
	}

	memcpy(&GasForward.SensorID, &gSensorIDs[actSensor], OW_ROMCODE_SIZE);
    5626:	ee 0f       	add	r30, r30
    5628:	ff 1f       	adc	r31, r31
    562a:	ee 0f       	add	r30, r30
    562c:	ff 1f       	adc	r31, r31
    562e:	ee 0f       	add	r30, r30
    5630:	ff 1f       	adc	r31, r31
    5632:	e7 50       	subi	r30, 0x07	; 7
    5634:	f6 4f       	sbci	r31, 0xF6	; 246
    5636:	88 e0       	ldi	r24, 0x08	; 8
    5638:	a8 ec       	ldi	r26, 0xC8	; 200
    563a:	b9 e0       	ldi	r27, 0x09	; 9
    563c:	01 90       	ld	r0, Z+
    563e:	0d 92       	st	X+, r0
    5640:	8a 95       	dec	r24
    5642:	e1 f7       	brne	.-8      	; 0x563c <GasForwardSensor_ActionCallback+0x76>
	GasForwardSensor_CallbackRender(column);
    5644:	81 2f       	mov	r24, r17
    5646:	0e 94 f6 21 	call	0x43ec	; 0x43ec <GasForwardSensor_CallbackRender>
	return false;
    564a:	80 e0       	ldi	r24, 0x00	; 0
}
    564c:	df 91       	pop	r29
    564e:	cf 91       	pop	r28
    5650:	1f 91       	pop	r17
    5652:	08 95       	ret
		case MENU_UP:
			if (++actSensor == nSensors)
				actSensor = 0;
			break;
		case MENU_DOWN:
			if (--actSensor == 255)
    5654:	81 50       	subi	r24, 0x01	; 1
    5656:	28 f7       	brcc	.-54     	; 0x5622 <GasForwardSensor_ActionCallback+0x5c>
    5658:	e0 91 38 09 	lds	r30, 0x0938	; 0x800938 <nSensors>
    565c:	e1 50       	subi	r30, 0x01	; 1
    565e:	f0 e0       	ldi	r31, 0x00	; 0
    5660:	e2 cf       	rjmp	.-60     	; 0x5626 <GasForwardSensor_ActionCallback+0x60>
    5662:	e0 e0       	ldi	r30, 0x00	; 0
    5664:	f0 e0       	ldi	r31, 0x00	; 0
    5666:	df cf       	rjmp	.-66     	; 0x5626 <GasForwardSensor_ActionCallback+0x60>

00005668 <GasReturnSensor_ActionCallback>:
	{
		lcd_putbyte_hex(GasReturn.SensorID[i]);
	}
}

bool GasReturnSensor_ActionCallback(MENU_BUTTON *button, uint8_t column){
    5668:	1f 93       	push	r17
    566a:	cf 93       	push	r28
    566c:	df 93       	push	r29
    566e:	ec 01       	movw	r28, r24
    5670:	16 2f       	mov	r17, r22
	uint8_t actSensor = FindActSensor(GasReturn.SensorID);
    5672:	80 e9       	ldi	r24, 0x90	; 144
    5674:	9a e0       	ldi	r25, 0x0A	; 10
    5676:	c6 db       	rcall	.-2164   	; 0x4e04 <FindActSensor>
	switch(button->role){
    5678:	98 81       	ld	r25, Y
    567a:	91 30       	cpi	r25, 0x01	; 1
    567c:	e1 f1       	breq	.+120    	; 0x56f6 <GasReturnSensor_ActionCallback+0x8e>
    567e:	e8 f0       	brcs	.+58     	; 0x56ba <GasReturnSensor_ActionCallback+0x52>
    5680:	92 30       	cpi	r25, 0x02	; 2
    5682:	39 f0       	breq	.+14     	; 0x5692 <GasReturnSensor_ActionCallback+0x2a>
    5684:	93 30       	cpi	r25, 0x03	; 3
    5686:	f1 f4       	brne	.+60     	; 0x56c4 <GasReturnSensor_ActionCallback+0x5c>
			break;
		case MENU_CONFIRM:
			eeprom_update_block(gSensorIDs[actSensor], &eeGasReturnTempSensorID, OW_ROMCODE_SIZE);
			return true;
		case MENU_CANCEL:
			return true;
    5688:	81 e0       	ldi	r24, 0x01	; 1
	}

	memcpy(&GasReturn.SensorID, &gSensorIDs[actSensor], OW_ROMCODE_SIZE);
	GasReturnSensor_CallbackRender(column);
	return false;
}
    568a:	df 91       	pop	r29
    568c:	cf 91       	pop	r28
    568e:	1f 91       	pop	r17
    5690:	08 95       	ret
		case MENU_DOWN:
			if (--actSensor == 255)
				actSensor = nSensors - 1;
			break;
		case MENU_CONFIRM:
			eeprom_update_block(gSensorIDs[actSensor], &eeGasReturnTempSensorID, OW_ROMCODE_SIZE);
    5692:	90 e0       	ldi	r25, 0x00	; 0
    5694:	88 0f       	add	r24, r24
    5696:	99 1f       	adc	r25, r25
    5698:	88 0f       	add	r24, r24
    569a:	99 1f       	adc	r25, r25
    569c:	88 0f       	add	r24, r24
    569e:	99 1f       	adc	r25, r25
    56a0:	48 e0       	ldi	r20, 0x08	; 8
    56a2:	50 e0       	ldi	r21, 0x00	; 0
    56a4:	68 e2       	ldi	r22, 0x28	; 40
    56a6:	70 e0       	ldi	r23, 0x00	; 0
    56a8:	87 50       	subi	r24, 0x07	; 7
    56aa:	96 4f       	sbci	r25, 0xF6	; 246
    56ac:	0e 94 c6 33 	call	0x678c	; 0x678c <eeprom_update_block>
			return true;
    56b0:	81 e0       	ldi	r24, 0x01	; 1
	}

	memcpy(&GasReturn.SensorID, &gSensorIDs[actSensor], OW_ROMCODE_SIZE);
	GasReturnSensor_CallbackRender(column);
	return false;
}
    56b2:	df 91       	pop	r29
    56b4:	cf 91       	pop	r28
    56b6:	1f 91       	pop	r17
    56b8:	08 95       	ret

bool GasReturnSensor_ActionCallback(MENU_BUTTON *button, uint8_t column){
	uint8_t actSensor = FindActSensor(GasReturn.SensorID);
	switch(button->role){
		case MENU_UP:
			if (++actSensor == nSensors)
    56ba:	8f 5f       	subi	r24, 0xFF	; 255
    56bc:	90 91 38 09 	lds	r25, 0x0938	; 0x800938 <nSensors>
    56c0:	89 17       	cp	r24, r25
    56c2:	01 f1       	breq	.+64     	; 0x5704 <GasReturnSensor_ActionCallback+0x9c>
    56c4:	e8 2f       	mov	r30, r24
    56c6:	f0 e0       	ldi	r31, 0x00	; 0
			return true;
		case MENU_CANCEL:
			return true;
	}

	memcpy(&GasReturn.SensorID, &gSensorIDs[actSensor], OW_ROMCODE_SIZE);
    56c8:	ee 0f       	add	r30, r30
    56ca:	ff 1f       	adc	r31, r31
    56cc:	ee 0f       	add	r30, r30
    56ce:	ff 1f       	adc	r31, r31
    56d0:	ee 0f       	add	r30, r30
    56d2:	ff 1f       	adc	r31, r31
    56d4:	e7 50       	subi	r30, 0x07	; 7
    56d6:	f6 4f       	sbci	r31, 0xF6	; 246
    56d8:	88 e0       	ldi	r24, 0x08	; 8
    56da:	a0 e9       	ldi	r26, 0x90	; 144
    56dc:	ba e0       	ldi	r27, 0x0A	; 10
    56de:	01 90       	ld	r0, Z+
    56e0:	0d 92       	st	X+, r0
    56e2:	8a 95       	dec	r24
    56e4:	e1 f7       	brne	.-8      	; 0x56de <GasReturnSensor_ActionCallback+0x76>
	GasReturnSensor_CallbackRender(column);
    56e6:	81 2f       	mov	r24, r17
    56e8:	0e 94 0e 22 	call	0x441c	; 0x441c <GasReturnSensor_CallbackRender>
	return false;
    56ec:	80 e0       	ldi	r24, 0x00	; 0
}
    56ee:	df 91       	pop	r29
    56f0:	cf 91       	pop	r28
    56f2:	1f 91       	pop	r17
    56f4:	08 95       	ret
		case MENU_UP:
			if (++actSensor == nSensors)
				actSensor = 0;
			break;
		case MENU_DOWN:
			if (--actSensor == 255)
    56f6:	81 50       	subi	r24, 0x01	; 1
    56f8:	28 f7       	brcc	.-54     	; 0x56c4 <GasReturnSensor_ActionCallback+0x5c>
    56fa:	e0 91 38 09 	lds	r30, 0x0938	; 0x800938 <nSensors>
    56fe:	e1 50       	subi	r30, 0x01	; 1
    5700:	f0 e0       	ldi	r31, 0x00	; 0
    5702:	e2 cf       	rjmp	.-60     	; 0x56c8 <GasReturnSensor_ActionCallback+0x60>
    5704:	e0 e0       	ldi	r30, 0x00	; 0
    5706:	f0 e0       	ldi	r31, 0x00	; 0
    5708:	df cf       	rjmp	.-66     	; 0x56c8 <GasReturnSensor_ActionCallback+0x60>

0000570a <ForwardSensor_ActionCallback>:
	{
		lcd_putbyte_hex(Forward.SensorID[i]);
	}
}

bool ForwardSensor_ActionCallback(MENU_BUTTON *button, uint8_t column){
    570a:	1f 93       	push	r17
    570c:	cf 93       	push	r28
    570e:	df 93       	push	r29
    5710:	ec 01       	movw	r28, r24
    5712:	16 2f       	mov	r17, r22
	uint8_t actSensor = FindActSensor(Forward.SensorID);
    5714:	81 e7       	ldi	r24, 0x71	; 113
    5716:	99 e0       	ldi	r25, 0x09	; 9
    5718:	75 db       	rcall	.-2326   	; 0x4e04 <FindActSensor>
	switch(button->role){
    571a:	98 81       	ld	r25, Y
    571c:	91 30       	cpi	r25, 0x01	; 1
    571e:	e1 f1       	breq	.+120    	; 0x5798 <ForwardSensor_ActionCallback+0x8e>
    5720:	e8 f0       	brcs	.+58     	; 0x575c <ForwardSensor_ActionCallback+0x52>
    5722:	92 30       	cpi	r25, 0x02	; 2
    5724:	39 f0       	breq	.+14     	; 0x5734 <ForwardSensor_ActionCallback+0x2a>
    5726:	93 30       	cpi	r25, 0x03	; 3
    5728:	f1 f4       	brne	.+60     	; 0x5766 <ForwardSensor_ActionCallback+0x5c>
			break;
		case MENU_CONFIRM:
			eeprom_update_block(gSensorIDs[actSensor], &eeForwardTempSensorID, OW_ROMCODE_SIZE);
			return true;
		case MENU_CANCEL:
			return true;
    572a:	81 e0       	ldi	r24, 0x01	; 1
	}
	memcpy(&Forward.SensorID, &gSensorIDs[actSensor], OW_ROMCODE_SIZE);
	ForwardSensor_CallbackRender(column);
	return false;
}
    572c:	df 91       	pop	r29
    572e:	cf 91       	pop	r28
    5730:	1f 91       	pop	r17
    5732:	08 95       	ret
		case MENU_DOWN:
			if (--actSensor == 255)
				actSensor = nSensors - 1;
			break;
		case MENU_CONFIRM:
			eeprom_update_block(gSensorIDs[actSensor], &eeForwardTempSensorID, OW_ROMCODE_SIZE);
    5734:	90 e0       	ldi	r25, 0x00	; 0
    5736:	88 0f       	add	r24, r24
    5738:	99 1f       	adc	r25, r25
    573a:	88 0f       	add	r24, r24
    573c:	99 1f       	adc	r25, r25
    573e:	88 0f       	add	r24, r24
    5740:	99 1f       	adc	r25, r25
    5742:	48 e0       	ldi	r20, 0x08	; 8
    5744:	50 e0       	ldi	r21, 0x00	; 0
    5746:	60 e2       	ldi	r22, 0x20	; 32
    5748:	70 e0       	ldi	r23, 0x00	; 0
    574a:	87 50       	subi	r24, 0x07	; 7
    574c:	96 4f       	sbci	r25, 0xF6	; 246
    574e:	0e 94 c6 33 	call	0x678c	; 0x678c <eeprom_update_block>
			return true;
    5752:	81 e0       	ldi	r24, 0x01	; 1
			return true;
	}
	memcpy(&Forward.SensorID, &gSensorIDs[actSensor], OW_ROMCODE_SIZE);
	ForwardSensor_CallbackRender(column);
	return false;
}
    5754:	df 91       	pop	r29
    5756:	cf 91       	pop	r28
    5758:	1f 91       	pop	r17
    575a:	08 95       	ret

bool ForwardSensor_ActionCallback(MENU_BUTTON *button, uint8_t column){
	uint8_t actSensor = FindActSensor(Forward.SensorID);
	switch(button->role){
		case MENU_UP:
			if (++actSensor == nSensors)
    575c:	8f 5f       	subi	r24, 0xFF	; 255
    575e:	90 91 38 09 	lds	r25, 0x0938	; 0x800938 <nSensors>
    5762:	89 17       	cp	r24, r25
    5764:	01 f1       	breq	.+64     	; 0x57a6 <ForwardSensor_ActionCallback+0x9c>
    5766:	e8 2f       	mov	r30, r24
    5768:	f0 e0       	ldi	r31, 0x00	; 0
			eeprom_update_block(gSensorIDs[actSensor], &eeForwardTempSensorID, OW_ROMCODE_SIZE);
			return true;
		case MENU_CANCEL:
			return true;
	}
	memcpy(&Forward.SensorID, &gSensorIDs[actSensor], OW_ROMCODE_SIZE);
    576a:	ee 0f       	add	r30, r30
    576c:	ff 1f       	adc	r31, r31
    576e:	ee 0f       	add	r30, r30
    5770:	ff 1f       	adc	r31, r31
    5772:	ee 0f       	add	r30, r30
    5774:	ff 1f       	adc	r31, r31
    5776:	e7 50       	subi	r30, 0x07	; 7
    5778:	f6 4f       	sbci	r31, 0xF6	; 246
    577a:	88 e0       	ldi	r24, 0x08	; 8
    577c:	a1 e7       	ldi	r26, 0x71	; 113
    577e:	b9 e0       	ldi	r27, 0x09	; 9
    5780:	01 90       	ld	r0, Z+
    5782:	0d 92       	st	X+, r0
    5784:	8a 95       	dec	r24
    5786:	e1 f7       	brne	.-8      	; 0x5780 <ForwardSensor_ActionCallback+0x76>
	ForwardSensor_CallbackRender(column);
    5788:	81 2f       	mov	r24, r17
    578a:	0e 94 26 22 	call	0x444c	; 0x444c <ForwardSensor_CallbackRender>
	return false;
    578e:	80 e0       	ldi	r24, 0x00	; 0
}
    5790:	df 91       	pop	r29
    5792:	cf 91       	pop	r28
    5794:	1f 91       	pop	r17
    5796:	08 95       	ret
		case MENU_UP:
			if (++actSensor == nSensors)
				actSensor = 0;
			break;
		case MENU_DOWN:
			if (--actSensor == 255)
    5798:	81 50       	subi	r24, 0x01	; 1
    579a:	28 f7       	brcc	.-54     	; 0x5766 <ForwardSensor_ActionCallback+0x5c>
    579c:	e0 91 38 09 	lds	r30, 0x0938	; 0x800938 <nSensors>
    57a0:	e1 50       	subi	r30, 0x01	; 1
    57a2:	f0 e0       	ldi	r31, 0x00	; 0
    57a4:	e2 cf       	rjmp	.-60     	; 0x576a <ForwardSensor_ActionCallback+0x60>
    57a6:	e0 e0       	ldi	r30, 0x00	; 0
    57a8:	f0 e0       	ldi	r31, 0x00	; 0
    57aa:	df cf       	rjmp	.-66     	; 0x576a <ForwardSensor_ActionCallback+0x60>

000057ac <ReturnSensor_ActionCallback>:
	{
		lcd_putbyte_hex(Return.SensorID[i]);
	}
}

bool ReturnSensor_ActionCallback(MENU_BUTTON *button, uint8_t column){
    57ac:	1f 93       	push	r17
    57ae:	cf 93       	push	r28
    57b0:	df 93       	push	r29
    57b2:	ec 01       	movw	r28, r24
    57b4:	16 2f       	mov	r17, r22
	uint8_t actSensor = FindActSensor(Return.SensorID);
    57b6:	84 e8       	ldi	r24, 0x84	; 132
    57b8:	99 e0       	ldi	r25, 0x09	; 9
    57ba:	24 db       	rcall	.-2488   	; 0x4e04 <FindActSensor>
	switch(button->role){
    57bc:	98 81       	ld	r25, Y
    57be:	91 30       	cpi	r25, 0x01	; 1
    57c0:	d9 f1       	breq	.+118    	; 0x5838 <ReturnSensor_ActionCallback+0x8c>
    57c2:	e0 f0       	brcs	.+56     	; 0x57fc <ReturnSensor_ActionCallback+0x50>
    57c4:	92 30       	cpi	r25, 0x02	; 2
    57c6:	39 f0       	breq	.+14     	; 0x57d6 <ReturnSensor_ActionCallback+0x2a>
    57c8:	93 30       	cpi	r25, 0x03	; 3
    57ca:	e9 f4       	brne	.+58     	; 0x5806 <ReturnSensor_ActionCallback+0x5a>
			break;
		case MENU_CONFIRM:
			eeprom_update_block(gSensorIDs[actSensor], &eeReturnTempSensorID, OW_ROMCODE_SIZE);
			return true;
		case MENU_CANCEL:
			return true;
    57cc:	81 e0       	ldi	r24, 0x01	; 1
	}

	memcpy(&Return.SensorID, &gSensorIDs[actSensor], OW_ROMCODE_SIZE);
	ReturnSensor_CallbackRender(column);
	return false;
}
    57ce:	df 91       	pop	r29
    57d0:	cf 91       	pop	r28
    57d2:	1f 91       	pop	r17
    57d4:	08 95       	ret
		case MENU_DOWN:
			if (--actSensor == 255)
				actSensor = nSensors - 1;
			break;
		case MENU_CONFIRM:
			eeprom_update_block(gSensorIDs[actSensor], &eeReturnTempSensorID, OW_ROMCODE_SIZE);
    57d6:	90 e0       	ldi	r25, 0x00	; 0
    57d8:	88 0f       	add	r24, r24
    57da:	99 1f       	adc	r25, r25
    57dc:	88 0f       	add	r24, r24
    57de:	99 1f       	adc	r25, r25
    57e0:	88 0f       	add	r24, r24
    57e2:	99 1f       	adc	r25, r25
    57e4:	48 e0       	ldi	r20, 0x08	; 8
    57e6:	50 e0       	ldi	r21, 0x00	; 0
    57e8:	68 e1       	ldi	r22, 0x18	; 24
    57ea:	70 e0       	ldi	r23, 0x00	; 0
    57ec:	87 50       	subi	r24, 0x07	; 7
    57ee:	96 4f       	sbci	r25, 0xF6	; 246
    57f0:	cd d7       	rcall	.+3994   	; 0x678c <eeprom_update_block>
			return true;
    57f2:	81 e0       	ldi	r24, 0x01	; 1
	}

	memcpy(&Return.SensorID, &gSensorIDs[actSensor], OW_ROMCODE_SIZE);
	ReturnSensor_CallbackRender(column);
	return false;
}
    57f4:	df 91       	pop	r29
    57f6:	cf 91       	pop	r28
    57f8:	1f 91       	pop	r17
    57fa:	08 95       	ret

bool ReturnSensor_ActionCallback(MENU_BUTTON *button, uint8_t column){
	uint8_t actSensor = FindActSensor(Return.SensorID);
	switch(button->role){
		case MENU_UP:
			if (++actSensor == nSensors)
    57fc:	8f 5f       	subi	r24, 0xFF	; 255
    57fe:	90 91 38 09 	lds	r25, 0x0938	; 0x800938 <nSensors>
    5802:	89 17       	cp	r24, r25
    5804:	01 f1       	breq	.+64     	; 0x5846 <ReturnSensor_ActionCallback+0x9a>
    5806:	e8 2f       	mov	r30, r24
    5808:	f0 e0       	ldi	r31, 0x00	; 0
			return true;
		case MENU_CANCEL:
			return true;
	}

	memcpy(&Return.SensorID, &gSensorIDs[actSensor], OW_ROMCODE_SIZE);
    580a:	ee 0f       	add	r30, r30
    580c:	ff 1f       	adc	r31, r31
    580e:	ee 0f       	add	r30, r30
    5810:	ff 1f       	adc	r31, r31
    5812:	ee 0f       	add	r30, r30
    5814:	ff 1f       	adc	r31, r31
    5816:	e7 50       	subi	r30, 0x07	; 7
    5818:	f6 4f       	sbci	r31, 0xF6	; 246
    581a:	88 e0       	ldi	r24, 0x08	; 8
    581c:	a4 e8       	ldi	r26, 0x84	; 132
    581e:	b9 e0       	ldi	r27, 0x09	; 9
    5820:	01 90       	ld	r0, Z+
    5822:	0d 92       	st	X+, r0
    5824:	8a 95       	dec	r24
    5826:	e1 f7       	brne	.-8      	; 0x5820 <ReturnSensor_ActionCallback+0x74>
	ReturnSensor_CallbackRender(column);
    5828:	81 2f       	mov	r24, r17
    582a:	0e 94 3e 22 	call	0x447c	; 0x447c <ReturnSensor_CallbackRender>
	return false;
    582e:	80 e0       	ldi	r24, 0x00	; 0
}
    5830:	df 91       	pop	r29
    5832:	cf 91       	pop	r28
    5834:	1f 91       	pop	r17
    5836:	08 95       	ret
		case MENU_UP:
			if (++actSensor == nSensors)
				actSensor = 0;
			break;
		case MENU_DOWN:
			if (--actSensor == 255)
    5838:	81 50       	subi	r24, 0x01	; 1
    583a:	28 f7       	brcc	.-54     	; 0x5806 <ReturnSensor_ActionCallback+0x5a>
    583c:	e0 91 38 09 	lds	r30, 0x0938	; 0x800938 <nSensors>
    5840:	e1 50       	subi	r30, 0x01	; 1
    5842:	f0 e0       	ldi	r31, 0x00	; 0
    5844:	e2 cf       	rjmp	.-60     	; 0x580a <ReturnSensor_ActionCallback+0x5e>
    5846:	e0 e0       	ldi	r30, 0x00	; 0
    5848:	f0 e0       	ldi	r31, 0x00	; 0
    584a:	df cf       	rjmp	.-66     	; 0x580a <ReturnSensor_ActionCallback+0x5e>

0000584c <MixedSensor_ActionCallback>:
	{
		lcd_putbyte_hex(Mixed.SensorID[i]);
	}
}

bool MixedSensor_ActionCallback(MENU_BUTTON *button, uint8_t column){
    584c:	1f 93       	push	r17
    584e:	cf 93       	push	r28
    5850:	df 93       	push	r29
    5852:	ec 01       	movw	r28, r24
    5854:	16 2f       	mov	r17, r22
	uint8_t actSensor = FindActSensor(Mixed.SensorID);
    5856:	84 eb       	ldi	r24, 0xB4	; 180
    5858:	9a e0       	ldi	r25, 0x0A	; 10
    585a:	d4 da       	rcall	.-2648   	; 0x4e04 <FindActSensor>
	switch(button->role){
    585c:	98 81       	ld	r25, Y
    585e:	91 30       	cpi	r25, 0x01	; 1
    5860:	d9 f1       	breq	.+118    	; 0x58d8 <MixedSensor_ActionCallback+0x8c>
    5862:	e0 f0       	brcs	.+56     	; 0x589c <MixedSensor_ActionCallback+0x50>
    5864:	92 30       	cpi	r25, 0x02	; 2
    5866:	39 f0       	breq	.+14     	; 0x5876 <MixedSensor_ActionCallback+0x2a>
    5868:	93 30       	cpi	r25, 0x03	; 3
    586a:	e9 f4       	brne	.+58     	; 0x58a6 <MixedSensor_ActionCallback+0x5a>
			break;
		case MENU_CONFIRM:
			eeprom_update_block(gSensorIDs[actSensor], &eeMixedTempSensorID, OW_ROMCODE_SIZE);
			return true;
		case MENU_CANCEL:
			return true;
    586c:	81 e0       	ldi	r24, 0x01	; 1
	}

	memcpy(&Mixed.SensorID, &gSensorIDs[actSensor], OW_ROMCODE_SIZE);
	MixedSensor_CallbackRender(column);
	return false;
}
    586e:	df 91       	pop	r29
    5870:	cf 91       	pop	r28
    5872:	1f 91       	pop	r17
    5874:	08 95       	ret
		case MENU_DOWN:
			if (--actSensor == 255)
				actSensor = nSensors - 1;
			break;
		case MENU_CONFIRM:
			eeprom_update_block(gSensorIDs[actSensor], &eeMixedTempSensorID, OW_ROMCODE_SIZE);
    5876:	90 e0       	ldi	r25, 0x00	; 0
    5878:	88 0f       	add	r24, r24
    587a:	99 1f       	adc	r25, r25
    587c:	88 0f       	add	r24, r24
    587e:	99 1f       	adc	r25, r25
    5880:	88 0f       	add	r24, r24
    5882:	99 1f       	adc	r25, r25
    5884:	48 e0       	ldi	r20, 0x08	; 8
    5886:	50 e0       	ldi	r21, 0x00	; 0
    5888:	60 e1       	ldi	r22, 0x10	; 16
    588a:	70 e0       	ldi	r23, 0x00	; 0
    588c:	87 50       	subi	r24, 0x07	; 7
    588e:	96 4f       	sbci	r25, 0xF6	; 246
    5890:	7d d7       	rcall	.+3834   	; 0x678c <eeprom_update_block>
			return true;
    5892:	81 e0       	ldi	r24, 0x01	; 1
	}

	memcpy(&Mixed.SensorID, &gSensorIDs[actSensor], OW_ROMCODE_SIZE);
	MixedSensor_CallbackRender(column);
	return false;
}
    5894:	df 91       	pop	r29
    5896:	cf 91       	pop	r28
    5898:	1f 91       	pop	r17
    589a:	08 95       	ret

bool MixedSensor_ActionCallback(MENU_BUTTON *button, uint8_t column){
	uint8_t actSensor = FindActSensor(Mixed.SensorID);
	switch(button->role){
		case MENU_UP:
			if (++actSensor == nSensors)
    589c:	8f 5f       	subi	r24, 0xFF	; 255
    589e:	90 91 38 09 	lds	r25, 0x0938	; 0x800938 <nSensors>
    58a2:	89 17       	cp	r24, r25
    58a4:	01 f1       	breq	.+64     	; 0x58e6 <MixedSensor_ActionCallback+0x9a>
    58a6:	e8 2f       	mov	r30, r24
    58a8:	f0 e0       	ldi	r31, 0x00	; 0
			return true;
		case MENU_CANCEL:
			return true;
	}

	memcpy(&Mixed.SensorID, &gSensorIDs[actSensor], OW_ROMCODE_SIZE);
    58aa:	ee 0f       	add	r30, r30
    58ac:	ff 1f       	adc	r31, r31
    58ae:	ee 0f       	add	r30, r30
    58b0:	ff 1f       	adc	r31, r31
    58b2:	ee 0f       	add	r30, r30
    58b4:	ff 1f       	adc	r31, r31
    58b6:	e7 50       	subi	r30, 0x07	; 7
    58b8:	f6 4f       	sbci	r31, 0xF6	; 246
    58ba:	88 e0       	ldi	r24, 0x08	; 8
    58bc:	a4 eb       	ldi	r26, 0xB4	; 180
    58be:	ba e0       	ldi	r27, 0x0A	; 10
    58c0:	01 90       	ld	r0, Z+
    58c2:	0d 92       	st	X+, r0
    58c4:	8a 95       	dec	r24
    58c6:	e1 f7       	brne	.-8      	; 0x58c0 <MixedSensor_ActionCallback+0x74>
	MixedSensor_CallbackRender(column);
    58c8:	81 2f       	mov	r24, r17
    58ca:	0e 94 56 22 	call	0x44ac	; 0x44ac <MixedSensor_CallbackRender>
	return false;
    58ce:	80 e0       	ldi	r24, 0x00	; 0
}
    58d0:	df 91       	pop	r29
    58d2:	cf 91       	pop	r28
    58d4:	1f 91       	pop	r17
    58d6:	08 95       	ret
		case MENU_UP:
			if (++actSensor == nSensors)
				actSensor = 0;
			break;
		case MENU_DOWN:
			if (--actSensor == 255)
    58d8:	81 50       	subi	r24, 0x01	; 1
    58da:	28 f7       	brcc	.-54     	; 0x58a6 <MixedSensor_ActionCallback+0x5a>
    58dc:	e0 91 38 09 	lds	r30, 0x0938	; 0x800938 <nSensors>
    58e0:	e1 50       	subi	r30, 0x01	; 1
    58e2:	f0 e0       	ldi	r31, 0x00	; 0
    58e4:	e2 cf       	rjmp	.-60     	; 0x58aa <MixedSensor_ActionCallback+0x5e>
    58e6:	e0 e0       	ldi	r30, 0x00	; 0
    58e8:	f0 e0       	ldi	r31, 0x00	; 0
    58ea:	df cf       	rjmp	.-66     	; 0x58aa <MixedSensor_ActionCallback+0x5e>

000058ec <menuItemsGetHomeMenu>:
** Public methods to access home view and home view size
*/

MENU_ITEM *menuItemsGetHomeMenu(){
	return home_items;
}
    58ec:	85 e4       	ldi	r24, 0x45	; 69
    58ee:	91 e0       	ldi	r25, 0x01	; 1
    58f0:	08 95       	ret

000058f2 <menuItemsGetHomeMenuSize>:

uint8_t menuItemsGetHomeMenuSize(){
	return MENU_HOME_ITEMS;
    58f2:	89 e0       	ldi	r24, 0x09	; 9
    58f4:	08 95       	ret

000058f6 <menuPortsioInit>:
#include "menu_portsio.h"


static void setupPortsForControlButtons(){
	// Set buttons as input
	MENU_PORTSIO_DDR &= ~(_BV(MENU_PORTSIO_BTN_UP)     |
    58f6:	81 b3       	in	r24, 0x11	; 17
    58f8:	8f 70       	andi	r24, 0x0F	; 15
    58fa:	81 bb       	out	0x11, r24	; 17
					     _BV(MENU_PORTSIO_BTN_DOWN)    |
					     _BV(MENU_PORTSIO_BTN_CONFIRM) |
					     _BV(MENU_PORTSIO_BTN_CANCEL));

	// with active low
	MENU_PORTSIO_PORT |= _BV(MENU_PORTSIO_BTN_UP)      |
    58fc:	82 b3       	in	r24, 0x12	; 18
    58fe:	80 6f       	ori	r24, 0xF0	; 240
    5900:	82 bb       	out	0x12, r24	; 18
    5902:	08 95       	ret

00005904 <SPIInit>:
#include "spi.h"

void SPIInit()
{
	//Set up SPI I/O Ports
	SPI_DDR |= (1<<MOSI_POS)|(1<<SCK_POS)|(1<<SS_POS);
    5904:	87 b3       	in	r24, 0x17	; 23
    5906:	87 60       	ori	r24, 0x07	; 7
    5908:	87 bb       	out	0x17, r24	; 23
	
	SPI_PORT |= (1<<SS_POS)|(1 << MISO_POS);
    590a:	88 b3       	in	r24, 0x18	; 24
    590c:	89 60       	ori	r24, 0x09	; 9
    590e:	88 bb       	out	0x18, r24	; 24

	SPI_CS_PORT |= 0xFF;
    5910:	8b b3       	in	r24, 0x1b	; 27
    5912:	8f ef       	ldi	r24, 0xFF	; 255
    5914:	8b bb       	out	0x1b, r24	; 27
	SPI_CS_DDR |= 0xFF;
    5916:	9a b3       	in	r25, 0x1a	; 26
    5918:	8a bb       	out	0x1a, r24	; 26

	SPCR |= (1 << SPE)|(1 << MSTR)|(1 << SPR0)|(1 << SPR1);
    591a:	8d b1       	in	r24, 0x0d	; 13
    591c:	83 65       	ori	r24, 0x53	; 83
    591e:	8d b9       	out	0x0d, r24	; 13
    5920:	08 95       	ret

00005922 <SPIClose>:
}

void SPIClose()
{
	SPCR&=(~(1<<SPE));
    5922:	6e 98       	cbi	0x0d, 6	; 13
	SPI_DDR&=(~((1<<MOSI_POS)|(1<<SCK_POS)));
    5924:	87 b3       	in	r24, 0x17	; 23
    5926:	89 7f       	andi	r24, 0xF9	; 249
    5928:	87 bb       	out	0x17, r24	; 23
    592a:	08 95       	ret

0000592c <SPIWrite>:
}

unsigned char SPIWrite(unsigned char address, unsigned char data)
{
	SPI_CS_PORT &= ~(1 << address);
    592c:	4b b3       	in	r20, 0x1b	; 27
    592e:	21 e0       	ldi	r18, 0x01	; 1
    5930:	30 e0       	ldi	r19, 0x00	; 0
    5932:	f9 01       	movw	r30, r18
    5934:	02 c0       	rjmp	.+4      	; 0x593a <SPIWrite+0xe>
    5936:	ee 0f       	add	r30, r30
    5938:	ff 1f       	adc	r31, r31
    593a:	8a 95       	dec	r24
    593c:	e2 f7       	brpl	.-8      	; 0x5936 <SPIWrite+0xa>
    593e:	cf 01       	movw	r24, r30
    5940:	2e 2f       	mov	r18, r30
    5942:	20 95       	com	r18
    5944:	42 23       	and	r20, r18
    5946:	4b bb       	out	0x1b, r20	; 27
	SPDR = data;
    5948:	6f b9       	out	0x0f, r22	; 15
	while(!(SPSR & (1 << SPIF)));
    594a:	77 9b       	sbis	0x0e, 7	; 14
    594c:	fe cf       	rjmp	.-4      	; 0x594a <SPIWrite+0x1e>
	SPI_CS_PORT |= (1 << address);
    594e:	9b b3       	in	r25, 0x1b	; 27
    5950:	89 2b       	or	r24, r25
    5952:	8b bb       	out	0x1b, r24	; 27
	return SPDR;
    5954:	8f b1       	in	r24, 0x0f	; 15
}
    5956:	08 95       	ret

00005958 <__vector_18>:
	if (c>9) c += 'A'-10;
	else c += '0';
	uart_putc(c);*/
	b&= 0x0F;
	if( b < 10) b+= '0';
	else        b+= 'A'- 10;
    5958:	1f 92       	push	r1
    595a:	0f 92       	push	r0
    595c:	0f b6       	in	r0, 0x3f	; 63
    595e:	0f 92       	push	r0
    5960:	11 24       	eor	r1, r1
    5962:	2f 93       	push	r18
    5964:	8f 93       	push	r24
    5966:	9f 93       	push	r25
    5968:	ef 93       	push	r30
    596a:	ff 93       	push	r31
    596c:	8b b1       	in	r24, 0x0b	; 11
    596e:	2c b1       	in	r18, 0x0c	; 12
    5970:	8c 71       	andi	r24, 0x1C	; 28
    5972:	e0 91 c0 08 	lds	r30, 0x08C0	; 0x8008c0 <UART_RxHead>
    5976:	ef 5f       	subi	r30, 0xFF	; 255
    5978:	ef 71       	andi	r30, 0x1F	; 31
    597a:	90 91 bf 08 	lds	r25, 0x08BF	; 0x8008bf <UART_RxTail>
    597e:	e9 17       	cp	r30, r25
    5980:	a9 f0       	breq	.+42     	; 0x59ac <__vector_18+0x54>
    5982:	e0 93 c0 08 	sts	0x08C0, r30	; 0x8008c0 <UART_RxHead>
    5986:	f0 e0       	ldi	r31, 0x00	; 0
    5988:	ed 53       	subi	r30, 0x3D	; 61
    598a:	f7 4f       	sbci	r31, 0xF7	; 247
    598c:	20 83       	st	Z, r18
    598e:	90 91 be 08 	lds	r25, 0x08BE	; 0x8008be <UART_LastRxError>
    5992:	89 2b       	or	r24, r25
    5994:	80 93 be 08 	sts	0x08BE, r24	; 0x8008be <UART_LastRxError>
    5998:	ff 91       	pop	r31
    599a:	ef 91       	pop	r30
    599c:	9f 91       	pop	r25
    599e:	8f 91       	pop	r24
    59a0:	2f 91       	pop	r18
    59a2:	0f 90       	pop	r0
    59a4:	0f be       	out	0x3f, r0	; 63
    59a6:	0f 90       	pop	r0
    59a8:	1f 90       	pop	r1
    59aa:	18 95       	reti
    59ac:	82 e0       	ldi	r24, 0x02	; 2
    59ae:	ef cf       	rjmp	.-34     	; 0x598e <__vector_18+0x36>

000059b0 <__vector_19>:
    59b0:	1f 92       	push	r1
    59b2:	0f 92       	push	r0
    59b4:	0f b6       	in	r0, 0x3f	; 63
    59b6:	0f 92       	push	r0
    59b8:	11 24       	eor	r1, r1
    59ba:	8f 93       	push	r24
    59bc:	9f 93       	push	r25
    59be:	ef 93       	push	r30
    59c0:	ff 93       	push	r31
    59c2:	90 91 c2 08 	lds	r25, 0x08C2	; 0x8008c2 <UART_TxHead>
    59c6:	80 91 c1 08 	lds	r24, 0x08C1	; 0x8008c1 <UART_TxTail>
    59ca:	98 17       	cp	r25, r24
    59cc:	a1 f0       	breq	.+40     	; 0x59f6 <__vector_19+0x46>
    59ce:	e0 91 c1 08 	lds	r30, 0x08C1	; 0x8008c1 <UART_TxTail>
    59d2:	ef 5f       	subi	r30, 0xFF	; 255
    59d4:	ef 71       	andi	r30, 0x1F	; 31
    59d6:	e0 93 c1 08 	sts	0x08C1, r30	; 0x8008c1 <UART_TxTail>
    59da:	f0 e0       	ldi	r31, 0x00	; 0
    59dc:	ed 51       	subi	r30, 0x1D	; 29
    59de:	f7 4f       	sbci	r31, 0xF7	; 247
    59e0:	80 81       	ld	r24, Z
    59e2:	8c b9       	out	0x0c, r24	; 12
    59e4:	ff 91       	pop	r31
    59e6:	ef 91       	pop	r30
    59e8:	9f 91       	pop	r25
    59ea:	8f 91       	pop	r24
    59ec:	0f 90       	pop	r0
    59ee:	0f be       	out	0x3f, r0	; 63
    59f0:	0f 90       	pop	r0
    59f2:	1f 90       	pop	r1
    59f4:	18 95       	reti
    59f6:	55 98       	cbi	0x0a, 5	; 10
    59f8:	f5 cf       	rjmp	.-22     	; 0x59e4 <__vector_19+0x34>

000059fa <uart_init>:
    59fa:	10 92 c2 08 	sts	0x08C2, r1	; 0x8008c2 <UART_TxHead>
    59fe:	10 92 c1 08 	sts	0x08C1, r1	; 0x8008c1 <UART_TxTail>
    5a02:	10 92 c0 08 	sts	0x08C0, r1	; 0x8008c0 <UART_RxHead>
    5a06:	10 92 bf 08 	sts	0x08BF, r1	; 0x8008bf <UART_RxTail>
    5a0a:	97 ff       	sbrs	r25, 7
    5a0c:	02 c0       	rjmp	.+4      	; 0x5a12 <uart_init+0x18>
    5a0e:	22 e0       	ldi	r18, 0x02	; 2
    5a10:	2b b9       	out	0x0b, r18	; 11
    5a12:	90 78       	andi	r25, 0x80	; 128
    5a14:	90 93 90 00 	sts	0x0090, r25	; 0x800090 <__TEXT_REGION_LENGTH__+0x7f0090>
    5a18:	89 b9       	out	0x09, r24	; 9
    5a1a:	88 e9       	ldi	r24, 0x98	; 152
    5a1c:	8a b9       	out	0x0a, r24	; 10
    5a1e:	86 e0       	ldi	r24, 0x06	; 6
    5a20:	80 93 95 00 	sts	0x0095, r24	; 0x800095 <__TEXT_REGION_LENGTH__+0x7f0095>
    5a24:	08 95       	ret

00005a26 <uart_puts>:
    5a26:	fc 01       	movw	r30, r24
    5a28:	30 81       	ld	r19, Z
    5a2a:	33 23       	and	r19, r19
    5a2c:	a9 f0       	breq	.+42     	; 0x5a58 <uart_puts+0x32>
    5a2e:	dc 01       	movw	r26, r24
    5a30:	11 96       	adiw	r26, 0x01	; 1
    5a32:	20 91 c2 08 	lds	r18, 0x08C2	; 0x8008c2 <UART_TxHead>
    5a36:	2f 5f       	subi	r18, 0xFF	; 255
    5a38:	2f 71       	andi	r18, 0x1F	; 31
    5a3a:	90 91 c1 08 	lds	r25, 0x08C1	; 0x8008c1 <UART_TxTail>
    5a3e:	29 17       	cp	r18, r25
    5a40:	e1 f3       	breq	.-8      	; 0x5a3a <uart_puts+0x14>
    5a42:	e2 2f       	mov	r30, r18
    5a44:	f0 e0       	ldi	r31, 0x00	; 0
    5a46:	ed 51       	subi	r30, 0x1D	; 29
    5a48:	f7 4f       	sbci	r31, 0xF7	; 247
    5a4a:	30 83       	st	Z, r19
    5a4c:	20 93 c2 08 	sts	0x08C2, r18	; 0x8008c2 <UART_TxHead>
    5a50:	55 9a       	sbi	0x0a, 5	; 10
    5a52:	3d 91       	ld	r19, X+
    5a54:	31 11       	cpse	r19, r1
    5a56:	ed cf       	rjmp	.-38     	; 0x5a32 <uart_puts+0xc>
    5a58:	08 95       	ret

00005a5a <uart_puts_p>:
    5a5a:	ac 01       	movw	r20, r24
    5a5c:	4f 5f       	subi	r20, 0xFF	; 255
    5a5e:	5f 4f       	sbci	r21, 0xFF	; 255
    5a60:	fc 01       	movw	r30, r24
    5a62:	24 91       	lpm	r18, Z
    5a64:	22 23       	and	r18, r18
    5a66:	a9 f0       	breq	.+42     	; 0x5a92 <uart_puts_p+0x38>
    5a68:	fa 01       	movw	r30, r20
    5a6a:	90 91 c2 08 	lds	r25, 0x08C2	; 0x8008c2 <UART_TxHead>
    5a6e:	9f 5f       	subi	r25, 0xFF	; 255
    5a70:	9f 71       	andi	r25, 0x1F	; 31
    5a72:	80 91 c1 08 	lds	r24, 0x08C1	; 0x8008c1 <UART_TxTail>
    5a76:	98 17       	cp	r25, r24
    5a78:	e1 f3       	breq	.-8      	; 0x5a72 <uart_puts_p+0x18>
    5a7a:	a9 2f       	mov	r26, r25
    5a7c:	b0 e0       	ldi	r27, 0x00	; 0
    5a7e:	ad 51       	subi	r26, 0x1D	; 29
    5a80:	b7 4f       	sbci	r27, 0xF7	; 247
    5a82:	2c 93       	st	X, r18
    5a84:	90 93 c2 08 	sts	0x08C2, r25	; 0x8008c2 <UART_TxHead>
    5a88:	55 9a       	sbi	0x0a, 5	; 10
    5a8a:	24 91       	lpm	r18, Z
    5a8c:	31 96       	adiw	r30, 0x01	; 1
    5a8e:	21 11       	cpse	r18, r1
    5a90:	ec cf       	rjmp	.-40     	; 0x5a6a <uart_puts_p+0x10>
    5a92:	08 95       	ret

00005a94 <__vector_30>:
    5a94:	1f 92       	push	r1
    5a96:	0f 92       	push	r0
    5a98:	0f b6       	in	r0, 0x3f	; 63
    5a9a:	0f 92       	push	r0
    5a9c:	11 24       	eor	r1, r1
    5a9e:	2f 93       	push	r18
    5aa0:	8f 93       	push	r24
    5aa2:	9f 93       	push	r25
    5aa4:	ef 93       	push	r30
    5aa6:	ff 93       	push	r31
    5aa8:	80 91 9b 00 	lds	r24, 0x009B	; 0x80009b <__TEXT_REGION_LENGTH__+0x7f009b>
    5aac:	20 91 9c 00 	lds	r18, 0x009C	; 0x80009c <__TEXT_REGION_LENGTH__+0x7f009c>
    5ab0:	8c 71       	andi	r24, 0x1C	; 28
    5ab2:	e0 91 7b 08 	lds	r30, 0x087B	; 0x80087b <UART1_RxHead>
    5ab6:	ef 5f       	subi	r30, 0xFF	; 255
    5ab8:	ef 71       	andi	r30, 0x1F	; 31
    5aba:	90 91 7a 08 	lds	r25, 0x087A	; 0x80087a <UART1_RxTail>
    5abe:	e9 17       	cp	r30, r25
    5ac0:	a9 f0       	breq	.+42     	; 0x5aec <__vector_30+0x58>
    5ac2:	e0 93 7b 08 	sts	0x087B, r30	; 0x80087b <UART1_RxHead>
    5ac6:	f0 e0       	ldi	r31, 0x00	; 0
    5ac8:	e2 58       	subi	r30, 0x82	; 130
    5aca:	f7 4f       	sbci	r31, 0xF7	; 247
    5acc:	20 83       	st	Z, r18
    5ace:	90 91 79 08 	lds	r25, 0x0879	; 0x800879 <UART1_LastRxError>
    5ad2:	89 2b       	or	r24, r25
    5ad4:	80 93 79 08 	sts	0x0879, r24	; 0x800879 <UART1_LastRxError>
    5ad8:	ff 91       	pop	r31
    5ada:	ef 91       	pop	r30
    5adc:	9f 91       	pop	r25
    5ade:	8f 91       	pop	r24
    5ae0:	2f 91       	pop	r18
    5ae2:	0f 90       	pop	r0
    5ae4:	0f be       	out	0x3f, r0	; 63
    5ae6:	0f 90       	pop	r0
    5ae8:	1f 90       	pop	r1
    5aea:	18 95       	reti
    5aec:	82 e0       	ldi	r24, 0x02	; 2
    5aee:	ef cf       	rjmp	.-34     	; 0x5ace <__vector_30+0x3a>

00005af0 <__vector_31>:
    5af0:	1f 92       	push	r1
    5af2:	0f 92       	push	r0
    5af4:	0f b6       	in	r0, 0x3f	; 63
    5af6:	0f 92       	push	r0
    5af8:	11 24       	eor	r1, r1
    5afa:	8f 93       	push	r24
    5afc:	9f 93       	push	r25
    5afe:	ef 93       	push	r30
    5b00:	ff 93       	push	r31
    5b02:	90 91 7d 08 	lds	r25, 0x087D	; 0x80087d <UART1_TxHead>
    5b06:	80 91 7c 08 	lds	r24, 0x087C	; 0x80087c <UART1_TxTail>
    5b0a:	98 17       	cp	r25, r24
    5b0c:	a9 f0       	breq	.+42     	; 0x5b38 <__vector_31+0x48>
    5b0e:	e0 91 7c 08 	lds	r30, 0x087C	; 0x80087c <UART1_TxTail>
    5b12:	ef 5f       	subi	r30, 0xFF	; 255
    5b14:	ef 71       	andi	r30, 0x1F	; 31
    5b16:	e0 93 7c 08 	sts	0x087C, r30	; 0x80087c <UART1_TxTail>
    5b1a:	f0 e0       	ldi	r31, 0x00	; 0
    5b1c:	e2 56       	subi	r30, 0x62	; 98
    5b1e:	f7 4f       	sbci	r31, 0xF7	; 247
    5b20:	80 81       	ld	r24, Z
    5b22:	80 93 9c 00 	sts	0x009C, r24	; 0x80009c <__TEXT_REGION_LENGTH__+0x7f009c>
    5b26:	ff 91       	pop	r31
    5b28:	ef 91       	pop	r30
    5b2a:	9f 91       	pop	r25
    5b2c:	8f 91       	pop	r24
    5b2e:	0f 90       	pop	r0
    5b30:	0f be       	out	0x3f, r0	; 63
    5b32:	0f 90       	pop	r0
    5b34:	1f 90       	pop	r1
    5b36:	18 95       	reti
    5b38:	80 91 9a 00 	lds	r24, 0x009A	; 0x80009a <__TEXT_REGION_LENGTH__+0x7f009a>
    5b3c:	8f 7d       	andi	r24, 0xDF	; 223
    5b3e:	80 93 9a 00 	sts	0x009A, r24	; 0x80009a <__TEXT_REGION_LENGTH__+0x7f009a>
    5b42:	f1 cf       	rjmp	.-30     	; 0x5b26 <__vector_31+0x36>

00005b44 <uart_puthex_byte>:
This functions has been added by Martin Thomas <eversmith@heizung-thomas.de>
Don't blame P. Fleury if it doesn't work ;-)
**************************************************************************/
void uart_puthex_byte(const unsigned char  b)
{
	uart_puthex_nibble(b>>4);
    5b44:	98 2f       	mov	r25, r24
    5b46:	92 95       	swap	r25
    5b48:	9f 70       	andi	r25, 0x0F	; 15
	/*unsigned char  c = b & 0x0f;
	if (c>9) c += 'A'-10;
	else c += '0';
	uart_putc(c);*/
	b&= 0x0F;
	if( b < 10) b+= '0';
    5b4a:	9a 30       	cpi	r25, 0x0A	; 10
    5b4c:	48 f5       	brcc	.+82     	; 0x5ba0 <uart_puthex_byte+0x5c>
    5b4e:	30 e3       	ldi	r19, 0x30	; 48
    5b50:	39 0f       	add	r19, r25
void uart_putc(unsigned char data)
{
    unsigned char tmphead;

    
    tmphead  = (UART_TxHead + 1) & UART_TX_BUFFER_MASK;
    5b52:	20 91 c2 08 	lds	r18, 0x08C2	; 0x8008c2 <UART_TxHead>
    5b56:	2f 5f       	subi	r18, 0xFF	; 255
    5b58:	2f 71       	andi	r18, 0x1F	; 31
    
    while ( tmphead == UART_TxTail ){
    5b5a:	90 91 c1 08 	lds	r25, 0x08C1	; 0x8008c1 <UART_TxTail>
    5b5e:	29 17       	cp	r18, r25
    5b60:	e1 f3       	breq	.-8      	; 0x5b5a <uart_puthex_byte+0x16>
        ;/* wait for free space in buffer */
    }
    
    UART_TxBuf[tmphead] = data;
    5b62:	e2 2f       	mov	r30, r18
    5b64:	f0 e0       	ldi	r31, 0x00	; 0
    5b66:	ed 51       	subi	r30, 0x1D	; 29
    5b68:	f7 4f       	sbci	r31, 0xF7	; 247
    5b6a:	30 83       	st	Z, r19
    UART_TxHead = tmphead;
    5b6c:	20 93 c2 08 	sts	0x08C2, r18	; 0x8008c2 <UART_TxHead>

    /* enable UDRE interrupt */
    UART0_CONTROL    |= _BV(UART0_UDRIE);
    5b70:	55 9a       	sbi	0x0a, 5	; 10
{
	/*unsigned char  c = b & 0x0f;
	if (c>9) c += 'A'-10;
	else c += '0';
	uart_putc(c);*/
	b&= 0x0F;
    5b72:	8f 70       	andi	r24, 0x0F	; 15
	if( b < 10) b+= '0';
    5b74:	8a 30       	cpi	r24, 0x0A	; 10
    5b76:	90 f4       	brcc	.+36     	; 0x5b9c <uart_puthex_byte+0x58>
    5b78:	80 5d       	subi	r24, 0xD0	; 208
void uart_putc(unsigned char data)
{
    unsigned char tmphead;

    
    tmphead  = (UART_TxHead + 1) & UART_TX_BUFFER_MASK;
    5b7a:	20 91 c2 08 	lds	r18, 0x08C2	; 0x8008c2 <UART_TxHead>
    5b7e:	2f 5f       	subi	r18, 0xFF	; 255
    5b80:	2f 71       	andi	r18, 0x1F	; 31
    
    while ( tmphead == UART_TxTail ){
    5b82:	90 91 c1 08 	lds	r25, 0x08C1	; 0x8008c1 <UART_TxTail>
    5b86:	29 17       	cp	r18, r25
    5b88:	e1 f3       	breq	.-8      	; 0x5b82 <uart_puthex_byte+0x3e>
        ;/* wait for free space in buffer */
    }
    
    UART_TxBuf[tmphead] = data;
    5b8a:	e2 2f       	mov	r30, r18
    5b8c:	f0 e0       	ldi	r31, 0x00	; 0
    5b8e:	ed 51       	subi	r30, 0x1D	; 29
    5b90:	f7 4f       	sbci	r31, 0xF7	; 247
    5b92:	80 83       	st	Z, r24
    UART_TxHead = tmphead;
    5b94:	20 93 c2 08 	sts	0x08C2, r18	; 0x8008c2 <UART_TxHead>

    /* enable UDRE interrupt */
    UART0_CONTROL    |= _BV(UART0_UDRIE);
    5b98:	55 9a       	sbi	0x0a, 5	; 10
    5b9a:	08 95       	ret
	if (c>9) c += 'A'-10;
	else c += '0';
	uart_putc(c);*/
	b&= 0x0F;
	if( b < 10) b+= '0';
	else        b+= 'A'- 10;
    5b9c:	89 5c       	subi	r24, 0xC9	; 201
    5b9e:	ed cf       	rjmp	.-38     	; 0x5b7a <uart_puthex_byte+0x36>
    5ba0:	37 e3       	ldi	r19, 0x37	; 55
    5ba2:	39 0f       	add	r19, r25
    5ba4:	d6 cf       	rjmp	.-84     	; 0x5b52 <uart_puthex_byte+0xe>

00005ba6 <uart_puti>:
Returns:  none
This functions has been added by Martin Thomas <eversmith@heizung-thomas.de>
Don't blame P. Fleury if it doesn't work ;-)
**************************************************************************/
void uart_puti( const int val )
{
    5ba6:	cf 93       	push	r28
    5ba8:	df 93       	push	r29
    5baa:	cd b7       	in	r28, 0x3d	; 61
    5bac:	de b7       	in	r29, 0x3e	; 62
    5bae:	61 97       	sbiw	r28, 0x11	; 17
    5bb0:	0f b6       	in	r0, 0x3f	; 63
    5bb2:	f8 94       	cli
    5bb4:	de bf       	out	0x3e, r29	; 62
    5bb6:	0f be       	out	0x3f, r0	; 63
    5bb8:	cd bf       	out	0x3d, r28	; 61
    5bba:	4a e0       	ldi	r20, 0x0A	; 10
    5bbc:	be 01       	movw	r22, r28
    5bbe:	6f 5f       	subi	r22, 0xFF	; 255
    5bc0:	7f 4f       	sbci	r23, 0xFF	; 255
    5bc2:	e3 d2       	rcall	.+1478   	; 0x618a <__itoa_ncheck>
Input:    string to be transmitted
Returns:  none          
**************************************************************************/
void uart_puts(const char *s )
{
    while (*s) 
    5bc4:	fc 01       	movw	r30, r24
    5bc6:	30 81       	ld	r19, Z
    5bc8:	33 23       	and	r19, r19
    5bca:	a9 f0       	breq	.+42     	; 0x5bf6 <uart_puti+0x50>
    5bcc:	dc 01       	movw	r26, r24
    5bce:	11 96       	adiw	r26, 0x01	; 1
void uart_putc(unsigned char data)
{
    unsigned char tmphead;

    
    tmphead  = (UART_TxHead + 1) & UART_TX_BUFFER_MASK;
    5bd0:	20 91 c2 08 	lds	r18, 0x08C2	; 0x8008c2 <UART_TxHead>
    5bd4:	2f 5f       	subi	r18, 0xFF	; 255
    5bd6:	2f 71       	andi	r18, 0x1F	; 31
    
    while ( tmphead == UART_TxTail ){
    5bd8:	90 91 c1 08 	lds	r25, 0x08C1	; 0x8008c1 <UART_TxTail>
    5bdc:	29 17       	cp	r18, r25
    5bde:	e1 f3       	breq	.-8      	; 0x5bd8 <uart_puti+0x32>
        ;/* wait for free space in buffer */
    }
    
    UART_TxBuf[tmphead] = data;
    5be0:	e2 2f       	mov	r30, r18
    5be2:	f0 e0       	ldi	r31, 0x00	; 0
    5be4:	ed 51       	subi	r30, 0x1D	; 29
    5be6:	f7 4f       	sbci	r31, 0xF7	; 247
    5be8:	30 83       	st	Z, r19
    UART_TxHead = tmphead;
    5bea:	20 93 c2 08 	sts	0x08C2, r18	; 0x8008c2 <UART_TxHead>

    /* enable UDRE interrupt */
    UART0_CONTROL    |= _BV(UART0_UDRIE);
    5bee:	55 9a       	sbi	0x0a, 5	; 10
Input:    string to be transmitted
Returns:  none          
**************************************************************************/
void uart_puts(const char *s )
{
    while (*s) 
    5bf0:	3d 91       	ld	r19, X+
    5bf2:	31 11       	cpse	r19, r1
    5bf4:	ed cf       	rjmp	.-38     	; 0x5bd0 <uart_puti+0x2a>
{
	char buffer[sizeof(int)*8+1];
	
	uart_puts( itoa(val, buffer, 10) );

}/* uart_puti */
    5bf6:	61 96       	adiw	r28, 0x11	; 17
    5bf8:	0f b6       	in	r0, 0x3f	; 63
    5bfa:	f8 94       	cli
    5bfc:	de bf       	out	0x3e, r29	; 62
    5bfe:	0f be       	out	0x3f, r0	; 63
    5c00:	cd bf       	out	0x3d, r28	; 61
    5c02:	df 91       	pop	r29
    5c04:	cf 91       	pop	r28
    5c06:	08 95       	ret

00005c08 <ftoa>:
ï»¿#include "ftoa.h"


char *ftoa(char *a, double f, int precision)
{
    5c08:	2f 92       	push	r2
    5c0a:	3f 92       	push	r3
    5c0c:	4f 92       	push	r4
    5c0e:	5f 92       	push	r5
    5c10:	6f 92       	push	r6
    5c12:	7f 92       	push	r7
    5c14:	8f 92       	push	r8
    5c16:	9f 92       	push	r9
    5c18:	af 92       	push	r10
    5c1a:	bf 92       	push	r11
    5c1c:	cf 92       	push	r12
    5c1e:	df 92       	push	r13
    5c20:	ef 92       	push	r14
    5c22:	ff 92       	push	r15
    5c24:	0f 93       	push	r16
    5c26:	1f 93       	push	r17
    5c28:	cf 93       	push	r28
    5c2a:	df 93       	push	r29
    5c2c:	cd b7       	in	r28, 0x3d	; 61
    5c2e:	de b7       	in	r29, 0x3e	; 62
    5c30:	a4 97       	sbiw	r28, 0x24	; 36
    5c32:	0f b6       	in	r0, 0x3f	; 63
    5c34:	f8 94       	cli
    5c36:	de bf       	out	0x3e, r29	; 62
    5c38:	0f be       	out	0x3f, r0	; 63
    5c3a:	cd bf       	out	0x3d, r28	; 61
    5c3c:	8c 01       	movw	r16, r24
    5c3e:	6a 01       	movw	r12, r20
    5c40:	7b 01       	movw	r14, r22
    5c42:	39 01       	movw	r6, r18
	long p[] = {0,10,100,1000,10000,100000,1000000,10000000,100000000};
    5c44:	84 e2       	ldi	r24, 0x24	; 36
    5c46:	ee e1       	ldi	r30, 0x1E	; 30
    5c48:	f4 e0       	ldi	r31, 0x04	; 4
    5c4a:	de 01       	movw	r26, r28
    5c4c:	11 96       	adiw	r26, 0x01	; 1
    5c4e:	01 90       	ld	r0, Z+
    5c50:	0d 92       	st	X+, r0
    5c52:	8a 95       	dec	r24
    5c54:	e1 f7       	brne	.-8      	; 0x5c4e <ftoa+0x46>
	
	char *ret = a;
	long heiltal = (long)f;
    5c56:	cb 01       	movw	r24, r22
    5c58:	ba 01       	movw	r22, r20
    5c5a:	2f d1       	rcall	.+606    	; 0x5eba <__fixsfsi>
    5c5c:	4b 01       	movw	r8, r22
    5c5e:	5c 01       	movw	r10, r24
    } else if (__radix < 2 || __radix > 36) {
	*__s = 0;
	return __s;
    } else {
	extern char *__ltoa_ncheck (long, char *, unsigned char);
	return __ltoa_ncheck (__val, __s, __radix);
    5c60:	2a e0       	ldi	r18, 0x0A	; 10
    5c62:	a8 01       	movw	r20, r16
    5c64:	9c d2       	rcall	.+1336   	; 0x619e <__ltoa_ncheck>
	ltoa(heiltal, a, 10);
	while (*a != '\0') a++;
    5c66:	f8 01       	movw	r30, r16
    5c68:	80 81       	ld	r24, Z
    5c6a:	88 23       	and	r24, r24
    5c6c:	09 f4       	brne	.+2      	; 0x5c70 <ftoa+0x68>
    5c6e:	52 c0       	rjmp	.+164    	; 0x5d14 <ftoa+0x10c>
    5c70:	c8 01       	movw	r24, r16
    5c72:	01 96       	adiw	r24, 0x01	; 1
    5c74:	fc 01       	movw	r30, r24
    5c76:	01 96       	adiw	r24, 0x01	; 1
    5c78:	20 81       	ld	r18, Z
    5c7a:	21 11       	cpse	r18, r1
    5c7c:	fb cf       	rjmp	.-10     	; 0x5c74 <ftoa+0x6c>
	*a++ = '.';
    5c7e:	8e e2       	ldi	r24, 0x2E	; 46
    5c80:	81 93       	st	Z+, r24
    5c82:	1f 01       	movw	r2, r30
	long desimal = abs((long)((f - heiltal) * p[precision]));
    5c84:	66 0c       	add	r6, r6
    5c86:	77 1c       	adc	r7, r7
    5c88:	66 0c       	add	r6, r6
    5c8a:	77 1c       	adc	r7, r7
    5c8c:	e1 e0       	ldi	r30, 0x01	; 1
    5c8e:	f0 e0       	ldi	r31, 0x00	; 0
    5c90:	ec 0f       	add	r30, r28
    5c92:	fd 1f       	adc	r31, r29
    5c94:	e6 0d       	add	r30, r6
    5c96:	f7 1d       	adc	r31, r7
    5c98:	60 81       	ld	r22, Z
    5c9a:	71 81       	ldd	r23, Z+1	; 0x01
    5c9c:	82 81       	ldd	r24, Z+2	; 0x02
    5c9e:	93 81       	ldd	r25, Z+3	; 0x03
    5ca0:	3f d1       	rcall	.+638    	; 0x5f20 <__floatsisf>
    5ca2:	2b 01       	movw	r4, r22
    5ca4:	3c 01       	movw	r6, r24
    5ca6:	c5 01       	movw	r24, r10
    5ca8:	b4 01       	movw	r22, r8
    5caa:	3a d1       	rcall	.+628    	; 0x5f20 <__floatsisf>
    5cac:	9b 01       	movw	r18, r22
    5cae:	ac 01       	movw	r20, r24
    5cb0:	c7 01       	movw	r24, r14
    5cb2:	b6 01       	movw	r22, r12
    5cb4:	31 d0       	rcall	.+98     	; 0x5d18 <__subsf3>
    5cb6:	9b 01       	movw	r18, r22
    5cb8:	ac 01       	movw	r20, r24
    5cba:	c3 01       	movw	r24, r6
    5cbc:	b2 01       	movw	r22, r4
    5cbe:	e4 d1       	rcall	.+968    	; 0x6088 <__mulsf3>
    5cc0:	fc d0       	rcall	.+504    	; 0x5eba <__fixsfsi>
    5cc2:	9b 01       	movw	r18, r22
    5cc4:	77 fd       	sbrc	r23, 7
    5cc6:	21 c0       	rjmp	.+66     	; 0x5d0a <ftoa+0x102>
    5cc8:	b9 01       	movw	r22, r18
    5cca:	33 0f       	add	r19, r19
    5ccc:	88 0b       	sbc	r24, r24
    5cce:	99 0b       	sbc	r25, r25
    5cd0:	2a e0       	ldi	r18, 0x0A	; 10
    5cd2:	a1 01       	movw	r20, r2
    5cd4:	64 d2       	rcall	.+1224   	; 0x619e <__ltoa_ncheck>
	ltoa(desimal, a, 10);
	return ret;
    5cd6:	c8 01       	movw	r24, r16
    5cd8:	a4 96       	adiw	r28, 0x24	; 36
    5cda:	0f b6       	in	r0, 0x3f	; 63
    5cdc:	f8 94       	cli
    5cde:	de bf       	out	0x3e, r29	; 62
    5ce0:	0f be       	out	0x3f, r0	; 63
    5ce2:	cd bf       	out	0x3d, r28	; 61
    5ce4:	df 91       	pop	r29
    5ce6:	cf 91       	pop	r28
    5ce8:	1f 91       	pop	r17
    5cea:	0f 91       	pop	r16
    5cec:	ff 90       	pop	r15
    5cee:	ef 90       	pop	r14
    5cf0:	df 90       	pop	r13
    5cf2:	cf 90       	pop	r12
    5cf4:	bf 90       	pop	r11
    5cf6:	af 90       	pop	r10
    5cf8:	9f 90       	pop	r9
    5cfa:	8f 90       	pop	r8
    5cfc:	7f 90       	pop	r7
    5cfe:	6f 90       	pop	r6
    5d00:	5f 90       	pop	r5
    5d02:	4f 90       	pop	r4
    5d04:	3f 90       	pop	r3
    5d06:	2f 90       	pop	r2
    5d08:	08 95       	ret
    5d0a:	22 27       	eor	r18, r18
    5d0c:	33 27       	eor	r19, r19
    5d0e:	26 1b       	sub	r18, r22
    5d10:	37 0b       	sbc	r19, r23
    5d12:	da cf       	rjmp	.-76     	; 0x5cc8 <ftoa+0xc0>
	long p[] = {0,10,100,1000,10000,100000,1000000,10000000,100000000};
	
	char *ret = a;
	long heiltal = (long)f;
	ltoa(heiltal, a, 10);
	while (*a != '\0') a++;
    5d14:	f8 01       	movw	r30, r16
    5d16:	b3 cf       	rjmp	.-154    	; 0x5c7e <ftoa+0x76>

00005d18 <__subsf3>:
    5d18:	50 58       	subi	r21, 0x80	; 128

00005d1a <__addsf3>:
    5d1a:	bb 27       	eor	r27, r27
    5d1c:	aa 27       	eor	r26, r26
    5d1e:	0e d0       	rcall	.+28     	; 0x5d3c <__addsf3x>
    5d20:	75 c1       	rjmp	.+746    	; 0x600c <__fp_round>
    5d22:	66 d1       	rcall	.+716    	; 0x5ff0 <__fp_pscA>
    5d24:	30 f0       	brcs	.+12     	; 0x5d32 <__addsf3+0x18>
    5d26:	6b d1       	rcall	.+726    	; 0x5ffe <__fp_pscB>
    5d28:	20 f0       	brcs	.+8      	; 0x5d32 <__addsf3+0x18>
    5d2a:	31 f4       	brne	.+12     	; 0x5d38 <__addsf3+0x1e>
    5d2c:	9f 3f       	cpi	r25, 0xFF	; 255
    5d2e:	11 f4       	brne	.+4      	; 0x5d34 <__addsf3+0x1a>
    5d30:	1e f4       	brtc	.+6      	; 0x5d38 <__addsf3+0x1e>
    5d32:	5b c1       	rjmp	.+694    	; 0x5fea <__fp_nan>
    5d34:	0e f4       	brtc	.+2      	; 0x5d38 <__addsf3+0x1e>
    5d36:	e0 95       	com	r30
    5d38:	e7 fb       	bst	r30, 7
    5d3a:	51 c1       	rjmp	.+674    	; 0x5fde <__fp_inf>

00005d3c <__addsf3x>:
    5d3c:	e9 2f       	mov	r30, r25
    5d3e:	77 d1       	rcall	.+750    	; 0x602e <__fp_split3>
    5d40:	80 f3       	brcs	.-32     	; 0x5d22 <__addsf3+0x8>
    5d42:	ba 17       	cp	r27, r26
    5d44:	62 07       	cpc	r22, r18
    5d46:	73 07       	cpc	r23, r19
    5d48:	84 07       	cpc	r24, r20
    5d4a:	95 07       	cpc	r25, r21
    5d4c:	18 f0       	brcs	.+6      	; 0x5d54 <__addsf3x+0x18>
    5d4e:	71 f4       	brne	.+28     	; 0x5d6c <__addsf3x+0x30>
    5d50:	9e f5       	brtc	.+102    	; 0x5db8 <__addsf3x+0x7c>
    5d52:	8f c1       	rjmp	.+798    	; 0x6072 <__fp_zero>
    5d54:	0e f4       	brtc	.+2      	; 0x5d58 <__addsf3x+0x1c>
    5d56:	e0 95       	com	r30
    5d58:	0b 2e       	mov	r0, r27
    5d5a:	ba 2f       	mov	r27, r26
    5d5c:	a0 2d       	mov	r26, r0
    5d5e:	0b 01       	movw	r0, r22
    5d60:	b9 01       	movw	r22, r18
    5d62:	90 01       	movw	r18, r0
    5d64:	0c 01       	movw	r0, r24
    5d66:	ca 01       	movw	r24, r20
    5d68:	a0 01       	movw	r20, r0
    5d6a:	11 24       	eor	r1, r1
    5d6c:	ff 27       	eor	r31, r31
    5d6e:	59 1b       	sub	r21, r25
    5d70:	99 f0       	breq	.+38     	; 0x5d98 <__addsf3x+0x5c>
    5d72:	59 3f       	cpi	r21, 0xF9	; 249
    5d74:	50 f4       	brcc	.+20     	; 0x5d8a <__addsf3x+0x4e>
    5d76:	50 3e       	cpi	r21, 0xE0	; 224
    5d78:	68 f1       	brcs	.+90     	; 0x5dd4 <__addsf3x+0x98>
    5d7a:	1a 16       	cp	r1, r26
    5d7c:	f0 40       	sbci	r31, 0x00	; 0
    5d7e:	a2 2f       	mov	r26, r18
    5d80:	23 2f       	mov	r18, r19
    5d82:	34 2f       	mov	r19, r20
    5d84:	44 27       	eor	r20, r20
    5d86:	58 5f       	subi	r21, 0xF8	; 248
    5d88:	f3 cf       	rjmp	.-26     	; 0x5d70 <__addsf3x+0x34>
    5d8a:	46 95       	lsr	r20
    5d8c:	37 95       	ror	r19
    5d8e:	27 95       	ror	r18
    5d90:	a7 95       	ror	r26
    5d92:	f0 40       	sbci	r31, 0x00	; 0
    5d94:	53 95       	inc	r21
    5d96:	c9 f7       	brne	.-14     	; 0x5d8a <__addsf3x+0x4e>
    5d98:	7e f4       	brtc	.+30     	; 0x5db8 <__addsf3x+0x7c>
    5d9a:	1f 16       	cp	r1, r31
    5d9c:	ba 0b       	sbc	r27, r26
    5d9e:	62 0b       	sbc	r22, r18
    5da0:	73 0b       	sbc	r23, r19
    5da2:	84 0b       	sbc	r24, r20
    5da4:	ba f0       	brmi	.+46     	; 0x5dd4 <__addsf3x+0x98>
    5da6:	91 50       	subi	r25, 0x01	; 1
    5da8:	a1 f0       	breq	.+40     	; 0x5dd2 <__addsf3x+0x96>
    5daa:	ff 0f       	add	r31, r31
    5dac:	bb 1f       	adc	r27, r27
    5dae:	66 1f       	adc	r22, r22
    5db0:	77 1f       	adc	r23, r23
    5db2:	88 1f       	adc	r24, r24
    5db4:	c2 f7       	brpl	.-16     	; 0x5da6 <__addsf3x+0x6a>
    5db6:	0e c0       	rjmp	.+28     	; 0x5dd4 <__addsf3x+0x98>
    5db8:	ba 0f       	add	r27, r26
    5dba:	62 1f       	adc	r22, r18
    5dbc:	73 1f       	adc	r23, r19
    5dbe:	84 1f       	adc	r24, r20
    5dc0:	48 f4       	brcc	.+18     	; 0x5dd4 <__addsf3x+0x98>
    5dc2:	87 95       	ror	r24
    5dc4:	77 95       	ror	r23
    5dc6:	67 95       	ror	r22
    5dc8:	b7 95       	ror	r27
    5dca:	f7 95       	ror	r31
    5dcc:	9e 3f       	cpi	r25, 0xFE	; 254
    5dce:	08 f0       	brcs	.+2      	; 0x5dd2 <__addsf3x+0x96>
    5dd0:	b3 cf       	rjmp	.-154    	; 0x5d38 <__addsf3+0x1e>
    5dd2:	93 95       	inc	r25
    5dd4:	88 0f       	add	r24, r24
    5dd6:	08 f0       	brcs	.+2      	; 0x5dda <__addsf3x+0x9e>
    5dd8:	99 27       	eor	r25, r25
    5dda:	ee 0f       	add	r30, r30
    5ddc:	97 95       	ror	r25
    5dde:	87 95       	ror	r24
    5de0:	08 95       	ret

00005de2 <__cmpsf2>:
    5de2:	d9 d0       	rcall	.+434    	; 0x5f96 <__fp_cmp>
    5de4:	08 f4       	brcc	.+2      	; 0x5de8 <__cmpsf2+0x6>
    5de6:	81 e0       	ldi	r24, 0x01	; 1
    5de8:	08 95       	ret

00005dea <__divsf3>:
    5dea:	0c d0       	rcall	.+24     	; 0x5e04 <__divsf3x>
    5dec:	0f c1       	rjmp	.+542    	; 0x600c <__fp_round>
    5dee:	07 d1       	rcall	.+526    	; 0x5ffe <__fp_pscB>
    5df0:	40 f0       	brcs	.+16     	; 0x5e02 <__divsf3+0x18>
    5df2:	fe d0       	rcall	.+508    	; 0x5ff0 <__fp_pscA>
    5df4:	30 f0       	brcs	.+12     	; 0x5e02 <__divsf3+0x18>
    5df6:	21 f4       	brne	.+8      	; 0x5e00 <__divsf3+0x16>
    5df8:	5f 3f       	cpi	r21, 0xFF	; 255
    5dfa:	19 f0       	breq	.+6      	; 0x5e02 <__divsf3+0x18>
    5dfc:	f0 c0       	rjmp	.+480    	; 0x5fde <__fp_inf>
    5dfe:	51 11       	cpse	r21, r1
    5e00:	39 c1       	rjmp	.+626    	; 0x6074 <__fp_szero>
    5e02:	f3 c0       	rjmp	.+486    	; 0x5fea <__fp_nan>

00005e04 <__divsf3x>:
    5e04:	14 d1       	rcall	.+552    	; 0x602e <__fp_split3>
    5e06:	98 f3       	brcs	.-26     	; 0x5dee <__divsf3+0x4>

00005e08 <__divsf3_pse>:
    5e08:	99 23       	and	r25, r25
    5e0a:	c9 f3       	breq	.-14     	; 0x5dfe <__divsf3+0x14>
    5e0c:	55 23       	and	r21, r21
    5e0e:	b1 f3       	breq	.-20     	; 0x5dfc <__divsf3+0x12>
    5e10:	95 1b       	sub	r25, r21
    5e12:	55 0b       	sbc	r21, r21
    5e14:	bb 27       	eor	r27, r27
    5e16:	aa 27       	eor	r26, r26
    5e18:	62 17       	cp	r22, r18
    5e1a:	73 07       	cpc	r23, r19
    5e1c:	84 07       	cpc	r24, r20
    5e1e:	38 f0       	brcs	.+14     	; 0x5e2e <__divsf3_pse+0x26>
    5e20:	9f 5f       	subi	r25, 0xFF	; 255
    5e22:	5f 4f       	sbci	r21, 0xFF	; 255
    5e24:	22 0f       	add	r18, r18
    5e26:	33 1f       	adc	r19, r19
    5e28:	44 1f       	adc	r20, r20
    5e2a:	aa 1f       	adc	r26, r26
    5e2c:	a9 f3       	breq	.-22     	; 0x5e18 <__divsf3_pse+0x10>
    5e2e:	33 d0       	rcall	.+102    	; 0x5e96 <__divsf3_pse+0x8e>
    5e30:	0e 2e       	mov	r0, r30
    5e32:	3a f0       	brmi	.+14     	; 0x5e42 <__divsf3_pse+0x3a>
    5e34:	e0 e8       	ldi	r30, 0x80	; 128
    5e36:	30 d0       	rcall	.+96     	; 0x5e98 <__divsf3_pse+0x90>
    5e38:	91 50       	subi	r25, 0x01	; 1
    5e3a:	50 40       	sbci	r21, 0x00	; 0
    5e3c:	e6 95       	lsr	r30
    5e3e:	00 1c       	adc	r0, r0
    5e40:	ca f7       	brpl	.-14     	; 0x5e34 <__divsf3_pse+0x2c>
    5e42:	29 d0       	rcall	.+82     	; 0x5e96 <__divsf3_pse+0x8e>
    5e44:	fe 2f       	mov	r31, r30
    5e46:	27 d0       	rcall	.+78     	; 0x5e96 <__divsf3_pse+0x8e>
    5e48:	66 0f       	add	r22, r22
    5e4a:	77 1f       	adc	r23, r23
    5e4c:	88 1f       	adc	r24, r24
    5e4e:	bb 1f       	adc	r27, r27
    5e50:	26 17       	cp	r18, r22
    5e52:	37 07       	cpc	r19, r23
    5e54:	48 07       	cpc	r20, r24
    5e56:	ab 07       	cpc	r26, r27
    5e58:	b0 e8       	ldi	r27, 0x80	; 128
    5e5a:	09 f0       	breq	.+2      	; 0x5e5e <__divsf3_pse+0x56>
    5e5c:	bb 0b       	sbc	r27, r27
    5e5e:	80 2d       	mov	r24, r0
    5e60:	bf 01       	movw	r22, r30
    5e62:	ff 27       	eor	r31, r31
    5e64:	93 58       	subi	r25, 0x83	; 131
    5e66:	5f 4f       	sbci	r21, 0xFF	; 255
    5e68:	2a f0       	brmi	.+10     	; 0x5e74 <__divsf3_pse+0x6c>
    5e6a:	9e 3f       	cpi	r25, 0xFE	; 254
    5e6c:	51 05       	cpc	r21, r1
    5e6e:	68 f0       	brcs	.+26     	; 0x5e8a <__divsf3_pse+0x82>
    5e70:	b6 c0       	rjmp	.+364    	; 0x5fde <__fp_inf>
    5e72:	00 c1       	rjmp	.+512    	; 0x6074 <__fp_szero>
    5e74:	5f 3f       	cpi	r21, 0xFF	; 255
    5e76:	ec f3       	brlt	.-6      	; 0x5e72 <__divsf3_pse+0x6a>
    5e78:	98 3e       	cpi	r25, 0xE8	; 232
    5e7a:	dc f3       	brlt	.-10     	; 0x5e72 <__divsf3_pse+0x6a>
    5e7c:	86 95       	lsr	r24
    5e7e:	77 95       	ror	r23
    5e80:	67 95       	ror	r22
    5e82:	b7 95       	ror	r27
    5e84:	f7 95       	ror	r31
    5e86:	9f 5f       	subi	r25, 0xFF	; 255
    5e88:	c9 f7       	brne	.-14     	; 0x5e7c <__divsf3_pse+0x74>
    5e8a:	88 0f       	add	r24, r24
    5e8c:	91 1d       	adc	r25, r1
    5e8e:	96 95       	lsr	r25
    5e90:	87 95       	ror	r24
    5e92:	97 f9       	bld	r25, 7
    5e94:	08 95       	ret
    5e96:	e1 e0       	ldi	r30, 0x01	; 1
    5e98:	66 0f       	add	r22, r22
    5e9a:	77 1f       	adc	r23, r23
    5e9c:	88 1f       	adc	r24, r24
    5e9e:	bb 1f       	adc	r27, r27
    5ea0:	62 17       	cp	r22, r18
    5ea2:	73 07       	cpc	r23, r19
    5ea4:	84 07       	cpc	r24, r20
    5ea6:	ba 07       	cpc	r27, r26
    5ea8:	20 f0       	brcs	.+8      	; 0x5eb2 <__divsf3_pse+0xaa>
    5eaa:	62 1b       	sub	r22, r18
    5eac:	73 0b       	sbc	r23, r19
    5eae:	84 0b       	sbc	r24, r20
    5eb0:	ba 0b       	sbc	r27, r26
    5eb2:	ee 1f       	adc	r30, r30
    5eb4:	88 f7       	brcc	.-30     	; 0x5e98 <__divsf3_pse+0x90>
    5eb6:	e0 95       	com	r30
    5eb8:	08 95       	ret

00005eba <__fixsfsi>:
    5eba:	04 d0       	rcall	.+8      	; 0x5ec4 <__fixunssfsi>
    5ebc:	68 94       	set
    5ebe:	b1 11       	cpse	r27, r1
    5ec0:	d9 c0       	rjmp	.+434    	; 0x6074 <__fp_szero>
    5ec2:	08 95       	ret

00005ec4 <__fixunssfsi>:
    5ec4:	bc d0       	rcall	.+376    	; 0x603e <__fp_splitA>
    5ec6:	88 f0       	brcs	.+34     	; 0x5eea <__fixunssfsi+0x26>
    5ec8:	9f 57       	subi	r25, 0x7F	; 127
    5eca:	90 f0       	brcs	.+36     	; 0x5ef0 <__fixunssfsi+0x2c>
    5ecc:	b9 2f       	mov	r27, r25
    5ece:	99 27       	eor	r25, r25
    5ed0:	b7 51       	subi	r27, 0x17	; 23
    5ed2:	a0 f0       	brcs	.+40     	; 0x5efc <__fixunssfsi+0x38>
    5ed4:	d1 f0       	breq	.+52     	; 0x5f0a <__fixunssfsi+0x46>
    5ed6:	66 0f       	add	r22, r22
    5ed8:	77 1f       	adc	r23, r23
    5eda:	88 1f       	adc	r24, r24
    5edc:	99 1f       	adc	r25, r25
    5ede:	1a f0       	brmi	.+6      	; 0x5ee6 <__fixunssfsi+0x22>
    5ee0:	ba 95       	dec	r27
    5ee2:	c9 f7       	brne	.-14     	; 0x5ed6 <__fixunssfsi+0x12>
    5ee4:	12 c0       	rjmp	.+36     	; 0x5f0a <__fixunssfsi+0x46>
    5ee6:	b1 30       	cpi	r27, 0x01	; 1
    5ee8:	81 f0       	breq	.+32     	; 0x5f0a <__fixunssfsi+0x46>
    5eea:	c3 d0       	rcall	.+390    	; 0x6072 <__fp_zero>
    5eec:	b1 e0       	ldi	r27, 0x01	; 1
    5eee:	08 95       	ret
    5ef0:	c0 c0       	rjmp	.+384    	; 0x6072 <__fp_zero>
    5ef2:	67 2f       	mov	r22, r23
    5ef4:	78 2f       	mov	r23, r24
    5ef6:	88 27       	eor	r24, r24
    5ef8:	b8 5f       	subi	r27, 0xF8	; 248
    5efa:	39 f0       	breq	.+14     	; 0x5f0a <__fixunssfsi+0x46>
    5efc:	b9 3f       	cpi	r27, 0xF9	; 249
    5efe:	cc f3       	brlt	.-14     	; 0x5ef2 <__fixunssfsi+0x2e>
    5f00:	86 95       	lsr	r24
    5f02:	77 95       	ror	r23
    5f04:	67 95       	ror	r22
    5f06:	b3 95       	inc	r27
    5f08:	d9 f7       	brne	.-10     	; 0x5f00 <__fixunssfsi+0x3c>
    5f0a:	3e f4       	brtc	.+14     	; 0x5f1a <__fixunssfsi+0x56>
    5f0c:	90 95       	com	r25
    5f0e:	80 95       	com	r24
    5f10:	70 95       	com	r23
    5f12:	61 95       	neg	r22
    5f14:	7f 4f       	sbci	r23, 0xFF	; 255
    5f16:	8f 4f       	sbci	r24, 0xFF	; 255
    5f18:	9f 4f       	sbci	r25, 0xFF	; 255
    5f1a:	08 95       	ret

00005f1c <__floatunsisf>:
    5f1c:	e8 94       	clt
    5f1e:	09 c0       	rjmp	.+18     	; 0x5f32 <__floatsisf+0x12>

00005f20 <__floatsisf>:
    5f20:	97 fb       	bst	r25, 7
    5f22:	3e f4       	brtc	.+14     	; 0x5f32 <__floatsisf+0x12>
    5f24:	90 95       	com	r25
    5f26:	80 95       	com	r24
    5f28:	70 95       	com	r23
    5f2a:	61 95       	neg	r22
    5f2c:	7f 4f       	sbci	r23, 0xFF	; 255
    5f2e:	8f 4f       	sbci	r24, 0xFF	; 255
    5f30:	9f 4f       	sbci	r25, 0xFF	; 255
    5f32:	99 23       	and	r25, r25
    5f34:	a9 f0       	breq	.+42     	; 0x5f60 <__floatsisf+0x40>
    5f36:	f9 2f       	mov	r31, r25
    5f38:	96 e9       	ldi	r25, 0x96	; 150
    5f3a:	bb 27       	eor	r27, r27
    5f3c:	93 95       	inc	r25
    5f3e:	f6 95       	lsr	r31
    5f40:	87 95       	ror	r24
    5f42:	77 95       	ror	r23
    5f44:	67 95       	ror	r22
    5f46:	b7 95       	ror	r27
    5f48:	f1 11       	cpse	r31, r1
    5f4a:	f8 cf       	rjmp	.-16     	; 0x5f3c <__floatsisf+0x1c>
    5f4c:	fa f4       	brpl	.+62     	; 0x5f8c <__floatsisf+0x6c>
    5f4e:	bb 0f       	add	r27, r27
    5f50:	11 f4       	brne	.+4      	; 0x5f56 <__floatsisf+0x36>
    5f52:	60 ff       	sbrs	r22, 0
    5f54:	1b c0       	rjmp	.+54     	; 0x5f8c <__floatsisf+0x6c>
    5f56:	6f 5f       	subi	r22, 0xFF	; 255
    5f58:	7f 4f       	sbci	r23, 0xFF	; 255
    5f5a:	8f 4f       	sbci	r24, 0xFF	; 255
    5f5c:	9f 4f       	sbci	r25, 0xFF	; 255
    5f5e:	16 c0       	rjmp	.+44     	; 0x5f8c <__floatsisf+0x6c>
    5f60:	88 23       	and	r24, r24
    5f62:	11 f0       	breq	.+4      	; 0x5f68 <__floatsisf+0x48>
    5f64:	96 e9       	ldi	r25, 0x96	; 150
    5f66:	11 c0       	rjmp	.+34     	; 0x5f8a <__floatsisf+0x6a>
    5f68:	77 23       	and	r23, r23
    5f6a:	21 f0       	breq	.+8      	; 0x5f74 <__floatsisf+0x54>
    5f6c:	9e e8       	ldi	r25, 0x8E	; 142
    5f6e:	87 2f       	mov	r24, r23
    5f70:	76 2f       	mov	r23, r22
    5f72:	05 c0       	rjmp	.+10     	; 0x5f7e <__floatsisf+0x5e>
    5f74:	66 23       	and	r22, r22
    5f76:	71 f0       	breq	.+28     	; 0x5f94 <__floatsisf+0x74>
    5f78:	96 e8       	ldi	r25, 0x86	; 134
    5f7a:	86 2f       	mov	r24, r22
    5f7c:	70 e0       	ldi	r23, 0x00	; 0
    5f7e:	60 e0       	ldi	r22, 0x00	; 0
    5f80:	2a f0       	brmi	.+10     	; 0x5f8c <__floatsisf+0x6c>
    5f82:	9a 95       	dec	r25
    5f84:	66 0f       	add	r22, r22
    5f86:	77 1f       	adc	r23, r23
    5f88:	88 1f       	adc	r24, r24
    5f8a:	da f7       	brpl	.-10     	; 0x5f82 <__floatsisf+0x62>
    5f8c:	88 0f       	add	r24, r24
    5f8e:	96 95       	lsr	r25
    5f90:	87 95       	ror	r24
    5f92:	97 f9       	bld	r25, 7
    5f94:	08 95       	ret

00005f96 <__fp_cmp>:
    5f96:	99 0f       	add	r25, r25
    5f98:	00 08       	sbc	r0, r0
    5f9a:	55 0f       	add	r21, r21
    5f9c:	aa 0b       	sbc	r26, r26
    5f9e:	e0 e8       	ldi	r30, 0x80	; 128
    5fa0:	fe ef       	ldi	r31, 0xFE	; 254
    5fa2:	16 16       	cp	r1, r22
    5fa4:	17 06       	cpc	r1, r23
    5fa6:	e8 07       	cpc	r30, r24
    5fa8:	f9 07       	cpc	r31, r25
    5faa:	c0 f0       	brcs	.+48     	; 0x5fdc <__fp_cmp+0x46>
    5fac:	12 16       	cp	r1, r18
    5fae:	13 06       	cpc	r1, r19
    5fb0:	e4 07       	cpc	r30, r20
    5fb2:	f5 07       	cpc	r31, r21
    5fb4:	98 f0       	brcs	.+38     	; 0x5fdc <__fp_cmp+0x46>
    5fb6:	62 1b       	sub	r22, r18
    5fb8:	73 0b       	sbc	r23, r19
    5fba:	84 0b       	sbc	r24, r20
    5fbc:	95 0b       	sbc	r25, r21
    5fbe:	39 f4       	brne	.+14     	; 0x5fce <__fp_cmp+0x38>
    5fc0:	0a 26       	eor	r0, r26
    5fc2:	61 f0       	breq	.+24     	; 0x5fdc <__fp_cmp+0x46>
    5fc4:	23 2b       	or	r18, r19
    5fc6:	24 2b       	or	r18, r20
    5fc8:	25 2b       	or	r18, r21
    5fca:	21 f4       	brne	.+8      	; 0x5fd4 <__fp_cmp+0x3e>
    5fcc:	08 95       	ret
    5fce:	0a 26       	eor	r0, r26
    5fd0:	09 f4       	brne	.+2      	; 0x5fd4 <__fp_cmp+0x3e>
    5fd2:	a1 40       	sbci	r26, 0x01	; 1
    5fd4:	a6 95       	lsr	r26
    5fd6:	8f ef       	ldi	r24, 0xFF	; 255
    5fd8:	81 1d       	adc	r24, r1
    5fda:	81 1d       	adc	r24, r1
    5fdc:	08 95       	ret

00005fde <__fp_inf>:
    5fde:	97 f9       	bld	r25, 7
    5fe0:	9f 67       	ori	r25, 0x7F	; 127
    5fe2:	80 e8       	ldi	r24, 0x80	; 128
    5fe4:	70 e0       	ldi	r23, 0x00	; 0
    5fe6:	60 e0       	ldi	r22, 0x00	; 0
    5fe8:	08 95       	ret

00005fea <__fp_nan>:
    5fea:	9f ef       	ldi	r25, 0xFF	; 255
    5fec:	80 ec       	ldi	r24, 0xC0	; 192
    5fee:	08 95       	ret

00005ff0 <__fp_pscA>:
    5ff0:	00 24       	eor	r0, r0
    5ff2:	0a 94       	dec	r0
    5ff4:	16 16       	cp	r1, r22
    5ff6:	17 06       	cpc	r1, r23
    5ff8:	18 06       	cpc	r1, r24
    5ffa:	09 06       	cpc	r0, r25
    5ffc:	08 95       	ret

00005ffe <__fp_pscB>:
    5ffe:	00 24       	eor	r0, r0
    6000:	0a 94       	dec	r0
    6002:	12 16       	cp	r1, r18
    6004:	13 06       	cpc	r1, r19
    6006:	14 06       	cpc	r1, r20
    6008:	05 06       	cpc	r0, r21
    600a:	08 95       	ret

0000600c <__fp_round>:
    600c:	09 2e       	mov	r0, r25
    600e:	03 94       	inc	r0
    6010:	00 0c       	add	r0, r0
    6012:	11 f4       	brne	.+4      	; 0x6018 <__fp_round+0xc>
    6014:	88 23       	and	r24, r24
    6016:	52 f0       	brmi	.+20     	; 0x602c <__fp_round+0x20>
    6018:	bb 0f       	add	r27, r27
    601a:	40 f4       	brcc	.+16     	; 0x602c <__fp_round+0x20>
    601c:	bf 2b       	or	r27, r31
    601e:	11 f4       	brne	.+4      	; 0x6024 <__fp_round+0x18>
    6020:	60 ff       	sbrs	r22, 0
    6022:	04 c0       	rjmp	.+8      	; 0x602c <__fp_round+0x20>
    6024:	6f 5f       	subi	r22, 0xFF	; 255
    6026:	7f 4f       	sbci	r23, 0xFF	; 255
    6028:	8f 4f       	sbci	r24, 0xFF	; 255
    602a:	9f 4f       	sbci	r25, 0xFF	; 255
    602c:	08 95       	ret

0000602e <__fp_split3>:
    602e:	57 fd       	sbrc	r21, 7
    6030:	90 58       	subi	r25, 0x80	; 128
    6032:	44 0f       	add	r20, r20
    6034:	55 1f       	adc	r21, r21
    6036:	59 f0       	breq	.+22     	; 0x604e <__fp_splitA+0x10>
    6038:	5f 3f       	cpi	r21, 0xFF	; 255
    603a:	71 f0       	breq	.+28     	; 0x6058 <__fp_splitA+0x1a>
    603c:	47 95       	ror	r20

0000603e <__fp_splitA>:
    603e:	88 0f       	add	r24, r24
    6040:	97 fb       	bst	r25, 7
    6042:	99 1f       	adc	r25, r25
    6044:	61 f0       	breq	.+24     	; 0x605e <__fp_splitA+0x20>
    6046:	9f 3f       	cpi	r25, 0xFF	; 255
    6048:	79 f0       	breq	.+30     	; 0x6068 <__fp_splitA+0x2a>
    604a:	87 95       	ror	r24
    604c:	08 95       	ret
    604e:	12 16       	cp	r1, r18
    6050:	13 06       	cpc	r1, r19
    6052:	14 06       	cpc	r1, r20
    6054:	55 1f       	adc	r21, r21
    6056:	f2 cf       	rjmp	.-28     	; 0x603c <__fp_split3+0xe>
    6058:	46 95       	lsr	r20
    605a:	f1 df       	rcall	.-30     	; 0x603e <__fp_splitA>
    605c:	08 c0       	rjmp	.+16     	; 0x606e <__fp_splitA+0x30>
    605e:	16 16       	cp	r1, r22
    6060:	17 06       	cpc	r1, r23
    6062:	18 06       	cpc	r1, r24
    6064:	99 1f       	adc	r25, r25
    6066:	f1 cf       	rjmp	.-30     	; 0x604a <__fp_splitA+0xc>
    6068:	86 95       	lsr	r24
    606a:	71 05       	cpc	r23, r1
    606c:	61 05       	cpc	r22, r1
    606e:	08 94       	sec
    6070:	08 95       	ret

00006072 <__fp_zero>:
    6072:	e8 94       	clt

00006074 <__fp_szero>:
    6074:	bb 27       	eor	r27, r27
    6076:	66 27       	eor	r22, r22
    6078:	77 27       	eor	r23, r23
    607a:	cb 01       	movw	r24, r22
    607c:	97 f9       	bld	r25, 7
    607e:	08 95       	ret

00006080 <__gesf2>:
    6080:	8a df       	rcall	.-236    	; 0x5f96 <__fp_cmp>
    6082:	08 f4       	brcc	.+2      	; 0x6086 <__gesf2+0x6>
    6084:	8f ef       	ldi	r24, 0xFF	; 255
    6086:	08 95       	ret

00006088 <__mulsf3>:
    6088:	0b d0       	rcall	.+22     	; 0x60a0 <__mulsf3x>
    608a:	c0 cf       	rjmp	.-128    	; 0x600c <__fp_round>
    608c:	b1 df       	rcall	.-158    	; 0x5ff0 <__fp_pscA>
    608e:	28 f0       	brcs	.+10     	; 0x609a <__mulsf3+0x12>
    6090:	b6 df       	rcall	.-148    	; 0x5ffe <__fp_pscB>
    6092:	18 f0       	brcs	.+6      	; 0x609a <__mulsf3+0x12>
    6094:	95 23       	and	r25, r21
    6096:	09 f0       	breq	.+2      	; 0x609a <__mulsf3+0x12>
    6098:	a2 cf       	rjmp	.-188    	; 0x5fde <__fp_inf>
    609a:	a7 cf       	rjmp	.-178    	; 0x5fea <__fp_nan>
    609c:	11 24       	eor	r1, r1
    609e:	ea cf       	rjmp	.-44     	; 0x6074 <__fp_szero>

000060a0 <__mulsf3x>:
    60a0:	c6 df       	rcall	.-116    	; 0x602e <__fp_split3>
    60a2:	a0 f3       	brcs	.-24     	; 0x608c <__mulsf3+0x4>

000060a4 <__mulsf3_pse>:
    60a4:	95 9f       	mul	r25, r21
    60a6:	d1 f3       	breq	.-12     	; 0x609c <__mulsf3+0x14>
    60a8:	95 0f       	add	r25, r21
    60aa:	50 e0       	ldi	r21, 0x00	; 0
    60ac:	55 1f       	adc	r21, r21
    60ae:	62 9f       	mul	r22, r18
    60b0:	f0 01       	movw	r30, r0
    60b2:	72 9f       	mul	r23, r18
    60b4:	bb 27       	eor	r27, r27
    60b6:	f0 0d       	add	r31, r0
    60b8:	b1 1d       	adc	r27, r1
    60ba:	63 9f       	mul	r22, r19
    60bc:	aa 27       	eor	r26, r26
    60be:	f0 0d       	add	r31, r0
    60c0:	b1 1d       	adc	r27, r1
    60c2:	aa 1f       	adc	r26, r26
    60c4:	64 9f       	mul	r22, r20
    60c6:	66 27       	eor	r22, r22
    60c8:	b0 0d       	add	r27, r0
    60ca:	a1 1d       	adc	r26, r1
    60cc:	66 1f       	adc	r22, r22
    60ce:	82 9f       	mul	r24, r18
    60d0:	22 27       	eor	r18, r18
    60d2:	b0 0d       	add	r27, r0
    60d4:	a1 1d       	adc	r26, r1
    60d6:	62 1f       	adc	r22, r18
    60d8:	73 9f       	mul	r23, r19
    60da:	b0 0d       	add	r27, r0
    60dc:	a1 1d       	adc	r26, r1
    60de:	62 1f       	adc	r22, r18
    60e0:	83 9f       	mul	r24, r19
    60e2:	a0 0d       	add	r26, r0
    60e4:	61 1d       	adc	r22, r1
    60e6:	22 1f       	adc	r18, r18
    60e8:	74 9f       	mul	r23, r20
    60ea:	33 27       	eor	r19, r19
    60ec:	a0 0d       	add	r26, r0
    60ee:	61 1d       	adc	r22, r1
    60f0:	23 1f       	adc	r18, r19
    60f2:	84 9f       	mul	r24, r20
    60f4:	60 0d       	add	r22, r0
    60f6:	21 1d       	adc	r18, r1
    60f8:	82 2f       	mov	r24, r18
    60fa:	76 2f       	mov	r23, r22
    60fc:	6a 2f       	mov	r22, r26
    60fe:	11 24       	eor	r1, r1
    6100:	9f 57       	subi	r25, 0x7F	; 127
    6102:	50 40       	sbci	r21, 0x00	; 0
    6104:	8a f0       	brmi	.+34     	; 0x6128 <__mulsf3_pse+0x84>
    6106:	e1 f0       	breq	.+56     	; 0x6140 <__mulsf3_pse+0x9c>
    6108:	88 23       	and	r24, r24
    610a:	4a f0       	brmi	.+18     	; 0x611e <__mulsf3_pse+0x7a>
    610c:	ee 0f       	add	r30, r30
    610e:	ff 1f       	adc	r31, r31
    6110:	bb 1f       	adc	r27, r27
    6112:	66 1f       	adc	r22, r22
    6114:	77 1f       	adc	r23, r23
    6116:	88 1f       	adc	r24, r24
    6118:	91 50       	subi	r25, 0x01	; 1
    611a:	50 40       	sbci	r21, 0x00	; 0
    611c:	a9 f7       	brne	.-22     	; 0x6108 <__mulsf3_pse+0x64>
    611e:	9e 3f       	cpi	r25, 0xFE	; 254
    6120:	51 05       	cpc	r21, r1
    6122:	70 f0       	brcs	.+28     	; 0x6140 <__mulsf3_pse+0x9c>
    6124:	5c cf       	rjmp	.-328    	; 0x5fde <__fp_inf>
    6126:	a6 cf       	rjmp	.-180    	; 0x6074 <__fp_szero>
    6128:	5f 3f       	cpi	r21, 0xFF	; 255
    612a:	ec f3       	brlt	.-6      	; 0x6126 <__mulsf3_pse+0x82>
    612c:	98 3e       	cpi	r25, 0xE8	; 232
    612e:	dc f3       	brlt	.-10     	; 0x6126 <__mulsf3_pse+0x82>
    6130:	86 95       	lsr	r24
    6132:	77 95       	ror	r23
    6134:	67 95       	ror	r22
    6136:	b7 95       	ror	r27
    6138:	f7 95       	ror	r31
    613a:	e7 95       	ror	r30
    613c:	9f 5f       	subi	r25, 0xFF	; 255
    613e:	c1 f7       	brne	.-16     	; 0x6130 <__mulsf3_pse+0x8c>
    6140:	fe 2b       	or	r31, r30
    6142:	88 0f       	add	r24, r24
    6144:	91 1d       	adc	r25, r1
    6146:	96 95       	lsr	r25
    6148:	87 95       	ror	r24
    614a:	97 f9       	bld	r25, 7
    614c:	08 95       	ret

0000614e <__tablejump2__>:
    614e:	ee 0f       	add	r30, r30
    6150:	ff 1f       	adc	r31, r31
    6152:	05 90       	lpm	r0, Z+
    6154:	f4 91       	lpm	r31, Z
    6156:	e0 2d       	mov	r30, r0
    6158:	09 94       	ijmp

0000615a <memcmp>:
    615a:	fb 01       	movw	r30, r22
    615c:	dc 01       	movw	r26, r24
    615e:	04 c0       	rjmp	.+8      	; 0x6168 <memcmp+0xe>
    6160:	8d 91       	ld	r24, X+
    6162:	01 90       	ld	r0, Z+
    6164:	80 19       	sub	r24, r0
    6166:	21 f4       	brne	.+8      	; 0x6170 <memcmp+0x16>
    6168:	41 50       	subi	r20, 0x01	; 1
    616a:	50 40       	sbci	r21, 0x00	; 0
    616c:	c8 f7       	brcc	.-14     	; 0x6160 <memcmp+0x6>
    616e:	88 1b       	sub	r24, r24
    6170:	99 0b       	sbc	r25, r25
    6172:	08 95       	ret

00006174 <strcat>:
    6174:	fb 01       	movw	r30, r22
    6176:	dc 01       	movw	r26, r24
    6178:	0d 90       	ld	r0, X+
    617a:	00 20       	and	r0, r0
    617c:	e9 f7       	brne	.-6      	; 0x6178 <strcat+0x4>
    617e:	11 97       	sbiw	r26, 0x01	; 1
    6180:	01 90       	ld	r0, Z+
    6182:	0d 92       	st	X+, r0
    6184:	00 20       	and	r0, r0
    6186:	e1 f7       	brne	.-8      	; 0x6180 <strcat+0xc>
    6188:	08 95       	ret

0000618a <__itoa_ncheck>:
    618a:	bb 27       	eor	r27, r27
    618c:	4a 30       	cpi	r20, 0x0A	; 10
    618e:	31 f4       	brne	.+12     	; 0x619c <__itoa_ncheck+0x12>
    6190:	99 23       	and	r25, r25
    6192:	22 f4       	brpl	.+8      	; 0x619c <__itoa_ncheck+0x12>
    6194:	bd e2       	ldi	r27, 0x2D	; 45
    6196:	90 95       	com	r25
    6198:	81 95       	neg	r24
    619a:	9f 4f       	sbci	r25, 0xFF	; 255
    619c:	30 c0       	rjmp	.+96     	; 0x61fe <__utoa_common>

0000619e <__ltoa_ncheck>:
    619e:	bb 27       	eor	r27, r27
    61a0:	2a 30       	cpi	r18, 0x0A	; 10
    61a2:	51 f4       	brne	.+20     	; 0x61b8 <__ltoa_ncheck+0x1a>
    61a4:	99 23       	and	r25, r25
    61a6:	42 f4       	brpl	.+16     	; 0x61b8 <__ltoa_ncheck+0x1a>
    61a8:	bd e2       	ldi	r27, 0x2D	; 45
    61aa:	90 95       	com	r25
    61ac:	80 95       	com	r24
    61ae:	70 95       	com	r23
    61b0:	61 95       	neg	r22
    61b2:	7f 4f       	sbci	r23, 0xFF	; 255
    61b4:	8f 4f       	sbci	r24, 0xFF	; 255
    61b6:	9f 4f       	sbci	r25, 0xFF	; 255
    61b8:	01 c0       	rjmp	.+2      	; 0x61bc <__ultoa_common>

000061ba <__ultoa_ncheck>:
    61ba:	bb 27       	eor	r27, r27

000061bc <__ultoa_common>:
    61bc:	fa 01       	movw	r30, r20
    61be:	a6 2f       	mov	r26, r22
    61c0:	62 17       	cp	r22, r18
    61c2:	71 05       	cpc	r23, r1
    61c4:	81 05       	cpc	r24, r1
    61c6:	91 05       	cpc	r25, r1
    61c8:	33 0b       	sbc	r19, r19
    61ca:	30 fb       	bst	r19, 0
    61cc:	66 f0       	brts	.+24     	; 0x61e6 <__ultoa_common+0x2a>
    61ce:	aa 27       	eor	r26, r26
    61d0:	66 0f       	add	r22, r22
    61d2:	77 1f       	adc	r23, r23
    61d4:	88 1f       	adc	r24, r24
    61d6:	99 1f       	adc	r25, r25
    61d8:	aa 1f       	adc	r26, r26
    61da:	a2 17       	cp	r26, r18
    61dc:	10 f0       	brcs	.+4      	; 0x61e2 <__ultoa_common+0x26>
    61de:	a2 1b       	sub	r26, r18
    61e0:	63 95       	inc	r22
    61e2:	38 50       	subi	r19, 0x08	; 8
    61e4:	a9 f7       	brne	.-22     	; 0x61d0 <__ultoa_common+0x14>
    61e6:	a0 5d       	subi	r26, 0xD0	; 208
    61e8:	aa 33       	cpi	r26, 0x3A	; 58
    61ea:	08 f0       	brcs	.+2      	; 0x61ee <__ultoa_common+0x32>
    61ec:	a9 5d       	subi	r26, 0xD9	; 217
    61ee:	a1 93       	st	Z+, r26
    61f0:	36 f7       	brtc	.-52     	; 0x61be <__ultoa_common+0x2>
    61f2:	b1 11       	cpse	r27, r1
    61f4:	b1 93       	st	Z+, r27
    61f6:	10 82       	st	Z, r1
    61f8:	ca 01       	movw	r24, r20
    61fa:	01 c2       	rjmp	.+1026   	; 0x65fe <strrev>

000061fc <__utoa_ncheck>:
    61fc:	bb 27       	eor	r27, r27

000061fe <__utoa_common>:
    61fe:	fb 01       	movw	r30, r22
    6200:	55 27       	eor	r21, r21
    6202:	aa 27       	eor	r26, r26
    6204:	88 0f       	add	r24, r24
    6206:	99 1f       	adc	r25, r25
    6208:	aa 1f       	adc	r26, r26
    620a:	a4 17       	cp	r26, r20
    620c:	10 f0       	brcs	.+4      	; 0x6212 <__utoa_common+0x14>
    620e:	a4 1b       	sub	r26, r20
    6210:	83 95       	inc	r24
    6212:	50 51       	subi	r21, 0x10	; 16
    6214:	b9 f7       	brne	.-18     	; 0x6204 <__utoa_common+0x6>
    6216:	a0 5d       	subi	r26, 0xD0	; 208
    6218:	aa 33       	cpi	r26, 0x3A	; 58
    621a:	08 f0       	brcs	.+2      	; 0x621e <__utoa_common+0x20>
    621c:	a9 5d       	subi	r26, 0xD9	; 217
    621e:	a1 93       	st	Z+, r26
    6220:	00 97       	sbiw	r24, 0x00	; 0
    6222:	79 f7       	brne	.-34     	; 0x6202 <__utoa_common+0x4>
    6224:	b1 11       	cpse	r27, r1
    6226:	b1 93       	st	Z+, r27
    6228:	11 92       	st	Z+, r1
    622a:	cb 01       	movw	r24, r22
    622c:	e8 c1       	rjmp	.+976    	; 0x65fe <strrev>

0000622e <vfprintf>:
    622e:	ab e0       	ldi	r26, 0x0B	; 11
    6230:	b0 e0       	ldi	r27, 0x00	; 0
    6232:	ec e1       	ldi	r30, 0x1C	; 28
    6234:	f1 e3       	ldi	r31, 0x31	; 49
    6236:	ce c2       	rjmp	.+1436   	; 0x67d4 <__prologue_saves__>
    6238:	6c 01       	movw	r12, r24
    623a:	7b 01       	movw	r14, r22
    623c:	8a 01       	movw	r16, r20
    623e:	fc 01       	movw	r30, r24
    6240:	17 82       	std	Z+7, r1	; 0x07
    6242:	16 82       	std	Z+6, r1	; 0x06
    6244:	83 81       	ldd	r24, Z+3	; 0x03
    6246:	81 ff       	sbrs	r24, 1
    6248:	bf c1       	rjmp	.+894    	; 0x65c8 <vfprintf+0x39a>
    624a:	ce 01       	movw	r24, r28
    624c:	01 96       	adiw	r24, 0x01	; 1
    624e:	3c 01       	movw	r6, r24
    6250:	f6 01       	movw	r30, r12
    6252:	93 81       	ldd	r25, Z+3	; 0x03
    6254:	f7 01       	movw	r30, r14
    6256:	93 fd       	sbrc	r25, 3
    6258:	85 91       	lpm	r24, Z+
    625a:	93 ff       	sbrs	r25, 3
    625c:	81 91       	ld	r24, Z+
    625e:	7f 01       	movw	r14, r30
    6260:	88 23       	and	r24, r24
    6262:	09 f4       	brne	.+2      	; 0x6266 <vfprintf+0x38>
    6264:	ad c1       	rjmp	.+858    	; 0x65c0 <vfprintf+0x392>
    6266:	85 32       	cpi	r24, 0x25	; 37
    6268:	39 f4       	brne	.+14     	; 0x6278 <vfprintf+0x4a>
    626a:	93 fd       	sbrc	r25, 3
    626c:	85 91       	lpm	r24, Z+
    626e:	93 ff       	sbrs	r25, 3
    6270:	81 91       	ld	r24, Z+
    6272:	7f 01       	movw	r14, r30
    6274:	85 32       	cpi	r24, 0x25	; 37
    6276:	21 f4       	brne	.+8      	; 0x6280 <vfprintf+0x52>
    6278:	b6 01       	movw	r22, r12
    627a:	90 e0       	ldi	r25, 0x00	; 0
    627c:	d0 d1       	rcall	.+928    	; 0x661e <fputc>
    627e:	e8 cf       	rjmp	.-48     	; 0x6250 <vfprintf+0x22>
    6280:	91 2c       	mov	r9, r1
    6282:	21 2c       	mov	r2, r1
    6284:	31 2c       	mov	r3, r1
    6286:	ff e1       	ldi	r31, 0x1F	; 31
    6288:	f3 15       	cp	r31, r3
    628a:	d8 f0       	brcs	.+54     	; 0x62c2 <vfprintf+0x94>
    628c:	8b 32       	cpi	r24, 0x2B	; 43
    628e:	79 f0       	breq	.+30     	; 0x62ae <vfprintf+0x80>
    6290:	38 f4       	brcc	.+14     	; 0x62a0 <vfprintf+0x72>
    6292:	80 32       	cpi	r24, 0x20	; 32
    6294:	79 f0       	breq	.+30     	; 0x62b4 <vfprintf+0x86>
    6296:	83 32       	cpi	r24, 0x23	; 35
    6298:	a1 f4       	brne	.+40     	; 0x62c2 <vfprintf+0x94>
    629a:	23 2d       	mov	r18, r3
    629c:	20 61       	ori	r18, 0x10	; 16
    629e:	1d c0       	rjmp	.+58     	; 0x62da <vfprintf+0xac>
    62a0:	8d 32       	cpi	r24, 0x2D	; 45
    62a2:	61 f0       	breq	.+24     	; 0x62bc <vfprintf+0x8e>
    62a4:	80 33       	cpi	r24, 0x30	; 48
    62a6:	69 f4       	brne	.+26     	; 0x62c2 <vfprintf+0x94>
    62a8:	23 2d       	mov	r18, r3
    62aa:	21 60       	ori	r18, 0x01	; 1
    62ac:	16 c0       	rjmp	.+44     	; 0x62da <vfprintf+0xac>
    62ae:	83 2d       	mov	r24, r3
    62b0:	82 60       	ori	r24, 0x02	; 2
    62b2:	38 2e       	mov	r3, r24
    62b4:	e3 2d       	mov	r30, r3
    62b6:	e4 60       	ori	r30, 0x04	; 4
    62b8:	3e 2e       	mov	r3, r30
    62ba:	2a c0       	rjmp	.+84     	; 0x6310 <vfprintf+0xe2>
    62bc:	f3 2d       	mov	r31, r3
    62be:	f8 60       	ori	r31, 0x08	; 8
    62c0:	1d c0       	rjmp	.+58     	; 0x62fc <vfprintf+0xce>
    62c2:	37 fc       	sbrc	r3, 7
    62c4:	2d c0       	rjmp	.+90     	; 0x6320 <vfprintf+0xf2>
    62c6:	20 ed       	ldi	r18, 0xD0	; 208
    62c8:	28 0f       	add	r18, r24
    62ca:	2a 30       	cpi	r18, 0x0A	; 10
    62cc:	40 f0       	brcs	.+16     	; 0x62de <vfprintf+0xb0>
    62ce:	8e 32       	cpi	r24, 0x2E	; 46
    62d0:	b9 f4       	brne	.+46     	; 0x6300 <vfprintf+0xd2>
    62d2:	36 fc       	sbrc	r3, 6
    62d4:	75 c1       	rjmp	.+746    	; 0x65c0 <vfprintf+0x392>
    62d6:	23 2d       	mov	r18, r3
    62d8:	20 64       	ori	r18, 0x40	; 64
    62da:	32 2e       	mov	r3, r18
    62dc:	19 c0       	rjmp	.+50     	; 0x6310 <vfprintf+0xe2>
    62de:	36 fe       	sbrs	r3, 6
    62e0:	06 c0       	rjmp	.+12     	; 0x62ee <vfprintf+0xc0>
    62e2:	8a e0       	ldi	r24, 0x0A	; 10
    62e4:	98 9e       	mul	r9, r24
    62e6:	20 0d       	add	r18, r0
    62e8:	11 24       	eor	r1, r1
    62ea:	92 2e       	mov	r9, r18
    62ec:	11 c0       	rjmp	.+34     	; 0x6310 <vfprintf+0xe2>
    62ee:	ea e0       	ldi	r30, 0x0A	; 10
    62f0:	2e 9e       	mul	r2, r30
    62f2:	20 0d       	add	r18, r0
    62f4:	11 24       	eor	r1, r1
    62f6:	22 2e       	mov	r2, r18
    62f8:	f3 2d       	mov	r31, r3
    62fa:	f0 62       	ori	r31, 0x20	; 32
    62fc:	3f 2e       	mov	r3, r31
    62fe:	08 c0       	rjmp	.+16     	; 0x6310 <vfprintf+0xe2>
    6300:	8c 36       	cpi	r24, 0x6C	; 108
    6302:	21 f4       	brne	.+8      	; 0x630c <vfprintf+0xde>
    6304:	83 2d       	mov	r24, r3
    6306:	80 68       	ori	r24, 0x80	; 128
    6308:	38 2e       	mov	r3, r24
    630a:	02 c0       	rjmp	.+4      	; 0x6310 <vfprintf+0xe2>
    630c:	88 36       	cpi	r24, 0x68	; 104
    630e:	41 f4       	brne	.+16     	; 0x6320 <vfprintf+0xf2>
    6310:	f7 01       	movw	r30, r14
    6312:	93 fd       	sbrc	r25, 3
    6314:	85 91       	lpm	r24, Z+
    6316:	93 ff       	sbrs	r25, 3
    6318:	81 91       	ld	r24, Z+
    631a:	7f 01       	movw	r14, r30
    631c:	81 11       	cpse	r24, r1
    631e:	b3 cf       	rjmp	.-154    	; 0x6286 <vfprintf+0x58>
    6320:	98 2f       	mov	r25, r24
    6322:	9f 7d       	andi	r25, 0xDF	; 223
    6324:	95 54       	subi	r25, 0x45	; 69
    6326:	93 30       	cpi	r25, 0x03	; 3
    6328:	28 f4       	brcc	.+10     	; 0x6334 <vfprintf+0x106>
    632a:	0c 5f       	subi	r16, 0xFC	; 252
    632c:	1f 4f       	sbci	r17, 0xFF	; 255
    632e:	9f e3       	ldi	r25, 0x3F	; 63
    6330:	99 83       	std	Y+1, r25	; 0x01
    6332:	0d c0       	rjmp	.+26     	; 0x634e <vfprintf+0x120>
    6334:	83 36       	cpi	r24, 0x63	; 99
    6336:	31 f0       	breq	.+12     	; 0x6344 <vfprintf+0x116>
    6338:	83 37       	cpi	r24, 0x73	; 115
    633a:	71 f0       	breq	.+28     	; 0x6358 <vfprintf+0x12a>
    633c:	83 35       	cpi	r24, 0x53	; 83
    633e:	09 f0       	breq	.+2      	; 0x6342 <vfprintf+0x114>
    6340:	55 c0       	rjmp	.+170    	; 0x63ec <vfprintf+0x1be>
    6342:	20 c0       	rjmp	.+64     	; 0x6384 <vfprintf+0x156>
    6344:	f8 01       	movw	r30, r16
    6346:	80 81       	ld	r24, Z
    6348:	89 83       	std	Y+1, r24	; 0x01
    634a:	0e 5f       	subi	r16, 0xFE	; 254
    634c:	1f 4f       	sbci	r17, 0xFF	; 255
    634e:	88 24       	eor	r8, r8
    6350:	83 94       	inc	r8
    6352:	91 2c       	mov	r9, r1
    6354:	53 01       	movw	r10, r6
    6356:	12 c0       	rjmp	.+36     	; 0x637c <vfprintf+0x14e>
    6358:	28 01       	movw	r4, r16
    635a:	f2 e0       	ldi	r31, 0x02	; 2
    635c:	4f 0e       	add	r4, r31
    635e:	51 1c       	adc	r5, r1
    6360:	f8 01       	movw	r30, r16
    6362:	a0 80       	ld	r10, Z
    6364:	b1 80       	ldd	r11, Z+1	; 0x01
    6366:	36 fe       	sbrs	r3, 6
    6368:	03 c0       	rjmp	.+6      	; 0x6370 <vfprintf+0x142>
    636a:	69 2d       	mov	r22, r9
    636c:	70 e0       	ldi	r23, 0x00	; 0
    636e:	02 c0       	rjmp	.+4      	; 0x6374 <vfprintf+0x146>
    6370:	6f ef       	ldi	r22, 0xFF	; 255
    6372:	7f ef       	ldi	r23, 0xFF	; 255
    6374:	c5 01       	movw	r24, r10
    6376:	38 d1       	rcall	.+624    	; 0x65e8 <strnlen>
    6378:	4c 01       	movw	r8, r24
    637a:	82 01       	movw	r16, r4
    637c:	f3 2d       	mov	r31, r3
    637e:	ff 77       	andi	r31, 0x7F	; 127
    6380:	3f 2e       	mov	r3, r31
    6382:	15 c0       	rjmp	.+42     	; 0x63ae <vfprintf+0x180>
    6384:	28 01       	movw	r4, r16
    6386:	22 e0       	ldi	r18, 0x02	; 2
    6388:	42 0e       	add	r4, r18
    638a:	51 1c       	adc	r5, r1
    638c:	f8 01       	movw	r30, r16
    638e:	a0 80       	ld	r10, Z
    6390:	b1 80       	ldd	r11, Z+1	; 0x01
    6392:	36 fe       	sbrs	r3, 6
    6394:	03 c0       	rjmp	.+6      	; 0x639c <vfprintf+0x16e>
    6396:	69 2d       	mov	r22, r9
    6398:	70 e0       	ldi	r23, 0x00	; 0
    639a:	02 c0       	rjmp	.+4      	; 0x63a0 <vfprintf+0x172>
    639c:	6f ef       	ldi	r22, 0xFF	; 255
    639e:	7f ef       	ldi	r23, 0xFF	; 255
    63a0:	c5 01       	movw	r24, r10
    63a2:	17 d1       	rcall	.+558    	; 0x65d2 <strnlen_P>
    63a4:	4c 01       	movw	r8, r24
    63a6:	f3 2d       	mov	r31, r3
    63a8:	f0 68       	ori	r31, 0x80	; 128
    63aa:	3f 2e       	mov	r3, r31
    63ac:	82 01       	movw	r16, r4
    63ae:	33 fc       	sbrc	r3, 3
    63b0:	19 c0       	rjmp	.+50     	; 0x63e4 <vfprintf+0x1b6>
    63b2:	82 2d       	mov	r24, r2
    63b4:	90 e0       	ldi	r25, 0x00	; 0
    63b6:	88 16       	cp	r8, r24
    63b8:	99 06       	cpc	r9, r25
    63ba:	a0 f4       	brcc	.+40     	; 0x63e4 <vfprintf+0x1b6>
    63bc:	b6 01       	movw	r22, r12
    63be:	80 e2       	ldi	r24, 0x20	; 32
    63c0:	90 e0       	ldi	r25, 0x00	; 0
    63c2:	2d d1       	rcall	.+602    	; 0x661e <fputc>
    63c4:	2a 94       	dec	r2
    63c6:	f5 cf       	rjmp	.-22     	; 0x63b2 <vfprintf+0x184>
    63c8:	f5 01       	movw	r30, r10
    63ca:	37 fc       	sbrc	r3, 7
    63cc:	85 91       	lpm	r24, Z+
    63ce:	37 fe       	sbrs	r3, 7
    63d0:	81 91       	ld	r24, Z+
    63d2:	5f 01       	movw	r10, r30
    63d4:	b6 01       	movw	r22, r12
    63d6:	90 e0       	ldi	r25, 0x00	; 0
    63d8:	22 d1       	rcall	.+580    	; 0x661e <fputc>
    63da:	21 10       	cpse	r2, r1
    63dc:	2a 94       	dec	r2
    63de:	21 e0       	ldi	r18, 0x01	; 1
    63e0:	82 1a       	sub	r8, r18
    63e2:	91 08       	sbc	r9, r1
    63e4:	81 14       	cp	r8, r1
    63e6:	91 04       	cpc	r9, r1
    63e8:	79 f7       	brne	.-34     	; 0x63c8 <vfprintf+0x19a>
    63ea:	e1 c0       	rjmp	.+450    	; 0x65ae <vfprintf+0x380>
    63ec:	84 36       	cpi	r24, 0x64	; 100
    63ee:	11 f0       	breq	.+4      	; 0x63f4 <vfprintf+0x1c6>
    63f0:	89 36       	cpi	r24, 0x69	; 105
    63f2:	39 f5       	brne	.+78     	; 0x6442 <vfprintf+0x214>
    63f4:	f8 01       	movw	r30, r16
    63f6:	37 fe       	sbrs	r3, 7
    63f8:	07 c0       	rjmp	.+14     	; 0x6408 <vfprintf+0x1da>
    63fa:	60 81       	ld	r22, Z
    63fc:	71 81       	ldd	r23, Z+1	; 0x01
    63fe:	82 81       	ldd	r24, Z+2	; 0x02
    6400:	93 81       	ldd	r25, Z+3	; 0x03
    6402:	0c 5f       	subi	r16, 0xFC	; 252
    6404:	1f 4f       	sbci	r17, 0xFF	; 255
    6406:	08 c0       	rjmp	.+16     	; 0x6418 <vfprintf+0x1ea>
    6408:	60 81       	ld	r22, Z
    640a:	71 81       	ldd	r23, Z+1	; 0x01
    640c:	07 2e       	mov	r0, r23
    640e:	00 0c       	add	r0, r0
    6410:	88 0b       	sbc	r24, r24
    6412:	99 0b       	sbc	r25, r25
    6414:	0e 5f       	subi	r16, 0xFE	; 254
    6416:	1f 4f       	sbci	r17, 0xFF	; 255
    6418:	f3 2d       	mov	r31, r3
    641a:	ff 76       	andi	r31, 0x6F	; 111
    641c:	3f 2e       	mov	r3, r31
    641e:	97 ff       	sbrs	r25, 7
    6420:	09 c0       	rjmp	.+18     	; 0x6434 <vfprintf+0x206>
    6422:	90 95       	com	r25
    6424:	80 95       	com	r24
    6426:	70 95       	com	r23
    6428:	61 95       	neg	r22
    642a:	7f 4f       	sbci	r23, 0xFF	; 255
    642c:	8f 4f       	sbci	r24, 0xFF	; 255
    642e:	9f 4f       	sbci	r25, 0xFF	; 255
    6430:	f0 68       	ori	r31, 0x80	; 128
    6432:	3f 2e       	mov	r3, r31
    6434:	2a e0       	ldi	r18, 0x0A	; 10
    6436:	30 e0       	ldi	r19, 0x00	; 0
    6438:	a3 01       	movw	r20, r6
    643a:	2d d1       	rcall	.+602    	; 0x6696 <__ultoa_invert>
    643c:	88 2e       	mov	r8, r24
    643e:	86 18       	sub	r8, r6
    6440:	44 c0       	rjmp	.+136    	; 0x64ca <vfprintf+0x29c>
    6442:	85 37       	cpi	r24, 0x75	; 117
    6444:	31 f4       	brne	.+12     	; 0x6452 <vfprintf+0x224>
    6446:	23 2d       	mov	r18, r3
    6448:	2f 7e       	andi	r18, 0xEF	; 239
    644a:	b2 2e       	mov	r11, r18
    644c:	2a e0       	ldi	r18, 0x0A	; 10
    644e:	30 e0       	ldi	r19, 0x00	; 0
    6450:	25 c0       	rjmp	.+74     	; 0x649c <vfprintf+0x26e>
    6452:	93 2d       	mov	r25, r3
    6454:	99 7f       	andi	r25, 0xF9	; 249
    6456:	b9 2e       	mov	r11, r25
    6458:	8f 36       	cpi	r24, 0x6F	; 111
    645a:	c1 f0       	breq	.+48     	; 0x648c <vfprintf+0x25e>
    645c:	18 f4       	brcc	.+6      	; 0x6464 <vfprintf+0x236>
    645e:	88 35       	cpi	r24, 0x58	; 88
    6460:	79 f0       	breq	.+30     	; 0x6480 <vfprintf+0x252>
    6462:	ae c0       	rjmp	.+348    	; 0x65c0 <vfprintf+0x392>
    6464:	80 37       	cpi	r24, 0x70	; 112
    6466:	19 f0       	breq	.+6      	; 0x646e <vfprintf+0x240>
    6468:	88 37       	cpi	r24, 0x78	; 120
    646a:	21 f0       	breq	.+8      	; 0x6474 <vfprintf+0x246>
    646c:	a9 c0       	rjmp	.+338    	; 0x65c0 <vfprintf+0x392>
    646e:	e9 2f       	mov	r30, r25
    6470:	e0 61       	ori	r30, 0x10	; 16
    6472:	be 2e       	mov	r11, r30
    6474:	b4 fe       	sbrs	r11, 4
    6476:	0d c0       	rjmp	.+26     	; 0x6492 <vfprintf+0x264>
    6478:	fb 2d       	mov	r31, r11
    647a:	f4 60       	ori	r31, 0x04	; 4
    647c:	bf 2e       	mov	r11, r31
    647e:	09 c0       	rjmp	.+18     	; 0x6492 <vfprintf+0x264>
    6480:	34 fe       	sbrs	r3, 4
    6482:	0a c0       	rjmp	.+20     	; 0x6498 <vfprintf+0x26a>
    6484:	29 2f       	mov	r18, r25
    6486:	26 60       	ori	r18, 0x06	; 6
    6488:	b2 2e       	mov	r11, r18
    648a:	06 c0       	rjmp	.+12     	; 0x6498 <vfprintf+0x26a>
    648c:	28 e0       	ldi	r18, 0x08	; 8
    648e:	30 e0       	ldi	r19, 0x00	; 0
    6490:	05 c0       	rjmp	.+10     	; 0x649c <vfprintf+0x26e>
    6492:	20 e1       	ldi	r18, 0x10	; 16
    6494:	30 e0       	ldi	r19, 0x00	; 0
    6496:	02 c0       	rjmp	.+4      	; 0x649c <vfprintf+0x26e>
    6498:	20 e1       	ldi	r18, 0x10	; 16
    649a:	32 e0       	ldi	r19, 0x02	; 2
    649c:	f8 01       	movw	r30, r16
    649e:	b7 fe       	sbrs	r11, 7
    64a0:	07 c0       	rjmp	.+14     	; 0x64b0 <vfprintf+0x282>
    64a2:	60 81       	ld	r22, Z
    64a4:	71 81       	ldd	r23, Z+1	; 0x01
    64a6:	82 81       	ldd	r24, Z+2	; 0x02
    64a8:	93 81       	ldd	r25, Z+3	; 0x03
    64aa:	0c 5f       	subi	r16, 0xFC	; 252
    64ac:	1f 4f       	sbci	r17, 0xFF	; 255
    64ae:	06 c0       	rjmp	.+12     	; 0x64bc <vfprintf+0x28e>
    64b0:	60 81       	ld	r22, Z
    64b2:	71 81       	ldd	r23, Z+1	; 0x01
    64b4:	80 e0       	ldi	r24, 0x00	; 0
    64b6:	90 e0       	ldi	r25, 0x00	; 0
    64b8:	0e 5f       	subi	r16, 0xFE	; 254
    64ba:	1f 4f       	sbci	r17, 0xFF	; 255
    64bc:	a3 01       	movw	r20, r6
    64be:	eb d0       	rcall	.+470    	; 0x6696 <__ultoa_invert>
    64c0:	88 2e       	mov	r8, r24
    64c2:	86 18       	sub	r8, r6
    64c4:	fb 2d       	mov	r31, r11
    64c6:	ff 77       	andi	r31, 0x7F	; 127
    64c8:	3f 2e       	mov	r3, r31
    64ca:	36 fe       	sbrs	r3, 6
    64cc:	0d c0       	rjmp	.+26     	; 0x64e8 <vfprintf+0x2ba>
    64ce:	23 2d       	mov	r18, r3
    64d0:	2e 7f       	andi	r18, 0xFE	; 254
    64d2:	a2 2e       	mov	r10, r18
    64d4:	89 14       	cp	r8, r9
    64d6:	58 f4       	brcc	.+22     	; 0x64ee <vfprintf+0x2c0>
    64d8:	34 fe       	sbrs	r3, 4
    64da:	0b c0       	rjmp	.+22     	; 0x64f2 <vfprintf+0x2c4>
    64dc:	32 fc       	sbrc	r3, 2
    64de:	09 c0       	rjmp	.+18     	; 0x64f2 <vfprintf+0x2c4>
    64e0:	83 2d       	mov	r24, r3
    64e2:	8e 7e       	andi	r24, 0xEE	; 238
    64e4:	a8 2e       	mov	r10, r24
    64e6:	05 c0       	rjmp	.+10     	; 0x64f2 <vfprintf+0x2c4>
    64e8:	b8 2c       	mov	r11, r8
    64ea:	a3 2c       	mov	r10, r3
    64ec:	03 c0       	rjmp	.+6      	; 0x64f4 <vfprintf+0x2c6>
    64ee:	b8 2c       	mov	r11, r8
    64f0:	01 c0       	rjmp	.+2      	; 0x64f4 <vfprintf+0x2c6>
    64f2:	b9 2c       	mov	r11, r9
    64f4:	a4 fe       	sbrs	r10, 4
    64f6:	0f c0       	rjmp	.+30     	; 0x6516 <vfprintf+0x2e8>
    64f8:	fe 01       	movw	r30, r28
    64fa:	e8 0d       	add	r30, r8
    64fc:	f1 1d       	adc	r31, r1
    64fe:	80 81       	ld	r24, Z
    6500:	80 33       	cpi	r24, 0x30	; 48
    6502:	21 f4       	brne	.+8      	; 0x650c <vfprintf+0x2de>
    6504:	9a 2d       	mov	r25, r10
    6506:	99 7e       	andi	r25, 0xE9	; 233
    6508:	a9 2e       	mov	r10, r25
    650a:	09 c0       	rjmp	.+18     	; 0x651e <vfprintf+0x2f0>
    650c:	a2 fe       	sbrs	r10, 2
    650e:	06 c0       	rjmp	.+12     	; 0x651c <vfprintf+0x2ee>
    6510:	b3 94       	inc	r11
    6512:	b3 94       	inc	r11
    6514:	04 c0       	rjmp	.+8      	; 0x651e <vfprintf+0x2f0>
    6516:	8a 2d       	mov	r24, r10
    6518:	86 78       	andi	r24, 0x86	; 134
    651a:	09 f0       	breq	.+2      	; 0x651e <vfprintf+0x2f0>
    651c:	b3 94       	inc	r11
    651e:	a3 fc       	sbrc	r10, 3
    6520:	10 c0       	rjmp	.+32     	; 0x6542 <vfprintf+0x314>
    6522:	a0 fe       	sbrs	r10, 0
    6524:	06 c0       	rjmp	.+12     	; 0x6532 <vfprintf+0x304>
    6526:	b2 14       	cp	r11, r2
    6528:	80 f4       	brcc	.+32     	; 0x654a <vfprintf+0x31c>
    652a:	28 0c       	add	r2, r8
    652c:	92 2c       	mov	r9, r2
    652e:	9b 18       	sub	r9, r11
    6530:	0d c0       	rjmp	.+26     	; 0x654c <vfprintf+0x31e>
    6532:	b2 14       	cp	r11, r2
    6534:	58 f4       	brcc	.+22     	; 0x654c <vfprintf+0x31e>
    6536:	b6 01       	movw	r22, r12
    6538:	80 e2       	ldi	r24, 0x20	; 32
    653a:	90 e0       	ldi	r25, 0x00	; 0
    653c:	70 d0       	rcall	.+224    	; 0x661e <fputc>
    653e:	b3 94       	inc	r11
    6540:	f8 cf       	rjmp	.-16     	; 0x6532 <vfprintf+0x304>
    6542:	b2 14       	cp	r11, r2
    6544:	18 f4       	brcc	.+6      	; 0x654c <vfprintf+0x31e>
    6546:	2b 18       	sub	r2, r11
    6548:	02 c0       	rjmp	.+4      	; 0x654e <vfprintf+0x320>
    654a:	98 2c       	mov	r9, r8
    654c:	21 2c       	mov	r2, r1
    654e:	a4 fe       	sbrs	r10, 4
    6550:	0f c0       	rjmp	.+30     	; 0x6570 <vfprintf+0x342>
    6552:	b6 01       	movw	r22, r12
    6554:	80 e3       	ldi	r24, 0x30	; 48
    6556:	90 e0       	ldi	r25, 0x00	; 0
    6558:	62 d0       	rcall	.+196    	; 0x661e <fputc>
    655a:	a2 fe       	sbrs	r10, 2
    655c:	16 c0       	rjmp	.+44     	; 0x658a <vfprintf+0x35c>
    655e:	a1 fc       	sbrc	r10, 1
    6560:	03 c0       	rjmp	.+6      	; 0x6568 <vfprintf+0x33a>
    6562:	88 e7       	ldi	r24, 0x78	; 120
    6564:	90 e0       	ldi	r25, 0x00	; 0
    6566:	02 c0       	rjmp	.+4      	; 0x656c <vfprintf+0x33e>
    6568:	88 e5       	ldi	r24, 0x58	; 88
    656a:	90 e0       	ldi	r25, 0x00	; 0
    656c:	b6 01       	movw	r22, r12
    656e:	0c c0       	rjmp	.+24     	; 0x6588 <vfprintf+0x35a>
    6570:	8a 2d       	mov	r24, r10
    6572:	86 78       	andi	r24, 0x86	; 134
    6574:	51 f0       	breq	.+20     	; 0x658a <vfprintf+0x35c>
    6576:	a1 fe       	sbrs	r10, 1
    6578:	02 c0       	rjmp	.+4      	; 0x657e <vfprintf+0x350>
    657a:	8b e2       	ldi	r24, 0x2B	; 43
    657c:	01 c0       	rjmp	.+2      	; 0x6580 <vfprintf+0x352>
    657e:	80 e2       	ldi	r24, 0x20	; 32
    6580:	a7 fc       	sbrc	r10, 7
    6582:	8d e2       	ldi	r24, 0x2D	; 45
    6584:	b6 01       	movw	r22, r12
    6586:	90 e0       	ldi	r25, 0x00	; 0
    6588:	4a d0       	rcall	.+148    	; 0x661e <fputc>
    658a:	89 14       	cp	r8, r9
    658c:	30 f4       	brcc	.+12     	; 0x659a <vfprintf+0x36c>
    658e:	b6 01       	movw	r22, r12
    6590:	80 e3       	ldi	r24, 0x30	; 48
    6592:	90 e0       	ldi	r25, 0x00	; 0
    6594:	44 d0       	rcall	.+136    	; 0x661e <fputc>
    6596:	9a 94       	dec	r9
    6598:	f8 cf       	rjmp	.-16     	; 0x658a <vfprintf+0x35c>
    659a:	8a 94       	dec	r8
    659c:	f3 01       	movw	r30, r6
    659e:	e8 0d       	add	r30, r8
    65a0:	f1 1d       	adc	r31, r1
    65a2:	80 81       	ld	r24, Z
    65a4:	b6 01       	movw	r22, r12
    65a6:	90 e0       	ldi	r25, 0x00	; 0
    65a8:	3a d0       	rcall	.+116    	; 0x661e <fputc>
    65aa:	81 10       	cpse	r8, r1
    65ac:	f6 cf       	rjmp	.-20     	; 0x659a <vfprintf+0x36c>
    65ae:	22 20       	and	r2, r2
    65b0:	09 f4       	brne	.+2      	; 0x65b4 <vfprintf+0x386>
    65b2:	4e ce       	rjmp	.-868    	; 0x6250 <vfprintf+0x22>
    65b4:	b6 01       	movw	r22, r12
    65b6:	80 e2       	ldi	r24, 0x20	; 32
    65b8:	90 e0       	ldi	r25, 0x00	; 0
    65ba:	31 d0       	rcall	.+98     	; 0x661e <fputc>
    65bc:	2a 94       	dec	r2
    65be:	f7 cf       	rjmp	.-18     	; 0x65ae <vfprintf+0x380>
    65c0:	f6 01       	movw	r30, r12
    65c2:	86 81       	ldd	r24, Z+6	; 0x06
    65c4:	97 81       	ldd	r25, Z+7	; 0x07
    65c6:	02 c0       	rjmp	.+4      	; 0x65cc <vfprintf+0x39e>
    65c8:	8f ef       	ldi	r24, 0xFF	; 255
    65ca:	9f ef       	ldi	r25, 0xFF	; 255
    65cc:	2b 96       	adiw	r28, 0x0b	; 11
    65ce:	e2 e1       	ldi	r30, 0x12	; 18
    65d0:	1d c1       	rjmp	.+570    	; 0x680c <__epilogue_restores__>

000065d2 <strnlen_P>:
    65d2:	fc 01       	movw	r30, r24
    65d4:	05 90       	lpm	r0, Z+
    65d6:	61 50       	subi	r22, 0x01	; 1
    65d8:	70 40       	sbci	r23, 0x00	; 0
    65da:	01 10       	cpse	r0, r1
    65dc:	d8 f7       	brcc	.-10     	; 0x65d4 <strnlen_P+0x2>
    65de:	80 95       	com	r24
    65e0:	90 95       	com	r25
    65e2:	8e 0f       	add	r24, r30
    65e4:	9f 1f       	adc	r25, r31
    65e6:	08 95       	ret

000065e8 <strnlen>:
    65e8:	fc 01       	movw	r30, r24
    65ea:	61 50       	subi	r22, 0x01	; 1
    65ec:	70 40       	sbci	r23, 0x00	; 0
    65ee:	01 90       	ld	r0, Z+
    65f0:	01 10       	cpse	r0, r1
    65f2:	d8 f7       	brcc	.-10     	; 0x65ea <strnlen+0x2>
    65f4:	80 95       	com	r24
    65f6:	90 95       	com	r25
    65f8:	8e 0f       	add	r24, r30
    65fa:	9f 1f       	adc	r25, r31
    65fc:	08 95       	ret

000065fe <strrev>:
    65fe:	dc 01       	movw	r26, r24
    6600:	fc 01       	movw	r30, r24
    6602:	67 2f       	mov	r22, r23
    6604:	71 91       	ld	r23, Z+
    6606:	77 23       	and	r23, r23
    6608:	e1 f7       	brne	.-8      	; 0x6602 <strrev+0x4>
    660a:	32 97       	sbiw	r30, 0x02	; 2
    660c:	04 c0       	rjmp	.+8      	; 0x6616 <strrev+0x18>
    660e:	7c 91       	ld	r23, X
    6610:	6d 93       	st	X+, r22
    6612:	70 83       	st	Z, r23
    6614:	62 91       	ld	r22, -Z
    6616:	ae 17       	cp	r26, r30
    6618:	bf 07       	cpc	r27, r31
    661a:	c8 f3       	brcs	.-14     	; 0x660e <strrev+0x10>
    661c:	08 95       	ret

0000661e <fputc>:
    661e:	0f 93       	push	r16
    6620:	1f 93       	push	r17
    6622:	cf 93       	push	r28
    6624:	df 93       	push	r29
    6626:	fb 01       	movw	r30, r22
    6628:	23 81       	ldd	r18, Z+3	; 0x03
    662a:	21 fd       	sbrc	r18, 1
    662c:	03 c0       	rjmp	.+6      	; 0x6634 <fputc+0x16>
    662e:	8f ef       	ldi	r24, 0xFF	; 255
    6630:	9f ef       	ldi	r25, 0xFF	; 255
    6632:	2c c0       	rjmp	.+88     	; 0x668c <fputc+0x6e>
    6634:	22 ff       	sbrs	r18, 2
    6636:	16 c0       	rjmp	.+44     	; 0x6664 <fputc+0x46>
    6638:	46 81       	ldd	r20, Z+6	; 0x06
    663a:	57 81       	ldd	r21, Z+7	; 0x07
    663c:	24 81       	ldd	r18, Z+4	; 0x04
    663e:	35 81       	ldd	r19, Z+5	; 0x05
    6640:	42 17       	cp	r20, r18
    6642:	53 07       	cpc	r21, r19
    6644:	44 f4       	brge	.+16     	; 0x6656 <fputc+0x38>
    6646:	a0 81       	ld	r26, Z
    6648:	b1 81       	ldd	r27, Z+1	; 0x01
    664a:	9d 01       	movw	r18, r26
    664c:	2f 5f       	subi	r18, 0xFF	; 255
    664e:	3f 4f       	sbci	r19, 0xFF	; 255
    6650:	31 83       	std	Z+1, r19	; 0x01
    6652:	20 83       	st	Z, r18
    6654:	8c 93       	st	X, r24
    6656:	26 81       	ldd	r18, Z+6	; 0x06
    6658:	37 81       	ldd	r19, Z+7	; 0x07
    665a:	2f 5f       	subi	r18, 0xFF	; 255
    665c:	3f 4f       	sbci	r19, 0xFF	; 255
    665e:	37 83       	std	Z+7, r19	; 0x07
    6660:	26 83       	std	Z+6, r18	; 0x06
    6662:	14 c0       	rjmp	.+40     	; 0x668c <fputc+0x6e>
    6664:	8b 01       	movw	r16, r22
    6666:	ec 01       	movw	r28, r24
    6668:	fb 01       	movw	r30, r22
    666a:	00 84       	ldd	r0, Z+8	; 0x08
    666c:	f1 85       	ldd	r31, Z+9	; 0x09
    666e:	e0 2d       	mov	r30, r0
    6670:	09 95       	icall
    6672:	89 2b       	or	r24, r25
    6674:	e1 f6       	brne	.-72     	; 0x662e <fputc+0x10>
    6676:	d8 01       	movw	r26, r16
    6678:	16 96       	adiw	r26, 0x06	; 6
    667a:	8d 91       	ld	r24, X+
    667c:	9c 91       	ld	r25, X
    667e:	17 97       	sbiw	r26, 0x07	; 7
    6680:	01 96       	adiw	r24, 0x01	; 1
    6682:	17 96       	adiw	r26, 0x07	; 7
    6684:	9c 93       	st	X, r25
    6686:	8e 93       	st	-X, r24
    6688:	16 97       	sbiw	r26, 0x06	; 6
    668a:	ce 01       	movw	r24, r28
    668c:	df 91       	pop	r29
    668e:	cf 91       	pop	r28
    6690:	1f 91       	pop	r17
    6692:	0f 91       	pop	r16
    6694:	08 95       	ret

00006696 <__ultoa_invert>:
    6696:	fa 01       	movw	r30, r20
    6698:	aa 27       	eor	r26, r26
    669a:	28 30       	cpi	r18, 0x08	; 8
    669c:	51 f1       	breq	.+84     	; 0x66f2 <__ultoa_invert+0x5c>
    669e:	20 31       	cpi	r18, 0x10	; 16
    66a0:	81 f1       	breq	.+96     	; 0x6702 <__ultoa_invert+0x6c>
    66a2:	e8 94       	clt
    66a4:	6f 93       	push	r22
    66a6:	6e 7f       	andi	r22, 0xFE	; 254
    66a8:	6e 5f       	subi	r22, 0xFE	; 254
    66aa:	7f 4f       	sbci	r23, 0xFF	; 255
    66ac:	8f 4f       	sbci	r24, 0xFF	; 255
    66ae:	9f 4f       	sbci	r25, 0xFF	; 255
    66b0:	af 4f       	sbci	r26, 0xFF	; 255
    66b2:	b1 e0       	ldi	r27, 0x01	; 1
    66b4:	3e d0       	rcall	.+124    	; 0x6732 <__ultoa_invert+0x9c>
    66b6:	b4 e0       	ldi	r27, 0x04	; 4
    66b8:	3c d0       	rcall	.+120    	; 0x6732 <__ultoa_invert+0x9c>
    66ba:	67 0f       	add	r22, r23
    66bc:	78 1f       	adc	r23, r24
    66be:	89 1f       	adc	r24, r25
    66c0:	9a 1f       	adc	r25, r26
    66c2:	a1 1d       	adc	r26, r1
    66c4:	68 0f       	add	r22, r24
    66c6:	79 1f       	adc	r23, r25
    66c8:	8a 1f       	adc	r24, r26
    66ca:	91 1d       	adc	r25, r1
    66cc:	a1 1d       	adc	r26, r1
    66ce:	6a 0f       	add	r22, r26
    66d0:	71 1d       	adc	r23, r1
    66d2:	81 1d       	adc	r24, r1
    66d4:	91 1d       	adc	r25, r1
    66d6:	a1 1d       	adc	r26, r1
    66d8:	20 d0       	rcall	.+64     	; 0x671a <__ultoa_invert+0x84>
    66da:	09 f4       	brne	.+2      	; 0x66de <__ultoa_invert+0x48>
    66dc:	68 94       	set
    66de:	3f 91       	pop	r19
    66e0:	2a e0       	ldi	r18, 0x0A	; 10
    66e2:	26 9f       	mul	r18, r22
    66e4:	11 24       	eor	r1, r1
    66e6:	30 19       	sub	r19, r0
    66e8:	30 5d       	subi	r19, 0xD0	; 208
    66ea:	31 93       	st	Z+, r19
    66ec:	de f6       	brtc	.-74     	; 0x66a4 <__ultoa_invert+0xe>
    66ee:	cf 01       	movw	r24, r30
    66f0:	08 95       	ret
    66f2:	46 2f       	mov	r20, r22
    66f4:	47 70       	andi	r20, 0x07	; 7
    66f6:	40 5d       	subi	r20, 0xD0	; 208
    66f8:	41 93       	st	Z+, r20
    66fa:	b3 e0       	ldi	r27, 0x03	; 3
    66fc:	0f d0       	rcall	.+30     	; 0x671c <__ultoa_invert+0x86>
    66fe:	c9 f7       	brne	.-14     	; 0x66f2 <__ultoa_invert+0x5c>
    6700:	f6 cf       	rjmp	.-20     	; 0x66ee <__ultoa_invert+0x58>
    6702:	46 2f       	mov	r20, r22
    6704:	4f 70       	andi	r20, 0x0F	; 15
    6706:	40 5d       	subi	r20, 0xD0	; 208
    6708:	4a 33       	cpi	r20, 0x3A	; 58
    670a:	18 f0       	brcs	.+6      	; 0x6712 <__ultoa_invert+0x7c>
    670c:	49 5d       	subi	r20, 0xD9	; 217
    670e:	31 fd       	sbrc	r19, 1
    6710:	40 52       	subi	r20, 0x20	; 32
    6712:	41 93       	st	Z+, r20
    6714:	02 d0       	rcall	.+4      	; 0x671a <__ultoa_invert+0x84>
    6716:	a9 f7       	brne	.-22     	; 0x6702 <__ultoa_invert+0x6c>
    6718:	ea cf       	rjmp	.-44     	; 0x66ee <__ultoa_invert+0x58>
    671a:	b4 e0       	ldi	r27, 0x04	; 4
    671c:	a6 95       	lsr	r26
    671e:	97 95       	ror	r25
    6720:	87 95       	ror	r24
    6722:	77 95       	ror	r23
    6724:	67 95       	ror	r22
    6726:	ba 95       	dec	r27
    6728:	c9 f7       	brne	.-14     	; 0x671c <__ultoa_invert+0x86>
    672a:	00 97       	sbiw	r24, 0x00	; 0
    672c:	61 05       	cpc	r22, r1
    672e:	71 05       	cpc	r23, r1
    6730:	08 95       	ret
    6732:	9b 01       	movw	r18, r22
    6734:	ac 01       	movw	r20, r24
    6736:	0a 2e       	mov	r0, r26
    6738:	06 94       	lsr	r0
    673a:	57 95       	ror	r21
    673c:	47 95       	ror	r20
    673e:	37 95       	ror	r19
    6740:	27 95       	ror	r18
    6742:	ba 95       	dec	r27
    6744:	c9 f7       	brne	.-14     	; 0x6738 <__ultoa_invert+0xa2>
    6746:	62 0f       	add	r22, r18
    6748:	73 1f       	adc	r23, r19
    674a:	84 1f       	adc	r24, r20
    674c:	95 1f       	adc	r25, r21
    674e:	a0 1d       	adc	r26, r0
    6750:	08 95       	ret

00006752 <eeprom_read_block>:
    6752:	dc 01       	movw	r26, r24
    6754:	cb 01       	movw	r24, r22

00006756 <eeprom_read_blraw>:
    6756:	fc 01       	movw	r30, r24
    6758:	e1 99       	sbic	0x1c, 1	; 28
    675a:	fe cf       	rjmp	.-4      	; 0x6758 <eeprom_read_blraw+0x2>
    675c:	06 c0       	rjmp	.+12     	; 0x676a <eeprom_read_blraw+0x14>
    675e:	ff bb       	out	0x1f, r31	; 31
    6760:	ee bb       	out	0x1e, r30	; 30
    6762:	e0 9a       	sbi	0x1c, 0	; 28
    6764:	31 96       	adiw	r30, 0x01	; 1
    6766:	0d b2       	in	r0, 0x1d	; 29
    6768:	0d 92       	st	X+, r0
    676a:	41 50       	subi	r20, 0x01	; 1
    676c:	50 40       	sbci	r21, 0x00	; 0
    676e:	b8 f7       	brcc	.-18     	; 0x675e <eeprom_read_blraw+0x8>
    6770:	08 95       	ret

00006772 <eeprom_read_byte>:
    6772:	e1 99       	sbic	0x1c, 1	; 28
    6774:	fe cf       	rjmp	.-4      	; 0x6772 <eeprom_read_byte>
    6776:	9f bb       	out	0x1f, r25	; 31
    6778:	8e bb       	out	0x1e, r24	; 30
    677a:	e0 9a       	sbi	0x1c, 0	; 28
    677c:	99 27       	eor	r25, r25
    677e:	8d b3       	in	r24, 0x1d	; 29
    6780:	08 95       	ret

00006782 <eeprom_read_word>:
    6782:	a8 e1       	ldi	r26, 0x18	; 24
    6784:	b0 e0       	ldi	r27, 0x00	; 0
    6786:	42 e0       	ldi	r20, 0x02	; 2
    6788:	50 e0       	ldi	r21, 0x00	; 0
    678a:	e5 cf       	rjmp	.-54     	; 0x6756 <eeprom_read_blraw>

0000678c <eeprom_update_block>:
    678c:	dc 01       	movw	r26, r24
    678e:	a4 0f       	add	r26, r20
    6790:	b5 1f       	adc	r27, r21
    6792:	41 50       	subi	r20, 0x01	; 1
    6794:	50 40       	sbci	r21, 0x00	; 0
    6796:	40 f0       	brcs	.+16     	; 0x67a8 <eeprom_update_block+0x1c>
    6798:	cb 01       	movw	r24, r22
    679a:	84 0f       	add	r24, r20
    679c:	95 1f       	adc	r25, r21
    679e:	2e 91       	ld	r18, -X
    67a0:	05 d0       	rcall	.+10     	; 0x67ac <eeprom_update_r18>
    67a2:	41 50       	subi	r20, 0x01	; 1
    67a4:	50 40       	sbci	r21, 0x00	; 0
    67a6:	d8 f7       	brcc	.-10     	; 0x679e <eeprom_update_block+0x12>
    67a8:	08 95       	ret

000067aa <eeprom_update_byte>:
    67aa:	26 2f       	mov	r18, r22

000067ac <eeprom_update_r18>:
    67ac:	e1 99       	sbic	0x1c, 1	; 28
    67ae:	fe cf       	rjmp	.-4      	; 0x67ac <eeprom_update_r18>
    67b0:	9f bb       	out	0x1f, r25	; 31
    67b2:	8e bb       	out	0x1e, r24	; 30
    67b4:	e0 9a       	sbi	0x1c, 0	; 28
    67b6:	01 97       	sbiw	r24, 0x01	; 1
    67b8:	0d b2       	in	r0, 0x1d	; 29
    67ba:	02 16       	cp	r0, r18
    67bc:	31 f0       	breq	.+12     	; 0x67ca <eeprom_update_r18+0x1e>
    67be:	2d bb       	out	0x1d, r18	; 29
    67c0:	0f b6       	in	r0, 0x3f	; 63
    67c2:	f8 94       	cli
    67c4:	e2 9a       	sbi	0x1c, 2	; 28
    67c6:	e1 9a       	sbi	0x1c, 1	; 28
    67c8:	0f be       	out	0x3f, r0	; 63
    67ca:	08 95       	ret

000067cc <eeprom_update_word>:
    67cc:	01 96       	adiw	r24, 0x01	; 1
    67ce:	27 2f       	mov	r18, r23
    67d0:	ed df       	rcall	.-38     	; 0x67ac <eeprom_update_r18>
    67d2:	eb cf       	rjmp	.-42     	; 0x67aa <eeprom_update_byte>

000067d4 <__prologue_saves__>:
    67d4:	2f 92       	push	r2
    67d6:	3f 92       	push	r3
    67d8:	4f 92       	push	r4
    67da:	5f 92       	push	r5
    67dc:	6f 92       	push	r6
    67de:	7f 92       	push	r7
    67e0:	8f 92       	push	r8
    67e2:	9f 92       	push	r9
    67e4:	af 92       	push	r10
    67e6:	bf 92       	push	r11
    67e8:	cf 92       	push	r12
    67ea:	df 92       	push	r13
    67ec:	ef 92       	push	r14
    67ee:	ff 92       	push	r15
    67f0:	0f 93       	push	r16
    67f2:	1f 93       	push	r17
    67f4:	cf 93       	push	r28
    67f6:	df 93       	push	r29
    67f8:	cd b7       	in	r28, 0x3d	; 61
    67fa:	de b7       	in	r29, 0x3e	; 62
    67fc:	ca 1b       	sub	r28, r26
    67fe:	db 0b       	sbc	r29, r27
    6800:	0f b6       	in	r0, 0x3f	; 63
    6802:	f8 94       	cli
    6804:	de bf       	out	0x3e, r29	; 62
    6806:	0f be       	out	0x3f, r0	; 63
    6808:	cd bf       	out	0x3d, r28	; 61
    680a:	09 94       	ijmp

0000680c <__epilogue_restores__>:
    680c:	2a 88       	ldd	r2, Y+18	; 0x12
    680e:	39 88       	ldd	r3, Y+17	; 0x11
    6810:	48 88       	ldd	r4, Y+16	; 0x10
    6812:	5f 84       	ldd	r5, Y+15	; 0x0f
    6814:	6e 84       	ldd	r6, Y+14	; 0x0e
    6816:	7d 84       	ldd	r7, Y+13	; 0x0d
    6818:	8c 84       	ldd	r8, Y+12	; 0x0c
    681a:	9b 84       	ldd	r9, Y+11	; 0x0b
    681c:	aa 84       	ldd	r10, Y+10	; 0x0a
    681e:	b9 84       	ldd	r11, Y+9	; 0x09
    6820:	c8 84       	ldd	r12, Y+8	; 0x08
    6822:	df 80       	ldd	r13, Y+7	; 0x07
    6824:	ee 80       	ldd	r14, Y+6	; 0x06
    6826:	fd 80       	ldd	r15, Y+5	; 0x05
    6828:	0c 81       	ldd	r16, Y+4	; 0x04
    682a:	1b 81       	ldd	r17, Y+3	; 0x03
    682c:	aa 81       	ldd	r26, Y+2	; 0x02
    682e:	b9 81       	ldd	r27, Y+1	; 0x01
    6830:	ce 0f       	add	r28, r30
    6832:	d1 1d       	adc	r29, r1
    6834:	0f b6       	in	r0, 0x3f	; 63
    6836:	f8 94       	cli
    6838:	de bf       	out	0x3e, r29	; 62
    683a:	0f be       	out	0x3f, r0	; 63
    683c:	cd bf       	out	0x3d, r28	; 61
    683e:	ed 01       	movw	r28, r26
    6840:	08 95       	ret

00006842 <_exit>:
    6842:	f8 94       	cli

00006844 <__stop_program>:
    6844:	ff cf       	rjmp	.-2      	; 0x6844 <__stop_program>
