
futes_vezerlo.elf:     file format elf32-avr

Sections:
Idx Name          Size      VMA       LMA       File off  Algn
  0 .data         000004a6  00800100  00004620  000046d4  2**0
                  CONTENTS, ALLOC, LOAD, DATA
  1 .text         00004620  00000000  00000000  000000b4  2**1
                  CONTENTS, ALLOC, LOAD, READONLY, CODE
  2 .bss          0000013f  008005a6  008005a6  00004b7a  2**0
                  ALLOC
  3 .eeprom       00000019  00810000  00810000  00004b7a  2**0
                  CONTENTS, ALLOC, LOAD, DATA
  4 .comment      00000030  00000000  00000000  00004b93  2**0
                  CONTENTS, READONLY
  5 .note.gnu.avr.deviceinfo 0000003c  00000000  00000000  00004bc4  2**2
                  CONTENTS, READONLY
  6 .debug_aranges 00000788  00000000  00000000  00004c00  2**3
                  CONTENTS, READONLY, DEBUGGING
  7 .debug_info   000097ea  00000000  00000000  00005388  2**0
                  CONTENTS, READONLY, DEBUGGING
  8 .debug_abbrev 00001de6  00000000  00000000  0000eb72  2**0
                  CONTENTS, READONLY, DEBUGGING
  9 .debug_line   000045fa  00000000  00000000  00010958  2**0
                  CONTENTS, READONLY, DEBUGGING
 10 .debug_frame  000013e0  00000000  00000000  00014f54  2**2
                  CONTENTS, READONLY, DEBUGGING
 11 .debug_str    00001fad  00000000  00000000  00016334  2**0
                  CONTENTS, READONLY, DEBUGGING
 12 .debug_loc    00006ee6  00000000  00000000  000182e1  2**0
                  CONTENTS, READONLY, DEBUGGING
 13 .debug_ranges 00000750  00000000  00000000  0001f1c7  2**0
                  CONTENTS, READONLY, DEBUGGING

Disassembly of section .text:

00000000 <__vectors>:
       0:	0c 94 ab 03 	jmp	0x756	; 0x756 <__ctors_end>
       4:	0c 94 c8 03 	jmp	0x790	; 0x790 <__bad_interrupt>
       8:	0c 94 c8 03 	jmp	0x790	; 0x790 <__bad_interrupt>
       c:	0c 94 c8 03 	jmp	0x790	; 0x790 <__bad_interrupt>
      10:	0c 94 c8 03 	jmp	0x790	; 0x790 <__bad_interrupt>
      14:	0c 94 c8 03 	jmp	0x790	; 0x790 <__bad_interrupt>
      18:	0c 94 c8 03 	jmp	0x790	; 0x790 <__bad_interrupt>
      1c:	0c 94 c8 03 	jmp	0x790	; 0x790 <__bad_interrupt>
      20:	0c 94 c8 03 	jmp	0x790	; 0x790 <__bad_interrupt>
      24:	0c 94 c8 03 	jmp	0x790	; 0x790 <__bad_interrupt>
      28:	0c 94 c8 03 	jmp	0x790	; 0x790 <__bad_interrupt>
      2c:	0c 94 c8 03 	jmp	0x790	; 0x790 <__bad_interrupt>
      30:	0c 94 e7 0a 	jmp	0x15ce	; 0x15ce <__vector_12>
      34:	0c 94 c8 03 	jmp	0x790	; 0x790 <__bad_interrupt>
      38:	0c 94 c8 03 	jmp	0x790	; 0x790 <__bad_interrupt>
      3c:	0c 94 c8 03 	jmp	0x790	; 0x790 <__bad_interrupt>
      40:	0c 94 c8 03 	jmp	0x790	; 0x790 <__bad_interrupt>
      44:	0c 94 c8 03 	jmp	0x790	; 0x790 <__bad_interrupt>
      48:	0c 94 c7 1e 	jmp	0x3d8e	; 0x3d8e <__vector_18>
      4c:	0c 94 f3 1e 	jmp	0x3de6	; 0x3de6 <__vector_19>
      50:	0c 94 c8 03 	jmp	0x790	; 0x790 <__bad_interrupt>
      54:	0c 94 c8 0a 	jmp	0x1590	; 0x1590 <__vector_21>
      58:	0c 94 c8 03 	jmp	0x790	; 0x790 <__bad_interrupt>
      5c:	0c 94 c8 03 	jmp	0x790	; 0x790 <__bad_interrupt>
      60:	0c 94 c8 03 	jmp	0x790	; 0x790 <__bad_interrupt>
      64:	0c 94 c8 03 	jmp	0x790	; 0x790 <__bad_interrupt>
      68:	0c 94 c8 03 	jmp	0x790	; 0x790 <__bad_interrupt>
      6c:	0c 94 c8 03 	jmp	0x790	; 0x790 <__bad_interrupt>
      70:	0c 94 c8 03 	jmp	0x790	; 0x790 <__bad_interrupt>
      74:	0c 94 c8 03 	jmp	0x790	; 0x790 <__bad_interrupt>
      78:	0c 94 60 1f 	jmp	0x3ec0	; 0x3ec0 <__vector_30>
      7c:	0c 94 8e 1f 	jmp	0x3f1c	; 0x3f1c <__vector_31>
      80:	0c 94 c8 03 	jmp	0x790	; 0x790 <__bad_interrupt>
      84:	0c 94 c8 03 	jmp	0x790	; 0x790 <__bad_interrupt>
      88:	0c 94 c8 03 	jmp	0x790	; 0x790 <__bad_interrupt>
      8c:	74 0a       	sbc	r7, r20
      8e:	81 0a       	sbc	r8, r17
      90:	81 0a       	sbc	r8, r17
      92:	81 0a       	sbc	r8, r17
      94:	81 0a       	sbc	r8, r17
      96:	81 0a       	sbc	r8, r17
      98:	81 0a       	sbc	r8, r17
      9a:	81 0a       	sbc	r8, r17
      9c:	76 0a       	sbc	r7, r22
      9e:	81 0a       	sbc	r8, r17
      a0:	81 0a       	sbc	r8, r17
      a2:	81 0a       	sbc	r8, r17
      a4:	78 0a       	sbc	r7, r24
      a6:	81 0a       	sbc	r8, r17
      a8:	81 0a       	sbc	r8, r17
      aa:	81 0a       	sbc	r8, r17
      ac:	81 0a       	sbc	r8, r17
      ae:	81 0a       	sbc	r8, r17
      b0:	7a 0a       	sbc	r7, r26
      b2:	81 0a       	sbc	r8, r17
      b4:	7c 0a       	sbc	r7, r28
      b6:	70 0a       	sbc	r7, r16
      b8:	81 0a       	sbc	r8, r17
      ba:	81 0a       	sbc	r8, r17
      bc:	81 0a       	sbc	r8, r17
      be:	7e 0a       	sbc	r7, r30
      c0:	80 0a       	sbc	r8, r16
      c2:	72 0a       	sbc	r7, r18
      c4:	81 0a       	sbc	r8, r17
      c6:	81 0a       	sbc	r8, r17
      c8:	81 0a       	sbc	r8, r17
      ca:	81 0a       	sbc	r8, r17
      cc:	74 0a       	sbc	r7, r20
      ce:	81 0a       	sbc	r8, r17
      d0:	81 0a       	sbc	r8, r17
      d2:	81 0a       	sbc	r8, r17
      d4:	81 0a       	sbc	r8, r17
      d6:	81 0a       	sbc	r8, r17
      d8:	81 0a       	sbc	r8, r17
      da:	81 0a       	sbc	r8, r17
      dc:	76 0a       	sbc	r7, r22
      de:	81 0a       	sbc	r8, r17
      e0:	81 0a       	sbc	r8, r17
      e2:	81 0a       	sbc	r8, r17
      e4:	78 0a       	sbc	r7, r24
      e6:	81 0a       	sbc	r8, r17
      e8:	81 0a       	sbc	r8, r17
      ea:	81 0a       	sbc	r8, r17
      ec:	81 0a       	sbc	r8, r17
      ee:	81 0a       	sbc	r8, r17
      f0:	7a 0a       	sbc	r7, r26
      f2:	81 0a       	sbc	r8, r17
      f4:	7c 0a       	sbc	r7, r28
      f6:	70 0a       	sbc	r7, r16
      f8:	81 0a       	sbc	r8, r17
      fa:	81 0a       	sbc	r8, r17
      fc:	81 0a       	sbc	r8, r17
      fe:	7e 0a       	sbc	r7, r30
     100:	80 0a       	sbc	r8, r16
     102:	72 0a       	sbc	r7, r18
     104:	38 0d       	add	r19, r8
     106:	3d 0d       	add	r19, r13
     108:	42 0d       	add	r20, r2
     10a:	47 0d       	add	r20, r7
     10c:	4c 0d       	add	r20, r12
     10e:	51 0d       	add	r21, r1
     110:	56 0d       	add	r21, r6
     112:	48 11       	cpse	r20, r8
     114:	79 11       	cpse	r23, r9
     116:	48 11       	cpse	r20, r8
     118:	4a 11       	cpse	r20, r10
     11a:	48 11       	cpse	r20, r8
     11c:	4a 11       	cpse	r20, r10
     11e:	48 11       	cpse	r20, r8
     120:	48 11       	cpse	r20, r8
     122:	4a 11       	cpse	r20, r10
     124:	48 11       	cpse	r20, r8
     126:	4a 11       	cpse	r20, r10
     128:	48 11       	cpse	r20, r8
     12a:	91 13       	cpse	r25, r17
     12c:	96 13       	cpse	r25, r22
     12e:	9b 13       	cpse	r25, r27
     130:	a0 13       	cpse	r26, r16
     132:	a5 13       	cpse	r26, r21
     134:	aa 13       	cpse	r26, r26
     136:	af 13       	cpse	r26, r31

00000138 <__trampolines_end>:
     138:	43 6f       	ori	r20, 0xF3	; 243
     13a:	75 6c       	ori	r23, 0xC5	; 197
     13c:	64 20       	and	r6, r4
     13e:	6e 6f       	ori	r22, 0xFE	; 254
     140:	74 20       	and	r7, r4
     142:	63 6f       	ori	r22, 0xF3	; 243
     144:	6e 6e       	ori	r22, 0xEE	; 238
     146:	65 63       	ori	r22, 0x35	; 53
     148:	74 20       	and	r7, r4
     14a:	74 6f       	ori	r23, 0xF4	; 244
     14c:	20 73       	andi	r18, 0x30	; 48
     14e:	65 6e       	ori	r22, 0xE5	; 229
     150:	73 6f       	ori	r23, 0xF3	; 243
     152:	72 00       	.word	0x0072	; ????

00000154 <magyar_betuk>:
     154:	02 04 0e 01 0f 11 0f 00 02 04 0e 11 1f 10 0e 00     ................
     164:	02 04 00 0c 04 04 0e 00 02 04 0e 11 11 11 0e 00     ................
     174:	05 0a 0e 11 11 11 0e 00 02 04 00 11 11 13 0d 00     ................
     184:	05 0a 00 11 11 13 0d 00                             ........

0000018c <__c.3092>:
     18c:	20 64 62 00                                          db.

00000190 <__c.3090>:
     190:	44 53 31 38 42 32 30 3a 20 00                       DS18B20: .

0000019a <__c.3088>:
     19a:	20 44 53 31 38 42 32 30 20 73 65 6e 73 6f 72 73      DS18B20 sensors
     1aa:	0a 00                                               ..

000001ac <__c.3086>:
     1ac:	46 6f 75 6e 64 20 00                                Found .

000001b3 <__c.3084>:
     1b3:	49 6e 74 65 72 72 75 70 74 20 65 6e 61 62 6c 65     Interrupt enable
     1c3:	64 0a 00                                            d..

000001c6 <__c.3082>:
     1c6:	42 4d 45 32 38 30 20 69 6e 64 ed 74 e1 73 00        BME280 ind.t.s.

000001d5 <__c.3080>:
     1d5:	49 32 43 20 69 6e 64 ed 74 e1 73 00                 I2C ind.t.s.

000001e1 <__c.3074>:
     1e1:	41 6c 61 70 e1 6c 6c 61 70 6f 74 62 61 20 e1 6c     Alap.llapotba .l
     1f1:	6c e1 73 00                                         l.s.

000001f5 <__c.3072>:
     1f5:	46 fb 74 e9 73 20 76 65 7a e9 72 6c e9 73 20 76     F.t.s vez.rl.s v
     205:	30 2e 39 00                                         0.9.

00000209 <__c.3058>:
     209:	42 75 73 20 65 72 72 6f 72 0a 00                    Bus error..

00000214 <__c.3055>:
     214:	4e 6f 20 73 65 6e 73 6f 72 20 66 6f 75 6e 64 0a     No sensor found.
	...

00000225 <__c.3053>:
     225:	42 75 73 20 73 63 61 6e 6e 69 6e 67 20 2e 2e 2e     Bus scanning ...
     235:	0a 00                                               ..

00000237 <__c.3044>:
     237:	47 41 53 20 61 6e 64 20 46 49 52 53 54 5f 46 4c     GAS and FIRST_FL
     247:	4f 4f 52 5f 56 41 4c 56 45 2c 20 53 45 43 4f 4e     OOR_VALVE, SECON
     257:	44 5f 46 4c 4f 4f 52 5f 56 41 4c 56 45 20 72 65     D_FLOOR_VALVE re
     267:	6c 61 79 20 64 65 61 63 74 69 76 61 74 65 64 0a     lay deactivated.
	...

00000278 <__c.3042>:
     278:	53 45 43 4f 4e 44 20 46 4c 4f 4f 52 20 64 65 61     SECOND FLOOR dea
     288:	63 74 69 76 61 74 65 64 0a 00                       ctivated..

00000292 <__c.3040>:
     292:	53 45 43 4f 4e 44 20 46 4c 4f 4f 52 20 61 63 74     SECOND FLOOR act
     2a2:	69 76 61 74 65 64 0a 00                             ivated..

000002aa <__c.3038>:
     2aa:	46 49 52 53 54 20 46 4c 4f 4f 52 20 64 65 61 63     FIRST FLOOR deac
     2ba:	74 69 76 61 74 65 64 0a 00                          tivated..

000002c3 <__c.3036>:
     2c3:	46 49 52 53 54 20 46 4c 4f 4f 52 20 61 63 74 69     FIRST FLOOR acti
     2d3:	76 61 74 65 64 0a 00                                vated..

000002da <__c.3034>:
     2da:	47 41 53 2c 20 44 48 57 20 64 65 61 63 74 69 76     GAS, DHW deactiv
     2ea:	61 74 65 64 3b 20 42 55 46 46 45 52 20 72 65 6c     ated; BUFFER rel
     2fa:	61 79 20 64 65 61 63 74 69 76 61 74 65 64 0a 00     ay deactivated..

0000030a <__c.3032>:
     30a:	47 41 53 20 61 63 74 69 76 61 74 65 64 3b 20 42     GAS activated; B
     31a:	55 46 46 45 52 2c 20 44 48 57 20 72 65 6c 61 79     UFFER, DHW relay
     32a:	20 64 65 61 63 74 69 76 61 74 65 64 0a 00            deactivated..

00000338 <__c.3030>:
     338:	44 48 57 20 72 65 6c 61 79 20 64 65 61 63 74 69     DHW relay deacti
     348:	76 61 74 65 64 0a 00                                vated..

0000034f <__c.3028>:
     34f:	44 48 57 20 72 65 6c 61 79 20 61 63 74 69 76 61     DHW relay activa
     35f:	74 65 64 20 77 69 74 68 20 62 75 66 66 65 72 0a     ted with buffer.
	...

00000370 <__c.3026>:
     370:	44 48 57 20 72 65 6c 61 79 20 61 63 74 69 76 61     DHW relay activa
     380:	74 65 64 20 77 69 74 68 20 67 61 73 0a 00           ted with gas..

0000038e <__c.3018>:
     38e:	46 f6 6c 64 2f 45 6d 65 6c 20 00                    F.ld/Emel .

00000399 <__c.3016>:
     399:	50 75 66 66 65 72 20 73 7a 2f 70 20 00              Puffer sz/p .

000003a6 <__c.3014>:
     3a6:	47 e1 7a 20 72 65 6c e9 20 00                       G.z rel. .

000003b0 <__c.3012>:
     3b0:	3a 00                                               :.

000003b2 <__c.3010>:
     3b2:	48 4d 56 20 73 7a 65 6c 65 70 20 00                 HMV szelep .

000003be <__c.3008>:
     3be:	76 61 73 e1 72 6e 61 70 00                          vas.rnap.

000003c7 <__c.3005>:
     3c7:	73 7a 6f 6d 62 61 74 00                             szombat.

000003cf <__c.3002>:
     3cf:	70 e9 6e 74 65 6b 00                                p.ntek.

000003d6 <__c.2999>:
     3d6:	63 73 fc 74 00                                      cs.t.

000003db <__c.2996>:
     3db:	73 7a 65 72 64 61 00                                szerda.

000003e2 <__c.2993>:
     3e2:	6b 65 64 64 00                                      kedd.

000003e7 <__c.2989>:
     3e7:	68 e9 74 66 f5 00                                   h.tf..

000003ed <__c.2986>:
     3ed:	2e 00                                               ..

000003ef <__c.2984>:
     3ef:	2e 00                                               ..

000003f1 <__c.2982>:
     3f1:	20 43 00                                             C.

000003f4 <__c.2980>:
     3f4:	2e 00                                               ..

000003f6 <__c.2978>:
     3f6:	50 61 64 6c f3 20 00                                Padl. .

000003fd <__c.2976>:
     3fd:	20 43 00                                             C.

00000400 <__c.2974>:
     400:	2e 00                                               ..

00000402 <__c.2972>:
     402:	4e 61 70 70 61 6c 69 20 00                          Nappali .

0000040b <__c.2970>:
     40b:	20 43 00                                             C.

0000040e <__c.2968>:
     40e:	2e 00                                               ..

00000410 <__c.2966>:
     410:	47 61 72 e1 7a 73 20 00                             Gar.zs .

00000418 <__c.2964>:
     418:	20 43 00                                             C.

0000041b <__c.2962>:
     41b:	4b fc 6c 73 f5 20 00                                K.ls. .

00000422 <__c.2960>:
     422:	20 43 00                                             C.

00000425 <__c.2958>:
     425:	2e 00                                               ..

00000427 <__c.2956>:
     427:	47 e9 70 68 e1 7a 20 00                             G.ph.z .

0000042f <__c.2954>:
     42f:	20 43 00                                             C.

00000432 <__c.2952>:
     432:	2e 00                                               ..

00000434 <__c.2950>:
     434:	50 75 66 66 65 72 20 00                             Puffer .

0000043c <__c.2948>:
     43c:	3a 00                                               :.

0000043e <__c.2946>:
     43e:	20 43 00                                             C.

00000441 <__c.2944>:
     441:	2e 00                                               ..

00000443 <__c.2942>:
     443:	48 4d 56 20 00                                      HMV .

00000448 <__c.2936>:
     448:	0a 00                                               ..

0000044a <__c.2934>:
     44a:	2e 00                                               ..

0000044c <__c.2930>:
     44c:	25 20 0a 00                                         % ..

00000450 <__c.2928>:
     450:	42 4d 45 32 38 30 20 48 75 6d 69 64 69 74 79 3a     BME280 Humidity:
     460:	20 00                                                .

00000462 <__c.2924>:
     462:	43 20 0a 00                                         C ..

00000466 <__c.2922>:
     466:	42 4d 45 32 38 30 20 54 65 6d 70 65 72 61 74 75     BME280 Temperatu
     476:	72 65 3a 20 00                                      re: .

0000047b <magyar_betuk>:
     47b:	02 04 0e 01 0f 11 0f 00 02 04 0e 11 1f 10 0e 00     ................
     48b:	02 04 00 0c 04 04 0e 00 02 04 0e 11 11 11 0e 00     ................
     49b:	05 0a 0e 11 11 11 0e 00 02 04 00 11 11 13 0d 00     ................
     4ab:	05 0a 00 11 11 13 0d 00                             ........

000004b3 <__c.3004>:
     4b3:	4b 6f 6d 66 6f 72 74 20 65 6c f5 72 65 6d 65 6e     Komfort el.remen
     4c3:	f5 00                                               ..

000004c5 <__c.2989>:
     4c5:	4b 6f 6d 66 6f 72 74 20 68 f5 6d 00                 Komfort h.m.

000004d1 <__c.2974>:
     4d1:	4b 6f 6d 66 6f 72 74 20 6d f3 64 00                 Komfort m.d.

000004dd <__c.2959>:
     4dd:	76 61 73 e1 72 6e 61 70 00                          vas.rnap.

000004e6 <__c.2956>:
     4e6:	73 7a 6f 6d 62 61 74 00                             szombat.

000004ee <__c.2953>:
     4ee:	70 e9 6e 74 65 6b 00                                p.ntek.

000004f5 <__c.2950>:
     4f5:	63 73 fc 74 f6 72 74 f6 6b 00                       cs.t.rt.k.

000004ff <__c.2947>:
     4ff:	73 7a 65 72 64 61 00                                szerda.

00000506 <__c.2944>:
     506:	6b 65 64 64 00                                      kedd.

0000050b <__c.2940>:
     50b:	68 e9 74 66 f5 00                                   h.tf..

00000511 <__c.2937>:
     511:	6e 61 70 20 6e e9 76 00                             nap n.v.

00000519 <__c.2922>:
     519:	6e 61 70 00                                         nap.

0000051d <__c.2907>:
     51d:	68 f3 6e 61 70 00                                   h.nap.

00000523 <__c.2892>:
     523:	e9 76 00                                            .v.

00000526 <__c.2877>:
     526:	70 65 72 63 00                                      perc.

0000052b <__c.2862>:
     52b:	f3 72 61 00                                         .ra.

0000052f <__c.2847>:
     52f:	53 7a 69 76 61 74 74 79 fa 20 75 74 e1 6e 66 75     Szivatty. ut.nfu
     53f:	74 e1 73 00                                         t.s.

00000543 <__c.2832>:
     543:	4c 43 44 20 68 e1 74 74 e9 72 00                    LCD h.tt.r.

0000054e <__c.2817>:
     54e:	4d 65 6e fc 20 69 64 f5 7a ed 74 f5 20 28 6d 70     Men. id.z.t. (mp
     55e:	29 00                                               ).

00000560 <__c.2802>:
     560:	54 65 73 7a 74 fc 7a 65 6d 00                       Teszt.zem.

0000056a <__c.2786>:
     56a:	50 61 64 6c f3 20 73 7a 65 6e 7a 6f 72 20 49 44     Padl. szenzor ID
	...

0000057b <__c.2773>:
     57b:	20 43 00                                             C.

0000057e <__c.2771>:
     57e:	2e 00                                               ..

00000580 <__c.2769>:
     580:	50 61 64 6c f3 20 61 6b 74 20 68 f5 6d 00           Padl. akt h.m.

0000058e <__c.2754>:
     58e:	4e 61 70 70 61 6c 69 20 73 7a 65 6e 7a 6f 72 20     Nappali szenzor 
     59e:	49 44 00                                            ID.

000005a1 <__c.2741>:
     5a1:	20 43 00                                             C.

000005a4 <__c.2739>:
     5a4:	2e 00                                               ..

000005a6 <__c.2737>:
     5a6:	4e 61 70 70 61 6c 69 20 61 6b 74 20 68 f5 6d 00     Nappali akt h.m.

000005b6 <__c.2722>:
     5b6:	47 61 72 e1 7a 73 20 73 7a 65 6e 7a 6f 72 20 49     Gar.zs szenzor I
     5c6:	44 00                                               D.

000005c8 <__c.2709>:
     5c8:	20 43 00                                             C.

000005cb <__c.2707>:
     5cb:	2e 00                                               ..

000005cd <__c.2705>:
     5cd:	47 61 72 e1 7a 73 20 61 6b 74 20 68 f5 6d 00        Gar.zs akt h.m.

000005dc <__c.2690>:
     5dc:	4b 69 00                                            Ki.

000005df <__c.2688>:
     5df:	42 65 00                                            Be.

000005e2 <__c.2686>:
     5e2:	47 e1 7a 20 e1 6c 6c 61 70 6f 74 00                 G.z .llapot.

000005ee <__c.2672>:
     5ee:	4b 69 00                                            Ki.

000005f1 <__c.2670>:
     5f1:	42 65 00                                            Be.

000005f4 <__c.2668>:
     5f4:	50 75 66 66 65 72 20 73 7a 69 76 61 74 74 79 fa     Puffer szivatty.
	...

00000605 <__c.2654>:
     605:	47 e1 7a 00                                         G.z.

00000609 <__c.2652>:
     609:	50 75 66 66 65 72 00                                Puffer.

00000610 <__c.2650>:
     610:	50 75 66 66 65 72 20 2f 20 67 e1 7a 20 73 7a 65     Puffer / g.z sze
     620:	6c 65 70 00                                         lep.

00000624 <__c.2636>:
     624:	4b 69 00                                            Ki.

00000627 <__c.2634>:
     627:	42 65 00                                            Be.

0000062a <__c.2632>:
     62a:	45 6d 65 6c 65 74 69 20 73 7a 65 6c 65 70 00        Emeleti szelep.

00000639 <__c.2618>:
     639:	4b 69 00                                            Ki.

0000063c <__c.2616>:
     63c:	42 65 00                                            Be.

0000063f <__c.2614>:
     63f:	46 f6 6c 64 73 7a 69 6e 74 69 20 73 7a 65 6c 65     F.ldszinti szele
     64f:	70 00                                               p.

00000651 <__c.2600>:
     651:	4b 69 00                                            Ki.

00000654 <__c.2598>:
     654:	42 65 00                                            Be.

00000657 <__c.2596>:
     657:	48 4d 56 20 73 7a 65 6c 65 70 20 e1 6c 6c 61 70     HMV szelep .llap
     667:	6f 74 00                                            ot.

0000066a <__c.2580>:
     66a:	47 e9 70 68 e1 7a 20 73 7a 65 6e 7a 6f 72 20 49     G.ph.z szenzor I
     67a:	44 00                                               D.

0000067c <__c.2566>:
     67c:	47 e9 70 68 e1 7a 20 6b ed 76 e1 6e 74 20 68 f5     G.ph.z k.v.nt h.
     68c:	6d 00                                               m.

0000068e <__c.2551>:
     68e:	47 e9 70 68 e1 7a 20 6d 69 6e 20 68 f5 6d 00        G.ph.z min h.m.

0000069d <__c.2536>:
     69d:	20 43 00                                             C.

000006a0 <__c.2534>:
     6a0:	2e 00                                               ..

000006a2 <__c.2532>:
     6a2:	47 e9 70 68 e1 7a 20 61 6b 74 20 68 f5 6d 00        G.ph.z akt h.m.

000006b1 <__c.2516>:
     6b1:	50 75 66 66 65 72 20 73 7a 65 6e 7a 6f 72 20 49     Puffer szenzor I
     6c1:	44 00                                               D.

000006c3 <__c.2502>:
     6c3:	45 6c f5 72 65 6d 65 6e f5 20 68 f5 6d 00           El.remen. h.m.

000006d1 <__c.2487>:
     6d1:	20 43 00                                             C.

000006d4 <__c.2485>:
     6d4:	2e 00                                               ..

000006d6 <__c.2483>:
     6d6:	50 75 66 66 65 72 20 61 6b 74 20 68 f5 6d 00        Puffer akt h.m.

000006e5 <__c.2466>:
     6e5:	4d 61 78 20 69 64 f5 00                             Max id..

000006ed <__c.2451>:
     6ed:	4d 69 6e 20 69 64 f5 00                             Min id..

000006f5 <__c.2436>:
     6f5:	48 4d 56 20 73 7a 65 6e 7a 6f 72 20 49 44 00        HMV szenzor ID.

00000704 <__c.2422>:
     704:	48 4d 56 20 6d 69 6e 20 68 f5 6d 00                 HMV min h.m.

00000710 <__c.2407>:
     710:	48 4d 56 20 6b ed 76 e1 6e 74 20 68 f5 6d 00        HMV k.v.nt h.m.

0000071f <__c.2392>:
     71f:	20 43 00                                             C.

00000722 <__c.2390>:
     722:	2e 00                                               ..

00000724 <__c.2388>:
     724:	48 4d 56 20 61 6b 74 20 68 f5 6d 00                 HMV akt h.m.

00000730 <__c.2372>:
     730:	4b fc 6c 73 f5 20 6d 69 6e 20 68 f5 6d 00           K.ls. min h.m.

0000073e <__c.2358>:
     73e:	42 4d 45 32 38 30 20 70 e1 72 61 00                 BME280 p.ra.

0000074a <__c.2344>:
     74a:	42 4d 45 32 38 30 20 68 f5 6d 00 00                 BME280 h.m..

00000756 <__ctors_end>:
     756:	11 24       	eor	r1, r1
     758:	1f be       	out	0x3f, r1	; 63
     75a:	cf ef       	ldi	r28, 0xFF	; 255
     75c:	d0 e1       	ldi	r29, 0x10	; 16
     75e:	de bf       	out	0x3e, r29	; 62
     760:	cd bf       	out	0x3d, r28	; 61

00000762 <__do_copy_data>:
     762:	15 e0       	ldi	r17, 0x05	; 5
     764:	a0 e0       	ldi	r26, 0x00	; 0
     766:	b1 e0       	ldi	r27, 0x01	; 1
     768:	e0 e2       	ldi	r30, 0x20	; 32
     76a:	f6 e4       	ldi	r31, 0x46	; 70
     76c:	02 c0       	rjmp	.+4      	; 0x772 <__do_copy_data+0x10>
     76e:	05 90       	lpm	r0, Z+
     770:	0d 92       	st	X+, r0
     772:	a6 3a       	cpi	r26, 0xA6	; 166
     774:	b1 07       	cpc	r27, r17
     776:	d9 f7       	brne	.-10     	; 0x76e <__do_copy_data+0xc>

00000778 <__do_clear_bss>:
     778:	26 e0       	ldi	r18, 0x06	; 6
     77a:	a6 ea       	ldi	r26, 0xA6	; 166
     77c:	b5 e0       	ldi	r27, 0x05	; 5
     77e:	01 c0       	rjmp	.+2      	; 0x782 <.do_clear_bss_start>

00000780 <.do_clear_bss_loop>:
     780:	1d 92       	st	X+, r1

00000782 <.do_clear_bss_start>:
     782:	a5 3e       	cpi	r26, 0xE5	; 229
     784:	b2 07       	cpc	r27, r18
     786:	e1 f7       	brne	.-8      	; 0x780 <.do_clear_bss_loop>
     788:	0e 94 52 10 	call	0x20a4	; 0x20a4 <main>
     78c:	0c 94 0e 23 	jmp	0x461c	; 0x461c <_exit>

00000790 <__bad_interrupt>:
     790:	0c 94 00 00 	jmp	0	; 0x0 <__vectors>

00000794 <read8>:
	return var2;
	
	p = ((p + var1 + var2) >> 8) + (((int64_t)_bme280_calib.dig_P7)<<4);
	
	return (float)p/256;
}
     794:	cf 93       	push	r28
     796:	df 93       	push	r29
     798:	c8 2f       	mov	r28, r24
     79a:	8c ee       	ldi	r24, 0xEC	; 236
     79c:	0e 94 e7 08 	call	0x11ce	; 0x11ce <i2c_start>
     7a0:	81 11       	cpse	r24, r1
     7a2:	11 c0       	rjmp	.+34     	; 0x7c6 <read8+0x32>
     7a4:	8c 2f       	mov	r24, r28
     7a6:	0e 94 0c 09 	call	0x1218	; 0x1218 <i2c_write>
     7aa:	0e 94 34 09 	call	0x1268	; 0x1268 <i2c_stop>
     7ae:	8d ee       	ldi	r24, 0xED	; 237
     7b0:	0e 94 e7 08 	call	0x11ce	; 0x11ce <i2c_start>
     7b4:	81 11       	cpse	r24, r1
     7b6:	0a c0       	rjmp	.+20     	; 0x7cc <read8+0x38>
     7b8:	0e 94 29 09 	call	0x1252	; 0x1252 <i2c_read_nack>
     7bc:	c8 2f       	mov	r28, r24
     7be:	d0 e0       	ldi	r29, 0x00	; 0
     7c0:	0e 94 34 09 	call	0x1268	; 0x1268 <i2c_stop>
     7c4:	05 c0       	rjmp	.+10     	; 0x7d0 <read8+0x3c>
     7c6:	c0 e0       	ldi	r28, 0x00	; 0
     7c8:	d0 e0       	ldi	r29, 0x00	; 0
     7ca:	02 c0       	rjmp	.+4      	; 0x7d0 <read8+0x3c>
     7cc:	c0 e0       	ldi	r28, 0x00	; 0
     7ce:	d0 e0       	ldi	r29, 0x00	; 0
     7d0:	ce 01       	movw	r24, r28
     7d2:	df 91       	pop	r29
     7d4:	cf 91       	pop	r28
     7d6:	08 95       	ret

000007d8 <read16>:
     7d8:	cf 93       	push	r28
     7da:	df 93       	push	r29
     7dc:	c8 2f       	mov	r28, r24
     7de:	8c ee       	ldi	r24, 0xEC	; 236
     7e0:	0e 94 e7 08 	call	0x11ce	; 0x11ce <i2c_start>
     7e4:	81 11       	cpse	r24, r1
     7e6:	18 c0       	rjmp	.+48     	; 0x818 <read16+0x40>
     7e8:	8c 2f       	mov	r24, r28
     7ea:	0e 94 0c 09 	call	0x1218	; 0x1218 <i2c_write>
     7ee:	0e 94 34 09 	call	0x1268	; 0x1268 <i2c_stop>
     7f2:	8d ee       	ldi	r24, 0xED	; 237
     7f4:	0e 94 e7 08 	call	0x11ce	; 0x11ce <i2c_start>
     7f8:	81 11       	cpse	r24, r1
     7fa:	11 c0       	rjmp	.+34     	; 0x81e <read16+0x46>
     7fc:	0e 94 1e 09 	call	0x123c	; 0x123c <i2c_read_ack>
     800:	c8 2f       	mov	r28, r24
     802:	d0 e0       	ldi	r29, 0x00	; 0
     804:	dc 2f       	mov	r29, r28
     806:	cc 27       	eor	r28, r28
     808:	0e 94 29 09 	call	0x1252	; 0x1252 <i2c_read_nack>
     80c:	c8 2b       	or	r28, r24
     80e:	0e 94 34 09 	call	0x1268	; 0x1268 <i2c_stop>
     812:	8c 2f       	mov	r24, r28
     814:	9d 2f       	mov	r25, r29
     816:	05 c0       	rjmp	.+10     	; 0x822 <read16+0x4a>
     818:	80 e0       	ldi	r24, 0x00	; 0
     81a:	90 e0       	ldi	r25, 0x00	; 0
     81c:	02 c0       	rjmp	.+4      	; 0x822 <read16+0x4a>
     81e:	80 e0       	ldi	r24, 0x00	; 0
     820:	90 e0       	ldi	r25, 0x00	; 0
     822:	df 91       	pop	r29
     824:	cf 91       	pop	r28
     826:	08 95       	ret

00000828 <read16_LE>:
     828:	0e 94 ec 03 	call	0x7d8	; 0x7d8 <read16>
     82c:	98 27       	eor	r25, r24
     82e:	89 27       	eor	r24, r25
     830:	98 27       	eor	r25, r24
     832:	08 95       	ret

00000834 <read24>:
     834:	cf 92       	push	r12
     836:	df 92       	push	r13
     838:	ef 92       	push	r14
     83a:	ff 92       	push	r15
     83c:	f8 2e       	mov	r15, r24
     83e:	8c ee       	ldi	r24, 0xEC	; 236
     840:	0e 94 e7 08 	call	0x11ce	; 0x11ce <i2c_start>
     844:	81 11       	cpse	r24, r1
     846:	2e c0       	rjmp	.+92     	; 0x8a4 <read24+0x70>
     848:	8f 2d       	mov	r24, r15
     84a:	0e 94 0c 09 	call	0x1218	; 0x1218 <i2c_write>
     84e:	0e 94 34 09 	call	0x1268	; 0x1268 <i2c_stop>
     852:	8d ee       	ldi	r24, 0xED	; 237
     854:	0e 94 e7 08 	call	0x11ce	; 0x11ce <i2c_start>
     858:	81 11       	cpse	r24, r1
     85a:	1b c0       	rjmp	.+54     	; 0x892 <read24+0x5e>
     85c:	0e 94 1e 09 	call	0x123c	; 0x123c <i2c_read_ack>
     860:	c8 2e       	mov	r12, r24
     862:	d1 2c       	mov	r13, r1
     864:	e1 2c       	mov	r14, r1
     866:	f1 2c       	mov	r15, r1
     868:	fe 2c       	mov	r15, r14
     86a:	ed 2c       	mov	r14, r13
     86c:	dc 2c       	mov	r13, r12
     86e:	cc 24       	eor	r12, r12
     870:	0e 94 1e 09 	call	0x123c	; 0x123c <i2c_read_ack>
     874:	c8 2a       	or	r12, r24
     876:	fe 2c       	mov	r15, r14
     878:	ed 2c       	mov	r14, r13
     87a:	dc 2c       	mov	r13, r12
     87c:	cc 24       	eor	r12, r12
     87e:	0e 94 29 09 	call	0x1252	; 0x1252 <i2c_read_nack>
     882:	c8 2a       	or	r12, r24
     884:	0e 94 34 09 	call	0x1268	; 0x1268 <i2c_stop>
     888:	6c 2d       	mov	r22, r12
     88a:	7d 2d       	mov	r23, r13
     88c:	8e 2d       	mov	r24, r14
     88e:	9f 2d       	mov	r25, r15
     890:	0d c0       	rjmp	.+26     	; 0x8ac <read24+0x78>
     892:	88 e3       	ldi	r24, 0x38	; 56
     894:	91 e0       	ldi	r25, 0x01	; 1
     896:	0e 94 4e 1f 	call	0x3e9c	; 0x3e9c <uart_puts_p>
     89a:	60 e0       	ldi	r22, 0x00	; 0
     89c:	70 e0       	ldi	r23, 0x00	; 0
     89e:	80 e0       	ldi	r24, 0x00	; 0
     8a0:	90 e0       	ldi	r25, 0x00	; 0
     8a2:	04 c0       	rjmp	.+8      	; 0x8ac <read24+0x78>
     8a4:	60 e0       	ldi	r22, 0x00	; 0
     8a6:	70 e0       	ldi	r23, 0x00	; 0
     8a8:	80 e0       	ldi	r24, 0x00	; 0
     8aa:	90 e0       	ldi	r25, 0x00	; 0
     8ac:	ff 90       	pop	r15
     8ae:	ef 90       	pop	r14
     8b0:	df 90       	pop	r13
     8b2:	cf 90       	pop	r12
     8b4:	08 95       	ret

000008b6 <bme280_readCoefficients>:
     8b6:	0f 93       	push	r16
     8b8:	1f 93       	push	r17
     8ba:	cf 93       	push	r28
     8bc:	df 93       	push	r29
     8be:	88 e8       	ldi	r24, 0x88	; 136
     8c0:	0e 94 14 04 	call	0x828	; 0x828 <read16_LE>
     8c4:	ce e3       	ldi	r28, 0x3E	; 62
     8c6:	d6 e0       	ldi	r29, 0x06	; 6
     8c8:	99 83       	std	Y+1, r25	; 0x01
     8ca:	88 83       	st	Y, r24
     8cc:	8a e8       	ldi	r24, 0x8A	; 138
     8ce:	0e 94 14 04 	call	0x828	; 0x828 <read16_LE>
     8d2:	9b 83       	std	Y+3, r25	; 0x03
     8d4:	8a 83       	std	Y+2, r24	; 0x02
     8d6:	8c e8       	ldi	r24, 0x8C	; 140
     8d8:	0e 94 14 04 	call	0x828	; 0x828 <read16_LE>
     8dc:	9d 83       	std	Y+5, r25	; 0x05
     8de:	8c 83       	std	Y+4, r24	; 0x04
     8e0:	8e e8       	ldi	r24, 0x8E	; 142
     8e2:	0e 94 14 04 	call	0x828	; 0x828 <read16_LE>
     8e6:	9f 83       	std	Y+7, r25	; 0x07
     8e8:	8e 83       	std	Y+6, r24	; 0x06
     8ea:	80 e9       	ldi	r24, 0x90	; 144
     8ec:	0e 94 14 04 	call	0x828	; 0x828 <read16_LE>
     8f0:	99 87       	std	Y+9, r25	; 0x09
     8f2:	88 87       	std	Y+8, r24	; 0x08
     8f4:	82 e9       	ldi	r24, 0x92	; 146
     8f6:	0e 94 14 04 	call	0x828	; 0x828 <read16_LE>
     8fa:	9b 87       	std	Y+11, r25	; 0x0b
     8fc:	8a 87       	std	Y+10, r24	; 0x0a
     8fe:	84 e9       	ldi	r24, 0x94	; 148
     900:	0e 94 14 04 	call	0x828	; 0x828 <read16_LE>
     904:	9d 87       	std	Y+13, r25	; 0x0d
     906:	8c 87       	std	Y+12, r24	; 0x0c
     908:	86 e9       	ldi	r24, 0x96	; 150
     90a:	0e 94 14 04 	call	0x828	; 0x828 <read16_LE>
     90e:	9f 87       	std	Y+15, r25	; 0x0f
     910:	8e 87       	std	Y+14, r24	; 0x0e
     912:	88 e9       	ldi	r24, 0x98	; 152
     914:	0e 94 14 04 	call	0x828	; 0x828 <read16_LE>
     918:	99 8b       	std	Y+17, r25	; 0x11
     91a:	88 8b       	std	Y+16, r24	; 0x10
     91c:	8a e9       	ldi	r24, 0x9A	; 154
     91e:	0e 94 14 04 	call	0x828	; 0x828 <read16_LE>
     922:	9b 8b       	std	Y+19, r25	; 0x13
     924:	8a 8b       	std	Y+18, r24	; 0x12
     926:	8c e9       	ldi	r24, 0x9C	; 156
     928:	0e 94 14 04 	call	0x828	; 0x828 <read16_LE>
     92c:	9d 8b       	std	Y+21, r25	; 0x15
     92e:	8c 8b       	std	Y+20, r24	; 0x14
     930:	8e e9       	ldi	r24, 0x9E	; 158
     932:	0e 94 14 04 	call	0x828	; 0x828 <read16_LE>
     936:	9f 8b       	std	Y+23, r25	; 0x17
     938:	8e 8b       	std	Y+22, r24	; 0x16
     93a:	81 ea       	ldi	r24, 0xA1	; 161
     93c:	0e 94 ca 03 	call	0x794	; 0x794 <read8>
     940:	88 8f       	std	Y+24, r24	; 0x18
     942:	81 ee       	ldi	r24, 0xE1	; 225
     944:	0e 94 14 04 	call	0x828	; 0x828 <read16_LE>
     948:	9a 8f       	std	Y+26, r25	; 0x1a
     94a:	89 8f       	std	Y+25, r24	; 0x19
     94c:	83 ee       	ldi	r24, 0xE3	; 227
     94e:	0e 94 ca 03 	call	0x794	; 0x794 <read8>
     952:	8b 8f       	std	Y+27, r24	; 0x1b
     954:	84 ee       	ldi	r24, 0xE4	; 228
     956:	0e 94 ca 03 	call	0x794	; 0x794 <read8>
     95a:	8c 01       	movw	r16, r24
     95c:	85 ee       	ldi	r24, 0xE5	; 229
     95e:	0e 94 ca 03 	call	0x794	; 0x794 <read8>
     962:	02 95       	swap	r16
     964:	12 95       	swap	r17
     966:	10 7f       	andi	r17, 0xF0	; 240
     968:	10 27       	eor	r17, r16
     96a:	00 7f       	andi	r16, 0xF0	; 240
     96c:	10 27       	eor	r17, r16
     96e:	8f 70       	andi	r24, 0x0F	; 15
     970:	99 27       	eor	r25, r25
     972:	80 2b       	or	r24, r16
     974:	91 2b       	or	r25, r17
     976:	9d 8f       	std	Y+29, r25	; 0x1d
     978:	8c 8f       	std	Y+28, r24	; 0x1c
     97a:	86 ee       	ldi	r24, 0xE6	; 230
     97c:	0e 94 ca 03 	call	0x794	; 0x794 <read8>
     980:	8c 01       	movw	r16, r24
     982:	85 ee       	ldi	r24, 0xE5	; 229
     984:	0e 94 ca 03 	call	0x794	; 0x794 <read8>
     988:	02 95       	swap	r16
     98a:	12 95       	swap	r17
     98c:	10 7f       	andi	r17, 0xF0	; 240
     98e:	10 27       	eor	r17, r16
     990:	00 7f       	andi	r16, 0xF0	; 240
     992:	10 27       	eor	r17, r16
     994:	92 95       	swap	r25
     996:	82 95       	swap	r24
     998:	8f 70       	andi	r24, 0x0F	; 15
     99a:	89 27       	eor	r24, r25
     99c:	9f 70       	andi	r25, 0x0F	; 15
     99e:	89 27       	eor	r24, r25
     9a0:	80 2b       	or	r24, r16
     9a2:	91 2b       	or	r25, r17
     9a4:	9f 8f       	std	Y+31, r25	; 0x1f
     9a6:	8e 8f       	std	Y+30, r24	; 0x1e
     9a8:	87 ee       	ldi	r24, 0xE7	; 231
     9aa:	0e 94 ca 03 	call	0x794	; 0x794 <read8>
     9ae:	88 a3       	std	Y+32, r24	; 0x20
     9b0:	df 91       	pop	r29
     9b2:	cf 91       	pop	r28
     9b4:	1f 91       	pop	r17
     9b6:	0f 91       	pop	r16
     9b8:	08 95       	ret

000009ba <init_BME280>:
     9ba:	8c ee       	ldi	r24, 0xEC	; 236
     9bc:	0e 94 e7 08 	call	0x11ce	; 0x11ce <i2c_start>
     9c0:	81 11       	cpse	r24, r1
     9c2:	1e c0       	rjmp	.+60     	; 0xa00 <init_BME280+0x46>
     9c4:	82 ef       	ldi	r24, 0xF2	; 242
     9c6:	0e 94 0c 09 	call	0x1218	; 0x1218 <i2c_write>
     9ca:	85 e0       	ldi	r24, 0x05	; 5
     9cc:	0e 94 0c 09 	call	0x1218	; 0x1218 <i2c_write>
     9d0:	84 ef       	ldi	r24, 0xF4	; 244
     9d2:	0e 94 0c 09 	call	0x1218	; 0x1218 <i2c_write>
     9d6:	87 eb       	ldi	r24, 0xB7	; 183
     9d8:	0e 94 0c 09 	call	0x1218	; 0x1218 <i2c_write>
     9dc:	80 ed       	ldi	r24, 0xD0	; 208
     9de:	0e 94 0c 09 	call	0x1218	; 0x1218 <i2c_write>
     9e2:	0e 94 5b 04 	call	0x8b6	; 0x8b6 <bme280_readCoefficients>
     9e6:	0e 94 34 09 	call	0x1268	; 0x1268 <i2c_stop>
     9ea:	8d ee       	ldi	r24, 0xED	; 237
     9ec:	0e 94 e7 08 	call	0x11ce	; 0x11ce <i2c_start>
     9f0:	81 11       	cpse	r24, r1
     9f2:	06 c0       	rjmp	.+12     	; 0xa00 <init_BME280+0x46>
     9f4:	0e 94 29 09 	call	0x1252	; 0x1252 <i2c_read_nack>
     9f8:	0e 94 2e 1f 	call	0x3e5c	; 0x3e5c <uart_putc>
     9fc:	0e 94 34 09 	call	0x1268	; 0x1268 <i2c_stop>
     a00:	08 95       	ret

00000a02 <bme280_readTemperature>:
     a02:	8f 92       	push	r8
     a04:	9f 92       	push	r9
     a06:	af 92       	push	r10
     a08:	bf 92       	push	r11
     a0a:	cf 92       	push	r12
     a0c:	df 92       	push	r13
     a0e:	ef 92       	push	r14
     a10:	ff 92       	push	r15
     a12:	0f 93       	push	r16
     a14:	1f 93       	push	r17
     a16:	8a ef       	ldi	r24, 0xFA	; 250
     a18:	0e 94 1a 04 	call	0x834	; 0x834 <read24>
     a1c:	ee e3       	ldi	r30, 0x3E	; 62
     a1e:	f6 e0       	ldi	r31, 0x06	; 6
     a20:	00 81       	ld	r16, Z
     a22:	11 81       	ldd	r17, Z+1	; 0x01
     a24:	20 e0       	ldi	r18, 0x00	; 0
     a26:	30 e0       	ldi	r19, 0x00	; 0
     a28:	c7 2e       	mov	r12, r23
     a2a:	d8 2e       	mov	r13, r24
     a2c:	e9 2e       	mov	r14, r25
     a2e:	ff 24       	eor	r15, r15
     a30:	e7 fc       	sbrc	r14, 7
     a32:	fa 94       	dec	r15
     a34:	c0 1a       	sub	r12, r16
     a36:	d1 0a       	sbc	r13, r17
     a38:	e2 0a       	sbc	r14, r18
     a3a:	f3 0a       	sbc	r15, r19
     a3c:	dc 01       	movw	r26, r24
     a3e:	cb 01       	movw	r24, r22
     a40:	68 94       	set
     a42:	16 f8       	bld	r1, 6
     a44:	b5 95       	asr	r27
     a46:	a7 95       	ror	r26
     a48:	97 95       	ror	r25
     a4a:	87 95       	ror	r24
     a4c:	16 94       	lsr	r1
     a4e:	d1 f7       	brne	.-12     	; 0xa44 <bme280_readTemperature+0x42>
     a50:	00 0f       	add	r16, r16
     a52:	11 1f       	adc	r17, r17
     a54:	22 1f       	adc	r18, r18
     a56:	33 1f       	adc	r19, r19
     a58:	4c 01       	movw	r8, r24
     a5a:	5d 01       	movw	r10, r26
     a5c:	80 1a       	sub	r8, r16
     a5e:	91 0a       	sbc	r9, r17
     a60:	a2 0a       	sbc	r10, r18
     a62:	b3 0a       	sbc	r11, r19
     a64:	a5 01       	movw	r20, r10
     a66:	94 01       	movw	r18, r8
     a68:	a2 81       	ldd	r26, Z+2	; 0x02
     a6a:	b3 81       	ldd	r27, Z+3	; 0x03
     a6c:	0e 94 8d 22 	call	0x451a	; 0x451a <__mulshisi3>
     a70:	4b 01       	movw	r8, r22
     a72:	5c 01       	movw	r10, r24
     a74:	07 2e       	mov	r0, r23
     a76:	7b e0       	ldi	r23, 0x0B	; 11
     a78:	b5 94       	asr	r11
     a7a:	a7 94       	ror	r10
     a7c:	97 94       	ror	r9
     a7e:	87 94       	ror	r8
     a80:	7a 95       	dec	r23
     a82:	d1 f7       	brne	.-12     	; 0xa78 <bme280_readTemperature+0x76>
     a84:	70 2d       	mov	r23, r0
     a86:	a7 01       	movw	r20, r14
     a88:	96 01       	movw	r18, r12
     a8a:	c7 01       	movw	r24, r14
     a8c:	b6 01       	movw	r22, r12
     a8e:	0e 94 6c 22 	call	0x44d8	; 0x44d8 <__mulsi3>
     a92:	9b 01       	movw	r18, r22
     a94:	ac 01       	movw	r20, r24
     a96:	01 2e       	mov	r0, r17
     a98:	1c e0       	ldi	r17, 0x0C	; 12
     a9a:	55 95       	asr	r21
     a9c:	47 95       	ror	r20
     a9e:	37 95       	ror	r19
     aa0:	27 95       	ror	r18
     aa2:	1a 95       	dec	r17
     aa4:	d1 f7       	brne	.-12     	; 0xa9a <bme280_readTemperature+0x98>
     aa6:	10 2d       	mov	r17, r0
     aa8:	a4 81       	ldd	r26, Z+4	; 0x04
     aaa:	b5 81       	ldd	r27, Z+5	; 0x05
     aac:	0e 94 8d 22 	call	0x451a	; 0x451a <__mulshisi3>
     ab0:	dc 01       	movw	r26, r24
     ab2:	cb 01       	movw	r24, r22
     ab4:	07 2e       	mov	r0, r23
     ab6:	7e e0       	ldi	r23, 0x0E	; 14
     ab8:	b5 95       	asr	r27
     aba:	a7 95       	ror	r26
     abc:	97 95       	ror	r25
     abe:	87 95       	ror	r24
     ac0:	7a 95       	dec	r23
     ac2:	d1 f7       	brne	.-12     	; 0xab8 <bme280_readTemperature+0xb6>
     ac4:	70 2d       	mov	r23, r0
     ac6:	88 0d       	add	r24, r8
     ac8:	99 1d       	adc	r25, r9
     aca:	aa 1d       	adc	r26, r10
     acc:	bb 1d       	adc	r27, r11
     ace:	80 93 5f 06 	sts	0x065F, r24	; 0x80065f <t_fine>
     ad2:	90 93 60 06 	sts	0x0660, r25	; 0x800660 <t_fine+0x1>
     ad6:	a0 93 61 06 	sts	0x0661, r26	; 0x800661 <t_fine+0x2>
     ada:	b0 93 62 06 	sts	0x0662, r27	; 0x800662 <t_fine+0x3>
     ade:	8c 01       	movw	r16, r24
     ae0:	9d 01       	movw	r18, r26
     ae2:	00 0f       	add	r16, r16
     ae4:	11 1f       	adc	r17, r17
     ae6:	22 1f       	adc	r18, r18
     ae8:	33 1f       	adc	r19, r19
     aea:	00 0f       	add	r16, r16
     aec:	11 1f       	adc	r17, r17
     aee:	22 1f       	adc	r18, r18
     af0:	33 1f       	adc	r19, r19
     af2:	80 0f       	add	r24, r16
     af4:	91 1f       	adc	r25, r17
     af6:	a2 1f       	adc	r26, r18
     af8:	b3 1f       	adc	r27, r19
     afa:	80 58       	subi	r24, 0x80	; 128
     afc:	9f 4f       	sbci	r25, 0xFF	; 255
     afe:	af 4f       	sbci	r26, 0xFF	; 255
     b00:	bf 4f       	sbci	r27, 0xFF	; 255
     b02:	69 2f       	mov	r22, r25
     b04:	7a 2f       	mov	r23, r26
     b06:	8b 2f       	mov	r24, r27
     b08:	99 27       	eor	r25, r25
     b0a:	0e 94 71 21 	call	0x42e2	; 0x42e2 <__floatunsisf>
     b0e:	20 e0       	ldi	r18, 0x00	; 0
     b10:	30 e0       	ldi	r19, 0x00	; 0
     b12:	48 ec       	ldi	r20, 0xC8	; 200
     b14:	52 e4       	ldi	r21, 0x42	; 66
     b16:	0e 94 c9 20 	call	0x4192	; 0x4192 <__divsf3>
     b1a:	1f 91       	pop	r17
     b1c:	0f 91       	pop	r16
     b1e:	ff 90       	pop	r15
     b20:	ef 90       	pop	r14
     b22:	df 90       	pop	r13
     b24:	cf 90       	pop	r12
     b26:	bf 90       	pop	r11
     b28:	af 90       	pop	r10
     b2a:	9f 90       	pop	r9
     b2c:	8f 90       	pop	r8
     b2e:	08 95       	ret

00000b30 <bme280_readHumidity>:

float bme280_readHumidity(void)
{
     b30:	4f 92       	push	r4
     b32:	5f 92       	push	r5
     b34:	6f 92       	push	r6
     b36:	7f 92       	push	r7
     b38:	8f 92       	push	r8
     b3a:	9f 92       	push	r9
     b3c:	af 92       	push	r10
     b3e:	bf 92       	push	r11
     b40:	cf 92       	push	r12
     b42:	df 92       	push	r13
     b44:	ef 92       	push	r14
     b46:	ff 92       	push	r15
	
	bme280_readTemperature(); // must be done first to get t_fine
     b48:	0e 94 01 05 	call	0xa02	; 0xa02 <bme280_readTemperature>
	
	int32_t adc_H = read16(BME280_REGISTER_HUMIDDATA);
     b4c:	8d ef       	ldi	r24, 0xFD	; 253
     b4e:	0e 94 ec 03 	call	0x7d8	; 0x7d8 <read16>
	
	int32_t v_x1_u32r;
	
	v_x1_u32r = (t_fine - ((int32_t)76800));
     b52:	80 90 5f 06 	lds	r8, 0x065F	; 0x80065f <t_fine>
     b56:	90 90 60 06 	lds	r9, 0x0660	; 0x800660 <t_fine+0x1>
     b5a:	a0 90 61 06 	lds	r10, 0x0661	; 0x800661 <t_fine+0x2>
     b5e:	b0 90 62 06 	lds	r11, 0x0662	; 0x800662 <t_fine+0x3>
     b62:	2c e2       	ldi	r18, 0x2C	; 44
     b64:	92 1a       	sub	r9, r18
     b66:	21 e0       	ldi	r18, 0x01	; 1
     b68:	a2 0a       	sbc	r10, r18
     b6a:	b1 08       	sbc	r11, r1
	
	v_x1_u32r = (((((adc_H << 14) - (((int32_t)_bme280_calib.dig_H4) << 20) -
	(((int32_t)_bme280_calib.dig_H5) * v_x1_u32r)) + ((int32_t)16384)) >> 15) *
     b6c:	6c 01       	movw	r12, r24
     b6e:	e1 2c       	mov	r14, r1
     b70:	f1 2c       	mov	r15, r1
     b72:	0b 2e       	mov	r0, r27
     b74:	be e0       	ldi	r27, 0x0E	; 14
     b76:	cc 0c       	add	r12, r12
     b78:	dd 1c       	adc	r13, r13
     b7a:	ee 1c       	adc	r14, r14
     b7c:	ff 1c       	adc	r15, r15
     b7e:	ba 95       	dec	r27
     b80:	d1 f7       	brne	.-12     	; 0xb76 <bme280_readHumidity+0x46>
     b82:	b0 2d       	mov	r27, r0
	
	int32_t v_x1_u32r;
	
	v_x1_u32r = (t_fine - ((int32_t)76800));
	
	v_x1_u32r = (((((adc_H << 14) - (((int32_t)_bme280_calib.dig_H4) << 20) -
     b84:	ee e3       	ldi	r30, 0x3E	; 62
     b86:	f6 e0       	ldi	r31, 0x06	; 6
	(((int32_t)_bme280_calib.dig_H5) * v_x1_u32r)) + ((int32_t)16384)) >> 15) *
     b88:	84 8d       	ldd	r24, Z+28	; 0x1c
     b8a:	95 8d       	ldd	r25, Z+29	; 0x1d
     b8c:	09 2e       	mov	r0, r25
     b8e:	00 0c       	add	r0, r0
     b90:	aa 0b       	sbc	r26, r26
     b92:	bb 0b       	sbc	r27, r27
     b94:	07 2e       	mov	r0, r23
     b96:	74 e1       	ldi	r23, 0x14	; 20
     b98:	88 0f       	add	r24, r24
     b9a:	99 1f       	adc	r25, r25
     b9c:	aa 1f       	adc	r26, r26
     b9e:	bb 1f       	adc	r27, r27
     ba0:	7a 95       	dec	r23
     ba2:	d1 f7       	brne	.-12     	; 0xb98 <bme280_readHumidity+0x68>
     ba4:	70 2d       	mov	r23, r0
     ba6:	c8 1a       	sub	r12, r24
     ba8:	d9 0a       	sbc	r13, r25
     baa:	ea 0a       	sbc	r14, r26
     bac:	fb 0a       	sbc	r15, r27
     bae:	a6 8d       	ldd	r26, Z+30	; 0x1e
     bb0:	b7 8d       	ldd	r27, Z+31	; 0x1f
     bb2:	a5 01       	movw	r20, r10
     bb4:	94 01       	movw	r18, r8
     bb6:	0e 94 8d 22 	call	0x451a	; 0x451a <__mulshisi3>
     bba:	c6 1a       	sub	r12, r22
     bbc:	d7 0a       	sbc	r13, r23
     bbe:	e8 0a       	sbc	r14, r24
     bc0:	f9 0a       	sbc	r15, r25
     bc2:	30 e4       	ldi	r19, 0x40	; 64
     bc4:	d3 0e       	add	r13, r19
     bc6:	e1 1c       	adc	r14, r1
     bc8:	f1 1c       	adc	r15, r1
     bca:	0b 2e       	mov	r0, r27
     bcc:	bf e0       	ldi	r27, 0x0F	; 15
     bce:	f5 94       	asr	r15
     bd0:	e7 94       	ror	r14
     bd2:	d7 94       	ror	r13
     bd4:	c7 94       	ror	r12
     bd6:	ba 95       	dec	r27
     bd8:	d1 f7       	brne	.-12     	; 0xbce <bme280_readHumidity+0x9e>
     bda:	b0 2d       	mov	r27, r0
	(((((((v_x1_u32r * ((int32_t)_bme280_calib.dig_H6)) >> 10) *
	(((v_x1_u32r * ((int32_t)_bme280_calib.dig_H3)) >> 11) + ((int32_t)32768))) >> 10) +
	((int32_t)2097152)) * ((int32_t)_bme280_calib.dig_H2) + 8192) >> 14));
     bdc:	a3 8d       	ldd	r26, Z+27	; 0x1b
     bde:	b0 e0       	ldi	r27, 0x00	; 0
     be0:	a5 01       	movw	r20, r10
     be2:	94 01       	movw	r18, r8
     be4:	0e 94 82 22 	call	0x4504	; 0x4504 <__muluhisi3>
     be8:	2b 01       	movw	r4, r22
     bea:	3c 01       	movw	r6, r24
     bec:	03 2e       	mov	r0, r19
     bee:	3b e0       	ldi	r19, 0x0B	; 11
     bf0:	75 94       	asr	r7
     bf2:	67 94       	ror	r6
     bf4:	57 94       	ror	r5
     bf6:	47 94       	ror	r4
     bf8:	3a 95       	dec	r19
     bfa:	d1 f7       	brne	.-12     	; 0xbf0 <bme280_readHumidity+0xc0>
     bfc:	30 2d       	mov	r19, r0
     bfe:	40 e8       	ldi	r20, 0x80	; 128
     c00:	54 0e       	add	r5, r20
     c02:	61 1c       	adc	r6, r1
     c04:	71 1c       	adc	r7, r1
     c06:	a0 a1       	ldd	r26, Z+32	; 0x20
     c08:	0a 2e       	mov	r0, r26
     c0a:	00 0c       	add	r0, r0
     c0c:	bb 0b       	sbc	r27, r27
     c0e:	a5 01       	movw	r20, r10
     c10:	94 01       	movw	r18, r8
     c12:	0e 94 8d 22 	call	0x451a	; 0x451a <__mulshisi3>
     c16:	05 2e       	mov	r0, r21
     c18:	5a e0       	ldi	r21, 0x0A	; 10
     c1a:	95 95       	asr	r25
     c1c:	87 95       	ror	r24
     c1e:	77 95       	ror	r23
     c20:	67 95       	ror	r22
     c22:	5a 95       	dec	r21
     c24:	d1 f7       	brne	.-12     	; 0xc1a <bme280_readHumidity+0xea>
     c26:	50 2d       	mov	r21, r0
     c28:	a3 01       	movw	r20, r6
     c2a:	92 01       	movw	r18, r4
     c2c:	0e 94 6c 22 	call	0x44d8	; 0x44d8 <__mulsi3>
     c30:	dc 01       	movw	r26, r24
     c32:	cb 01       	movw	r24, r22
     c34:	07 2e       	mov	r0, r23
     c36:	7a e0       	ldi	r23, 0x0A	; 10
     c38:	b5 95       	asr	r27
     c3a:	a7 95       	ror	r26
     c3c:	97 95       	ror	r25
     c3e:	87 95       	ror	r24
     c40:	7a 95       	dec	r23
     c42:	d1 f7       	brne	.-12     	; 0xc38 <bme280_readHumidity+0x108>
     c44:	70 2d       	mov	r23, r0
     c46:	9c 01       	movw	r18, r24
     c48:	ad 01       	movw	r20, r26
     c4a:	40 5e       	subi	r20, 0xE0	; 224
     c4c:	5f 4f       	sbci	r21, 0xFF	; 255
     c4e:	a1 8d       	ldd	r26, Z+25	; 0x19
     c50:	b2 8d       	ldd	r27, Z+26	; 0x1a
     c52:	0e 94 8d 22 	call	0x451a	; 0x451a <__mulshisi3>
     c56:	dc 01       	movw	r26, r24
     c58:	cb 01       	movw	r24, r22
     c5a:	90 5e       	subi	r25, 0xE0	; 224
     c5c:	af 4f       	sbci	r26, 0xFF	; 255
     c5e:	bf 4f       	sbci	r27, 0xFF	; 255
     c60:	bc 01       	movw	r22, r24
     c62:	cd 01       	movw	r24, r26
     c64:	05 2e       	mov	r0, r21
     c66:	5e e0       	ldi	r21, 0x0E	; 14
     c68:	95 95       	asr	r25
     c6a:	87 95       	ror	r24
     c6c:	77 95       	ror	r23
     c6e:	67 95       	ror	r22
     c70:	5a 95       	dec	r21
     c72:	d1 f7       	brne	.-12     	; 0xc68 <bme280_readHumidity+0x138>
     c74:	50 2d       	mov	r21, r0
	
	int32_t v_x1_u32r;
	
	v_x1_u32r = (t_fine - ((int32_t)76800));
	
	v_x1_u32r = (((((adc_H << 14) - (((int32_t)_bme280_calib.dig_H4) << 20) -
     c76:	a7 01       	movw	r20, r14
     c78:	96 01       	movw	r18, r12
     c7a:	0e 94 6c 22 	call	0x44d8	; 0x44d8 <__mulsi3>
     c7e:	6b 01       	movw	r12, r22
     c80:	7c 01       	movw	r14, r24
	(((int32_t)_bme280_calib.dig_H5) * v_x1_u32r)) + ((int32_t)16384)) >> 15) *
	(((((((v_x1_u32r * ((int32_t)_bme280_calib.dig_H6)) >> 10) *
	(((v_x1_u32r * ((int32_t)_bme280_calib.dig_H3)) >> 11) + ((int32_t)32768))) >> 10) +
	((int32_t)2097152)) * ((int32_t)_bme280_calib.dig_H2) + 8192) >> 14));
	
	v_x1_u32r = (v_x1_u32r - (((((v_x1_u32r >> 15) * (v_x1_u32r >> 15)) >> 7) *
     c82:	05 2e       	mov	r0, r21
     c84:	5f e0       	ldi	r21, 0x0F	; 15
     c86:	95 95       	asr	r25
     c88:	87 95       	ror	r24
     c8a:	77 95       	ror	r23
     c8c:	67 95       	ror	r22
     c8e:	5a 95       	dec	r21
     c90:	d1 f7       	brne	.-12     	; 0xc86 <bme280_readHumidity+0x156>
     c92:	50 2d       	mov	r21, r0
     c94:	9b 01       	movw	r18, r22
     c96:	ac 01       	movw	r20, r24
     c98:	0e 94 6c 22 	call	0x44d8	; 0x44d8 <__mulsi3>
     c9c:	9b 01       	movw	r18, r22
     c9e:	ac 01       	movw	r20, r24
     ca0:	68 94       	set
     ca2:	16 f8       	bld	r1, 6
     ca4:	55 95       	asr	r21
     ca6:	47 95       	ror	r20
     ca8:	37 95       	ror	r19
     caa:	27 95       	ror	r18
     cac:	16 94       	lsr	r1
     cae:	d1 f7       	brne	.-12     	; 0xca4 <bme280_readHumidity+0x174>
     cb0:	a0 8d       	ldd	r26, Z+24	; 0x18
     cb2:	b0 e0       	ldi	r27, 0x00	; 0
     cb4:	0e 94 82 22 	call	0x4504	; 0x4504 <__muluhisi3>
     cb8:	dc 01       	movw	r26, r24
     cba:	cb 01       	movw	r24, r22
     cbc:	68 94       	set
     cbe:	13 f8       	bld	r1, 3
     cc0:	b5 95       	asr	r27
     cc2:	a7 95       	ror	r26
     cc4:	97 95       	ror	r25
     cc6:	87 95       	ror	r24
     cc8:	16 94       	lsr	r1
     cca:	d1 f7       	brne	.-12     	; 0xcc0 <bme280_readHumidity+0x190>
	((int32_t)_bme280_calib.dig_H1)) >> 4));
	
	v_x1_u32r = (v_x1_u32r < 0) ? 0 : v_x1_u32r;
     ccc:	a7 01       	movw	r20, r14
     cce:	96 01       	movw	r18, r12
     cd0:	28 1b       	sub	r18, r24
     cd2:	39 0b       	sbc	r19, r25
     cd4:	4a 0b       	sbc	r20, r26
     cd6:	5b 0b       	sbc	r21, r27
     cd8:	da 01       	movw	r26, r20
     cda:	c9 01       	movw	r24, r18
     cdc:	1a f4       	brpl	.+6      	; 0xce4 <bme280_readHumidity+0x1b4>
     cde:	80 e0       	ldi	r24, 0x00	; 0
     ce0:	90 e0       	ldi	r25, 0x00	; 0
     ce2:	dc 01       	movw	r26, r24
	v_x1_u32r = (v_x1_u32r > 419430400) ? 419430400 : v_x1_u32r;
	float h = (v_x1_u32r>>12);
	return  h / 1024.0;
     ce4:	81 30       	cpi	r24, 0x01	; 1
     ce6:	91 05       	cpc	r25, r1
     ce8:	a1 05       	cpc	r26, r1
     cea:	39 e1       	ldi	r19, 0x19	; 25
     cec:	b3 07       	cpc	r27, r19
     cee:	24 f0       	brlt	.+8      	; 0xcf8 <bme280_readHumidity+0x1c8>
     cf0:	80 e0       	ldi	r24, 0x00	; 0
     cf2:	90 e0       	ldi	r25, 0x00	; 0
     cf4:	a0 e0       	ldi	r26, 0x00	; 0
     cf6:	b9 e1       	ldi	r27, 0x19	; 25
     cf8:	bc 01       	movw	r22, r24
     cfa:	cd 01       	movw	r24, r26
     cfc:	05 2e       	mov	r0, r21
     cfe:	5c e0       	ldi	r21, 0x0C	; 12
     d00:	95 95       	asr	r25
     d02:	87 95       	ror	r24
     d04:	77 95       	ror	r23
     d06:	67 95       	ror	r22
     d08:	5a 95       	dec	r21
     d0a:	d1 f7       	brne	.-12     	; 0xd00 <bme280_readHumidity+0x1d0>
     d0c:	50 2d       	mov	r21, r0
     d0e:	0e 94 73 21 	call	0x42e6	; 0x42e6 <__floatsisf>
     d12:	20 e0       	ldi	r18, 0x00	; 0
     d14:	30 e0       	ldi	r19, 0x00	; 0
     d16:	40 e8       	ldi	r20, 0x80	; 128
     d18:	5a e3       	ldi	r21, 0x3A	; 58
     d1a:	0e 94 ff 21 	call	0x43fe	; 0x43fe <__mulsf3>
}
     d1e:	ff 90       	pop	r15
     d20:	ef 90       	pop	r14
     d22:	df 90       	pop	r13
     d24:	cf 90       	pop	r12
     d26:	bf 90       	pop	r11
     d28:	af 90       	pop	r10
     d2a:	9f 90       	pop	r9
     d2c:	8f 90       	pop	r8
     d2e:	7f 90       	pop	r7
     d30:	6f 90       	pop	r6
     d32:	5f 90       	pop	r5
     d34:	4f 90       	pop	r4
     d36:	08 95       	ret

00000d38 <crc8>:
	uint8_t  data;
	uint8_t  feedback_bit;
	
	crc = CRC8INIT;

	for (loop_count = 0; loop_count != number_of_bytes_to_read; loop_count++)
     d38:	61 15       	cp	r22, r1
     d3a:	71 05       	cpc	r23, r1
     d3c:	a9 f0       	breq	.+42     	; 0xd68 <crc8+0x30>
     d3e:	fc 01       	movw	r30, r24
     d40:	68 0f       	add	r22, r24
     d42:	79 1f       	adc	r23, r25
     d44:	80 e0       	ldi	r24, 0x00	; 0
		bit_counter = 8;
		do {
			feedback_bit = (crc ^ data) & 0x01;
	
			if ( feedback_bit == 0x01 ) {
				crc = crc ^ CRC8POLY;
     d46:	48 e1       	ldi	r20, 0x18	; 24
	
	crc = CRC8INIT;

	for (loop_count = 0; loop_count != number_of_bytes_to_read; loop_count++)
	{
		data = data_in[loop_count];
     d48:	21 91       	ld	r18, Z+
     d4a:	98 e0       	ldi	r25, 0x08	; 8
		
		bit_counter = 8;
		do {
			feedback_bit = (crc ^ data) & 0x01;
	
			if ( feedback_bit == 0x01 ) {
     d4c:	38 2f       	mov	r19, r24
     d4e:	32 27       	eor	r19, r18
     d50:	30 ff       	sbrs	r19, 0
     d52:	0c c0       	rjmp	.+24     	; 0xd6c <crc8+0x34>
				crc = crc ^ CRC8POLY;
     d54:	84 27       	eor	r24, r20
			}
			crc = (crc >> 1) & 0x7F;
     d56:	86 95       	lsr	r24
			if ( feedback_bit == 0x01 ) {
				crc = crc | 0x80;
     d58:	80 68       	ori	r24, 0x80	; 128
			}
		
			data = data >> 1;
     d5a:	26 95       	lsr	r18
     d5c:	91 50       	subi	r25, 0x01	; 1
			bit_counter--;
		
		} while (bit_counter > 0);
     d5e:	b1 f7       	brne	.-20     	; 0xd4c <crc8+0x14>
	uint8_t  data;
	uint8_t  feedback_bit;
	
	crc = CRC8INIT;

	for (loop_count = 0; loop_count != number_of_bytes_to_read; loop_count++)
     d60:	e6 17       	cp	r30, r22
     d62:	f7 07       	cpc	r31, r23
     d64:	89 f7       	brne	.-30     	; 0xd48 <crc8+0x10>
     d66:	08 95       	ret
	uint16_t loop_count;
	uint8_t  bit_counter;
	uint8_t  data;
	uint8_t  feedback_bit;
	
	crc = CRC8INIT;
     d68:	80 e0       	ldi	r24, 0x00	; 0
			bit_counter--;
		
		} while (bit_counter > 0);
	}
	
	return crc;
     d6a:	08 95       	ret
			feedback_bit = (crc ^ data) & 0x01;
	
			if ( feedback_bit == 0x01 ) {
				crc = crc ^ CRC8POLY;
			}
			crc = (crc >> 1) & 0x7F;
     d6c:	86 95       	lsr	r24
     d6e:	f5 cf       	rjmp	.-22     	; 0xd5a <crc8+0x22>

00000d70 <DS18X20_meas_to_cel>:
    ow_reset();
    ow_command(DS18X20_READ_POWER_SUPPLY, id);
    pstat=ow_bit_io(1); // pstat 0=is parasite/ !=0 ext. powered
    ow_reset();
	return (pstat) ? DS18X20_POWER_EXTERN:DS18X20_POWER_PARASITE;
}
     d70:	0f 93       	push	r16
     d72:	1f 93       	push	r17
     d74:	cf 93       	push	r28
     d76:	df 93       	push	r29
     d78:	db 01       	movw	r26, r22
     d7a:	ec 91       	ld	r30, X
     d7c:	11 96       	adiw	r26, 0x01	; 1
     d7e:	9c 91       	ld	r25, X
     d80:	11 97       	sbiw	r26, 0x01	; 1
     d82:	f0 e0       	ldi	r31, 0x00	; 0
     d84:	f9 2b       	or	r31, r25
     d86:	80 31       	cpi	r24, 0x10	; 16
     d88:	81 f4       	brne	.+32     	; 0xdaa <DS18X20_meas_to_cel+0x3a>
     d8a:	ee 7f       	andi	r30, 0xFE	; 254
     d8c:	ee 0f       	add	r30, r30
     d8e:	ff 1f       	adc	r31, r31
     d90:	ee 0f       	add	r30, r30
     d92:	ff 1f       	adc	r31, r31
     d94:	ee 0f       	add	r30, r30
     d96:	ff 1f       	adc	r31, r31
     d98:	16 96       	adiw	r26, 0x06	; 6
     d9a:	9c 91       	ld	r25, X
     d9c:	16 97       	sbiw	r26, 0x06	; 6
     d9e:	6c e0       	ldi	r22, 0x0C	; 12
     da0:	70 e0       	ldi	r23, 0x00	; 0
     da2:	69 1b       	sub	r22, r25
     da4:	71 09       	sbc	r23, r1
     da6:	e6 0f       	add	r30, r22
     da8:	f7 1f       	adc	r31, r23
     daa:	ff 23       	and	r31, r31
     dac:	3c f4       	brge	.+14     	; 0xdbc <DS18X20_meas_to_cel+0x4c>
     dae:	91 e0       	ldi	r25, 0x01	; 1
     db0:	ea 01       	movw	r28, r20
     db2:	98 83       	st	Y, r25
     db4:	f1 95       	neg	r31
     db6:	e1 95       	neg	r30
     db8:	f1 09       	sbc	r31, r1
     dba:	02 c0       	rjmp	.+4      	; 0xdc0 <DS18X20_meas_to_cel+0x50>
     dbc:	ea 01       	movw	r28, r20
     dbe:	18 82       	st	Y, r1
     dc0:	88 32       	cpi	r24, 0x28	; 40
     dc2:	79 f4       	brne	.+30     	; 0xde2 <DS18X20_meas_to_cel+0x72>
     dc4:	14 96       	adiw	r26, 0x04	; 4
     dc6:	8c 91       	ld	r24, X
     dc8:	98 2f       	mov	r25, r24
     dca:	90 76       	andi	r25, 0x60	; 96
     dcc:	90 36       	cpi	r25, 0x60	; 96
     dce:	49 f0       	breq	.+18     	; 0xde2 <DS18X20_meas_to_cel+0x72>
     dd0:	86 ff       	sbrs	r24, 6
     dd2:	02 c0       	rjmp	.+4      	; 0xdd8 <DS18X20_meas_to_cel+0x68>
     dd4:	ee 7f       	andi	r30, 0xFE	; 254
     dd6:	05 c0       	rjmp	.+10     	; 0xde2 <DS18X20_meas_to_cel+0x72>
     dd8:	85 ff       	sbrs	r24, 5
     dda:	02 c0       	rjmp	.+4      	; 0xde0 <DS18X20_meas_to_cel+0x70>
     ddc:	ec 7f       	andi	r30, 0xFC	; 252
     dde:	01 c0       	rjmp	.+2      	; 0xde2 <DS18X20_meas_to_cel+0x72>
     de0:	e8 7f       	andi	r30, 0xF8	; 248
     de2:	cf 01       	movw	r24, r30
     de4:	92 95       	swap	r25
     de6:	82 95       	swap	r24
     de8:	8f 70       	andi	r24, 0x0F	; 15
     dea:	89 27       	eor	r24, r25
     dec:	9f 70       	andi	r25, 0x0F	; 15
     dee:	89 27       	eor	r24, r25
     df0:	d9 01       	movw	r26, r18
     df2:	8c 93       	st	X, r24
     df4:	ef 70       	andi	r30, 0x0F	; 15
     df6:	e8 01       	movw	r28, r16
     df8:	e8 83       	st	Y, r30
     dfa:	80 e0       	ldi	r24, 0x00	; 0
     dfc:	df 91       	pop	r29
     dfe:	cf 91       	pop	r28
     e00:	1f 91       	pop	r17
     e02:	0f 91       	pop	r16
     e04:	08 95       	ret

00000e06 <DS18X20_find_sensor>:
     e06:	0f 93       	push	r16
     e08:	1f 93       	push	r17
     e0a:	cf 93       	push	r28
     e0c:	df 93       	push	r29
     e0e:	ec 01       	movw	r28, r24
     e10:	8b 01       	movw	r16, r22
     e12:	b8 01       	movw	r22, r16
     e14:	88 81       	ld	r24, Y
     e16:	0e 94 65 08 	call	0x10ca	; 0x10ca <ow_rom_search>
     e1a:	88 83       	st	Y, r24
     e1c:	81 50       	subi	r24, 0x01	; 1
     e1e:	8d 3f       	cpi	r24, 0xFD	; 253
     e20:	30 f4       	brcc	.+12     	; 0xe2e <DS18X20_find_sensor+0x28>
     e22:	f8 01       	movw	r30, r16
     e24:	80 81       	ld	r24, Z
     e26:	88 32       	cpi	r24, 0x28	; 40
     e28:	11 f0       	breq	.+4      	; 0xe2e <DS18X20_find_sensor+0x28>
     e2a:	80 31       	cpi	r24, 0x10	; 16
     e2c:	91 f7       	brne	.-28     	; 0xe12 <DS18X20_find_sensor+0xc>
     e2e:	df 91       	pop	r29
     e30:	cf 91       	pop	r28
     e32:	1f 91       	pop	r17
     e34:	0f 91       	pop	r16
     e36:	08 95       	ret

00000e38 <DS18X20_start_meas>:

/* start measurement (CONVERT_T) for all sensors if input id==NULL
   or for single sensor. then id is the rom-code */
uint8_t DS18X20_start_meas( uint8_t with_power_extern, uint8_t id[])
{
     e38:	0f 93       	push	r16
     e3a:	1f 93       	push	r17
     e3c:	cf 93       	push	r28
     e3e:	c8 2f       	mov	r28, r24
     e40:	8b 01       	movw	r16, r22
	ow_reset(); //**
     e42:	0e 94 b1 07 	call	0xf62	; 0xf62 <ow_reset>
	if( ow_input_pin_state() ) { // only send if bus is "idle" = high
     e46:	0e 94 95 07 	call	0xf2a	; 0xf2a <ow_input_pin_state>
     e4a:	88 23       	and	r24, r24
     e4c:	51 f0       	breq	.+20     	; 0xe62 <DS18X20_start_meas+0x2a>
		ow_command( DS18X20_CONVERT_T, id );
     e4e:	b8 01       	movw	r22, r16
     e50:	84 e4       	ldi	r24, 0x44	; 68
     e52:	0e 94 bf 08 	call	0x117e	; 0x117e <ow_command>
		if (with_power_extern != DS18X20_POWER_EXTERN)
     e56:	c1 30       	cpi	r28, 0x01	; 1
     e58:	31 f0       	breq	.+12     	; 0xe66 <DS18X20_start_meas+0x2e>
			ow_parasite_enable();
     e5a:	0e 94 9e 07 	call	0xf3c	; 0xf3c <ow_parasite_enable>
		return DS18X20_OK;
     e5e:	80 e0       	ldi	r24, 0x00	; 0
     e60:	03 c0       	rjmp	.+6      	; 0xe68 <DS18X20_start_meas+0x30>
	}
	else {
		#ifdef DS18X20_VERBOSE
		#endif
		return DS18X20_START_FAIL;
     e62:	82 e0       	ldi	r24, 0x02	; 2
     e64:	01 c0       	rjmp	.+2      	; 0xe68 <DS18X20_start_meas+0x30>
	ow_reset(); //**
	if( ow_input_pin_state() ) { // only send if bus is "idle" = high
		ow_command( DS18X20_CONVERT_T, id );
		if (with_power_extern != DS18X20_POWER_EXTERN)
			ow_parasite_enable();
		return DS18X20_OK;
     e66:	80 e0       	ldi	r24, 0x00	; 0
	else {
		#ifdef DS18X20_VERBOSE
		#endif
		return DS18X20_START_FAIL;
	}
}
     e68:	cf 91       	pop	r28
     e6a:	1f 91       	pop	r17
     e6c:	0f 91       	pop	r16
     e6e:	08 95       	ret

00000e70 <DS18X20_read_meas>:
   output: subzero==1 if temp.<0, cel: full celsius, mcel: frac
   in millicelsius*0.1
   i.e.: subzero=1, cel=18, millicel=5000 = -18,5000C */
uint8_t DS18X20_read_meas(uint8_t id[], uint8_t *subzero,
	uint8_t *cel, uint8_t *cel_frac_bits)
{
     e70:	6f 92       	push	r6
     e72:	7f 92       	push	r7
     e74:	8f 92       	push	r8
     e76:	9f 92       	push	r9
     e78:	af 92       	push	r10
     e7a:	bf 92       	push	r11
     e7c:	cf 92       	push	r12
     e7e:	df 92       	push	r13
     e80:	ef 92       	push	r14
     e82:	ff 92       	push	r15
     e84:	0f 93       	push	r16
     e86:	1f 93       	push	r17
     e88:	cf 93       	push	r28
     e8a:	df 93       	push	r29
     e8c:	cd b7       	in	r28, 0x3d	; 61
     e8e:	de b7       	in	r29, 0x3e	; 62
     e90:	29 97       	sbiw	r28, 0x09	; 9
     e92:	0f b6       	in	r0, 0x3f	; 63
     e94:	f8 94       	cli
     e96:	de bf       	out	0x3e, r29	; 62
     e98:	0f be       	out	0x3f, r0	; 63
     e9a:	cd bf       	out	0x3d, r28	; 61
     e9c:	6c 01       	movw	r12, r24
     e9e:	5b 01       	movw	r10, r22
     ea0:	3a 01       	movw	r6, r20
     ea2:	49 01       	movw	r8, r18
	uint8_t i;
	uint8_t sp[DS18X20_SP_SIZE];

	ow_reset(); //**
     ea4:	0e 94 b1 07 	call	0xf62	; 0xf62 <ow_reset>
	ow_command(DS18X20_READ, id);
     ea8:	b6 01       	movw	r22, r12
     eaa:	8e eb       	ldi	r24, 0xBE	; 190
     eac:	0e 94 bf 08 	call	0x117e	; 0x117e <ow_command>
     eb0:	8e 01       	movw	r16, r28
     eb2:	0f 5f       	subi	r16, 0xFF	; 255
     eb4:	1f 4f       	sbci	r17, 0xFF	; 255
     eb6:	7e 01       	movw	r14, r28
     eb8:	8a e0       	ldi	r24, 0x0A	; 10
     eba:	e8 0e       	add	r14, r24
     ebc:	f1 1c       	adc	r15, r1
	for ( i=0 ; i< DS18X20_SP_SIZE; i++ ) sp[i]=ow_byte_rd();
     ebe:	0e 94 61 08 	call	0x10c2	; 0x10c2 <ow_byte_rd>
     ec2:	f8 01       	movw	r30, r16
     ec4:	81 93       	st	Z+, r24
     ec6:	8f 01       	movw	r16, r30
     ec8:	ee 15       	cp	r30, r14
     eca:	ff 05       	cpc	r31, r15
     ecc:	c1 f7       	brne	.-16     	; 0xebe <DS18X20_read_meas+0x4e>
	if ( crc8( &sp[0], DS18X20_SP_SIZE ) )
     ece:	69 e0       	ldi	r22, 0x09	; 9
     ed0:	70 e0       	ldi	r23, 0x00	; 0
     ed2:	ce 01       	movw	r24, r28
     ed4:	01 96       	adiw	r24, 0x01	; 1
     ed6:	0e 94 9c 06 	call	0xd38	; 0xd38 <crc8>
     eda:	f8 2e       	mov	r15, r24
     edc:	81 11       	cpse	r24, r1
     ede:	0b c0       	rjmp	.+22     	; 0xef6 <DS18X20_read_meas+0x86>
		return DS18X20_ERROR_CRC;
	DS18X20_meas_to_cel(id[0], sp, subzero, cel, cel_frac_bits);
     ee0:	84 01       	movw	r16, r8
     ee2:	93 01       	movw	r18, r6
     ee4:	a5 01       	movw	r20, r10
     ee6:	be 01       	movw	r22, r28
     ee8:	6f 5f       	subi	r22, 0xFF	; 255
     eea:	7f 4f       	sbci	r23, 0xFF	; 255
     eec:	f6 01       	movw	r30, r12
     eee:	80 81       	ld	r24, Z
     ef0:	0e 94 b8 06 	call	0xd70	; 0xd70 <DS18X20_meas_to_cel>
	return DS18X20_OK;
     ef4:	04 c0       	rjmp	.+8      	; 0xefe <DS18X20_read_meas+0x8e>

	ow_reset(); //**
	ow_command(DS18X20_READ, id);
	for ( i=0 ; i< DS18X20_SP_SIZE; i++ ) sp[i]=ow_byte_rd();
	if ( crc8( &sp[0], DS18X20_SP_SIZE ) )
		return DS18X20_ERROR_CRC;
     ef6:	0f 2e       	mov	r0, r31
     ef8:	f3 e0       	ldi	r31, 0x03	; 3
     efa:	ff 2e       	mov	r15, r31
     efc:	f0 2d       	mov	r31, r0
	DS18X20_meas_to_cel(id[0], sp, subzero, cel, cel_frac_bits);
	return DS18X20_OK;
}
     efe:	8f 2d       	mov	r24, r15
     f00:	29 96       	adiw	r28, 0x09	; 9
     f02:	0f b6       	in	r0, 0x3f	; 63
     f04:	f8 94       	cli
     f06:	de bf       	out	0x3e, r29	; 62
     f08:	0f be       	out	0x3f, r0	; 63
     f0a:	cd bf       	out	0x3d, r28	; 61
     f0c:	df 91       	pop	r29
     f0e:	cf 91       	pop	r28
     f10:	1f 91       	pop	r17
     f12:	0f 91       	pop	r16
     f14:	ff 90       	pop	r15
     f16:	ef 90       	pop	r14
     f18:	df 90       	pop	r13
     f1a:	cf 90       	pop	r12
     f1c:	bf 90       	pop	r11
     f1e:	af 90       	pop	r10
     f20:	9f 90       	pop	r9
     f22:	8f 90       	pop	r8
     f24:	7f 90       	pop	r7
     f26:	6f 90       	pop	r6
     f28:	08 95       	ret

00000f2a <ow_input_pin_state>:
}

void ow_parasite_disable(void)
{
    OW_OUT_LOW();
	OW_DIR_IN();
     f2a:	e0 91 66 06 	lds	r30, 0x0666	; 0x800666 <OW_IN>
     f2e:	f0 91 67 06 	lds	r31, 0x0667	; 0x800667 <OW_IN+0x1>
     f32:	90 81       	ld	r25, Z
     f34:	80 91 65 06 	lds	r24, 0x0665	; 0x800665 <OW_PIN_MASK>
     f38:	89 23       	and	r24, r25
     f3a:	08 95       	ret

00000f3c <ow_parasite_enable>:
     f3c:	e0 91 63 06 	lds	r30, 0x0663	; 0x800663 <OW_OUT>
     f40:	f0 91 64 06 	lds	r31, 0x0664	; 0x800664 <OW_OUT+0x1>
     f44:	90 81       	ld	r25, Z
     f46:	80 91 65 06 	lds	r24, 0x0665	; 0x800665 <OW_PIN_MASK>
     f4a:	89 2b       	or	r24, r25
     f4c:	80 83       	st	Z, r24
     f4e:	e0 91 68 06 	lds	r30, 0x0668	; 0x800668 <OW_DDR>
     f52:	f0 91 69 06 	lds	r31, 0x0669	; 0x800669 <OW_DDR+0x1>
     f56:	90 81       	ld	r25, Z
     f58:	80 91 65 06 	lds	r24, 0x0665	; 0x800665 <OW_PIN_MASK>
     f5c:	89 2b       	or	r24, r25
     f5e:	80 83       	st	Z, r24
     f60:	08 95       	ret

00000f62 <ow_reset>:
uint8_t ow_reset(void)
{
	uint8_t err;
	uint8_t sreg;
	
	OW_OUT_LOW(); // disable internal pull-up (maybe on from parasite)
     f62:	e0 91 63 06 	lds	r30, 0x0663	; 0x800663 <OW_OUT>
     f66:	f0 91 64 06 	lds	r31, 0x0664	; 0x800664 <OW_OUT+0x1>
     f6a:	90 81       	ld	r25, Z
     f6c:	80 91 65 06 	lds	r24, 0x0665	; 0x800665 <OW_PIN_MASK>
     f70:	80 95       	com	r24
     f72:	89 23       	and	r24, r25
     f74:	80 83       	st	Z, r24
	OW_DIR_OUT(); // pull OW-Pin low for 480us
     f76:	e0 91 68 06 	lds	r30, 0x0668	; 0x800668 <OW_DDR>
     f7a:	f0 91 69 06 	lds	r31, 0x0669	; 0x800669 <OW_DDR+0x1>
     f7e:	90 81       	ld	r25, Z
     f80:	80 91 65 06 	lds	r24, 0x0665	; 0x800665 <OW_PIN_MASK>
     f84:	89 2b       	or	r24, r25
     f86:	80 83       	st	Z, r24
/* delay function for microsec
   4 cpu cycles per loop + 1 cycles(?) overhead 
   when a constant is passed. */
static inline void delayloop16(uint16_t count)
{
	asm volatile (  "cp  %A0,__zero_reg__ \n\t"  \
     f88:	8f e8       	ldi	r24, 0x8F	; 143
     f8a:	97 e0       	ldi	r25, 0x07	; 7
     f8c:	81 15       	cp	r24, r1
     f8e:	91 05       	cpc	r25, r1
     f90:	11 f0       	breq	.+4      	; 0xf96 <L_Exit_69>

00000f92 <L_LOOP_69>:
     f92:	01 97       	sbiw	r24, 0x01	; 1
     f94:	f1 f7       	brne	.-4      	; 0xf92 <L_LOOP_69>

00000f96 <L_Exit_69>:
	
	delay_us(480);
	
	sreg=SREG;
     f96:	2f b7       	in	r18, 0x3f	; 63
	cli();
     f98:	f8 94       	cli
	
	// set Pin as input - wait for clients to pull low
	OW_DIR_IN(); // input
     f9a:	e0 91 68 06 	lds	r30, 0x0668	; 0x800668 <OW_DDR>
     f9e:	f0 91 69 06 	lds	r31, 0x0669	; 0x800669 <OW_DDR+0x1>
     fa2:	90 81       	ld	r25, Z
     fa4:	80 91 65 06 	lds	r24, 0x0665	; 0x800665 <OW_PIN_MASK>
     fa8:	80 95       	com	r24
     faa:	89 23       	and	r24, r25
     fac:	80 83       	st	Z, r24
     fae:	89 e0       	ldi	r24, 0x09	; 9
     fb0:	91 e0       	ldi	r25, 0x01	; 1
     fb2:	81 15       	cp	r24, r1
     fb4:	91 05       	cpc	r25, r1
     fb6:	11 f0       	breq	.+4      	; 0xfbc <L_Exit_86>

00000fb8 <L_LOOP_86>:
     fb8:	01 97       	sbiw	r24, 0x01	; 1
     fba:	f1 f7       	brne	.-4      	; 0xfb8 <L_LOOP_86>

00000fbc <L_Exit_86>:
	
	delay_us(66);
	err = OW_GET_IN();		// no presence detect
     fbc:	e0 91 66 06 	lds	r30, 0x0666	; 0x800666 <OW_IN>
     fc0:	f0 91 67 06 	lds	r31, 0x0667	; 0x800667 <OW_IN+0x1>
     fc4:	30 81       	ld	r19, Z
     fc6:	80 91 65 06 	lds	r24, 0x0665	; 0x800665 <OW_PIN_MASK>
	// nobody pulled to low, still high
	
	SREG=sreg; // sei()
     fca:	2f bf       	out	0x3f, r18	; 63
     fcc:	e5 e8       	ldi	r30, 0x85	; 133
     fce:	f6 e0       	ldi	r31, 0x06	; 6
     fd0:	e1 15       	cp	r30, r1
     fd2:	f1 05       	cpc	r31, r1
     fd4:	11 f0       	breq	.+4      	; 0xfda <L_Exit_99>

00000fd6 <L_LOOP_99>:
     fd6:	31 97       	sbiw	r30, 0x01	; 1
     fd8:	f1 f7       	brne	.-4      	; 0xfd6 <L_LOOP_99>

00000fda <L_Exit_99>:
	
	// after a delay the clients should release the line
	// and input-pin gets back to high due to pull-up-resistor
	delay_us(480-66);
	if( OW_GET_IN() == 0 )		// short circuit
     fda:	e0 91 66 06 	lds	r30, 0x0666	; 0x800666 <OW_IN>
     fde:	f0 91 67 06 	lds	r31, 0x0667	; 0x800667 <OW_IN+0x1>
     fe2:	20 81       	ld	r18, Z
     fe4:	90 91 65 06 	lds	r25, 0x0665	; 0x800665 <OW_PIN_MASK>
     fe8:	92 23       	and	r25, r18
     fea:	11 f0       	breq	.+4      	; 0xff0 <L_Exit_99+0x16>
	
	// set Pin as input - wait for clients to pull low
	OW_DIR_IN(); // input
	
	delay_us(66);
	err = OW_GET_IN();		// no presence detect
     fec:	83 23       	and	r24, r19
     fee:	08 95       	ret
	
	// after a delay the clients should release the line
	// and input-pin gets back to high due to pull-up-resistor
	delay_us(480-66);
	if( OW_GET_IN() == 0 )		// short circuit
		err = 1;
     ff0:	81 e0       	ldi	r24, 0x01	; 1
	
	return err;
}
     ff2:	08 95       	ret

00000ff4 <ow_set_bus>:
void ow_set_bus(volatile uint8_t* in,
	volatile uint8_t* out,
	volatile uint8_t* ddr,
	uint8_t pin)
{
	OW_DDR=ddr;
     ff4:	50 93 69 06 	sts	0x0669, r21	; 0x800669 <OW_DDR+0x1>
     ff8:	40 93 68 06 	sts	0x0668, r20	; 0x800668 <OW_DDR>
	OW_OUT=out;
     ffc:	70 93 64 06 	sts	0x0664, r23	; 0x800664 <OW_OUT+0x1>
    1000:	60 93 63 06 	sts	0x0663, r22	; 0x800663 <OW_OUT>
	OW_IN=in;
    1004:	90 93 67 06 	sts	0x0667, r25	; 0x800667 <OW_IN+0x1>
    1008:	80 93 66 06 	sts	0x0666, r24	; 0x800666 <OW_IN>
	OW_PIN_MASK=(1<<pin);
    100c:	81 e0       	ldi	r24, 0x01	; 1
    100e:	01 c0       	rjmp	.+2      	; 0x1012 <ow_set_bus+0x1e>
    1010:	88 0f       	add	r24, r24
    1012:	2a 95       	dec	r18
    1014:	ea f7       	brpl	.-6      	; 0x1010 <ow_set_bus+0x1c>
    1016:	80 93 65 06 	sts	0x0665, r24	; 0x800665 <OW_PIN_MASK>
	ow_reset();
    101a:	0e 94 b1 07 	call	0xf62	; 0xf62 <ow_reset>
    101e:	08 95       	ret

00001020 <ow_bit_io>:
   but around 14 cyles in configureable bus (us-Delay is 4 cyles per uS) */
uint8_t ow_bit_io( uint8_t b )
{
	uint8_t sreg;
	
	sreg=SREG;
    1020:	3f b7       	in	r19, 0x3f	; 63
	cli();
    1022:	f8 94       	cli
	
	OW_DIR_OUT(); // drive bus low
    1024:	e0 91 68 06 	lds	r30, 0x0668	; 0x800668 <OW_DDR>
    1028:	f0 91 69 06 	lds	r31, 0x0669	; 0x800669 <OW_DDR+0x1>
    102c:	20 81       	ld	r18, Z
    102e:	90 91 65 06 	lds	r25, 0x0665	; 0x800665 <OW_PIN_MASK>
    1032:	92 2b       	or	r25, r18
    1034:	90 83       	st	Z, r25
    1036:	e3 e0       	ldi	r30, 0x03	; 3
    1038:	f0 e0       	ldi	r31, 0x00	; 0
    103a:	e1 15       	cp	r30, r1
    103c:	f1 05       	cpc	r31, r1
    103e:	11 f0       	breq	.+4      	; 0x1044 <L_Exit_169>

00001040 <L_LOOP_169>:
    1040:	31 97       	sbiw	r30, 0x01	; 1
    1042:	f1 f7       	brne	.-4      	; 0x1040 <L_LOOP_169>

00001044 <L_Exit_169>:
	
	delay_us(1); // Recovery-Time wuffwuff was 1
	if ( b ) OW_DIR_IN(); // if bit is 1 set bus high (by ext. pull-up)
    1044:	88 23       	and	r24, r24
    1046:	51 f0       	breq	.+20     	; 0x105c <L_Exit_169+0x18>
    1048:	e0 91 68 06 	lds	r30, 0x0668	; 0x800668 <OW_DDR>
    104c:	f0 91 69 06 	lds	r31, 0x0669	; 0x800669 <OW_DDR+0x1>
    1050:	20 81       	ld	r18, Z
    1052:	90 91 65 06 	lds	r25, 0x0665	; 0x800665 <OW_PIN_MASK>
    1056:	90 95       	com	r25
    1058:	92 23       	and	r25, r18
    105a:	90 83       	st	Z, r25
    105c:	e8 e3       	ldi	r30, 0x38	; 56
    105e:	f0 e0       	ldi	r31, 0x00	; 0
    1060:	e1 15       	cp	r30, r1
    1062:	f1 05       	cpc	r31, r1
    1064:	11 f0       	breq	.+4      	; 0x106a <L_Exit_188>

00001066 <L_LOOP_188>:
    1066:	31 97       	sbiw	r30, 0x01	; 1
    1068:	f1 f7       	brne	.-4      	; 0x1066 <L_LOOP_188>

0000106a <L_Exit_188>:
		
	// wuffwuff delay was 15uS-1 see comment above
	delay_us(15-1-OW_CONF_DELAYOFFSET);
		
	if( OW_GET_IN() == 0 ) b = 0;  // sample at end of read-timeslot
    106a:	e0 91 66 06 	lds	r30, 0x0666	; 0x800666 <OW_IN>
    106e:	f0 91 67 06 	lds	r31, 0x0667	; 0x800667 <OW_IN+0x1>
    1072:	20 81       	ld	r18, Z
    1074:	90 91 65 06 	lds	r25, 0x0665	; 0x800665 <OW_PIN_MASK>
    1078:	29 23       	and	r18, r25
    107a:	09 f4       	brne	.+2      	; 0x107e <L_Exit_188+0x14>
    107c:	80 e0       	ldi	r24, 0x00	; 0
    107e:	e5 eb       	ldi	r30, 0xB5	; 181
    1080:	f0 e0       	ldi	r31, 0x00	; 0
    1082:	e1 15       	cp	r30, r1
    1084:	f1 05       	cpc	r31, r1
    1086:	11 f0       	breq	.+4      	; 0x108c <L_Exit_208>

00001088 <L_LOOP_208>:
    1088:	31 97       	sbiw	r30, 0x01	; 1
    108a:	f1 f7       	brne	.-4      	; 0x1088 <L_LOOP_208>

0000108c <L_Exit_208>:
	
	delay_us(60-15);
	OW_DIR_IN();
    108c:	e0 91 68 06 	lds	r30, 0x0668	; 0x800668 <OW_DDR>
    1090:	f0 91 69 06 	lds	r31, 0x0669	; 0x800669 <OW_DDR+0x1>
    1094:	20 81       	ld	r18, Z
    1096:	90 95       	com	r25
    1098:	92 23       	and	r25, r18
    109a:	90 83       	st	Z, r25
	
	SREG=sreg; // sei();
    109c:	3f bf       	out	0x3f, r19	; 63
	
	return b;
}
    109e:	08 95       	ret

000010a0 <ow_byte_wr>:


uint8_t ow_byte_wr( uint8_t b )
{
    10a0:	cf 93       	push	r28
    10a2:	df 93       	push	r29
    10a4:	c8 2f       	mov	r28, r24
    10a6:	d8 e0       	ldi	r29, 0x08	; 8
	uint8_t i = 8, j;
	
	do {
		j = ow_bit_io( b & 1 );
    10a8:	8c 2f       	mov	r24, r28
    10aa:	81 70       	andi	r24, 0x01	; 1
    10ac:	0e 94 10 08 	call	0x1020	; 0x1020 <ow_bit_io>
		b >>= 1;
    10b0:	c6 95       	lsr	r28
		if( j ) b |= 0x80;
    10b2:	81 11       	cpse	r24, r1
    10b4:	c0 68       	ori	r28, 0x80	; 128
    10b6:	d1 50       	subi	r29, 0x01	; 1
	} while( --i );
    10b8:	b9 f7       	brne	.-18     	; 0x10a8 <ow_byte_wr+0x8>
	
	return b;
}
    10ba:	8c 2f       	mov	r24, r28
    10bc:	df 91       	pop	r29
    10be:	cf 91       	pop	r28
    10c0:	08 95       	ret

000010c2 <ow_byte_rd>:


uint8_t ow_byte_rd( void )
{
  // read by sending 0xff (a dontcare?)
  return ow_byte_wr( 0xFF ); 
    10c2:	8f ef       	ldi	r24, 0xFF	; 255
    10c4:	0e 94 50 08 	call	0x10a0	; 0x10a0 <ow_byte_wr>
}
    10c8:	08 95       	ret

000010ca <ow_rom_search>:


uint8_t ow_rom_search( uint8_t diff, uint8_t *id )
{
    10ca:	df 92       	push	r13
    10cc:	ef 92       	push	r14
    10ce:	ff 92       	push	r15
    10d0:	0f 93       	push	r16
    10d2:	1f 93       	push	r17
    10d4:	cf 93       	push	r28
    10d6:	df 93       	push	r29
    10d8:	d8 2e       	mov	r13, r24
    10da:	8b 01       	movw	r16, r22
	uint8_t i, j, next_diff;
	uint8_t b;
	
	if( ow_reset() ) return OW_PRESENCE_ERR;	// error, no device found
    10dc:	0e 94 b1 07 	call	0xf62	; 0xf62 <ow_reset>
    10e0:	81 11       	cpse	r24, r1
    10e2:	2b c0       	rjmp	.+86     	; 0x113a <__stack+0x3b>
	
	ow_byte_wr( OW_SEARCH_ROM );			// ROM search command
    10e4:	80 ef       	ldi	r24, 0xF0	; 240
    10e6:	0e 94 50 08 	call	0x10a0	; 0x10a0 <ow_byte_wr>
	next_diff = OW_LAST_DEVICE;			// unchanged on last device
    10ea:	e1 2c       	mov	r14, r1
	
	i = OW_ROMCODE_SIZE * 8;					// 8 bytes
    10ec:	c0 e4       	ldi	r28, 0x40	; 64
    10ee:	0f 2e       	mov	r0, r31
    10f0:	f8 ef       	ldi	r31, 0xF8	; 248
    10f2:	ff 2e       	mov	r15, r31
    10f4:	f0 2d       	mov	r31, r0
    10f6:	fc 0e       	add	r15, r28
	
	do {
		j = 8;					// 8 bits
		do {
			b = ow_bit_io( 1 );			// read bit
    10f8:	81 e0       	ldi	r24, 0x01	; 1
    10fa:	0e 94 10 08 	call	0x1020	; 0x1020 <ow_bit_io>
    10fe:	d8 2f       	mov	r29, r24
			if( ow_bit_io( 1 ) ) {			// read complement bit
    1100:	81 e0       	ldi	r24, 0x01	; 1
    1102:	0e 94 10 08 	call	0x1020	; 0x1020 <ow_bit_io>
    1106:	88 23       	and	r24, r24
    1108:	19 f0       	breq	.+6      	; 0x1110 <__stack+0x11>
				if( b )					// 11
    110a:	dd 23       	and	r29, r29
    110c:	d1 f0       	breq	.+52     	; 0x1142 <__stack+0x43>
    110e:	17 c0       	rjmp	.+46     	; 0x113e <__stack+0x3f>
				return OW_DATA_ERR;			// data error
			}
			else {
				if( !b ) {				// 00 = 2 devices
    1110:	d1 11       	cpse	r29, r1
    1112:	24 c0       	rjmp	.+72     	; 0x115c <__stack+0x5d>
					if( diff > i || ((*id & 1) && diff != i) ) {
    1114:	cd 15       	cp	r28, r13
    1116:	e8 f0       	brcs	.+58     	; 0x1152 <__stack+0x53>
    1118:	f8 01       	movw	r30, r16
    111a:	80 81       	ld	r24, Z
    111c:	80 ff       	sbrs	r24, 0
    111e:	11 c0       	rjmp	.+34     	; 0x1142 <__stack+0x43>
    1120:	cd 11       	cpse	r28, r13
    1122:	1a c0       	rjmp	.+52     	; 0x1158 <__stack+0x59>
    1124:	0e c0       	rjmp	.+28     	; 0x1142 <__stack+0x43>
			}
			ow_bit_io( b );     			// write bit
			*id >>= 1;
			if( b ) *id |= 0x80;			// store bit
			
			i--;
    1126:	c1 50       	subi	r28, 0x01	; 1
			
		} while( --j );
    1128:	fc 12       	cpse	r15, r28
    112a:	e6 cf       	rjmp	.-52     	; 0x10f8 <ow_rom_search+0x2e>
		
		id++;					// next byte
    112c:	0f 5f       	subi	r16, 0xFF	; 255
    112e:	1f 4f       	sbci	r17, 0xFF	; 255
			}
			ow_bit_io( b );     			// write bit
			*id >>= 1;
			if( b ) *id |= 0x80;			// store bit
			
			i--;
    1130:	cf 2d       	mov	r28, r15
			
		} while( --j );
		
		id++;					// next byte
	
	} while( i );
    1132:	f1 10       	cpse	r15, r1
    1134:	dc cf       	rjmp	.-72     	; 0x10ee <ow_rom_search+0x24>
    1136:	8e 2d       	mov	r24, r14
    1138:	1a c0       	rjmp	.+52     	; 0x116e <__stack+0x6f>
uint8_t ow_rom_search( uint8_t diff, uint8_t *id )
{
	uint8_t i, j, next_diff;
	uint8_t b;
	
	if( ow_reset() ) return OW_PRESENCE_ERR;	// error, no device found
    113a:	8f ef       	ldi	r24, 0xFF	; 255
    113c:	18 c0       	rjmp	.+48     	; 0x116e <__stack+0x6f>
		j = 8;					// 8 bits
		do {
			b = ow_bit_io( 1 );			// read bit
			if( ow_bit_io( 1 ) ) {			// read complement bit
				if( b )					// 11
				return OW_DATA_ERR;			// data error
    113e:	8e ef       	ldi	r24, 0xFE	; 254
    1140:	16 c0       	rjmp	.+44     	; 0x116e <__stack+0x6f>
					b = 1;				// now 1
					next_diff = i;			// next pass 0
					}
				}
			}
			ow_bit_io( b );     			// write bit
    1142:	80 e0       	ldi	r24, 0x00	; 0
    1144:	0e 94 10 08 	call	0x1020	; 0x1020 <ow_bit_io>
			*id >>= 1;
    1148:	f8 01       	movw	r30, r16
    114a:	90 81       	ld	r25, Z
    114c:	96 95       	lsr	r25
    114e:	90 83       	st	Z, r25
    1150:	ea cf       	rjmp	.-44     	; 0x1126 <__stack+0x27>
			}
			else {
				if( !b ) {				// 00 = 2 devices
					if( diff > i || ((*id & 1) && diff != i) ) {
					b = 1;				// now 1
					next_diff = i;			// next pass 0
    1152:	ec 2e       	mov	r14, r28
				return OW_DATA_ERR;			// data error
			}
			else {
				if( !b ) {				// 00 = 2 devices
					if( diff > i || ((*id & 1) && diff != i) ) {
					b = 1;				// now 1
    1154:	d1 e0       	ldi	r29, 0x01	; 1
    1156:	02 c0       	rjmp	.+4      	; 0x115c <__stack+0x5d>
					next_diff = i;			// next pass 0
    1158:	ec 2e       	mov	r14, r28
				return OW_DATA_ERR;			// data error
			}
			else {
				if( !b ) {				// 00 = 2 devices
					if( diff > i || ((*id & 1) && diff != i) ) {
					b = 1;				// now 1
    115a:	d1 e0       	ldi	r29, 0x01	; 1
					next_diff = i;			// next pass 0
					}
				}
			}
			ow_bit_io( b );     			// write bit
    115c:	8d 2f       	mov	r24, r29
    115e:	0e 94 10 08 	call	0x1020	; 0x1020 <ow_bit_io>
			*id >>= 1;
			if( b ) *id |= 0x80;			// store bit
    1162:	f8 01       	movw	r30, r16
    1164:	90 81       	ld	r25, Z
    1166:	96 95       	lsr	r25
    1168:	90 68       	ori	r25, 0x80	; 128
    116a:	90 83       	st	Z, r25
    116c:	dc cf       	rjmp	.-72     	; 0x1126 <__stack+0x27>
		id++;					// next byte
	
	} while( i );
	
	return next_diff;				// to continue search
}
    116e:	df 91       	pop	r29
    1170:	cf 91       	pop	r28
    1172:	1f 91       	pop	r17
    1174:	0f 91       	pop	r16
    1176:	ff 90       	pop	r15
    1178:	ef 90       	pop	r14
    117a:	df 90       	pop	r13
    117c:	08 95       	ret

0000117e <ow_command>:


void ow_command( uint8_t command, uint8_t *id )
{
    117e:	ff 92       	push	r15
    1180:	0f 93       	push	r16
    1182:	1f 93       	push	r17
    1184:	cf 93       	push	r28
    1186:	df 93       	push	r29
    1188:	f8 2e       	mov	r15, r24
    118a:	eb 01       	movw	r28, r22
	uint8_t i;

	ow_reset();
    118c:	0e 94 b1 07 	call	0xf62	; 0xf62 <ow_reset>

	if( id ) {
    1190:	20 97       	sbiw	r28, 0x00	; 0
    1192:	69 f0       	breq	.+26     	; 0x11ae <ow_command+0x30>
		ow_byte_wr( OW_MATCH_ROM );			// to a single device
    1194:	85 e5       	ldi	r24, 0x55	; 85
    1196:	0e 94 50 08 	call	0x10a0	; 0x10a0 <ow_byte_wr>
    119a:	8e 01       	movw	r16, r28
    119c:	08 5f       	subi	r16, 0xF8	; 248
    119e:	1f 4f       	sbci	r17, 0xFF	; 255
		i = OW_ROMCODE_SIZE;
		do {
			ow_byte_wr( *id );
    11a0:	89 91       	ld	r24, Y+
    11a2:	0e 94 50 08 	call	0x10a0	; 0x10a0 <ow_byte_wr>
			id++;
		} while( --i );
    11a6:	c0 17       	cp	r28, r16
    11a8:	d1 07       	cpc	r29, r17
    11aa:	d1 f7       	brne	.-12     	; 0x11a0 <ow_command+0x22>
    11ac:	03 c0       	rjmp	.+6      	; 0x11b4 <ow_command+0x36>
	} 
	else {
		ow_byte_wr( OW_SKIP_ROM );			// to all devices
    11ae:	8c ec       	ldi	r24, 0xCC	; 204
    11b0:	0e 94 50 08 	call	0x10a0	; 0x10a0 <ow_byte_wr>
	}
	
	ow_byte_wr( command );
    11b4:	8f 2d       	mov	r24, r15
    11b6:	0e 94 50 08 	call	0x10a0	; 0x10a0 <ow_byte_wr>
}
    11ba:	df 91       	pop	r29
    11bc:	cf 91       	pop	r28
    11be:	1f 91       	pop	r17
    11c0:	0f 91       	pop	r16
    11c2:	ff 90       	pop	r15
    11c4:	08 95       	ret

000011c6 <i2c_init>:
	data[(length-1)] = i2c_read_nack();

	i2c_stop();

	return 0;
}
    11c6:	8e e2       	ldi	r24, 0x2E	; 46
    11c8:	80 93 70 00 	sts	0x0070, r24	; 0x800070 <__TEXT_REGION_LENGTH__+0x7e0070>
    11cc:	08 95       	ret

000011ce <i2c_start>:
    11ce:	e4 e7       	ldi	r30, 0x74	; 116
    11d0:	f0 e0       	ldi	r31, 0x00	; 0
    11d2:	10 82       	st	Z, r1
    11d4:	94 ea       	ldi	r25, 0xA4	; 164
    11d6:	90 83       	st	Z, r25
    11d8:	90 81       	ld	r25, Z
    11da:	99 23       	and	r25, r25
    11dc:	ec f7       	brge	.-6      	; 0x11d8 <i2c_start+0xa>
    11de:	90 91 71 00 	lds	r25, 0x0071	; 0x800071 <__TEXT_REGION_LENGTH__+0x7e0071>
    11e2:	98 7f       	andi	r25, 0xF8	; 248
    11e4:	98 30       	cpi	r25, 0x08	; 8
    11e6:	a1 f4       	brne	.+40     	; 0x1210 <i2c_start+0x42>
    11e8:	80 93 73 00 	sts	0x0073, r24	; 0x800073 <__TEXT_REGION_LENGTH__+0x7e0073>
    11ec:	84 e8       	ldi	r24, 0x84	; 132
    11ee:	80 93 74 00 	sts	0x0074, r24	; 0x800074 <__TEXT_REGION_LENGTH__+0x7e0074>
    11f2:	e4 e7       	ldi	r30, 0x74	; 116
    11f4:	f0 e0       	ldi	r31, 0x00	; 0
    11f6:	80 81       	ld	r24, Z
    11f8:	88 23       	and	r24, r24
    11fa:	ec f7       	brge	.-6      	; 0x11f6 <i2c_start+0x28>
    11fc:	90 91 71 00 	lds	r25, 0x0071	; 0x800071 <__TEXT_REGION_LENGTH__+0x7e0071>
    1200:	98 7f       	andi	r25, 0xF8	; 248
    1202:	98 31       	cpi	r25, 0x18	; 24
    1204:	39 f0       	breq	.+14     	; 0x1214 <i2c_start+0x46>
    1206:	81 e0       	ldi	r24, 0x01	; 1
    1208:	90 34       	cpi	r25, 0x40	; 64
    120a:	29 f4       	brne	.+10     	; 0x1216 <i2c_start+0x48>
    120c:	80 e0       	ldi	r24, 0x00	; 0
    120e:	08 95       	ret
    1210:	81 e0       	ldi	r24, 0x01	; 1
    1212:	08 95       	ret
    1214:	80 e0       	ldi	r24, 0x00	; 0
    1216:	08 95       	ret

00001218 <i2c_write>:
    1218:	80 93 73 00 	sts	0x0073, r24	; 0x800073 <__TEXT_REGION_LENGTH__+0x7e0073>
    121c:	84 e8       	ldi	r24, 0x84	; 132
    121e:	80 93 74 00 	sts	0x0074, r24	; 0x800074 <__TEXT_REGION_LENGTH__+0x7e0074>
    1222:	e4 e7       	ldi	r30, 0x74	; 116
    1224:	f0 e0       	ldi	r31, 0x00	; 0
    1226:	80 81       	ld	r24, Z
    1228:	88 23       	and	r24, r24
    122a:	ec f7       	brge	.-6      	; 0x1226 <i2c_write+0xe>
    122c:	90 91 71 00 	lds	r25, 0x0071	; 0x800071 <__TEXT_REGION_LENGTH__+0x7e0071>
    1230:	98 7f       	andi	r25, 0xF8	; 248
    1232:	81 e0       	ldi	r24, 0x01	; 1
    1234:	98 32       	cpi	r25, 0x28	; 40
    1236:	09 f4       	brne	.+2      	; 0x123a <i2c_write+0x22>
    1238:	80 e0       	ldi	r24, 0x00	; 0
    123a:	08 95       	ret

0000123c <i2c_read_ack>:
    123c:	84 ec       	ldi	r24, 0xC4	; 196
    123e:	80 93 74 00 	sts	0x0074, r24	; 0x800074 <__TEXT_REGION_LENGTH__+0x7e0074>
    1242:	e4 e7       	ldi	r30, 0x74	; 116
    1244:	f0 e0       	ldi	r31, 0x00	; 0
    1246:	80 81       	ld	r24, Z
    1248:	88 23       	and	r24, r24
    124a:	ec f7       	brge	.-6      	; 0x1246 <i2c_read_ack+0xa>
    124c:	80 91 73 00 	lds	r24, 0x0073	; 0x800073 <__TEXT_REGION_LENGTH__+0x7e0073>
    1250:	08 95       	ret

00001252 <i2c_read_nack>:
    1252:	84 e8       	ldi	r24, 0x84	; 132
    1254:	80 93 74 00 	sts	0x0074, r24	; 0x800074 <__TEXT_REGION_LENGTH__+0x7e0074>
    1258:	e4 e7       	ldi	r30, 0x74	; 116
    125a:	f0 e0       	ldi	r31, 0x00	; 0
    125c:	80 81       	ld	r24, Z
    125e:	88 23       	and	r24, r24
    1260:	ec f7       	brge	.-6      	; 0x125c <i2c_read_nack+0xa>
    1262:	80 91 73 00 	lds	r24, 0x0073	; 0x800073 <__TEXT_REGION_LENGTH__+0x7e0073>
    1266:	08 95       	ret

00001268 <i2c_stop>:

void i2c_stop(void)
{
	// transmit STOP condition
	TWCR = (1<<TWINT) | (1<<TWEN) | (1<<TWSTO);
    1268:	84 e9       	ldi	r24, 0x94	; 148
    126a:	80 93 74 00 	sts	0x0074, r24	; 0x800074 <__TEXT_REGION_LENGTH__+0x7e0074>
    126e:	08 95       	ret

00001270 <toggle_e>:

void lcd_putbyte_hex( unsigned char c)                       // 1 byte kiirasa hexadecimalisan
{
	lcd_putc_hex( c >> 4);
	lcd_putc_hex( c);
}
    1270:	ad 9a       	sbi	0x15, 5	; 21
    1272:	00 c0       	rjmp	.+0      	; 0x1274 <toggle_e+0x4>
    1274:	00 c0       	rjmp	.+0      	; 0x1276 <toggle_e+0x6>
    1276:	ad 98       	cbi	0x15, 5	; 21
    1278:	08 95       	ret

0000127a <lcd_write>:
    127a:	cf 93       	push	r28
    127c:	c8 2f       	mov	r28, r24
    127e:	66 23       	and	r22, r22
    1280:	11 f0       	breq	.+4      	; 0x1286 <lcd_write+0xc>
    1282:	af 9a       	sbi	0x15, 7	; 21
    1284:	01 c0       	rjmp	.+2      	; 0x1288 <lcd_write+0xe>
    1286:	af 98       	cbi	0x15, 7	; 21
    1288:	ae 98       	cbi	0x15, 6	; 21
    128a:	a4 9a       	sbi	0x14, 4	; 20
    128c:	a3 9a       	sbi	0x14, 3	; 20
    128e:	a2 9a       	sbi	0x14, 2	; 20
    1290:	a1 9a       	sbi	0x14, 1	; 20
    1292:	a9 98       	cbi	0x15, 1	; 21
    1294:	aa 98       	cbi	0x15, 2	; 21
    1296:	ab 98       	cbi	0x15, 3	; 21
    1298:	ac 98       	cbi	0x15, 4	; 21
    129a:	cc 23       	and	r28, r28
    129c:	0c f4       	brge	.+2      	; 0x12a0 <lcd_write+0x26>
    129e:	a9 9a       	sbi	0x15, 1	; 21
    12a0:	c6 fd       	sbrc	r28, 6
    12a2:	aa 9a       	sbi	0x15, 2	; 21
    12a4:	c5 fd       	sbrc	r28, 5
    12a6:	ab 9a       	sbi	0x15, 3	; 21
    12a8:	c4 fd       	sbrc	r28, 4
    12aa:	ac 9a       	sbi	0x15, 4	; 21
    12ac:	0e 94 38 09 	call	0x1270	; 0x1270 <toggle_e>
    12b0:	a9 98       	cbi	0x15, 1	; 21
    12b2:	aa 98       	cbi	0x15, 2	; 21
    12b4:	ab 98       	cbi	0x15, 3	; 21
    12b6:	ac 98       	cbi	0x15, 4	; 21
    12b8:	c3 fd       	sbrc	r28, 3
    12ba:	a9 9a       	sbi	0x15, 1	; 21
    12bc:	c2 fd       	sbrc	r28, 2
    12be:	aa 9a       	sbi	0x15, 2	; 21
    12c0:	c1 fd       	sbrc	r28, 1
    12c2:	ab 9a       	sbi	0x15, 3	; 21
    12c4:	c0 fd       	sbrc	r28, 0
    12c6:	ac 9a       	sbi	0x15, 4	; 21
    12c8:	0e 94 38 09 	call	0x1270	; 0x1270 <toggle_e>
    12cc:	ac 9a       	sbi	0x15, 4	; 21
    12ce:	ab 9a       	sbi	0x15, 3	; 21
    12d0:	aa 9a       	sbi	0x15, 2	; 21
    12d2:	a9 9a       	sbi	0x15, 1	; 21
    12d4:	cf 91       	pop	r28
    12d6:	08 95       	ret

000012d8 <lcd_read>:
    12d8:	88 23       	and	r24, r24
    12da:	11 f0       	breq	.+4      	; 0x12e0 <lcd_read+0x8>
    12dc:	af 9a       	sbi	0x15, 7	; 21
    12de:	01 c0       	rjmp	.+2      	; 0x12e2 <lcd_read+0xa>
    12e0:	af 98       	cbi	0x15, 7	; 21
    12e2:	ae 9a       	sbi	0x15, 6	; 21
    12e4:	a4 98       	cbi	0x14, 4	; 20
    12e6:	a3 98       	cbi	0x14, 3	; 20
    12e8:	a2 98       	cbi	0x14, 2	; 20
    12ea:	a1 98       	cbi	0x14, 1	; 20
    12ec:	ad 9a       	sbi	0x15, 5	; 21
    12ee:	00 c0       	rjmp	.+0      	; 0x12f0 <lcd_read+0x18>
    12f0:	00 c0       	rjmp	.+0      	; 0x12f2 <lcd_read+0x1a>
    12f2:	9c 9b       	sbis	0x13, 4	; 19
    12f4:	02 c0       	rjmp	.+4      	; 0x12fa <lcd_read+0x22>
    12f6:	80 e1       	ldi	r24, 0x10	; 16
    12f8:	01 c0       	rjmp	.+2      	; 0x12fc <lcd_read+0x24>
    12fa:	80 e0       	ldi	r24, 0x00	; 0
    12fc:	9b 99       	sbic	0x13, 3	; 19
    12fe:	80 62       	ori	r24, 0x20	; 32
    1300:	9a 99       	sbic	0x13, 2	; 19
    1302:	80 64       	ori	r24, 0x40	; 64
    1304:	99 99       	sbic	0x13, 1	; 19
    1306:	80 68       	ori	r24, 0x80	; 128
    1308:	ad 98       	cbi	0x15, 5	; 21
    130a:	00 c0       	rjmp	.+0      	; 0x130c <lcd_read+0x34>
    130c:	00 c0       	rjmp	.+0      	; 0x130e <lcd_read+0x36>
    130e:	ad 9a       	sbi	0x15, 5	; 21
    1310:	00 c0       	rjmp	.+0      	; 0x1312 <lcd_read+0x3a>
    1312:	00 c0       	rjmp	.+0      	; 0x1314 <lcd_read+0x3c>
    1314:	9c 99       	sbic	0x13, 4	; 19
    1316:	81 60       	ori	r24, 0x01	; 1
    1318:	9b 99       	sbic	0x13, 3	; 19
    131a:	82 60       	ori	r24, 0x02	; 2
    131c:	9a 99       	sbic	0x13, 2	; 19
    131e:	84 60       	ori	r24, 0x04	; 4
    1320:	99 99       	sbic	0x13, 1	; 19
    1322:	88 60       	ori	r24, 0x08	; 8
    1324:	ad 98       	cbi	0x15, 5	; 21
    1326:	08 95       	ret

00001328 <lcd_waitbusy>:
    1328:	80 e0       	ldi	r24, 0x00	; 0
    132a:	0e 94 6c 09 	call	0x12d8	; 0x12d8 <lcd_read>
    132e:	88 23       	and	r24, r24
    1330:	dc f3       	brlt	.-10     	; 0x1328 <lcd_waitbusy>
    1332:	88 e0       	ldi	r24, 0x08	; 8
    1334:	90 e0       	ldi	r25, 0x00	; 0
    1336:	01 97       	sbiw	r24, 0x01	; 1
    1338:	f1 f7       	brne	.-4      	; 0x1336 <lcd_waitbusy+0xe>
    133a:	80 e0       	ldi	r24, 0x00	; 0
    133c:	0e 94 6c 09 	call	0x12d8	; 0x12d8 <lcd_read>
    1340:	08 95       	ret

00001342 <lcd_command>:
    1342:	cf 93       	push	r28
    1344:	c8 2f       	mov	r28, r24
    1346:	0e 94 94 09 	call	0x1328	; 0x1328 <lcd_waitbusy>
    134a:	60 e0       	ldi	r22, 0x00	; 0
    134c:	8c 2f       	mov	r24, r28
    134e:	0e 94 3d 09 	call	0x127a	; 0x127a <lcd_write>
    1352:	cf 91       	pop	r28
    1354:	08 95       	ret

00001356 <lcd_data>:
    1356:	cf 93       	push	r28
    1358:	c8 2f       	mov	r28, r24
    135a:	0e 94 94 09 	call	0x1328	; 0x1328 <lcd_waitbusy>
    135e:	61 e0       	ldi	r22, 0x01	; 1
    1360:	8c 2f       	mov	r24, r28
    1362:	0e 94 3d 09 	call	0x127a	; 0x127a <lcd_write>
    1366:	cf 91       	pop	r28
    1368:	08 95       	ret

0000136a <lcd_gotoxy>:
    136a:	61 11       	cpse	r22, r1
    136c:	04 c0       	rjmp	.+8      	; 0x1376 <lcd_gotoxy+0xc>
    136e:	80 58       	subi	r24, 0x80	; 128
    1370:	0e 94 a1 09 	call	0x1342	; 0x1342 <lcd_command>
    1374:	08 95       	ret
    1376:	61 30       	cpi	r22, 0x01	; 1
    1378:	21 f4       	brne	.+8      	; 0x1382 <lcd_gotoxy+0x18>
    137a:	80 54       	subi	r24, 0x40	; 64
    137c:	0e 94 a1 09 	call	0x1342	; 0x1342 <lcd_command>
    1380:	08 95       	ret
    1382:	62 30       	cpi	r22, 0x02	; 2
    1384:	21 f4       	brne	.+8      	; 0x138e <lcd_gotoxy+0x24>
    1386:	8c 56       	subi	r24, 0x6C	; 108
    1388:	0e 94 a1 09 	call	0x1342	; 0x1342 <lcd_command>
    138c:	08 95       	ret
    138e:	8c 52       	subi	r24, 0x2C	; 44
    1390:	0e 94 a1 09 	call	0x1342	; 0x1342 <lcd_command>
    1394:	08 95       	ret

00001396 <lcd_clrscr>:
    1396:	81 e0       	ldi	r24, 0x01	; 1
    1398:	0e 94 a1 09 	call	0x1342	; 0x1342 <lcd_command>
    139c:	08 95       	ret

0000139e <lcd_putc>:
    139e:	cf 93       	push	r28
    13a0:	c8 2f       	mov	r28, r24
    13a2:	0e 94 94 09 	call	0x1328	; 0x1328 <lcd_waitbusy>
    13a6:	ca 30       	cpi	r28, 0x0A	; 10
    13a8:	a1 f4       	brne	.+40     	; 0x13d2 <lcd_putc+0x34>
    13aa:	84 31       	cpi	r24, 0x14	; 20
    13ac:	48 f0       	brcs	.+18     	; 0x13c0 <lcd_putc+0x22>
    13ae:	90 ec       	ldi	r25, 0xC0	; 192
    13b0:	98 0f       	add	r25, r24
    13b2:	94 31       	cpi	r25, 0x14	; 20
    13b4:	38 f0       	brcs	.+14     	; 0x13c4 <lcd_putc+0x26>
    13b6:	84 51       	subi	r24, 0x14	; 20
    13b8:	8c 32       	cpi	r24, 0x2C	; 44
    13ba:	30 f0       	brcs	.+12     	; 0x13c8 <lcd_putc+0x2a>
    13bc:	80 e0       	ldi	r24, 0x00	; 0
    13be:	05 c0       	rjmp	.+10     	; 0x13ca <lcd_putc+0x2c>
    13c0:	80 e4       	ldi	r24, 0x40	; 64
    13c2:	03 c0       	rjmp	.+6      	; 0x13ca <lcd_putc+0x2c>
    13c4:	84 e1       	ldi	r24, 0x14	; 20
    13c6:	01 c0       	rjmp	.+2      	; 0x13ca <lcd_putc+0x2c>
    13c8:	84 e5       	ldi	r24, 0x54	; 84
    13ca:	80 58       	subi	r24, 0x80	; 128
    13cc:	0e 94 a1 09 	call	0x1342	; 0x1342 <lcd_command>
    13d0:	04 c0       	rjmp	.+8      	; 0x13da <lcd_putc+0x3c>
    13d2:	61 e0       	ldi	r22, 0x01	; 1
    13d4:	8c 2f       	mov	r24, r28
    13d6:	0e 94 3d 09 	call	0x127a	; 0x127a <lcd_write>
    13da:	cf 91       	pop	r28
    13dc:	08 95       	ret

000013de <lcd_puts_p>:
    13de:	cf 93       	push	r28
    13e0:	df 93       	push	r29
    13e2:	ec 01       	movw	r28, r24
    13e4:	21 96       	adiw	r28, 0x01	; 1
    13e6:	fc 01       	movw	r30, r24
    13e8:	84 91       	lpm	r24, Z
    13ea:	88 23       	and	r24, r24
    13ec:	39 f0       	breq	.+14     	; 0x13fc <lcd_puts_p+0x1e>
    13ee:	0e 94 cf 09 	call	0x139e	; 0x139e <lcd_putc>
    13f2:	fe 01       	movw	r30, r28
    13f4:	84 91       	lpm	r24, Z
    13f6:	21 96       	adiw	r28, 0x01	; 1
    13f8:	81 11       	cpse	r24, r1
    13fa:	f9 cf       	rjmp	.-14     	; 0x13ee <lcd_puts_p+0x10>
    13fc:	df 91       	pop	r29
    13fe:	cf 91       	pop	r28
    1400:	08 95       	ret

00001402 <lcd_init>:
    1402:	1f 93       	push	r17
    1404:	cf 93       	push	r28
    1406:	df 93       	push	r29
    1408:	18 2f       	mov	r17, r24
    140a:	a7 9a       	sbi	0x14, 7	; 20
    140c:	a6 9a       	sbi	0x14, 6	; 20
    140e:	a5 9a       	sbi	0x14, 5	; 20
    1410:	a4 9a       	sbi	0x14, 4	; 20
    1412:	a3 9a       	sbi	0x14, 3	; 20
    1414:	a2 9a       	sbi	0x14, 2	; 20
    1416:	a1 9a       	sbi	0x14, 1	; 20
    1418:	80 e0       	ldi	r24, 0x00	; 0
    141a:	9a ef       	ldi	r25, 0xFA	; 250
    141c:	01 97       	sbiw	r24, 0x01	; 1
    141e:	f1 f7       	brne	.-4      	; 0x141c <lcd_init+0x1a>
    1420:	ab 9a       	sbi	0x15, 3	; 21
    1422:	ac 9a       	sbi	0x15, 4	; 21
    1424:	0e 94 38 09 	call	0x1270	; 0x1270 <toggle_e>
    1428:	80 e0       	ldi	r24, 0x00	; 0
    142a:	9e e4       	ldi	r25, 0x4E	; 78
    142c:	01 97       	sbiw	r24, 0x01	; 1
    142e:	f1 f7       	brne	.-4      	; 0x142c <lcd_init+0x2a>
    1430:	0e 94 38 09 	call	0x1270	; 0x1270 <toggle_e>
    1434:	c0 e0       	ldi	r28, 0x00	; 0
    1436:	d1 e0       	ldi	r29, 0x01	; 1
    1438:	ce 01       	movw	r24, r28
    143a:	01 97       	sbiw	r24, 0x01	; 1
    143c:	f1 f7       	brne	.-4      	; 0x143a <lcd_init+0x38>
    143e:	0e 94 38 09 	call	0x1270	; 0x1270 <toggle_e>
    1442:	ce 01       	movw	r24, r28
    1444:	01 97       	sbiw	r24, 0x01	; 1
    1446:	f1 f7       	brne	.-4      	; 0x1444 <lcd_init+0x42>
    1448:	ac 98       	cbi	0x15, 4	; 21
    144a:	0e 94 38 09 	call	0x1270	; 0x1270 <toggle_e>
    144e:	21 97       	sbiw	r28, 0x01	; 1
    1450:	f1 f7       	brne	.-4      	; 0x144e <lcd_init+0x4c>
    1452:	88 e2       	ldi	r24, 0x28	; 40
    1454:	0e 94 a1 09 	call	0x1342	; 0x1342 <lcd_command>
    1458:	88 e0       	ldi	r24, 0x08	; 8
    145a:	0e 94 a1 09 	call	0x1342	; 0x1342 <lcd_command>
    145e:	0e 94 cb 09 	call	0x1396	; 0x1396 <lcd_clrscr>
    1462:	86 e0       	ldi	r24, 0x06	; 6
    1464:	0e 94 a1 09 	call	0x1342	; 0x1342 <lcd_command>
    1468:	81 2f       	mov	r24, r17
    146a:	0e 94 a1 09 	call	0x1342	; 0x1342 <lcd_command>
    146e:	df 91       	pop	r29
    1470:	cf 91       	pop	r28
    1472:	1f 91       	pop	r17
    1474:	08 95       	ret

00001476 <lcd_defc>:
    1476:	0f 93       	push	r16
    1478:	1f 93       	push	r17
    147a:	cf 93       	push	r28
    147c:	df 93       	push	r29
    147e:	80 e4       	ldi	r24, 0x40	; 64
    1480:	0e 94 a1 09 	call	0x1342	; 0x1342 <lcd_command>
    1484:	c4 e5       	ldi	r28, 0x54	; 84
    1486:	d1 e0       	ldi	r29, 0x01	; 1
    1488:	0d e8       	ldi	r16, 0x8D	; 141
    148a:	11 e0       	ldi	r17, 0x01	; 1
    148c:	fe 01       	movw	r30, r28
    148e:	84 91       	lpm	r24, Z
    1490:	0e 94 ab 09 	call	0x1356	; 0x1356 <lcd_data>
    1494:	21 96       	adiw	r28, 0x01	; 1
    1496:	c0 17       	cp	r28, r16
    1498:	d1 07       	cpc	r29, r17
    149a:	c1 f7       	brne	.-16     	; 0x148c <lcd_defc+0x16>
    149c:	df 91       	pop	r29
    149e:	cf 91       	pop	r28
    14a0:	1f 91       	pop	r17
    14a2:	0f 91       	pop	r16
    14a4:	08 95       	ret

000014a6 <lcd_putbit>:

void lcd_putbit(unsigned char c, unsigned char bit)
{
	while (bit--)
    14a6:	9f ef       	ldi	r25, 0xFF	; 255
    14a8:	96 0f       	add	r25, r22
    14aa:	66 23       	and	r22, r22
    14ac:	19 f0       	breq	.+6      	; 0x14b4 <lcd_putbit+0xe>
		c=c >> 1;
    14ae:	86 95       	lsr	r24
	lcd_putc_hex( c);
}

void lcd_putbit(unsigned char c, unsigned char bit)
{
	while (bit--)
    14b0:	91 50       	subi	r25, 0x01	; 1
    14b2:	e8 f7       	brcc	.-6      	; 0x14ae <lcd_putbit+0x8>
		c=c >> 1;
	if( c & 0x01) 
    14b4:	80 ff       	sbrs	r24, 0
    14b6:	04 c0       	rjmp	.+8      	; 0x14c0 <lcd_putbit+0x1a>
		lcd_putc( '1');
    14b8:	81 e3       	ldi	r24, 0x31	; 49
    14ba:	0e 94 cf 09 	call	0x139e	; 0x139e <lcd_putc>
    14be:	08 95       	ret
	else
		lcd_putc( '0');
    14c0:	80 e3       	ldi	r24, 0x30	; 48
    14c2:	0e 94 cf 09 	call	0x139e	; 0x139e <lcd_putc>
    14c6:	08 95       	ret

000014c8 <lcd_putc_hu>:
	lcd_puts(buf);
}

void lcd_putc_hu( unsigned char c)                          // magyar betu kiirasa LCD-re
{
	switch( c)
    14c8:	48 2f       	mov	r20, r24
    14ca:	50 e0       	ldi	r21, 0x00	; 0
    14cc:	fa 01       	movw	r30, r20
    14ce:	e1 5c       	subi	r30, 0xC1	; 193
    14d0:	f1 09       	sbc	r31, r1
    14d2:	ec 33       	cpi	r30, 0x3C	; 60
    14d4:	f1 05       	cpc	r31, r1
    14d6:	a8 f4       	brcc	.+42     	; 0x1502 <lcd_putc_hu+0x3a>
    14d8:	ea 5b       	subi	r30, 0xBA	; 186
    14da:	ff 4f       	sbci	r31, 0xFF	; 255
    14dc:	0c 94 7c 22 	jmp	0x44f8	; 0x44f8 <__tablejump2__>
	{
		case 0xD6:                                 // 
		case 0xF6:                                 // 
		c= 0xEF;
    14e0:	8f ee       	ldi	r24, 0xEF	; 239
    14e2:	0f c0       	rjmp	.+30     	; 0x1502 <lcd_putc_hu+0x3a>
			break;

		case 0xDC:                                 // 
		case 0xFC:                                 // 
			c= 0xF5;
    14e4:	85 ef       	ldi	r24, 0xF5	; 245
		break;
    14e6:	0d c0       	rjmp	.+26     	; 0x1502 <lcd_putc_hu+0x3a>

		case 0xC1:                                 // 
		case 0xE1:                                 // 
			c= 0;
    14e8:	80 e0       	ldi	r24, 0x00	; 0
			break;
    14ea:	0b c0       	rjmp	.+22     	; 0x1502 <lcd_putc_hu+0x3a>

		case 0xC9:                                 // 
		case 0xE9:                                 // 
			c= 1;
    14ec:	81 e0       	ldi	r24, 0x01	; 1
			break;
    14ee:	09 c0       	rjmp	.+18     	; 0x1502 <lcd_putc_hu+0x3a>

		case 0xCD:                                 // 
		case 0xED:                                 // 
			c= 2;
    14f0:	82 e0       	ldi	r24, 0x02	; 2
			break;
    14f2:	07 c0       	rjmp	.+14     	; 0x1502 <lcd_putc_hu+0x3a>

		case 0xD3:                                 // 
		case 0xF3:                                 // 
			c= 3;
    14f4:	83 e0       	ldi	r24, 0x03	; 3
			break;
    14f6:	05 c0       	rjmp	.+10     	; 0x1502 <lcd_putc_hu+0x3a>

		case 0xD5:                                 // 
		case 0xF5:                                 // 
			c= 4;
    14f8:	84 e0       	ldi	r24, 0x04	; 4
			break;
    14fa:	03 c0       	rjmp	.+6      	; 0x1502 <lcd_putc_hu+0x3a>

		case 0xDA:                                 // 
		case 0xFA:                                 // 
			c= 5;
    14fc:	85 e0       	ldi	r24, 0x05	; 5
			break;
    14fe:	01 c0       	rjmp	.+2      	; 0x1502 <lcd_putc_hu+0x3a>

		case 0xDB:                                 // 
		case 0xFB:                                 // 
			c= 6;
    1500:	86 e0       	ldi	r24, 0x06	; 6
			break;
		default:;
	}
	lcd_putc(c);
    1502:	0e 94 cf 09 	call	0x139e	; 0x139e <lcd_putc>
    1506:	08 95       	ret

00001508 <lcd_puts>:
Input:    string to be displayed
Returns:  none
*************************************************************************/
void lcd_puts(const char *s)
/* print string on lcd (no auto linefeed) */
{
    1508:	cf 93       	push	r28
    150a:	df 93       	push	r29
    register char c;

    while ( (c = *s++) ) {
    150c:	ec 01       	movw	r28, r24
    150e:	21 96       	adiw	r28, 0x01	; 1
    1510:	fc 01       	movw	r30, r24
    1512:	80 81       	ld	r24, Z
    1514:	88 23       	and	r24, r24
    1516:	29 f0       	breq	.+10     	; 0x1522 <lcd_puts+0x1a>
        lcd_putc_hu(c);
    1518:	0e 94 64 0a 	call	0x14c8	; 0x14c8 <lcd_putc_hu>
void lcd_puts(const char *s)
/* print string on lcd (no auto linefeed) */
{
    register char c;

    while ( (c = *s++) ) {
    151c:	89 91       	ld	r24, Y+
    151e:	81 11       	cpse	r24, r1
    1520:	fb cf       	rjmp	.-10     	; 0x1518 <lcd_puts+0x10>
        lcd_putc_hu(c);
    }

}/* lcd_puts */
    1522:	df 91       	pop	r29
    1524:	cf 91       	pop	r28
    1526:	08 95       	ret

00001528 <lcd_puti>:
	else
		lcd_putc( '0');
}

void lcd_puti(unsigned int i)
{
    1528:	0f 93       	push	r16
    152a:	1f 93       	push	r17
    152c:	cf 93       	push	r28
    152e:	df 93       	push	r29
    1530:	00 d0       	rcall	.+0      	; 0x1532 <lcd_puti+0xa>
    1532:	00 d0       	rcall	.+0      	; 0x1534 <lcd_puti+0xc>
    1534:	cd b7       	in	r28, 0x3d	; 61
    1536:	de b7       	in	r29, 0x3e	; 62
    1538:	8c 01       	movw	r16, r24
    } else if (__radix < 2 || __radix > 36) {
	*__s = 0;
	return __s;
    } else {
	extern char *__itoa_ncheck (int, char *, unsigned char);
	return __itoa_ncheck (__val, __s, __radix);
    153a:	4a e0       	ldi	r20, 0x0A	; 10
    153c:	be 01       	movw	r22, r28
    153e:	6f 5f       	subi	r22, 0xFF	; 255
    1540:	7f 4f       	sbci	r23, 0xFF	; 255
    1542:	0e 94 a4 22 	call	0x4548	; 0x4548 <__itoa_ncheck>
	char buf[4];
	itoa(i, buf, 10);
	if (i < 10)
    1546:	0a 30       	cpi	r16, 0x0A	; 10
    1548:	11 05       	cpc	r17, r1
    154a:	18 f4       	brcc	.+6      	; 0x1552 <lcd_puti+0x2a>
		lcd_putc('0');
    154c:	80 e3       	ldi	r24, 0x30	; 48
    154e:	0e 94 cf 09 	call	0x139e	; 0x139e <lcd_putc>
	lcd_puts(buf);
    1552:	ce 01       	movw	r24, r28
    1554:	01 96       	adiw	r24, 0x01	; 1
    1556:	0e 94 84 0a 	call	0x1508	; 0x1508 <lcd_puts>
}
    155a:	0f 90       	pop	r0
    155c:	0f 90       	pop	r0
    155e:	0f 90       	pop	r0
    1560:	0f 90       	pop	r0
    1562:	df 91       	pop	r29
    1564:	cf 91       	pop	r28
    1566:	1f 91       	pop	r17
    1568:	0f 91       	pop	r16
    156a:	08 95       	ret

0000156c <lcd_puts_hu>:
	lcd_putc(c);
}


void lcd_puts_hu( const char *s)                 // string kiiras, magyar betuk is
{
    156c:	cf 93       	push	r28
    156e:	df 93       	push	r29
	register unsigned char c;
	while ( ( c= pgm_read_byte( s++))) lcd_putc_hu( c);
    1570:	ec 01       	movw	r28, r24
    1572:	21 96       	adiw	r28, 0x01	; 1
    1574:	fc 01       	movw	r30, r24
    1576:	84 91       	lpm	r24, Z
    1578:	88 23       	and	r24, r24
    157a:	39 f0       	breq	.+14     	; 0x158a <lcd_puts_hu+0x1e>
    157c:	0e 94 64 0a 	call	0x14c8	; 0x14c8 <lcd_putc_hu>
    1580:	fe 01       	movw	r30, r28
    1582:	84 91       	lpm	r24, Z
    1584:	21 96       	adiw	r28, 0x01	; 1
    1586:	81 11       	cpse	r24, r1
    1588:	f9 cf       	rjmp	.-14     	; 0x157c <lcd_puts_hu+0x10>
}
    158a:	df 91       	pop	r29
    158c:	cf 91       	pop	r28
    158e:	08 95       	ret

00001590 <__vector_21>:
uint16_t Year = 2018;
uint8_t Month = 1, Day = 1, DayName = MONDAY;


ISR(ADC_vect) // LCD httr vilgts PWM
{
    1590:	1f 92       	push	r1
    1592:	0f 92       	push	r0
    1594:	0f b6       	in	r0, 0x3f	; 63
    1596:	0f 92       	push	r0
    1598:	11 24       	eor	r1, r1
    159a:	8f 93       	push	r24
    159c:	9f 93       	push	r25
	if (ADC < 10)
    159e:	84 b1       	in	r24, 0x04	; 4
    15a0:	95 b1       	in	r25, 0x05	; 5
    15a2:	0a 97       	sbiw	r24, 0x0a	; 10
    15a4:	38 f4       	brcc	.+14     	; 0x15b4 <__vector_21+0x24>
		OCR3C = 10;
    15a6:	8a e0       	ldi	r24, 0x0A	; 10
    15a8:	90 e0       	ldi	r25, 0x00	; 0
    15aa:	90 93 83 00 	sts	0x0083, r25	; 0x800083 <__TEXT_REGION_LENGTH__+0x7e0083>
    15ae:	80 93 82 00 	sts	0x0082, r24	; 0x800082 <__TEXT_REGION_LENGTH__+0x7e0082>
    15b2:	06 c0       	rjmp	.+12     	; 0x15c0 <__vector_21+0x30>
	else
		OCR3C = ADC;
    15b4:	84 b1       	in	r24, 0x04	; 4
    15b6:	95 b1       	in	r25, 0x05	; 5
    15b8:	90 93 83 00 	sts	0x0083, r25	; 0x800083 <__TEXT_REGION_LENGTH__+0x7e0083>
    15bc:	80 93 82 00 	sts	0x0082, r24	; 0x800082 <__TEXT_REGION_LENGTH__+0x7e0082>
}
    15c0:	9f 91       	pop	r25
    15c2:	8f 91       	pop	r24
    15c4:	0f 90       	pop	r0
    15c6:	0f be       	out	0x3f, r0	; 63
    15c8:	0f 90       	pop	r0
    15ca:	1f 90       	pop	r1
    15cc:	18 95       	reti

000015ce <__vector_12>:

ISR(TIMER1_COMPA_vect) // 1 mp-es idzt
{
    15ce:	1f 92       	push	r1
    15d0:	0f 92       	push	r0
    15d2:	0f b6       	in	r0, 0x3f	; 63
    15d4:	0f 92       	push	r0
    15d6:	11 24       	eor	r1, r1
    15d8:	8f 93       	push	r24
	if (TimerElapsed == 0);
    15da:	80 91 b3 05 	lds	r24, 0x05B3	; 0x8005b3 <TimerElapsed>
		TimerElapsed++;
    15de:	80 91 b3 05 	lds	r24, 0x05B3	; 0x8005b3 <TimerElapsed>
    15e2:	8f 5f       	subi	r24, 0xFF	; 255
    15e4:	80 93 b3 05 	sts	0x05B3, r24	; 0x8005b3 <TimerElapsed>
}
    15e8:	8f 91       	pop	r24
    15ea:	0f 90       	pop	r0
    15ec:	0f be       	out	0x3f, r0	; 63
    15ee:	0f 90       	pop	r0
    15f0:	1f 90       	pop	r1
    15f2:	18 95       	reti

000015f4 <SensorRead>:

void SensorRead()
{
    15f4:	1f 93       	push	r17
    15f6:	cf 93       	push	r28
    15f8:	df 93       	push	r29
    15fa:	00 d0       	rcall	.+0      	; 0x15fc <SensorRead+0x8>
    15fc:	1f 92       	push	r1
    15fe:	cd b7       	in	r28, 0x3d	; 61
    1600:	de b7       	in	r29, 0x3e	; 62
	uint8_t i;
	uint8_t subzero, cel, cel_frac_bits;
	static uint8_t display = 15;
	static uint8_t timerstate = 0;

	switch (timerstate)
    1602:	80 91 a8 05 	lds	r24, 0x05A8	; 0x8005a8 <timerstate.2920>
    1606:	81 30       	cpi	r24, 0x01	; 1
    1608:	09 f4       	brne	.+2      	; 0x160c <SensorRead+0x18>
    160a:	44 c0       	rjmp	.+136    	; 0x1694 <SensorRead+0xa0>
    160c:	38 f0       	brcs	.+14     	; 0x161c <SensorRead+0x28>
    160e:	82 30       	cpi	r24, 0x02	; 2
    1610:	09 f4       	brne	.+2      	; 0x1614 <SensorRead+0x20>
    1612:	68 c0       	rjmp	.+208    	; 0x16e4 <SensorRead+0xf0>
    1614:	83 30       	cpi	r24, 0x03	; 3
    1616:	09 f4       	brne	.+2      	; 0x161a <SensorRead+0x26>
    1618:	79 c0       	rjmp	.+242    	; 0x170c <SensorRead+0x118>
    161a:	3f c1       	rjmp	.+638    	; 0x189a <SensorRead+0x2a6>
	{
		case (BME280TempState):
			BME280Temp = bme280_readTemperature();
    161c:	0e 94 01 05 	call	0xa02	; 0xa02 <bme280_readTemperature>
    1620:	ab 01       	movw	r20, r22
    1622:	bc 01       	movw	r22, r24
    1624:	40 93 6f 06 	sts	0x066F, r20	; 0x80066f <BME280Temp>
    1628:	50 93 70 06 	sts	0x0670, r21	; 0x800670 <BME280Temp+0x1>
    162c:	60 93 71 06 	sts	0x0671, r22	; 0x800671 <BME280Temp+0x2>
    1630:	70 93 72 06 	sts	0x0672, r23	; 0x800672 <BME280Temp+0x3>
			ftoa(BME280TempBuf, BME280Temp, 2);
    1634:	22 e0       	ldi	r18, 0x02	; 2
    1636:	30 e0       	ldi	r19, 0x00	; 0
    1638:	86 e9       	ldi	r24, 0x96	; 150
    163a:	96 e0       	ldi	r25, 0x06	; 6
    163c:	0e 94 d3 1f 	call	0x3fa6	; 0x3fa6 <ftoa>
			BME280TempUint = (uint16_t)( BME280Temp * 100);
    1640:	20 e0       	ldi	r18, 0x00	; 0
    1642:	30 e0       	ldi	r19, 0x00	; 0
    1644:	48 ec       	ldi	r20, 0xC8	; 200
    1646:	52 e4       	ldi	r21, 0x42	; 66
    1648:	60 91 6f 06 	lds	r22, 0x066F	; 0x80066f <BME280Temp>
    164c:	70 91 70 06 	lds	r23, 0x0670	; 0x800670 <BME280Temp+0x1>
    1650:	80 91 71 06 	lds	r24, 0x0671	; 0x800671 <BME280Temp+0x2>
    1654:	90 91 72 06 	lds	r25, 0x0672	; 0x800672 <BME280Temp+0x3>
    1658:	0e 94 ff 21 	call	0x43fe	; 0x43fe <__mulsf3>
    165c:	0e 94 42 21 	call	0x4284	; 0x4284 <__fixunssfsi>
    1660:	70 93 e3 06 	sts	0x06E3, r23	; 0x8006e3 <BME280TempUint+0x1>
    1664:	60 93 e2 06 	sts	0x06E2, r22	; 0x8006e2 <BME280TempUint>
			if (DebugMode > 0)
    1668:	80 91 b2 05 	lds	r24, 0x05B2	; 0x8005b2 <DebugMode>
    166c:	88 23       	and	r24, r24
    166e:	61 f0       	breq	.+24     	; 0x1688 <SensorRead+0x94>
				{ uart_puts_p(PSTR("BME280 Temperature: ")); uart_puts(BME280TempBuf); uart_puts_p(PSTR("C \n")); }
    1670:	86 e6       	ldi	r24, 0x66	; 102
    1672:	94 e0       	ldi	r25, 0x04	; 4
    1674:	0e 94 4e 1f 	call	0x3e9c	; 0x3e9c <uart_puts_p>
    1678:	86 e9       	ldi	r24, 0x96	; 150
    167a:	96 e0       	ldi	r25, 0x06	; 6
    167c:	0e 94 3f 1f 	call	0x3e7e	; 0x3e7e <uart_puts>
    1680:	82 e6       	ldi	r24, 0x62	; 98
    1682:	94 e0       	ldi	r25, 0x04	; 4
    1684:	0e 94 4e 1f 	call	0x3e9c	; 0x3e9c <uart_puts_p>
			timerstate++;
    1688:	80 91 a8 05 	lds	r24, 0x05A8	; 0x8005a8 <timerstate.2920>
    168c:	8f 5f       	subi	r24, 0xFF	; 255
    168e:	80 93 a8 05 	sts	0x05A8, r24	; 0x8005a8 <timerstate.2920>
		break;
    1692:	05 c1       	rjmp	.+522    	; 0x189e <SensorRead+0x2aa>

		case (BME280HumidState):
			BME280Humid = bme280_readHumidity();
    1694:	0e 94 98 05 	call	0xb30	; 0xb30 <bme280_readHumidity>
    1698:	ab 01       	movw	r20, r22
    169a:	bc 01       	movw	r22, r24
    169c:	40 93 73 06 	sts	0x0673, r20	; 0x800673 <BME280Humid>
    16a0:	50 93 74 06 	sts	0x0674, r21	; 0x800674 <BME280Humid+0x1>
    16a4:	60 93 75 06 	sts	0x0675, r22	; 0x800675 <BME280Humid+0x2>
    16a8:	70 93 76 06 	sts	0x0676, r23	; 0x800676 <BME280Humid+0x3>
			ftoa(BME280HumidBuf, BME280Humid, 2);
    16ac:	22 e0       	ldi	r18, 0x02	; 2
    16ae:	30 e0       	ldi	r19, 0x00	; 0
    16b0:	89 ea       	ldi	r24, 0xA9	; 169
    16b2:	96 e0       	ldi	r25, 0x06	; 6
    16b4:	0e 94 d3 1f 	call	0x3fa6	; 0x3fa6 <ftoa>
			if (DebugMode > 0)
    16b8:	80 91 b2 05 	lds	r24, 0x05B2	; 0x8005b2 <DebugMode>
    16bc:	88 23       	and	r24, r24
    16be:	61 f0       	breq	.+24     	; 0x16d8 <SensorRead+0xe4>
				{ uart_puts_p(PSTR("BME280 Humidity: "));	uart_puts(BME280HumidBuf);	uart_puts_p(PSTR("% \n")); }
    16c0:	80 e5       	ldi	r24, 0x50	; 80
    16c2:	94 e0       	ldi	r25, 0x04	; 4
    16c4:	0e 94 4e 1f 	call	0x3e9c	; 0x3e9c <uart_puts_p>
    16c8:	89 ea       	ldi	r24, 0xA9	; 169
    16ca:	96 e0       	ldi	r25, 0x06	; 6
    16cc:	0e 94 3f 1f 	call	0x3e7e	; 0x3e7e <uart_puts>
    16d0:	8c e4       	ldi	r24, 0x4C	; 76
    16d2:	94 e0       	ldi	r25, 0x04	; 4
    16d4:	0e 94 4e 1f 	call	0x3e9c	; 0x3e9c <uart_puts_p>
			timerstate++;
    16d8:	80 91 a8 05 	lds	r24, 0x05A8	; 0x8005a8 <timerstate.2920>
    16dc:	8f 5f       	subi	r24, 0xFF	; 255
    16de:	80 93 a8 05 	sts	0x05A8, r24	; 0x8005a8 <timerstate.2920>
		break;
    16e2:	dd c0       	rjmp	.+442    	; 0x189e <SensorRead+0x2aa>

		case (DS18B20State1):
			ow_set_bus(&DS18B20_PIN,&DS18B20_PORT,&DS18B20_DDR,DS18B20_PINx);
    16e4:	20 e0       	ldi	r18, 0x00	; 0
    16e6:	47 e3       	ldi	r20, 0x37	; 55
    16e8:	50 e0       	ldi	r21, 0x00	; 0
    16ea:	68 e3       	ldi	r22, 0x38	; 56
    16ec:	70 e0       	ldi	r23, 0x00	; 0
    16ee:	86 e3       	ldi	r24, 0x36	; 54
    16f0:	90 e0       	ldi	r25, 0x00	; 0
    16f2:	0e 94 fa 07 	call	0xff4	; 0xff4 <ow_set_bus>
			//for ( i=0; i<nSensors; i++ )
			//{
			//	DS18X20_start_meas(DS18X20_POWER_EXTERN,&gSensorIDs[i][0]);
			//}
			DS18X20_start_meas(DS18X20_POWER_EXTERN,NULL);
    16f6:	60 e0       	ldi	r22, 0x00	; 0
    16f8:	70 e0       	ldi	r23, 0x00	; 0
    16fa:	81 e0       	ldi	r24, 0x01	; 1
    16fc:	0e 94 1c 07 	call	0xe38	; 0xe38 <DS18X20_start_meas>
			timerstate++;
    1700:	80 91 a8 05 	lds	r24, 0x05A8	; 0x8005a8 <timerstate.2920>
    1704:	8f 5f       	subi	r24, 0xFF	; 255
    1706:	80 93 a8 05 	sts	0x05A8, r24	; 0x8005a8 <timerstate.2920>
		break;
    170a:	c9 c0       	rjmp	.+402    	; 0x189e <SensorRead+0x2aa>

		case (DS18B20State2):

			ow_set_bus(&DS18B20_PIN,&DS18B20_PORT,&DS18B20_DDR,DS18B20_PINx);
    170c:	20 e0       	ldi	r18, 0x00	; 0
    170e:	47 e3       	ldi	r20, 0x37	; 55
    1710:	50 e0       	ldi	r21, 0x00	; 0
    1712:	68 e3       	ldi	r22, 0x38	; 56
    1714:	70 e0       	ldi	r23, 0x00	; 0
    1716:	86 e3       	ldi	r24, 0x36	; 54
    1718:	90 e0       	ldi	r25, 0x00	; 0
    171a:	0e 94 fa 07 	call	0xff4	; 0xff4 <ow_set_bus>
			i = 0;
			while (i < nSensors)
    171e:	80 91 7f 06 	lds	r24, 0x067F	; 0x80067f <nSensors>
    1722:	88 23       	and	r24, r24
    1724:	09 f4       	brne	.+2      	; 0x1728 <SensorRead+0x134>
    1726:	b3 c0       	rjmp	.+358    	; 0x188e <SensorRead+0x29a>
    1728:	10 e0       	ldi	r17, 0x00	; 0
			//for ( i=0; i<nSensors; i++ )
			{
				if ( DS18X20_read_meas( &gSensorIDs[i][0], &subzero, &cel, &cel_frac_bits) == DS18X20_OK )
    172a:	81 2f       	mov	r24, r17
    172c:	90 e0       	ldi	r25, 0x00	; 0
    172e:	88 0f       	add	r24, r24
    1730:	99 1f       	adc	r25, r25
    1732:	88 0f       	add	r24, r24
    1734:	99 1f       	adc	r25, r25
    1736:	88 0f       	add	r24, r24
    1738:	99 1f       	adc	r25, r25
    173a:	9e 01       	movw	r18, r28
    173c:	2d 5f       	subi	r18, 0xFD	; 253
    173e:	3f 4f       	sbci	r19, 0xFF	; 255
    1740:	ae 01       	movw	r20, r28
    1742:	4e 5f       	subi	r20, 0xFE	; 254
    1744:	5f 4f       	sbci	r21, 0xFF	; 255
    1746:	be 01       	movw	r22, r28
    1748:	6f 5f       	subi	r22, 0xFF	; 255
    174a:	7f 4f       	sbci	r23, 0xFF	; 255
    174c:	81 55       	subi	r24, 0x51	; 81
    174e:	99 4f       	sbci	r25, 0xF9	; 249
    1750:	0e 94 38 07 	call	0xe70	; 0xe70 <DS18X20_read_meas>
    1754:	81 11       	cpse	r24, r1
    1756:	18 c0       	rjmp	.+48     	; 0x1788 <SensorRead+0x194>
				{
					if (DebugMode > 0)
    1758:	80 91 b2 05 	lds	r24, 0x05B2	; 0x8005b2 <DebugMode>
    175c:	88 23       	and	r24, r24
    175e:	a1 f0       	breq	.+40     	; 0x1788 <SensorRead+0x194>
						{ uart_puti(subzero); uart_puti(cel); uart_puts_P("."); uart_puti(cel_frac_bits); uart_puts_P("\n"); }
    1760:	89 81       	ldd	r24, Y+1	; 0x01
    1762:	90 e0       	ldi	r25, 0x00	; 0
    1764:	0e 94 b8 1f 	call	0x3f70	; 0x3f70 <uart_puti>
    1768:	8a 81       	ldd	r24, Y+2	; 0x02
    176a:	90 e0       	ldi	r25, 0x00	; 0
    176c:	0e 94 b8 1f 	call	0x3f70	; 0x3f70 <uart_puti>
    1770:	8a e4       	ldi	r24, 0x4A	; 74
    1772:	94 e0       	ldi	r25, 0x04	; 4
    1774:	0e 94 4e 1f 	call	0x3e9c	; 0x3e9c <uart_puts_p>
    1778:	8b 81       	ldd	r24, Y+3	; 0x03
    177a:	90 e0       	ldi	r25, 0x00	; 0
    177c:	0e 94 b8 1f 	call	0x3f70	; 0x3f70 <uart_puti>
    1780:	88 e4       	ldi	r24, 0x48	; 72
    1782:	94 e0       	ldi	r25, 0x04	; 4
    1784:	0e 94 4e 1f 	call	0x3e9c	; 0x3e9c <uart_puts_p>
				}
				if (i == DHWSensorID)
    1788:	80 91 ae 05 	lds	r24, 0x05AE	; 0x8005ae <DHWSensorID>
    178c:	81 13       	cpse	r24, r17
    178e:	11 c0       	rjmp	.+34     	; 0x17b2 <SensorRead+0x1be>
				{
					DHWTempActual = cel;
    1790:	8a 81       	ldd	r24, Y+2	; 0x02
    1792:	80 93 8a 06 	sts	0x068A, r24	; 0x80068a <DHWTempActual>
    1796:	4a e0       	ldi	r20, 0x0A	; 10
    1798:	62 e8       	ldi	r22, 0x82	; 130
    179a:	76 e0       	ldi	r23, 0x06	; 6
    179c:	90 e0       	ldi	r25, 0x00	; 0
    179e:	0e 94 a4 22 	call	0x4548	; 0x4548 <__itoa_ncheck>
    17a2:	8b 81       	ldd	r24, Y+3	; 0x03
    17a4:	4a e0       	ldi	r20, 0x0A	; 10
    17a6:	66 ea       	ldi	r22, 0xA6	; 166
    17a8:	76 e0       	ldi	r23, 0x06	; 6
    17aa:	90 e0       	ldi	r25, 0x00	; 0
    17ac:	0e 94 a4 22 	call	0x4548	; 0x4548 <__itoa_ncheck>
    17b0:	68 c0       	rjmp	.+208    	; 0x1882 <SensorRead+0x28e>
					itoa(DHWTempActual, DHWTempActualBuf, 10);
					itoa(cel_frac_bits, DHWTempActualFracBuf, 10);
				}
				else if (i == BufferSensorID)
    17b2:	80 91 09 01 	lds	r24, 0x0109	; 0x800109 <BufferSensorID>
    17b6:	81 13       	cpse	r24, r17
    17b8:	11 c0       	rjmp	.+34     	; 0x17dc <SensorRead+0x1e8>
				{
					BufferTempActual = cel;
    17ba:	8a 81       	ldd	r24, Y+2	; 0x02
    17bc:	80 93 e4 06 	sts	0x06E4, r24	; 0x8006e4 <BufferTempActual>
    17c0:	4a e0       	ldi	r20, 0x0A	; 10
    17c2:	6b e8       	ldi	r22, 0x8B	; 139
    17c4:	76 e0       	ldi	r23, 0x06	; 6
    17c6:	90 e0       	ldi	r25, 0x00	; 0
    17c8:	0e 94 a4 22 	call	0x4548	; 0x4548 <__itoa_ncheck>
    17cc:	8b 81       	ldd	r24, Y+3	; 0x03
    17ce:	4a e0       	ldi	r20, 0x0A	; 10
    17d0:	6c e9       	ldi	r22, 0x9C	; 156
    17d2:	76 e0       	ldi	r23, 0x06	; 6
    17d4:	90 e0       	ldi	r25, 0x00	; 0
    17d6:	0e 94 a4 22 	call	0x4548	; 0x4548 <__itoa_ncheck>
    17da:	53 c0       	rjmp	.+166    	; 0x1882 <SensorRead+0x28e>
					itoa(BufferTempActual, BufferTempActualBuf, 10);
					itoa(cel_frac_bits, BufferTempActualFracBuf, 10);
				}
				else if (i == EngineeringSensorID)
    17dc:	80 91 07 01 	lds	r24, 0x0107	; 0x800107 <EngineeringSensorID>
    17e0:	81 13       	cpse	r24, r17
    17e2:	11 c0       	rjmp	.+34     	; 0x1806 <SensorRead+0x212>
				{
					EngineeringTempActual = cel;
    17e4:	8a 81       	ldd	r24, Y+2	; 0x02
    17e6:	80 93 81 06 	sts	0x0681, r24	; 0x800681 <EngineeringTempActual>
    17ea:	4a e0       	ldi	r20, 0x0A	; 10
    17ec:	6c e7       	ldi	r22, 0x7C	; 124
    17ee:	76 e0       	ldi	r23, 0x06	; 6
    17f0:	90 e0       	ldi	r25, 0x00	; 0
    17f2:	0e 94 a4 22 	call	0x4548	; 0x4548 <__itoa_ncheck>
    17f6:	8b 81       	ldd	r24, Y+3	; 0x03
    17f8:	4a e0       	ldi	r20, 0x0A	; 10
    17fa:	65 e8       	ldi	r22, 0x85	; 133
    17fc:	76 e0       	ldi	r23, 0x06	; 6
    17fe:	90 e0       	ldi	r25, 0x00	; 0
    1800:	0e 94 a4 22 	call	0x4548	; 0x4548 <__itoa_ncheck>
    1804:	3e c0       	rjmp	.+124    	; 0x1882 <SensorRead+0x28e>
					itoa(EngineeringTempActual, EngineeringTempActualBuf, 10);
					itoa(cel_frac_bits, EngineeringTempActualFracBuf, 10);
				}
				else if (i == GarageSensorID)
    1806:	80 91 08 01 	lds	r24, 0x0108	; 0x800108 <GarageSensorID>
    180a:	81 13       	cpse	r24, r17
    180c:	11 c0       	rjmp	.+34     	; 0x1830 <SensorRead+0x23c>
				{
					GarageTemp = cel;
    180e:	8a 81       	ldd	r24, Y+2	; 0x02
    1810:	80 93 89 06 	sts	0x0689, r24	; 0x800689 <GarageTemp>
    1814:	4a e0       	ldi	r20, 0x0A	; 10
    1816:	6f ed       	ldi	r22, 0xDF	; 223
    1818:	76 e0       	ldi	r23, 0x06	; 6
    181a:	90 e0       	ldi	r25, 0x00	; 0
    181c:	0e 94 a4 22 	call	0x4548	; 0x4548 <__itoa_ncheck>
    1820:	8b 81       	ldd	r24, Y+3	; 0x03
    1822:	4a e0       	ldi	r20, 0x0A	; 10
    1824:	61 e9       	ldi	r22, 0x91	; 145
    1826:	76 e0       	ldi	r23, 0x06	; 6
    1828:	90 e0       	ldi	r25, 0x00	; 0
    182a:	0e 94 a4 22 	call	0x4548	; 0x4548 <__itoa_ncheck>
    182e:	29 c0       	rjmp	.+82     	; 0x1882 <SensorRead+0x28e>
					itoa(GarageTemp, GarageTempBuf, 10);
					itoa(cel_frac_bits, GarageTempFracBuf, 10);
				}
				else if (i == LivingRoomSensorID)
    1830:	80 91 06 01 	lds	r24, 0x0106	; 0x800106 <LivingRoomSensorID>
    1834:	81 13       	cpse	r24, r17
    1836:	11 c0       	rjmp	.+34     	; 0x185a <SensorRead+0x266>
				{
					LivingRoomTemp = cel;
    1838:	8a 81       	ldd	r24, Y+2	; 0x02
    183a:	80 93 6a 06 	sts	0x066A, r24	; 0x80066a <LivingRoomTemp>
    183e:	4a e0       	ldi	r20, 0x0A	; 10
    1840:	6c e6       	ldi	r22, 0x6C	; 108
    1842:	76 e0       	ldi	r23, 0x06	; 6
    1844:	90 e0       	ldi	r25, 0x00	; 0
    1846:	0e 94 a4 22 	call	0x4548	; 0x4548 <__itoa_ncheck>
    184a:	8b 81       	ldd	r24, Y+3	; 0x03
    184c:	4a e0       	ldi	r20, 0x0A	; 10
    184e:	61 ea       	ldi	r22, 0xA1	; 161
    1850:	76 e0       	ldi	r23, 0x06	; 6
    1852:	90 e0       	ldi	r25, 0x00	; 0
    1854:	0e 94 a4 22 	call	0x4548	; 0x4548 <__itoa_ncheck>
    1858:	14 c0       	rjmp	.+40     	; 0x1882 <SensorRead+0x28e>
					itoa(LivingRoomTemp, LivingRoomTempBuf, 10);
					itoa(cel_frac_bits, LivingRoomTempFracBuf, 10);
				}
				else if (i == FloorSensorID)
    185a:	80 91 05 01 	lds	r24, 0x0105	; 0x800105 <FloorSensorID>
    185e:	81 13       	cpse	r24, r17
    1860:	10 c0       	rjmp	.+32     	; 0x1882 <SensorRead+0x28e>
				{
					FloorTemp = cel;
    1862:	8a 81       	ldd	r24, Y+2	; 0x02
    1864:	80 93 a5 06 	sts	0x06A5, r24	; 0x8006a5 <FloorTemp>
    1868:	4a e0       	ldi	r20, 0x0A	; 10
    186a:	67 e7       	ldi	r22, 0x77	; 119
    186c:	76 e0       	ldi	r23, 0x06	; 6
    186e:	90 e0       	ldi	r25, 0x00	; 0
    1870:	0e 94 a4 22 	call	0x4548	; 0x4548 <__itoa_ncheck>
    1874:	8b 81       	ldd	r24, Y+3	; 0x03
    1876:	4a e0       	ldi	r20, 0x0A	; 10
    1878:	6e e8       	ldi	r22, 0x8E	; 142
    187a:	76 e0       	ldi	r23, 0x06	; 6
    187c:	90 e0       	ldi	r25, 0x00	; 0
    187e:	0e 94 a4 22 	call	0x4548	; 0x4548 <__itoa_ncheck>
					itoa(FloorTemp, FloorTempBuf, 10);
					itoa(cel_frac_bits, FloorTempFracBuf, 10);
				}
				i++;
    1882:	1f 5f       	subi	r17, 0xFF	; 255

		case (DS18B20State2):

			ow_set_bus(&DS18B20_PIN,&DS18B20_PORT,&DS18B20_DDR,DS18B20_PINx);
			i = 0;
			while (i < nSensors)
    1884:	80 91 7f 06 	lds	r24, 0x067F	; 0x80067f <nSensors>
    1888:	18 17       	cp	r17, r24
    188a:	08 f4       	brcc	.+2      	; 0x188e <SensorRead+0x29a>
    188c:	4e cf       	rjmp	.-356    	; 0x172a <SensorRead+0x136>
					itoa(cel_frac_bits, FloorTempFracBuf, 10);
				}
				i++;
			}

			timerstate++;
    188e:	80 91 a8 05 	lds	r24, 0x05A8	; 0x8005a8 <timerstate.2920>
    1892:	8f 5f       	subi	r24, 0xFF	; 255
    1894:	80 93 a8 05 	sts	0x05A8, r24	; 0x8005a8 <timerstate.2920>
		break;
    1898:	02 c0       	rjmp	.+4      	; 0x189e <SensorRead+0x2aa>

		default:
			timerstate = 0;
    189a:	10 92 a8 05 	sts	0x05A8, r1	; 0x8005a8 <timerstate.2920>
		break;
	}

	if (MenuTimer == 0)
    189e:	80 91 0f 01 	lds	r24, 0x010F	; 0x80010f <MenuTimer>
    18a2:	81 11       	cpse	r24, r1
    18a4:	62 c1       	rjmp	.+708    	; 0x1b6a <SensorRead+0x576>
	{
		lcd_clrscr();
    18a6:	0e 94 cb 09 	call	0x1396	; 0x1396 <lcd_clrscr>
		if (display > 10)
    18aa:	80 91 00 01 	lds	r24, 0x0100	; 0x800100 <__data_start>
    18ae:	8b 30       	cpi	r24, 0x0B	; 11
    18b0:	08 f4       	brcc	.+2      	; 0x18b4 <SensorRead+0x2c0>
    18b2:	67 c0       	rjmp	.+206    	; 0x1982 <SensorRead+0x38e>
		{
			lcd_puts_p(PSTR("HMV ")); lcd_puts(DHWTempActualBuf); lcd_puts_p(PSTR(".")), lcd_puts(DHWTempActualFracBuf); lcd_puts_p(PSTR(" C")); lcd_gotoxy(15,0); lcd_puti(Hour); lcd_puts_p(PSTR(":")); lcd_puti(Minute);
    18b4:	83 e4       	ldi	r24, 0x43	; 67
    18b6:	94 e0       	ldi	r25, 0x04	; 4
    18b8:	0e 94 ef 09 	call	0x13de	; 0x13de <lcd_puts_p>
    18bc:	82 e8       	ldi	r24, 0x82	; 130
    18be:	96 e0       	ldi	r25, 0x06	; 6
    18c0:	0e 94 84 0a 	call	0x1508	; 0x1508 <lcd_puts>
    18c4:	81 e4       	ldi	r24, 0x41	; 65
    18c6:	94 e0       	ldi	r25, 0x04	; 4
    18c8:	0e 94 ef 09 	call	0x13de	; 0x13de <lcd_puts_p>
    18cc:	86 ea       	ldi	r24, 0xA6	; 166
    18ce:	96 e0       	ldi	r25, 0x06	; 6
    18d0:	0e 94 84 0a 	call	0x1508	; 0x1508 <lcd_puts>
    18d4:	8e e3       	ldi	r24, 0x3E	; 62
    18d6:	94 e0       	ldi	r25, 0x04	; 4
    18d8:	0e 94 ef 09 	call	0x13de	; 0x13de <lcd_puts_p>
    18dc:	60 e0       	ldi	r22, 0x00	; 0
    18de:	8f e0       	ldi	r24, 0x0F	; 15
    18e0:	0e 94 b5 09 	call	0x136a	; 0x136a <lcd_gotoxy>
    18e4:	80 91 ad 05 	lds	r24, 0x05AD	; 0x8005ad <Hour>
    18e8:	90 e0       	ldi	r25, 0x00	; 0
    18ea:	0e 94 94 0a 	call	0x1528	; 0x1528 <lcd_puti>
    18ee:	8c e3       	ldi	r24, 0x3C	; 60
    18f0:	94 e0       	ldi	r25, 0x04	; 4
    18f2:	0e 94 ef 09 	call	0x13de	; 0x13de <lcd_puts_p>
    18f6:	80 91 ac 05 	lds	r24, 0x05AC	; 0x8005ac <Minute>
    18fa:	90 e0       	ldi	r25, 0x00	; 0
    18fc:	0e 94 94 0a 	call	0x1528	; 0x1528 <lcd_puti>
			lcd_gotoxy(0,1);
    1900:	61 e0       	ldi	r22, 0x01	; 1
    1902:	80 e0       	ldi	r24, 0x00	; 0
    1904:	0e 94 b5 09 	call	0x136a	; 0x136a <lcd_gotoxy>
			lcd_puts_p(PSTR("Puffer ")); lcd_puts(BufferTempActualBuf); lcd_puts_p(PSTR(".")), lcd_puts(BufferTempActualFracBuf); lcd_puts_p(PSTR(" C"));
    1908:	84 e3       	ldi	r24, 0x34	; 52
    190a:	94 e0       	ldi	r25, 0x04	; 4
    190c:	0e 94 ef 09 	call	0x13de	; 0x13de <lcd_puts_p>
    1910:	8b e8       	ldi	r24, 0x8B	; 139
    1912:	96 e0       	ldi	r25, 0x06	; 6
    1914:	0e 94 84 0a 	call	0x1508	; 0x1508 <lcd_puts>
    1918:	82 e3       	ldi	r24, 0x32	; 50
    191a:	94 e0       	ldi	r25, 0x04	; 4
    191c:	0e 94 ef 09 	call	0x13de	; 0x13de <lcd_puts_p>
    1920:	8c e9       	ldi	r24, 0x9C	; 156
    1922:	96 e0       	ldi	r25, 0x06	; 6
    1924:	0e 94 84 0a 	call	0x1508	; 0x1508 <lcd_puts>
    1928:	8f e2       	ldi	r24, 0x2F	; 47
    192a:	94 e0       	ldi	r25, 0x04	; 4
    192c:	0e 94 ef 09 	call	0x13de	; 0x13de <lcd_puts_p>
			lcd_gotoxy(0,2);
    1930:	62 e0       	ldi	r22, 0x02	; 2
    1932:	80 e0       	ldi	r24, 0x00	; 0
    1934:	0e 94 b5 09 	call	0x136a	; 0x136a <lcd_gotoxy>
			lcd_puts_hu(PSTR("Gphz ")); lcd_puts(EngineeringTempActualBuf); lcd_puts_p(PSTR(".")), lcd_puts(EngineeringTempActualFracBuf); lcd_puts_p(PSTR(" C"));
    1938:	87 e2       	ldi	r24, 0x27	; 39
    193a:	94 e0       	ldi	r25, 0x04	; 4
    193c:	0e 94 b6 0a 	call	0x156c	; 0x156c <lcd_puts_hu>
    1940:	8c e7       	ldi	r24, 0x7C	; 124
    1942:	96 e0       	ldi	r25, 0x06	; 6
    1944:	0e 94 84 0a 	call	0x1508	; 0x1508 <lcd_puts>
    1948:	85 e2       	ldi	r24, 0x25	; 37
    194a:	94 e0       	ldi	r25, 0x04	; 4
    194c:	0e 94 ef 09 	call	0x13de	; 0x13de <lcd_puts_p>
    1950:	85 e8       	ldi	r24, 0x85	; 133
    1952:	96 e0       	ldi	r25, 0x06	; 6
    1954:	0e 94 84 0a 	call	0x1508	; 0x1508 <lcd_puts>
    1958:	82 e2       	ldi	r24, 0x22	; 34
    195a:	94 e0       	ldi	r25, 0x04	; 4
    195c:	0e 94 ef 09 	call	0x13de	; 0x13de <lcd_puts_p>
			lcd_gotoxy(0,3);
    1960:	63 e0       	ldi	r22, 0x03	; 3
    1962:	80 e0       	ldi	r24, 0x00	; 0
    1964:	0e 94 b5 09 	call	0x136a	; 0x136a <lcd_gotoxy>
			lcd_puts_hu(PSTR("Kls ")); lcd_puts(BME280TempBuf); lcd_puts_p(PSTR(" C"));
    1968:	8b e1       	ldi	r24, 0x1B	; 27
    196a:	94 e0       	ldi	r25, 0x04	; 4
    196c:	0e 94 b6 0a 	call	0x156c	; 0x156c <lcd_puts_hu>
    1970:	86 e9       	ldi	r24, 0x96	; 150
    1972:	96 e0       	ldi	r25, 0x06	; 6
    1974:	0e 94 84 0a 	call	0x1508	; 0x1508 <lcd_puts>
    1978:	88 e1       	ldi	r24, 0x18	; 24
    197a:	94 e0       	ldi	r25, 0x04	; 4
    197c:	0e 94 ef 09 	call	0x13de	; 0x13de <lcd_puts_p>
    1980:	e9 c0       	rjmp	.+466    	; 0x1b54 <SensorRead+0x560>
		}
		else if (display <= 10 && display > 5)
    1982:	9a ef       	ldi	r25, 0xFA	; 250
    1984:	98 0f       	add	r25, r24
    1986:	95 30       	cpi	r25, 0x05	; 5
    1988:	08 f0       	brcs	.+2      	; 0x198c <SensorRead+0x398>
    198a:	95 c0       	rjmp	.+298    	; 0x1ab6 <SensorRead+0x4c2>
		{
			lcd_puts_hu(PSTR("Garzs ")); lcd_puts(GarageTempBuf); lcd_puts_p(PSTR(".")), lcd_puts(GarageTempFracBuf); lcd_puts_p(PSTR(" C"));
    198c:	80 e1       	ldi	r24, 0x10	; 16
    198e:	94 e0       	ldi	r25, 0x04	; 4
    1990:	0e 94 b6 0a 	call	0x156c	; 0x156c <lcd_puts_hu>
    1994:	8f ed       	ldi	r24, 0xDF	; 223
    1996:	96 e0       	ldi	r25, 0x06	; 6
    1998:	0e 94 84 0a 	call	0x1508	; 0x1508 <lcd_puts>
    199c:	8e e0       	ldi	r24, 0x0E	; 14
    199e:	94 e0       	ldi	r25, 0x04	; 4
    19a0:	0e 94 ef 09 	call	0x13de	; 0x13de <lcd_puts_p>
    19a4:	81 e9       	ldi	r24, 0x91	; 145
    19a6:	96 e0       	ldi	r25, 0x06	; 6
    19a8:	0e 94 84 0a 	call	0x1508	; 0x1508 <lcd_puts>
    19ac:	8b e0       	ldi	r24, 0x0B	; 11
    19ae:	94 e0       	ldi	r25, 0x04	; 4
    19b0:	0e 94 ef 09 	call	0x13de	; 0x13de <lcd_puts_p>
			lcd_gotoxy(0,1);
    19b4:	61 e0       	ldi	r22, 0x01	; 1
    19b6:	80 e0       	ldi	r24, 0x00	; 0
    19b8:	0e 94 b5 09 	call	0x136a	; 0x136a <lcd_gotoxy>
			lcd_puts_p(PSTR("Nappali ")); lcd_puts(LivingRoomTempBuf); lcd_puts_p(PSTR(".")), lcd_puts(LivingRoomTempFracBuf); lcd_puts_p(PSTR(" C"));
    19bc:	82 e0       	ldi	r24, 0x02	; 2
    19be:	94 e0       	ldi	r25, 0x04	; 4
    19c0:	0e 94 ef 09 	call	0x13de	; 0x13de <lcd_puts_p>
    19c4:	8c e6       	ldi	r24, 0x6C	; 108
    19c6:	96 e0       	ldi	r25, 0x06	; 6
    19c8:	0e 94 84 0a 	call	0x1508	; 0x1508 <lcd_puts>
    19cc:	80 e0       	ldi	r24, 0x00	; 0
    19ce:	94 e0       	ldi	r25, 0x04	; 4
    19d0:	0e 94 ef 09 	call	0x13de	; 0x13de <lcd_puts_p>
    19d4:	81 ea       	ldi	r24, 0xA1	; 161
    19d6:	96 e0       	ldi	r25, 0x06	; 6
    19d8:	0e 94 84 0a 	call	0x1508	; 0x1508 <lcd_puts>
    19dc:	8d ef       	ldi	r24, 0xFD	; 253
    19de:	93 e0       	ldi	r25, 0x03	; 3
    19e0:	0e 94 ef 09 	call	0x13de	; 0x13de <lcd_puts_p>
			lcd_gotoxy(0,2);
    19e4:	62 e0       	ldi	r22, 0x02	; 2
    19e6:	80 e0       	ldi	r24, 0x00	; 0
    19e8:	0e 94 b5 09 	call	0x136a	; 0x136a <lcd_gotoxy>
			lcd_puts_hu(PSTR("Padl ")); lcd_puts(FloorTempBuf); lcd_puts_p(PSTR(".")), lcd_puts(FloorTempFracBuf); lcd_puts_p(PSTR(" C"));
    19ec:	86 ef       	ldi	r24, 0xF6	; 246
    19ee:	93 e0       	ldi	r25, 0x03	; 3
    19f0:	0e 94 b6 0a 	call	0x156c	; 0x156c <lcd_puts_hu>
    19f4:	87 e7       	ldi	r24, 0x77	; 119
    19f6:	96 e0       	ldi	r25, 0x06	; 6
    19f8:	0e 94 84 0a 	call	0x1508	; 0x1508 <lcd_puts>
    19fc:	84 ef       	ldi	r24, 0xF4	; 244
    19fe:	93 e0       	ldi	r25, 0x03	; 3
    1a00:	0e 94 ef 09 	call	0x13de	; 0x13de <lcd_puts_p>
    1a04:	8e e8       	ldi	r24, 0x8E	; 142
    1a06:	96 e0       	ldi	r25, 0x06	; 6
    1a08:	0e 94 84 0a 	call	0x1508	; 0x1508 <lcd_puts>
    1a0c:	81 ef       	ldi	r24, 0xF1	; 241
    1a0e:	93 e0       	ldi	r25, 0x03	; 3
    1a10:	0e 94 ef 09 	call	0x13de	; 0x13de <lcd_puts_p>
			lcd_gotoxy(0,3);
    1a14:	63 e0       	ldi	r22, 0x03	; 3
    1a16:	80 e0       	ldi	r24, 0x00	; 0
    1a18:	0e 94 b5 09 	call	0x136a	; 0x136a <lcd_gotoxy>
			lcd_puti(Year); lcd_puts_p(PSTR(".")); lcd_puti(Month); lcd_puts_p(PSTR(".")); lcd_puti(Day);
    1a1c:	80 91 03 01 	lds	r24, 0x0103	; 0x800103 <Year>
    1a20:	90 91 04 01 	lds	r25, 0x0104	; 0x800104 <Year+0x1>
    1a24:	0e 94 94 0a 	call	0x1528	; 0x1528 <lcd_puti>
    1a28:	8f ee       	ldi	r24, 0xEF	; 239
    1a2a:	93 e0       	ldi	r25, 0x03	; 3
    1a2c:	0e 94 ef 09 	call	0x13de	; 0x13de <lcd_puts_p>
    1a30:	80 91 02 01 	lds	r24, 0x0102	; 0x800102 <Month>
    1a34:	90 e0       	ldi	r25, 0x00	; 0
    1a36:	0e 94 94 0a 	call	0x1528	; 0x1528 <lcd_puti>
    1a3a:	8d ee       	ldi	r24, 0xED	; 237
    1a3c:	93 e0       	ldi	r25, 0x03	; 3
    1a3e:	0e 94 ef 09 	call	0x13de	; 0x13de <lcd_puts_p>
    1a42:	80 91 01 01 	lds	r24, 0x0101	; 0x800101 <Day>
    1a46:	90 e0       	ldi	r25, 0x00	; 0
    1a48:	0e 94 94 0a 	call	0x1528	; 0x1528 <lcd_puti>
			lcd_gotoxy(12,3);
    1a4c:	63 e0       	ldi	r22, 0x03	; 3
    1a4e:	8c e0       	ldi	r24, 0x0C	; 12
    1a50:	0e 94 b5 09 	call	0x136a	; 0x136a <lcd_gotoxy>
			switch (DayName)
    1a54:	e0 91 a9 05 	lds	r30, 0x05A9	; 0x8005a9 <DayName>
    1a58:	8e 2f       	mov	r24, r30
    1a5a:	90 e0       	ldi	r25, 0x00	; 0
    1a5c:	fc 01       	movw	r30, r24
    1a5e:	31 97       	sbiw	r30, 0x01	; 1
    1a60:	e7 30       	cpi	r30, 0x07	; 7
    1a62:	f1 05       	cpc	r31, r1
    1a64:	08 f0       	brcs	.+2      	; 0x1a68 <SensorRead+0x474>
    1a66:	76 c0       	rjmp	.+236    	; 0x1b54 <SensorRead+0x560>
    1a68:	ee 57       	subi	r30, 0x7E	; 126
    1a6a:	ff 4f       	sbci	r31, 0xFF	; 255
    1a6c:	0c 94 7c 22 	jmp	0x44f8	; 0x44f8 <__tablejump2__>
			{
				case 1:
					lcd_puts_hu(PSTR("htf"));
    1a70:	87 ee       	ldi	r24, 0xE7	; 231
    1a72:	93 e0       	ldi	r25, 0x03	; 3
    1a74:	0e 94 b6 0a 	call	0x156c	; 0x156c <lcd_puts_hu>
					break;
    1a78:	6d c0       	rjmp	.+218    	; 0x1b54 <SensorRead+0x560>
				case 2:
					lcd_puts_hu(PSTR("kedd"));
    1a7a:	82 ee       	ldi	r24, 0xE2	; 226
    1a7c:	93 e0       	ldi	r25, 0x03	; 3
    1a7e:	0e 94 b6 0a 	call	0x156c	; 0x156c <lcd_puts_hu>
					break;
    1a82:	68 c0       	rjmp	.+208    	; 0x1b54 <SensorRead+0x560>
				case 3:
					lcd_puts_hu(PSTR("szerda"));
    1a84:	8b ed       	ldi	r24, 0xDB	; 219
    1a86:	93 e0       	ldi	r25, 0x03	; 3
    1a88:	0e 94 b6 0a 	call	0x156c	; 0x156c <lcd_puts_hu>
					break;
    1a8c:	63 c0       	rjmp	.+198    	; 0x1b54 <SensorRead+0x560>
				case 4:
					lcd_puts_hu(PSTR("cst"));
    1a8e:	86 ed       	ldi	r24, 0xD6	; 214
    1a90:	93 e0       	ldi	r25, 0x03	; 3
    1a92:	0e 94 b6 0a 	call	0x156c	; 0x156c <lcd_puts_hu>
					break;
    1a96:	5e c0       	rjmp	.+188    	; 0x1b54 <SensorRead+0x560>
				case 5:
					lcd_puts_hu(PSTR("pntek"));
    1a98:	8f ec       	ldi	r24, 0xCF	; 207
    1a9a:	93 e0       	ldi	r25, 0x03	; 3
    1a9c:	0e 94 b6 0a 	call	0x156c	; 0x156c <lcd_puts_hu>
					break;
    1aa0:	59 c0       	rjmp	.+178    	; 0x1b54 <SensorRead+0x560>
				case 6:
					lcd_puts_hu(PSTR("szombat"));
    1aa2:	87 ec       	ldi	r24, 0xC7	; 199
    1aa4:	93 e0       	ldi	r25, 0x03	; 3
    1aa6:	0e 94 b6 0a 	call	0x156c	; 0x156c <lcd_puts_hu>
					break;
    1aaa:	54 c0       	rjmp	.+168    	; 0x1b54 <SensorRead+0x560>
				case 7:
					lcd_puts_hu(PSTR("vasrnap"));
    1aac:	8e eb       	ldi	r24, 0xBE	; 190
    1aae:	93 e0       	ldi	r25, 0x03	; 3
    1ab0:	0e 94 b6 0a 	call	0x156c	; 0x156c <lcd_puts_hu>
					break;
    1ab4:	4f c0       	rjmp	.+158    	; 0x1b54 <SensorRead+0x560>
			}
		}
		else if (display <= 5)
    1ab6:	86 30       	cpi	r24, 0x06	; 6
    1ab8:	08 f0       	brcs	.+2      	; 0x1abc <SensorRead+0x4c8>
    1aba:	4c c0       	rjmp	.+152    	; 0x1b54 <SensorRead+0x560>
		{
			lcd_puts_p(PSTR("HMV szelep ")); lcd_putbit(Relays, DHW_VALVE_RELAY); lcd_gotoxy(15,0); lcd_puti(Hour); lcd_puts_p(PSTR(":")); lcd_puti(Minute);
    1abc:	82 eb       	ldi	r24, 0xB2	; 178
    1abe:	93 e0       	ldi	r25, 0x03	; 3
    1ac0:	0e 94 ef 09 	call	0x13de	; 0x13de <lcd_puts_p>
    1ac4:	64 e0       	ldi	r22, 0x04	; 4
    1ac6:	80 91 af 05 	lds	r24, 0x05AF	; 0x8005af <Relays>
    1aca:	0e 94 53 0a 	call	0x14a6	; 0x14a6 <lcd_putbit>
    1ace:	60 e0       	ldi	r22, 0x00	; 0
    1ad0:	8f e0       	ldi	r24, 0x0F	; 15
    1ad2:	0e 94 b5 09 	call	0x136a	; 0x136a <lcd_gotoxy>
    1ad6:	80 91 ad 05 	lds	r24, 0x05AD	; 0x8005ad <Hour>
    1ada:	90 e0       	ldi	r25, 0x00	; 0
    1adc:	0e 94 94 0a 	call	0x1528	; 0x1528 <lcd_puti>
    1ae0:	80 eb       	ldi	r24, 0xB0	; 176
    1ae2:	93 e0       	ldi	r25, 0x03	; 3
    1ae4:	0e 94 ef 09 	call	0x13de	; 0x13de <lcd_puts_p>
    1ae8:	80 91 ac 05 	lds	r24, 0x05AC	; 0x8005ac <Minute>
    1aec:	90 e0       	ldi	r25, 0x00	; 0
    1aee:	0e 94 94 0a 	call	0x1528	; 0x1528 <lcd_puti>
			lcd_gotoxy(0,1);
    1af2:	61 e0       	ldi	r22, 0x01	; 1
    1af4:	80 e0       	ldi	r24, 0x00	; 0
    1af6:	0e 94 b5 09 	call	0x136a	; 0x136a <lcd_gotoxy>
			lcd_puts_hu(PSTR("Gz rel ")); lcd_putbit(Relays, GAS_RELAY);
    1afa:	86 ea       	ldi	r24, 0xA6	; 166
    1afc:	93 e0       	ldi	r25, 0x03	; 3
    1afe:	0e 94 b6 0a 	call	0x156c	; 0x156c <lcd_puts_hu>
    1b02:	67 e0       	ldi	r22, 0x07	; 7
    1b04:	80 91 af 05 	lds	r24, 0x05AF	; 0x8005af <Relays>
    1b08:	0e 94 53 0a 	call	0x14a6	; 0x14a6 <lcd_putbit>
			lcd_gotoxy(0,2);
    1b0c:	62 e0       	ldi	r22, 0x02	; 2
    1b0e:	80 e0       	ldi	r24, 0x00	; 0
    1b10:	0e 94 b5 09 	call	0x136a	; 0x136a <lcd_gotoxy>
			lcd_puts_p(PSTR("Puffer sz/p ")); lcd_putbit(Relays, BUFFER_VALVE_RELAY); lcd_putbit(Relays, BUFFER_PUMP_RELAY);
    1b14:	89 e9       	ldi	r24, 0x99	; 153
    1b16:	93 e0       	ldi	r25, 0x03	; 3
    1b18:	0e 94 ef 09 	call	0x13de	; 0x13de <lcd_puts_p>
    1b1c:	65 e0       	ldi	r22, 0x05	; 5
    1b1e:	80 91 af 05 	lds	r24, 0x05AF	; 0x8005af <Relays>
    1b22:	0e 94 53 0a 	call	0x14a6	; 0x14a6 <lcd_putbit>
    1b26:	66 e0       	ldi	r22, 0x06	; 6
    1b28:	80 91 af 05 	lds	r24, 0x05AF	; 0x8005af <Relays>
    1b2c:	0e 94 53 0a 	call	0x14a6	; 0x14a6 <lcd_putbit>
			lcd_gotoxy(0,3);
    1b30:	63 e0       	ldi	r22, 0x03	; 3
    1b32:	80 e0       	ldi	r24, 0x00	; 0
    1b34:	0e 94 b5 09 	call	0x136a	; 0x136a <lcd_gotoxy>
			lcd_puts_hu(PSTR("Fld/Emel ")); lcd_putbit(Relays, FIRST_FLOOR_VALVE); lcd_putbit(Relays, SECOND_FLOOR_VALVE);
    1b38:	8e e8       	ldi	r24, 0x8E	; 142
    1b3a:	93 e0       	ldi	r25, 0x03	; 3
    1b3c:	0e 94 b6 0a 	call	0x156c	; 0x156c <lcd_puts_hu>
    1b40:	62 e0       	ldi	r22, 0x02	; 2
    1b42:	80 91 af 05 	lds	r24, 0x05AF	; 0x8005af <Relays>
    1b46:	0e 94 53 0a 	call	0x14a6	; 0x14a6 <lcd_putbit>
    1b4a:	63 e0       	ldi	r22, 0x03	; 3
    1b4c:	80 91 af 05 	lds	r24, 0x05AF	; 0x8005af <Relays>
    1b50:	0e 94 53 0a 	call	0x14a6	; 0x14a6 <lcd_putbit>
		}
		if (--display == 0)
    1b54:	80 91 00 01 	lds	r24, 0x0100	; 0x800100 <__data_start>
    1b58:	81 50       	subi	r24, 0x01	; 1
    1b5a:	19 f0       	breq	.+6      	; 0x1b62 <SensorRead+0x56e>
    1b5c:	80 93 00 01 	sts	0x0100, r24	; 0x800100 <__data_start>
    1b60:	07 c0       	rjmp	.+14     	; 0x1b70 <SensorRead+0x57c>
			display = 15;
    1b62:	8f e0       	ldi	r24, 0x0F	; 15
    1b64:	80 93 00 01 	sts	0x0100, r24	; 0x800100 <__data_start>
    1b68:	03 c0       	rjmp	.+6      	; 0x1b70 <SensorRead+0x57c>
		//display--;
		//lcd_puts_hu(PSTR("Relek: ")); lcd_putbyte_bin(Relays);
	}
	else
		MenuTimer--;
    1b6a:	81 50       	subi	r24, 0x01	; 1
    1b6c:	80 93 0f 01 	sts	0x010F, r24	; 0x80010f <MenuTimer>

	if (LCDBackLight == 0)
    1b70:	80 91 b1 05 	lds	r24, 0x05B1	; 0x8005b1 <LCDBackLight>
    1b74:	81 11       	cpse	r24, r1
    1b76:	01 c0       	rjmp	.+2      	; 0x1b7a <SensorRead+0x586>
		ADCSRA |= (1<<ADSC);
    1b78:	36 9a       	sbi	0x06, 6	; 6

	return;
}
    1b7a:	0f 90       	pop	r0
    1b7c:	0f 90       	pop	r0
    1b7e:	0f 90       	pop	r0
    1b80:	df 91       	pop	r29
    1b82:	cf 91       	pop	r28
    1b84:	1f 91       	pop	r17
    1b86:	08 95       	ret

00001b88 <search_sensors>:
	if (DebugMode < 2 && _relays != Relays)
		SwitchRelays();
}

uint8_t search_sensors(void)
{
    1b88:	df 92       	push	r13
    1b8a:	ef 92       	push	r14
    1b8c:	ff 92       	push	r15
    1b8e:	0f 93       	push	r16
    1b90:	1f 93       	push	r17
    1b92:	cf 93       	push	r28
    1b94:	df 93       	push	r29
    1b96:	cd b7       	in	r28, 0x3d	; 61
    1b98:	de b7       	in	r29, 0x3e	; 62
    1b9a:	29 97       	sbiw	r28, 0x09	; 9
    1b9c:	0f b6       	in	r0, 0x3f	; 63
    1b9e:	f8 94       	cli
    1ba0:	de bf       	out	0x3e, r29	; 62
    1ba2:	0f be       	out	0x3f, r0	; 63
    1ba4:	cd bf       	out	0x3d, r28	; 61
	uint8_t i;
	uint8_t id[OW_ROMCODE_SIZE];
	uint8_t diff, nSensors;

	/* clear display and home cursor */
	if (DebugMode > 0)
    1ba6:	80 91 b2 05 	lds	r24, 0x05B2	; 0x8005b2 <DebugMode>
    1baa:	88 23       	and	r24, r24
    1bac:	09 f4       	brne	.+2      	; 0x1bb0 <search_sensors+0x28>
    1bae:	3f c0       	rjmp	.+126    	; 0x1c2e <search_sensors+0xa6>
		uart_puts_P("Bus scanning ...\n");
    1bb0:	85 e2       	ldi	r24, 0x25	; 37
    1bb2:	92 e0       	ldi	r25, 0x02	; 2
    1bb4:	0e 94 4e 1f 	call	0x3e9c	; 0x3e9c <uart_puts_p>

	nSensors = 0;

	for( diff = OW_SEARCH_FIRST; diff != OW_LAST_DEVICE && nSensors < DS18B20_MAX_NO;)
    1bb8:	8f ef       	ldi	r24, 0xFF	; 255
    1bba:	89 87       	std	Y+9, r24	; 0x09
    1bbc:	0f 2e       	mov	r0, r31
    1bbe:	ff ea       	ldi	r31, 0xAF	; 175
    1bc0:	ef 2e       	mov	r14, r31
    1bc2:	f6 e0       	ldi	r31, 0x06	; 6
    1bc4:	ff 2e       	mov	r15, r31
    1bc6:	f0 2d       	mov	r31, r0
	if (DebugMode < 2 && _relays != Relays)
		SwitchRelays();
}

uint8_t search_sensors(void)
{
    1bc8:	d1 2c       	mov	r13, r1

	nSensors = 0;

	for( diff = OW_SEARCH_FIRST; diff != OW_LAST_DEVICE && nSensors < DS18B20_MAX_NO;)
	{
		DS18X20_find_sensor( &diff, &id[0] );
    1bca:	8e 01       	movw	r16, r28
    1bcc:	07 5f       	subi	r16, 0xF7	; 247
    1bce:	1f 4f       	sbci	r17, 0xFF	; 255
    1bd0:	be 01       	movw	r22, r28
    1bd2:	6f 5f       	subi	r22, 0xFF	; 255
    1bd4:	7f 4f       	sbci	r23, 0xFF	; 255
    1bd6:	c8 01       	movw	r24, r16
    1bd8:	0e 94 03 07 	call	0xe06	; 0xe06 <DS18X20_find_sensor>

		if( diff == OW_PRESENCE_ERR ) {
    1bdc:	99 85       	ldd	r25, Y+9	; 0x09
    1bde:	9f 3f       	cpi	r25, 0xFF	; 255
    1be0:	49 f4       	brne	.+18     	; 0x1bf4 <search_sensors+0x6c>
			if (DebugMode > 0)
    1be2:	80 91 b2 05 	lds	r24, 0x05B2	; 0x8005b2 <DebugMode>
    1be6:	88 23       	and	r24, r24
    1be8:	29 f1       	breq	.+74     	; 0x1c34 <search_sensors+0xac>
				uart_puts_P("No sensor found\n");
    1bea:	84 e1       	ldi	r24, 0x14	; 20
    1bec:	92 e0       	ldi	r25, 0x02	; 2
    1bee:	0e 94 4e 1f 	call	0x3e9c	; 0x3e9c <uart_puts_p>
    1bf2:	20 c0       	rjmp	.+64     	; 0x1c34 <search_sensors+0xac>
			break;
		}

		if( diff == OW_DATA_ERR ) {
    1bf4:	9e 3f       	cpi	r25, 0xFE	; 254
    1bf6:	49 f4       	brne	.+18     	; 0x1c0a <search_sensors+0x82>
			if (DebugMode > 0)
    1bf8:	80 91 b2 05 	lds	r24, 0x05B2	; 0x8005b2 <DebugMode>
    1bfc:	88 23       	and	r24, r24
    1bfe:	d1 f0       	breq	.+52     	; 0x1c34 <search_sensors+0xac>
				uart_puts_P("Bus error\n");
    1c00:	89 e0       	ldi	r24, 0x09	; 9
    1c02:	92 e0       	ldi	r25, 0x02	; 2
    1c04:	0e 94 4e 1f 	call	0x3e9c	; 0x3e9c <uart_puts_p>
    1c08:	15 c0       	rjmp	.+42     	; 0x1c34 <search_sensors+0xac>
    1c0a:	fe 01       	movw	r30, r28
    1c0c:	31 96       	adiw	r30, 0x01	; 1
			if (DebugMode > 0)
				uart_puts_P("No sensor found\n");
			break;
		}

		if( diff == OW_DATA_ERR ) {
    1c0e:	d7 01       	movw	r26, r14
			break;
		}

		for (i=0;i<OW_ROMCODE_SIZE;i++)
		{
			gSensorIDs[nSensors][i]=id[i];
    1c10:	81 91       	ld	r24, Z+
    1c12:	8d 93       	st	X+, r24
			if (DebugMode > 0)
				uart_puts_P("Bus error\n");
			break;
		}

		for (i=0;i<OW_ROMCODE_SIZE;i++)
    1c14:	e0 17       	cp	r30, r16
    1c16:	f1 07       	cpc	r31, r17
    1c18:	d9 f7       	brne	.-10     	; 0x1c10 <search_sensors+0x88>
		{
			gSensorIDs[nSensors][i]=id[i];
			//uart_puts_P("ID: "); uart_puti(id[i]); uart_puts_P("\n");
		}

		nSensors++;
    1c1a:	d3 94       	inc	r13
	if (DebugMode > 0)
		uart_puts_P("Bus scanning ...\n");

	nSensors = 0;

	for( diff = OW_SEARCH_FIRST; diff != OW_LAST_DEVICE && nSensors < DS18B20_MAX_NO;)
    1c1c:	99 23       	and	r25, r25
    1c1e:	51 f0       	breq	.+20     	; 0x1c34 <search_sensors+0xac>
    1c20:	88 e0       	ldi	r24, 0x08	; 8
    1c22:	e8 0e       	add	r14, r24
    1c24:	f1 1c       	adc	r15, r1
    1c26:	86 e0       	ldi	r24, 0x06	; 6
    1c28:	d8 12       	cpse	r13, r24
    1c2a:	d2 cf       	rjmp	.-92     	; 0x1bd0 <search_sensors+0x48>
    1c2c:	03 c0       	rjmp	.+6      	; 0x1c34 <search_sensors+0xac>
    1c2e:	8f ef       	ldi	r24, 0xFF	; 255
    1c30:	89 87       	std	Y+9, r24	; 0x09
    1c32:	c4 cf       	rjmp	.-120    	; 0x1bbc <search_sensors+0x34>

		nSensors++;
	}

	return nSensors;
}
    1c34:	8d 2d       	mov	r24, r13
    1c36:	29 96       	adiw	r28, 0x09	; 9
    1c38:	0f b6       	in	r0, 0x3f	; 63
    1c3a:	f8 94       	cli
    1c3c:	de bf       	out	0x3e, r29	; 62
    1c3e:	0f be       	out	0x3f, r0	; 63
    1c40:	cd bf       	out	0x3d, r28	; 61
    1c42:	df 91       	pop	r29
    1c44:	cf 91       	pop	r28
    1c46:	1f 91       	pop	r17
    1c48:	0f 91       	pop	r16
    1c4a:	ff 90       	pop	r15
    1c4c:	ef 90       	pop	r14
    1c4e:	df 90       	pop	r13
    1c50:	08 95       	ret

00001c52 <SwitchRelays>:

void SwitchRelays()
{
	SPIInit();
    1c52:	0e 94 9d 1e 	call	0x3d3a	; 0x3d3a <SPIInit>
	SPIWrite(RELAYS_CS_PIN, Relays);
    1c56:	60 91 af 05 	lds	r22, 0x05AF	; 0x8005af <Relays>
    1c5a:	81 e0       	ldi	r24, 0x01	; 1
    1c5c:	0e 94 b1 1e 	call	0x3d62	; 0x3d62 <SPIWrite>
	SPIClose();
    1c60:	0e 94 ac 1e 	call	0x3d58	; 0x3d58 <SPIClose>
    1c64:	08 95       	ret

00001c66 <CheckConditions>:

	return;
}

void CheckConditions()
{
    1c66:	cf 93       	push	r28
	// DHW fels kr
	static uint16_t pumpplustime = 0;
	uint16_t currTime = Hour * 100 + Minute;
	uint8_t DHW_condition;
	uint8_t _relays = Relays;
    1c68:	c0 91 af 05 	lds	r28, 0x05AF	; 0x8005af <Relays>
	
	if (ClockInitialized)
    1c6c:	80 91 aa 05 	lds	r24, 0x05AA	; 0x8005aa <ClockInitialized>
    1c70:	88 23       	and	r24, r24
    1c72:	29 f1       	breq	.+74     	; 0x1cbe <CheckConditions+0x58>
		DHW_condition = (DHWTempActual < DHWTempDesired && (DHWMaxTime >= currTime && DHWMinTime <= currTime )) ? 1 : 0;
    1c74:	90 91 8a 06 	lds	r25, 0x068A	; 0x80068a <DHWTempActual>
    1c78:	80 91 88 06 	lds	r24, 0x0688	; 0x800688 <DHWTempDesired>
    1c7c:	98 17       	cp	r25, r24
    1c7e:	d8 f4       	brcc	.+54     	; 0x1cb6 <CheckConditions+0x50>

void CheckConditions()
{
	// DHW fels kr
	static uint16_t pumpplustime = 0;
	uint16_t currTime = Hour * 100 + Minute;
    1c80:	80 91 ad 05 	lds	r24, 0x05AD	; 0x8005ad <Hour>
    1c84:	20 91 ac 05 	lds	r18, 0x05AC	; 0x8005ac <Minute>
    1c88:	30 e0       	ldi	r19, 0x00	; 0
    1c8a:	94 e6       	ldi	r25, 0x64	; 100
    1c8c:	89 9f       	mul	r24, r25
    1c8e:	20 0d       	add	r18, r0
    1c90:	31 1d       	adc	r19, r1
    1c92:	11 24       	eor	r1, r1
	uint8_t DHW_condition;
	uint8_t _relays = Relays;
	
	if (ClockInitialized)
		DHW_condition = (DHWTempActual < DHWTempDesired && (DHWMaxTime >= currTime && DHWMinTime <= currTime )) ? 1 : 0;
    1c94:	80 91 9f 06 	lds	r24, 0x069F	; 0x80069f <DHWMaxTime>
    1c98:	90 91 a0 06 	lds	r25, 0x06A0	; 0x8006a0 <DHWMaxTime+0x1>
    1c9c:	82 17       	cp	r24, r18
    1c9e:	93 07       	cpc	r25, r19
    1ca0:	60 f0       	brcs	.+24     	; 0x1cba <CheckConditions+0x54>
    1ca2:	81 e0       	ldi	r24, 0x01	; 1
    1ca4:	40 91 94 06 	lds	r20, 0x0694	; 0x800694 <DHWMinTime>
    1ca8:	50 91 95 06 	lds	r21, 0x0695	; 0x800695 <DHWMinTime+0x1>
    1cac:	24 17       	cp	r18, r20
    1cae:	35 07       	cpc	r19, r21
    1cb0:	70 f4       	brcc	.+28     	; 0x1cce <CheckConditions+0x68>
    1cb2:	80 e0       	ldi	r24, 0x00	; 0
    1cb4:	0c c0       	rjmp	.+24     	; 0x1cce <CheckConditions+0x68>
    1cb6:	80 e0       	ldi	r24, 0x00	; 0
    1cb8:	0a c0       	rjmp	.+20     	; 0x1cce <CheckConditions+0x68>
    1cba:	80 e0       	ldi	r24, 0x00	; 0
    1cbc:	08 c0       	rjmp	.+16     	; 0x1cce <CheckConditions+0x68>
	else
		DHW_condition = (DHWTempActual < DHWTempDesired) ? 1 : 0;
    1cbe:	81 e0       	ldi	r24, 0x01	; 1
    1cc0:	20 91 8a 06 	lds	r18, 0x068A	; 0x80068a <DHWTempActual>
    1cc4:	90 91 88 06 	lds	r25, 0x0688	; 0x800688 <DHWTempDesired>
    1cc8:	29 17       	cp	r18, r25
    1cca:	08 f0       	brcs	.+2      	; 0x1cce <CheckConditions+0x68>
    1ccc:	80 e0       	ldi	r24, 0x00	; 0

	if (DHW_condition) // alacsony HMV hmrsklet
    1cce:	88 23       	and	r24, r24
    1cd0:	e9 f1       	breq	.+122    	; 0x1d4c <CheckConditions+0xe6>
	{
		if (DHWTempMin >= DHWTempActual)
    1cd2:	90 91 80 06 	lds	r25, 0x0680	; 0x800680 <DHWTempMin>
    1cd6:	80 91 8a 06 	lds	r24, 0x068A	; 0x80068a <DHWTempActual>
    1cda:	98 17       	cp	r25, r24
    1cdc:	08 f4       	brcc	.+2      	; 0x1ce0 <CheckConditions+0x7a>
    1cde:	43 c0       	rjmp	.+134    	; 0x1d66 <CheckConditions+0x100>
		{
			if (BufferTempActual < DHWTempDesired) // Pufferben nincs elg energia
    1ce0:	90 91 e4 06 	lds	r25, 0x06E4	; 0x8006e4 <BufferTempActual>
    1ce4:	80 91 88 06 	lds	r24, 0x0688	; 0x800688 <DHWTempDesired>
    1ce8:	98 17       	cp	r25, r24
    1cea:	b8 f4       	brcc	.+46     	; 0x1d1a <CheckConditions+0xb4>
			{
				pumpplustime = PumpPlusTime;
    1cec:	80 91 0d 01 	lds	r24, 0x010D	; 0x80010d <PumpPlusTime>
    1cf0:	90 91 0e 01 	lds	r25, 0x010E	; 0x80010e <PumpPlusTime+0x1>
    1cf4:	90 93 a7 05 	sts	0x05A7, r25	; 0x8005a7 <__data_end+0x1>
    1cf8:	80 93 a6 05 	sts	0x05A6, r24	; 0x8005a6 <__data_end>
				Relays |= (1 << DHW_VALVE_RELAY)|(1 << GAS_RELAY);
				Relays &= ~((1 << BUFFER_VALVE_RELAY) | (1 << BUFFER_PUMP_RELAY));
    1cfc:	8c 2f       	mov	r24, r28
    1cfe:	8f 79       	andi	r24, 0x9F	; 159
    1d00:	80 69       	ori	r24, 0x90	; 144
    1d02:	80 93 af 05 	sts	0x05AF, r24	; 0x8005af <Relays>
				if (DebugMode > 0)
    1d06:	80 91 b2 05 	lds	r24, 0x05B2	; 0x8005b2 <DebugMode>
    1d0a:	88 23       	and	r24, r24
    1d0c:	09 f4       	brne	.+2      	; 0x1d10 <CheckConditions+0xaa>
    1d0e:	3d c1       	rjmp	.+634    	; 0x1f8a <CheckConditions+0x324>
					uart_puts_P("DHW relay activated with gas\n");
    1d10:	80 e7       	ldi	r24, 0x70	; 112
    1d12:	93 e0       	ldi	r25, 0x03	; 3
    1d14:	0e 94 4e 1f 	call	0x3e9c	; 0x3e9c <uart_puts_p>
    1d18:	26 c0       	rjmp	.+76     	; 0x1d66 <CheckConditions+0x100>
			}
			else // Pufferben van elg energia
			{
				if (pumpplustime > 0)
    1d1a:	80 91 a6 05 	lds	r24, 0x05A6	; 0x8005a6 <__data_end>
    1d1e:	90 91 a7 05 	lds	r25, 0x05A7	; 0x8005a7 <__data_end+0x1>
    1d22:	00 97       	sbiw	r24, 0x00	; 0
    1d24:	29 f0       	breq	.+10     	; 0x1d30 <CheckConditions+0xca>
					pumpplustime--;
    1d26:	01 97       	sbiw	r24, 0x01	; 1
    1d28:	90 93 a7 05 	sts	0x05A7, r25	; 0x8005a7 <__data_end+0x1>
    1d2c:	80 93 a6 05 	sts	0x05A6, r24	; 0x8005a6 <__data_end>
				Relays &= ~(1 << GAS_RELAY);
    1d30:	8c 2f       	mov	r24, r28
    1d32:	8f 77       	andi	r24, 0x7F	; 127
    1d34:	80 93 af 05 	sts	0x05AF, r24	; 0x8005af <Relays>
				if (DebugMode > 0)
    1d38:	80 91 b2 05 	lds	r24, 0x05B2	; 0x8005b2 <DebugMode>
    1d3c:	88 23       	and	r24, r24
    1d3e:	09 f4       	brne	.+2      	; 0x1d42 <CheckConditions+0xdc>
    1d40:	24 c1       	rjmp	.+584    	; 0x1f8a <CheckConditions+0x324>
					uart_puts_P("DHW relay activated with buffer\n");
    1d42:	8f e4       	ldi	r24, 0x4F	; 79
    1d44:	93 e0       	ldi	r25, 0x03	; 3
    1d46:	0e 94 4e 1f 	call	0x3e9c	; 0x3e9c <uart_puts_p>
    1d4a:	0d c0       	rjmp	.+26     	; 0x1d66 <CheckConditions+0x100>
			}
		}
	}
	else // megszn higny esetn az utkeringets a gphz raditort fti, klnben visszahten a HMV-t
	{
		Relays &= ~((1 << GAS_RELAY) | (1 << DHW_VALVE_RELAY));
    1d4c:	8c 2f       	mov	r24, r28
    1d4e:	8f 76       	andi	r24, 0x6F	; 111
    1d50:	80 93 af 05 	sts	0x05AF, r24	; 0x8005af <Relays>
		if (DebugMode > 0)
    1d54:	80 91 b2 05 	lds	r24, 0x05B2	; 0x8005b2 <DebugMode>
    1d58:	88 23       	and	r24, r24
    1d5a:	09 f4       	brne	.+2      	; 0x1d5e <CheckConditions+0xf8>
    1d5c:	16 c1       	rjmp	.+556    	; 0x1f8a <CheckConditions+0x324>
			uart_puts_P("DHW relay deactivated\n");
    1d5e:	88 e3       	ldi	r24, 0x38	; 56
    1d60:	93 e0       	ldi	r25, 0x03	; 3
    1d62:	0e 94 4e 1f 	call	0x3e9c	; 0x3e9c <uart_puts_p>
	}

	// ftsi kr
	if (!(Relays & (1 << DHW_VALVE_RELAY)))
    1d66:	80 91 af 05 	lds	r24, 0x05AF	; 0x8005af <Relays>
    1d6a:	84 fd       	sbrc	r24, 4
    1d6c:	03 c1       	rjmp	.+518    	; 0x1f74 <CheckConditions+0x30e>
	{
		if ((!(THERMOSTAT_PIN & (1 << FIRST_THERMO_PIN)) || !(THERMOSTAT_PIN & (1 << SECOND_THERMO_PIN)) 
    1d6e:	0e 9b       	sbis	0x01, 6	; 1
    1d70:	1b c0       	rjmp	.+54     	; 0x1da8 <CheckConditions+0x142>
    1d72:	0f 9b       	sbis	0x01, 7	; 1
    1d74:	19 c0       	rjmp	.+50     	; 0x1da8 <CheckConditions+0x142>
			|| (EngineeringTempActual < EngineeringTempDesired) 
    1d76:	20 91 81 06 	lds	r18, 0x0681	; 0x800681 <EngineeringTempActual>
    1d7a:	90 91 6b 06 	lds	r25, 0x066B	; 0x80066b <EngineeringTempDesired>
    1d7e:	29 17       	cp	r18, r25
    1d80:	98 f0       	brcs	.+38     	; 0x1da8 <CheckConditions+0x142>
			|| (ComfortMode && LivingRoomTemp < ComfortTemp && BufferTempActual > ComfortForwardTemp)) 
    1d82:	90 91 b0 05 	lds	r25, 0x05B0	; 0x8005b0 <ComfortMode>
    1d86:	99 23       	and	r25, r25
    1d88:	09 f4       	brne	.+2      	; 0x1d8c <CheckConditions+0x126>
    1d8a:	d6 c0       	rjmp	.+428    	; 0x1f38 <CheckConditions+0x2d2>
    1d8c:	20 91 6a 06 	lds	r18, 0x066A	; 0x80066a <LivingRoomTemp>
    1d90:	90 91 0c 01 	lds	r25, 0x010C	; 0x80010c <ComfortTemp>
    1d94:	29 17       	cp	r18, r25
    1d96:	08 f0       	brcs	.+2      	; 0x1d9a <CheckConditions+0x134>
    1d98:	cf c0       	rjmp	.+414    	; 0x1f38 <CheckConditions+0x2d2>
    1d9a:	20 91 e4 06 	lds	r18, 0x06E4	; 0x8006e4 <BufferTempActual>
    1d9e:	90 91 0b 01 	lds	r25, 0x010B	; 0x80010b <ComfortForwardTemp>
    1da2:	92 17       	cp	r25, r18
    1da4:	08 f0       	brcs	.+2      	; 0x1da8 <CheckConditions+0x142>
    1da6:	c8 c0       	rjmp	.+400    	; 0x1f38 <CheckConditions+0x2d2>
			&& (BME280TempUint <= SwitchOnOutdoorTempMin))
    1da8:	40 91 e2 06 	lds	r20, 0x06E2	; 0x8006e2 <BME280TempUint>
    1dac:	50 91 e3 06 	lds	r21, 0x06E3	; 0x8006e3 <BME280TempUint+0x1>
    1db0:	20 91 7a 06 	lds	r18, 0x067A	; 0x80067a <SwitchOnOutdoorTempMin>
    1db4:	30 91 7b 06 	lds	r19, 0x067B	; 0x80067b <SwitchOnOutdoorTempMin+0x1>
    1db8:	24 17       	cp	r18, r20
    1dba:	35 07       	cpc	r19, r21
    1dbc:	08 f4       	brcc	.+2      	; 0x1dc0 <CheckConditions+0x15a>
    1dbe:	bc c0       	rjmp	.+376    	; 0x1f38 <CheckConditions+0x2d2>
		{
			if (EngineeringTempActual < EngineeringTempMin 
    1dc0:	20 91 81 06 	lds	r18, 0x0681	; 0x800681 <EngineeringTempActual>
    1dc4:	90 91 a4 06 	lds	r25, 0x06A4	; 0x8006a4 <EngineeringTempMin>
    1dc8:	29 17       	cp	r18, r25
    1dca:	20 f0       	brcs	.+8      	; 0x1dd4 <CheckConditions+0x16e>
				|| !(THERMOSTAT_PIN & (1 << FIRST_THERMO_PIN)) || !(THERMOSTAT_PIN & (1 << SECOND_THERMO_PIN)))
    1dcc:	0e 9b       	sbis	0x01, 6	; 1
    1dce:	02 c0       	rjmp	.+4      	; 0x1dd4 <CheckConditions+0x16e>
    1dd0:	0f 99       	sbic	0x01, 7	; 1
    1dd2:	37 c0       	rjmp	.+110    	; 0x1e42 <CheckConditions+0x1dc>
			{
				if (BufferTempActual < ForwardHeatTemp) // Pufferben nincs elg energia
    1dd4:	20 91 e4 06 	lds	r18, 0x06E4	; 0x8006e4 <BufferTempActual>
    1dd8:	90 91 0a 01 	lds	r25, 0x010A	; 0x80010a <ForwardHeatTemp>
    1ddc:	29 17       	cp	r18, r25
    1dde:	b0 f4       	brcc	.+44     	; 0x1e0c <CheckConditions+0x1a6>
				{
					pumpplustime = PumpPlusTime; // gz utkeringets
    1de0:	20 91 0d 01 	lds	r18, 0x010D	; 0x80010d <PumpPlusTime>
    1de4:	30 91 0e 01 	lds	r19, 0x010E	; 0x80010e <PumpPlusTime+0x1>
    1de8:	30 93 a7 05 	sts	0x05A7, r19	; 0x8005a7 <__data_end+0x1>
    1dec:	20 93 a6 05 	sts	0x05A6, r18	; 0x8005a6 <__data_end>
					Relays |= (1 << GAS_RELAY);
					Relays &= ~((1 << BUFFER_VALVE_RELAY) | (1 << BUFFER_PUMP_RELAY) | (1 << DHW_VALVE_RELAY));
    1df0:	8f 78       	andi	r24, 0x8F	; 143
    1df2:	80 68       	ori	r24, 0x80	; 128
    1df4:	80 93 af 05 	sts	0x05AF, r24	; 0x8005af <Relays>
					if (DebugMode > 0)
    1df8:	80 91 b2 05 	lds	r24, 0x05B2	; 0x8005b2 <DebugMode>
    1dfc:	88 23       	and	r24, r24
    1dfe:	09 f4       	brne	.+2      	; 0x1e02 <CheckConditions+0x19c>
    1e00:	42 c0       	rjmp	.+132    	; 0x1e86 <CheckConditions+0x220>
						uart_puts_P("GAS activated; BUFFER, DHW relay deactivated\n");
    1e02:	8a e0       	ldi	r24, 0x0A	; 10
    1e04:	93 e0       	ldi	r25, 0x03	; 3
    1e06:	0e 94 4e 1f 	call	0x3e9c	; 0x3e9c <uart_puts_p>
    1e0a:	3d c0       	rjmp	.+122    	; 0x1e86 <CheckConditions+0x220>
				}
				else // Puffer elg meleg
				{
					if (!pumpplustime) // ha tkapcsol gzrl pufferre, a gz mg utkeringetne
    1e0c:	20 91 a6 05 	lds	r18, 0x05A6	; 0x8005a6 <__data_end>
    1e10:	30 91 a7 05 	lds	r19, 0x05A7	; 0x8005a7 <__data_end+0x1>
    1e14:	21 15       	cp	r18, r1
    1e16:	31 05       	cpc	r19, r1
    1e18:	29 f4       	brne	.+10     	; 0x1e24 <CheckConditions+0x1be>
					{
						Relays &= ~((1 << GAS_RELAY) | (1 << DHW_VALVE_RELAY));
						Relays |= ((1 << BUFFER_VALVE_RELAY) | (1 << BUFFER_PUMP_RELAY));
    1e1a:	8f 76       	andi	r24, 0x6F	; 111
    1e1c:	80 66       	ori	r24, 0x60	; 96
    1e1e:	80 93 af 05 	sts	0x05AF, r24	; 0x8005af <Relays>
    1e22:	06 c0       	rjmp	.+12     	; 0x1e30 <CheckConditions+0x1ca>
					}
					else
						pumpplustime--;
    1e24:	21 50       	subi	r18, 0x01	; 1
    1e26:	31 09       	sbc	r19, r1
    1e28:	30 93 a7 05 	sts	0x05A7, r19	; 0x8005a7 <__data_end+0x1>
    1e2c:	20 93 a6 05 	sts	0x05A6, r18	; 0x8005a6 <__data_end>

					if (DebugMode > 0)
    1e30:	80 91 b2 05 	lds	r24, 0x05B2	; 0x8005b2 <DebugMode>
    1e34:	88 23       	and	r24, r24
    1e36:	39 f1       	breq	.+78     	; 0x1e86 <CheckConditions+0x220>
					uart_puts_P("GAS, DHW deactivated; BUFFER relay deactivated\n");
    1e38:	8a ed       	ldi	r24, 0xDA	; 218
    1e3a:	92 e0       	ldi	r25, 0x02	; 2
    1e3c:	0e 94 4e 1f 	call	0x3e9c	; 0x3e9c <uart_puts_p>
    1e40:	22 c0       	rjmp	.+68     	; 0x1e86 <CheckConditions+0x220>
				}
			}
			else if (LivingRoomTemp < ComfortTemp && BufferTempActual > ComfortForwardTemp && (THERMOSTAT_PIN & (1 << FIRST_THERMO_PIN)) && (THERMOSTAT_PIN & (1 << SECOND_THERMO_PIN)))
    1e42:	20 91 6a 06 	lds	r18, 0x066A	; 0x80066a <LivingRoomTemp>
    1e46:	90 91 0c 01 	lds	r25, 0x010C	; 0x80010c <ComfortTemp>
    1e4a:	29 17       	cp	r18, r25
    1e4c:	e0 f4       	brcc	.+56     	; 0x1e86 <CheckConditions+0x220>
    1e4e:	20 91 e4 06 	lds	r18, 0x06E4	; 0x8006e4 <BufferTempActual>
    1e52:	90 91 0b 01 	lds	r25, 0x010B	; 0x80010b <ComfortForwardTemp>
    1e56:	92 17       	cp	r25, r18
    1e58:	b0 f4       	brcc	.+44     	; 0x1e86 <CheckConditions+0x220>
    1e5a:	0e 9b       	sbis	0x01, 6	; 1
    1e5c:	14 c0       	rjmp	.+40     	; 0x1e86 <CheckConditions+0x220>
    1e5e:	0f 9b       	sbis	0x01, 7	; 1
    1e60:	12 c0       	rjmp	.+36     	; 0x1e86 <CheckConditions+0x220>
			{
				if (!pumpplustime) // ha tkapcsol gzrl pufferre, a gz mg utkeringetne
    1e62:	20 91 a6 05 	lds	r18, 0x05A6	; 0x8005a6 <__data_end>
    1e66:	30 91 a7 05 	lds	r19, 0x05A7	; 0x8005a7 <__data_end+0x1>
    1e6a:	21 15       	cp	r18, r1
    1e6c:	31 05       	cpc	r19, r1
    1e6e:	29 f4       	brne	.+10     	; 0x1e7a <CheckConditions+0x214>
					{
						Relays &= ~((1 << GAS_RELAY) | (1 << DHW_VALVE_RELAY));
						Relays |= ((1 << BUFFER_VALVE_RELAY) | (1 << BUFFER_PUMP_RELAY));
    1e70:	8f 76       	andi	r24, 0x6F	; 111
    1e72:	80 66       	ori	r24, 0x60	; 96
    1e74:	80 93 af 05 	sts	0x05AF, r24	; 0x8005af <Relays>
    1e78:	06 c0       	rjmp	.+12     	; 0x1e86 <CheckConditions+0x220>
					}
					else
						pumpplustime--;
    1e7a:	21 50       	subi	r18, 0x01	; 1
    1e7c:	31 09       	sbc	r19, r1
    1e7e:	30 93 a7 05 	sts	0x05A7, r19	; 0x8005a7 <__data_end+0x1>
    1e82:	20 93 a6 05 	sts	0x05A6, r18	; 0x8005a6 <__data_end>
			}

			if (!(THERMOSTAT_PIN & (1 << FIRST_THERMO_PIN)))
    1e86:	0e 99       	sbic	0x01, 6	; 1
    1e88:	0d c0       	rjmp	.+26     	; 0x1ea4 <CheckConditions+0x23e>
			{
				Relays |= (1 << FIRST_FLOOR_VALVE);
    1e8a:	80 91 af 05 	lds	r24, 0x05AF	; 0x8005af <Relays>
    1e8e:	84 60       	ori	r24, 0x04	; 4
    1e90:	80 93 af 05 	sts	0x05AF, r24	; 0x8005af <Relays>
				if (DebugMode > 0)
    1e94:	80 91 b2 05 	lds	r24, 0x05B2	; 0x8005b2 <DebugMode>
    1e98:	88 23       	and	r24, r24
    1e9a:	21 f0       	breq	.+8      	; 0x1ea4 <CheckConditions+0x23e>
					uart_puts_P("FIRST FLOOR activated\n");
    1e9c:	83 ec       	ldi	r24, 0xC3	; 195
    1e9e:	92 e0       	ldi	r25, 0x02	; 2
    1ea0:	0e 94 4e 1f 	call	0x3e9c	; 0x3e9c <uart_puts_p>
			}
			if (THERMOSTAT_PIN & (1 << FIRST_THERMO_PIN))
    1ea4:	0e 9b       	sbis	0x01, 6	; 1
    1ea6:	0d c0       	rjmp	.+26     	; 0x1ec2 <CheckConditions+0x25c>
			{
				Relays &= ~(1 << FIRST_FLOOR_VALVE);
    1ea8:	80 91 af 05 	lds	r24, 0x05AF	; 0x8005af <Relays>
    1eac:	8b 7f       	andi	r24, 0xFB	; 251
    1eae:	80 93 af 05 	sts	0x05AF, r24	; 0x8005af <Relays>
				if (DebugMode > 0)
    1eb2:	80 91 b2 05 	lds	r24, 0x05B2	; 0x8005b2 <DebugMode>
    1eb6:	88 23       	and	r24, r24
    1eb8:	21 f0       	breq	.+8      	; 0x1ec2 <CheckConditions+0x25c>
					uart_puts_P("FIRST FLOOR deactivated\n");
    1eba:	8a ea       	ldi	r24, 0xAA	; 170
    1ebc:	92 e0       	ldi	r25, 0x02	; 2
    1ebe:	0e 94 4e 1f 	call	0x3e9c	; 0x3e9c <uart_puts_p>
			}
			if (!(THERMOSTAT_PIN & (1 << SECOND_THERMO_PIN)))
    1ec2:	0f 99       	sbic	0x01, 7	; 1
    1ec4:	0d c0       	rjmp	.+26     	; 0x1ee0 <CheckConditions+0x27a>
			{
				Relays |= (1 << SECOND_FLOOR_VALVE);
    1ec6:	80 91 af 05 	lds	r24, 0x05AF	; 0x8005af <Relays>
    1eca:	88 60       	ori	r24, 0x08	; 8
    1ecc:	80 93 af 05 	sts	0x05AF, r24	; 0x8005af <Relays>
				if (DebugMode > 0)
    1ed0:	80 91 b2 05 	lds	r24, 0x05B2	; 0x8005b2 <DebugMode>
    1ed4:	88 23       	and	r24, r24
    1ed6:	21 f0       	breq	.+8      	; 0x1ee0 <CheckConditions+0x27a>
					uart_puts_P("SECOND FLOOR activated\n");
    1ed8:	82 e9       	ldi	r24, 0x92	; 146
    1eda:	92 e0       	ldi	r25, 0x02	; 2
    1edc:	0e 94 4e 1f 	call	0x3e9c	; 0x3e9c <uart_puts_p>
			}
			if (THERMOSTAT_PIN & (1 << SECOND_THERMO_PIN))
    1ee0:	0f 9b       	sbis	0x01, 7	; 1
    1ee2:	0e c0       	rjmp	.+28     	; 0x1f00 <CheckConditions+0x29a>
			{
				Relays &= ~(1 << SECOND_FLOOR_VALVE);
    1ee4:	80 91 af 05 	lds	r24, 0x05AF	; 0x8005af <Relays>
    1ee8:	87 7f       	andi	r24, 0xF7	; 247
    1eea:	80 93 af 05 	sts	0x05AF, r24	; 0x8005af <Relays>
				if (DebugMode > 0)
    1eee:	80 91 b2 05 	lds	r24, 0x05B2	; 0x8005b2 <DebugMode>
    1ef2:	88 23       	and	r24, r24
    1ef4:	09 f4       	brne	.+2      	; 0x1ef8 <CheckConditions+0x292>
    1ef6:	4e c0       	rjmp	.+156    	; 0x1f94 <CheckConditions+0x32e>
					uart_puts_P("SECOND FLOOR deactivated\n");
    1ef8:	88 e7       	ldi	r24, 0x78	; 120
    1efa:	92 e0       	ldi	r25, 0x02	; 2
    1efc:	0e 94 4e 1f 	call	0x3e9c	; 0x3e9c <uart_puts_p>
			}
			
			if (ComfortMode)
    1f00:	80 91 b0 05 	lds	r24, 0x05B0	; 0x8005b0 <ComfortMode>
    1f04:	88 23       	and	r24, r24
    1f06:	b1 f1       	breq	.+108    	; 0x1f74 <CheckConditions+0x30e>
			{
				if (LivingRoomTemp < ComfortTemp && BufferTempActual > ComfortForwardTemp)
    1f08:	90 91 6a 06 	lds	r25, 0x066A	; 0x80066a <LivingRoomTemp>
    1f0c:	80 91 0c 01 	lds	r24, 0x010C	; 0x80010c <ComfortTemp>
    1f10:	98 17       	cp	r25, r24
    1f12:	60 f4       	brcc	.+24     	; 0x1f2c <CheckConditions+0x2c6>
    1f14:	90 91 e4 06 	lds	r25, 0x06E4	; 0x8006e4 <BufferTempActual>
    1f18:	80 91 0b 01 	lds	r24, 0x010B	; 0x80010b <ComfortForwardTemp>
    1f1c:	89 17       	cp	r24, r25
    1f1e:	30 f4       	brcc	.+12     	; 0x1f2c <CheckConditions+0x2c6>
					Relays |= (1 << FIRST_FLOOR_VALVE);
    1f20:	80 91 af 05 	lds	r24, 0x05AF	; 0x8005af <Relays>
    1f24:	84 60       	ori	r24, 0x04	; 4
    1f26:	80 93 af 05 	sts	0x05AF, r24	; 0x8005af <Relays>
    1f2a:	24 c0       	rjmp	.+72     	; 0x1f74 <CheckConditions+0x30e>
				else
					Relays &= ~(1 << FIRST_FLOOR_VALVE);
    1f2c:	80 91 af 05 	lds	r24, 0x05AF	; 0x8005af <Relays>
    1f30:	8b 7f       	andi	r24, 0xFB	; 251
    1f32:	80 93 af 05 	sts	0x05AF, r24	; 0x8005af <Relays>
    1f36:	1e c0       	rjmp	.+60     	; 0x1f74 <CheckConditions+0x30e>
			}
			
		}
		else
		{
			if (!pumpplustime)
    1f38:	20 91 a6 05 	lds	r18, 0x05A6	; 0x8005a6 <__data_end>
    1f3c:	30 91 a7 05 	lds	r19, 0x05A7	; 0x8005a7 <__data_end+0x1>
    1f40:	21 15       	cp	r18, r1
    1f42:	31 05       	cpc	r19, r1
    1f44:	21 f4       	brne	.+8      	; 0x1f4e <CheckConditions+0x2e8>
				Relays &= ~((1 << FIRST_FLOOR_VALVE) | (1 << SECOND_FLOOR_VALVE));
    1f46:	83 7f       	andi	r24, 0xF3	; 243
    1f48:	80 93 af 05 	sts	0x05AF, r24	; 0x8005af <Relays>
    1f4c:	06 c0       	rjmp	.+12     	; 0x1f5a <CheckConditions+0x2f4>
			else
				pumpplustime--;
    1f4e:	21 50       	subi	r18, 0x01	; 1
    1f50:	31 09       	sbc	r19, r1
    1f52:	30 93 a7 05 	sts	0x05A7, r19	; 0x8005a7 <__data_end+0x1>
    1f56:	20 93 a6 05 	sts	0x05A6, r18	; 0x8005a6 <__data_end>

			Relays &= ~((1 << BUFFER_VALVE_RELAY) | (1 <<BUFFER_PUMP_RELAY) | (1 << GAS_RELAY));
    1f5a:	80 91 af 05 	lds	r24, 0x05AF	; 0x8005af <Relays>
    1f5e:	8f 71       	andi	r24, 0x1F	; 31
    1f60:	80 93 af 05 	sts	0x05AF, r24	; 0x8005af <Relays>
			if (DebugMode > 0)
    1f64:	80 91 b2 05 	lds	r24, 0x05B2	; 0x8005b2 <DebugMode>
    1f68:	88 23       	and	r24, r24
    1f6a:	41 f0       	breq	.+16     	; 0x1f7c <CheckConditions+0x316>
				uart_puts_P("GAS and FIRST_FLOOR_VALVE, SECOND_FLOOR_VALVE relay deactivated\n");
    1f6c:	87 e3       	ldi	r24, 0x37	; 55
    1f6e:	92 e0       	ldi	r25, 0x02	; 2
    1f70:	0e 94 4e 1f 	call	0x3e9c	; 0x3e9c <uart_puts_p>
		}
	}

	if (DebugMode < 2 && _relays != Relays)
    1f74:	80 91 b2 05 	lds	r24, 0x05B2	; 0x8005b2 <DebugMode>
    1f78:	82 30       	cpi	r24, 0x02	; 2
    1f7a:	88 f4       	brcc	.+34     	; 0x1f9e <CheckConditions+0x338>
    1f7c:	80 91 af 05 	lds	r24, 0x05AF	; 0x8005af <Relays>
    1f80:	c8 17       	cp	r28, r24
    1f82:	69 f0       	breq	.+26     	; 0x1f9e <CheckConditions+0x338>
		SwitchRelays();
    1f84:	0e 94 29 0e 	call	0x1c52	; 0x1c52 <SwitchRelays>
}
    1f88:	0a c0       	rjmp	.+20     	; 0x1f9e <CheckConditions+0x338>
		if (DebugMode > 0)
			uart_puts_P("DHW relay deactivated\n");
	}

	// ftsi kr
	if (!(Relays & (1 << DHW_VALVE_RELAY)))
    1f8a:	80 91 af 05 	lds	r24, 0x05AF	; 0x8005af <Relays>
    1f8e:	84 ff       	sbrs	r24, 4
    1f90:	ee ce       	rjmp	.-548    	; 0x1d6e <CheckConditions+0x108>
    1f92:	f4 cf       	rjmp	.-24     	; 0x1f7c <CheckConditions+0x316>
				Relays &= ~(1 << SECOND_FLOOR_VALVE);
				if (DebugMode > 0)
					uart_puts_P("SECOND FLOOR deactivated\n");
			}
			
			if (ComfortMode)
    1f94:	80 91 b0 05 	lds	r24, 0x05B0	; 0x8005b0 <ComfortMode>
    1f98:	81 11       	cpse	r24, r1
    1f9a:	b6 cf       	rjmp	.-148    	; 0x1f08 <CheckConditions+0x2a2>
    1f9c:	ef cf       	rjmp	.-34     	; 0x1f7c <CheckConditions+0x316>
		}
	}

	if (DebugMode < 2 && _relays != Relays)
		SwitchRelays();
}
    1f9e:	cf 91       	pop	r28
    1fa0:	08 95       	ret

00001fa2 <read_from_eeprom>:
	SPIClose();
}

void read_from_eeprom()
{
	DHWSensorID = eeprom_read_byte(&eeDHWSensorID);
    1fa2:	85 e0       	ldi	r24, 0x05	; 5
    1fa4:	90 e0       	ldi	r25, 0x00	; 0
    1fa6:	0e 94 d9 22 	call	0x45b2	; 0x45b2 <eeprom_read_byte>
    1faa:	80 93 ae 05 	sts	0x05AE, r24	; 0x8005ae <DHWSensorID>
	DHWTempDesired = eeprom_read_byte(&eeDHWTempDesired);
    1fae:	80 e1       	ldi	r24, 0x10	; 16
    1fb0:	90 e0       	ldi	r25, 0x00	; 0
    1fb2:	0e 94 d9 22 	call	0x45b2	; 0x45b2 <eeprom_read_byte>
    1fb6:	80 93 88 06 	sts	0x0688, r24	; 0x800688 <DHWTempDesired>
	DHWTempMin = eeprom_read_byte(&eeDHWTempMin);
    1fba:	8f e0       	ldi	r24, 0x0F	; 15
    1fbc:	90 e0       	ldi	r25, 0x00	; 0
    1fbe:	0e 94 d9 22 	call	0x45b2	; 0x45b2 <eeprom_read_byte>
    1fc2:	80 93 80 06 	sts	0x0680, r24	; 0x800680 <DHWTempMin>
	DHWMinTime = eeprom_read_word(&eeDHWMinTime);
    1fc6:	8d e0       	ldi	r24, 0x0D	; 13
    1fc8:	90 e0       	ldi	r25, 0x00	; 0
    1fca:	0e 94 e1 22 	call	0x45c2	; 0x45c2 <eeprom_read_word>
    1fce:	90 93 95 06 	sts	0x0695, r25	; 0x800695 <DHWMinTime+0x1>
    1fd2:	80 93 94 06 	sts	0x0694, r24	; 0x800694 <DHWMinTime>
	DHWMaxTime = eeprom_read_word(&eeDHWMaxTime);
    1fd6:	8b e0       	ldi	r24, 0x0B	; 11
    1fd8:	90 e0       	ldi	r25, 0x00	; 0
    1fda:	0e 94 e1 22 	call	0x45c2	; 0x45c2 <eeprom_read_word>
    1fde:	90 93 a0 06 	sts	0x06A0, r25	; 0x8006a0 <DHWMaxTime+0x1>
    1fe2:	80 93 9f 06 	sts	0x069F, r24	; 0x80069f <DHWMaxTime>
	BufferSensorID = eeprom_read_byte(&eeBufferSensorID);
    1fe6:	84 e0       	ldi	r24, 0x04	; 4
    1fe8:	90 e0       	ldi	r25, 0x00	; 0
    1fea:	0e 94 d9 22 	call	0x45b2	; 0x45b2 <eeprom_read_byte>
    1fee:	80 93 09 01 	sts	0x0109, r24	; 0x800109 <BufferSensorID>
	ForwardHeatTemp = eeprom_read_byte(&eeForwardHeatTemp);
    1ff2:	8a e0       	ldi	r24, 0x0A	; 10
    1ff4:	90 e0       	ldi	r25, 0x00	; 0
    1ff6:	0e 94 d9 22 	call	0x45b2	; 0x45b2 <eeprom_read_byte>
    1ffa:	80 93 0a 01 	sts	0x010A, r24	; 0x80010a <ForwardHeatTemp>
	EngineeringSensorID = eeprom_read_byte(&eeEngineeringSensorID);
    1ffe:	82 e0       	ldi	r24, 0x02	; 2
    2000:	90 e0       	ldi	r25, 0x00	; 0
    2002:	0e 94 d9 22 	call	0x45b2	; 0x45b2 <eeprom_read_byte>
    2006:	80 93 07 01 	sts	0x0107, r24	; 0x800107 <EngineeringSensorID>
	EngineeringTempDesired = eeprom_read_byte(&eeEngineeringTempDesired);
    200a:	89 e0       	ldi	r24, 0x09	; 9
    200c:	90 e0       	ldi	r25, 0x00	; 0
    200e:	0e 94 d9 22 	call	0x45b2	; 0x45b2 <eeprom_read_byte>
    2012:	80 93 6b 06 	sts	0x066B, r24	; 0x80066b <EngineeringTempDesired>
	EngineeringTempMin = eeprom_read_byte(&eeEngineeringTempMin);
    2016:	88 e0       	ldi	r24, 0x08	; 8
    2018:	90 e0       	ldi	r25, 0x00	; 0
    201a:	0e 94 d9 22 	call	0x45b2	; 0x45b2 <eeprom_read_byte>
    201e:	80 93 a4 06 	sts	0x06A4, r24	; 0x8006a4 <EngineeringTempMin>
	GarageSensorID = eeprom_read_byte(&eeGarageSensorID);
    2022:	83 e0       	ldi	r24, 0x03	; 3
    2024:	90 e0       	ldi	r25, 0x00	; 0
    2026:	0e 94 d9 22 	call	0x45b2	; 0x45b2 <eeprom_read_byte>
    202a:	80 93 08 01 	sts	0x0108, r24	; 0x800108 <GarageSensorID>
	LivingRoomSensorID = eeprom_read_byte(&eeLivingRoomSensorID);
    202e:	81 e0       	ldi	r24, 0x01	; 1
    2030:	90 e0       	ldi	r25, 0x00	; 0
    2032:	0e 94 d9 22 	call	0x45b2	; 0x45b2 <eeprom_read_byte>
    2036:	80 93 06 01 	sts	0x0106, r24	; 0x800106 <LivingRoomSensorID>
	SwitchOnOutdoorTempMin = eeprom_read_word(&eeSwitchOnOutdoorTempMin);
    203a:	86 e0       	ldi	r24, 0x06	; 6
    203c:	90 e0       	ldi	r25, 0x00	; 0
    203e:	0e 94 e1 22 	call	0x45c2	; 0x45c2 <eeprom_read_word>
    2042:	90 93 7b 06 	sts	0x067B, r25	; 0x80067b <SwitchOnOutdoorTempMin+0x1>
    2046:	80 93 7a 06 	sts	0x067A, r24	; 0x80067a <SwitchOnOutdoorTempMin>
	DebugMode = eeprom_read_byte(&eeDebugMode);
    204a:	88 e1       	ldi	r24, 0x18	; 24
    204c:	90 e0       	ldi	r25, 0x00	; 0
    204e:	0e 94 d9 22 	call	0x45b2	; 0x45b2 <eeprom_read_byte>
    2052:	80 93 b2 05 	sts	0x05B2, r24	; 0x8005b2 <DebugMode>
	MenuTimer = eeprom_read_byte(&eeMenuTimer);
    2056:	87 e1       	ldi	r24, 0x17	; 23
    2058:	90 e0       	ldi	r25, 0x00	; 0
    205a:	0e 94 d9 22 	call	0x45b2	; 0x45b2 <eeprom_read_byte>
    205e:	80 93 0f 01 	sts	0x010F, r24	; 0x80010f <MenuTimer>
	LCDBackLight = eeprom_read_byte(&eeLCDBackLight);
    2062:	86 e1       	ldi	r24, 0x16	; 22
    2064:	90 e0       	ldi	r25, 0x00	; 0
    2066:	0e 94 d9 22 	call	0x45b2	; 0x45b2 <eeprom_read_byte>
    206a:	80 93 b1 05 	sts	0x05B1, r24	; 0x8005b1 <LCDBackLight>
	PumpPlusTime = eeprom_read_word(&eePumpPlusTime);
    206e:	84 e1       	ldi	r24, 0x14	; 20
    2070:	90 e0       	ldi	r25, 0x00	; 0
    2072:	0e 94 e1 22 	call	0x45c2	; 0x45c2 <eeprom_read_word>
    2076:	90 93 0e 01 	sts	0x010E, r25	; 0x80010e <PumpPlusTime+0x1>
    207a:	80 93 0d 01 	sts	0x010D, r24	; 0x80010d <PumpPlusTime>
	ComfortMode = eeprom_read_byte(&eeComfortMode);
    207e:	83 e1       	ldi	r24, 0x13	; 19
    2080:	90 e0       	ldi	r25, 0x00	; 0
    2082:	0e 94 d9 22 	call	0x45b2	; 0x45b2 <eeprom_read_byte>
    2086:	80 93 b0 05 	sts	0x05B0, r24	; 0x8005b0 <ComfortMode>
	ComfortTemp = eeprom_read_byte(&eeComfortTemp);
    208a:	82 e1       	ldi	r24, 0x12	; 18
    208c:	90 e0       	ldi	r25, 0x00	; 0
    208e:	0e 94 d9 22 	call	0x45b2	; 0x45b2 <eeprom_read_byte>
    2092:	80 93 0c 01 	sts	0x010C, r24	; 0x80010c <ComfortTemp>
	ComfortForwardTemp = eeprom_read_byte(&eeComfortForwardTemp);
    2096:	81 e1       	ldi	r24, 0x11	; 17
    2098:	90 e0       	ldi	r25, 0x00	; 0
    209a:	0e 94 d9 22 	call	0x45b2	; 0x45b2 <eeprom_read_byte>
    209e:	80 93 0b 01 	sts	0x010B, r24	; 0x80010b <ComfortForwardTemp>
    20a2:	08 95       	ret

000020a4 <main>:
}

int main(void)
{
	read_from_eeprom();
    20a4:	0e 94 d1 0f 	call	0x1fa2	; 0x1fa2 <read_from_eeprom>

	lcd_init(LCD_DISP_ON);
    20a8:	8c e0       	ldi	r24, 0x0C	; 12
    20aa:	0e 94 01 0a 	call	0x1402	; 0x1402 <lcd_init>
	lcd_defc(magyar_betuk);
    20ae:	8b e7       	ldi	r24, 0x7B	; 123
    20b0:	94 e0       	ldi	r25, 0x04	; 4
    20b2:	0e 94 3b 0a 	call	0x1476	; 0x1476 <lcd_defc>

	TCCR3A |= (1 << WGM30)|(1<<COM3C1);
    20b6:	eb e8       	ldi	r30, 0x8B	; 139
    20b8:	f0 e0       	ldi	r31, 0x00	; 0
    20ba:	80 81       	ld	r24, Z
    20bc:	89 60       	ori	r24, 0x09	; 9
    20be:	80 83       	st	Z, r24
	TCCR3B |= (1 << WGM32)|(1 << CS30)|(1 << CS31);
    20c0:	ea e8       	ldi	r30, 0x8A	; 138
    20c2:	f0 e0       	ldi	r31, 0x00	; 0
    20c4:	80 81       	ld	r24, Z
    20c6:	8b 60       	ori	r24, 0x0B	; 11
    20c8:	80 83       	st	Z, r24
	OCR3C = 128;
    20ca:	80 e8       	ldi	r24, 0x80	; 128
    20cc:	90 e0       	ldi	r25, 0x00	; 0
    20ce:	90 93 83 00 	sts	0x0083, r25	; 0x800083 <__TEXT_REGION_LENGTH__+0x7e0083>
    20d2:	80 93 82 00 	sts	0x0082, r24	; 0x800082 <__TEXT_REGION_LENGTH__+0x7e0082>
	DDRE |= (1 << PINE5);	//LCD led PWM
    20d6:	15 9a       	sbi	0x02, 5	; 2
	PORTE |= (1 << PINE5);	//LCD led PWM
    20d8:	1d 9a       	sbi	0x03, 5	; 3

	lcd_clrscr();
    20da:	0e 94 cb 09 	call	0x1396	; 0x1396 <lcd_clrscr>
	lcd_puts_hu(PSTR("Fts vezrls v0.9"));
    20de:	85 ef       	ldi	r24, 0xF5	; 245
    20e0:	91 e0       	ldi	r25, 0x01	; 1
    20e2:	0e 94 b6 0a 	call	0x156c	; 0x156c <lcd_puts_hu>

	uart_init( UART_BAUD_SELECT(UART_BAUD_RATE,F_CPU) );
    20e6:	87 e6       	ldi	r24, 0x67	; 103
    20e8:	90 e0       	ldi	r25, 0x00	; 0
    20ea:	0e 94 18 1f 	call	0x3e30	; 0x3e30 <uart_init>

	DDRF &= ~(1 << PINF0); //ADC input
    20ee:	e1 e6       	ldi	r30, 0x61	; 97
    20f0:	f0 e0       	ldi	r31, 0x00	; 0
    20f2:	80 81       	ld	r24, Z
    20f4:	8e 7f       	andi	r24, 0xFE	; 254
    20f6:	80 83       	st	Z, r24
	PORTF &= ~(1 << PINF0);
    20f8:	e2 e6       	ldi	r30, 0x62	; 98
    20fa:	f0 e0       	ldi	r31, 0x00	; 0
    20fc:	80 81       	ld	r24, Z
    20fe:	8e 7f       	andi	r24, 0xFE	; 254
    2100:	80 83       	st	Z, r24

	BUZZER_DDR |= (1 << BUZZER_PIN);
    2102:	a0 9a       	sbi	0x14, 0	; 20

	THERMOSTAT_DDR &= ~((1 << FIRST_THERMO_PIN)|(1 << SECOND_THERMO_PIN));
    2104:	82 b1       	in	r24, 0x02	; 2
    2106:	8f 73       	andi	r24, 0x3F	; 63
    2108:	82 b9       	out	0x02, r24	; 2
	//THERMOSTAT_PORT |= (1 << FIRST_THERMO_PIN)|(1 << SECOND_THERMO_PIN);

	Relays = 0x00;
    210a:	10 92 af 05 	sts	0x05AF, r1	; 0x8005af <Relays>
	SwitchRelays();
    210e:	0e 94 29 0e 	call	0x1c52	; 0x1c52 <SwitchRelays>

	lcd_gotoxy(0,1);
    2112:	61 e0       	ldi	r22, 0x01	; 1
    2114:	80 e0       	ldi	r24, 0x00	; 0
    2116:	0e 94 b5 09 	call	0x136a	; 0x136a <lcd_gotoxy>
	lcd_puts_hu(PSTR("Alapllapotba lls"));
    211a:	81 ee       	ldi	r24, 0xE1	; 225
    211c:	91 e0       	ldi	r25, 0x01	; 1
    211e:	0e 94 b6 0a 	call	0x156c	; 0x156c <lcd_puts_hu>
	lcd_gotoxy(0,2);
    2122:	62 e0       	ldi	r22, 0x02	; 2
    2124:	80 e0       	ldi	r24, 0x00	; 0
    2126:	0e 94 b5 09 	call	0x136a	; 0x136a <lcd_gotoxy>
    212a:	da e0       	ldi	r29, 0x0A	; 10
	uint8_t init_counter = 0;
	while (init_counter < 10)
	{
		lcd_putc('x');
    212c:	88 e7       	ldi	r24, 0x78	; 120
    212e:	0e 94 cf 09 	call	0x139e	; 0x139e <lcd_putc>
	#else
		//round up by default
		__ticks_dc = (uint32_t)(ceil(fabs(__tmp)));
	#endif

	__builtin_avr_delay_cycles(__ticks_dc);
    2132:	2f ef       	ldi	r18, 0xFF	; 255
    2134:	83 ed       	ldi	r24, 0xD3	; 211
    2136:	90 e3       	ldi	r25, 0x30	; 48
    2138:	21 50       	subi	r18, 0x01	; 1
    213a:	80 40       	sbci	r24, 0x00	; 0
    213c:	90 40       	sbci	r25, 0x00	; 0
    213e:	e1 f7       	brne	.-8      	; 0x2138 <main+0x94>
    2140:	00 c0       	rjmp	.+0      	; 0x2142 <main+0x9e>
    2142:	00 00       	nop
    2144:	d1 50       	subi	r29, 0x01	; 1

	lcd_gotoxy(0,1);
	lcd_puts_hu(PSTR("Alapllapotba lls"));
	lcd_gotoxy(0,2);
	uint8_t init_counter = 0;
	while (init_counter < 10)
    2146:	91 f7       	brne	.-28     	; 0x212c <main+0x88>
		lcd_putc('x');
		_delay_ms(1000);
		init_counter++;
	}

	lcd_clrscr();
    2148:	0e 94 cb 09 	call	0x1396	; 0x1396 <lcd_clrscr>
	lcd_puts_hu(PSTR("I2C indts"));
    214c:	85 ed       	ldi	r24, 0xD5	; 213
    214e:	91 e0       	ldi	r25, 0x01	; 1
    2150:	0e 94 b6 0a 	call	0x156c	; 0x156c <lcd_puts_hu>
	i2c_init();
    2154:	0e 94 e3 08 	call	0x11c6	; 0x11c6 <i2c_init>
	lcd_gotoxy(0,1);
    2158:	61 e0       	ldi	r22, 0x01	; 1
    215a:	80 e0       	ldi	r24, 0x00	; 0
    215c:	0e 94 b5 09 	call	0x136a	; 0x136a <lcd_gotoxy>
	lcd_puts_hu(PSTR("BME280 indts"));
    2160:	86 ec       	ldi	r24, 0xC6	; 198
    2162:	91 e0       	ldi	r25, 0x01	; 1
    2164:	0e 94 b6 0a 	call	0x156c	; 0x156c <lcd_puts_hu>
	init_BME280();
    2168:	0e 94 dd 04 	call	0x9ba	; 0x9ba <init_BME280>



	sei();
    216c:	78 94       	sei
	uart_puts_p(PSTR("Interrupt enabled\n"));
    216e:	83 eb       	ldi	r24, 0xB3	; 179
    2170:	91 e0       	ldi	r25, 0x01	; 1
    2172:	0e 94 4e 1f 	call	0x3e9c	; 0x3e9c <uart_puts_p>


	ow_set_bus(&PINB,&PORTB,&DDRB,PINB0);
    2176:	20 e0       	ldi	r18, 0x00	; 0
    2178:	47 e3       	ldi	r20, 0x37	; 55
    217a:	50 e0       	ldi	r21, 0x00	; 0
    217c:	68 e3       	ldi	r22, 0x38	; 56
    217e:	70 e0       	ldi	r23, 0x00	; 0
    2180:	86 e3       	ldi	r24, 0x36	; 54
    2182:	90 e0       	ldi	r25, 0x00	; 0
    2184:	0e 94 fa 07 	call	0xff4	; 0xff4 <ow_set_bus>
	nSensors = search_sensors();
    2188:	0e 94 c4 0d 	call	0x1b88	; 0x1b88 <search_sensors>
    218c:	80 93 7f 06 	sts	0x067F, r24	; 0x80067f <nSensors>

	if (DebugMode > 0)
    2190:	80 91 b2 05 	lds	r24, 0x05B2	; 0x8005b2 <DebugMode>
    2194:	88 23       	and	r24, r24
    2196:	69 f0       	breq	.+26     	; 0x21b2 <main+0x10e>
		{ uart_puts_P("Found "); uart_puti(nSensors); uart_puts_P(" DS18B20 sensors\n"); }
    2198:	8c ea       	ldi	r24, 0xAC	; 172
    219a:	91 e0       	ldi	r25, 0x01	; 1
    219c:	0e 94 4e 1f 	call	0x3e9c	; 0x3e9c <uart_puts_p>
    21a0:	80 91 7f 06 	lds	r24, 0x067F	; 0x80067f <nSensors>
    21a4:	90 e0       	ldi	r25, 0x00	; 0
    21a6:	0e 94 b8 1f 	call	0x3f70	; 0x3f70 <uart_puti>
    21aa:	8a e9       	ldi	r24, 0x9A	; 154
    21ac:	91 e0       	ldi	r25, 0x01	; 1
    21ae:	0e 94 4e 1f 	call	0x3e9c	; 0x3e9c <uart_puts_p>
	lcd_gotoxy(0,2);
    21b2:	62 e0       	ldi	r22, 0x02	; 2
    21b4:	80 e0       	ldi	r24, 0x00	; 0
    21b6:	0e 94 b5 09 	call	0x136a	; 0x136a <lcd_gotoxy>
	lcd_puts_p(PSTR("DS18B20: ")); lcd_puti(nSensors); lcd_puts_p(PSTR(" db"));
    21ba:	80 e9       	ldi	r24, 0x90	; 144
    21bc:	91 e0       	ldi	r25, 0x01	; 1
    21be:	0e 94 ef 09 	call	0x13de	; 0x13de <lcd_puts_p>
    21c2:	80 91 7f 06 	lds	r24, 0x067F	; 0x80067f <nSensors>
    21c6:	90 e0       	ldi	r25, 0x00	; 0
    21c8:	0e 94 94 0a 	call	0x1528	; 0x1528 <lcd_puti>
    21cc:	8c e8       	ldi	r24, 0x8C	; 140
    21ce:	91 e0       	ldi	r25, 0x01	; 1
    21d0:	0e 94 ef 09 	call	0x13de	; 0x13de <lcd_puts_p>
    21d4:	2f ef       	ldi	r18, 0xFF	; 255
    21d6:	8b e7       	ldi	r24, 0x7B	; 123
    21d8:	92 e9       	ldi	r25, 0x92	; 146
    21da:	21 50       	subi	r18, 0x01	; 1
    21dc:	80 40       	sbci	r24, 0x00	; 0
    21de:	90 40       	sbci	r25, 0x00	; 0
    21e0:	e1 f7       	brne	.-8      	; 0x21da <main+0x136>
    21e2:	00 c0       	rjmp	.+0      	; 0x21e4 <main+0x140>
    21e4:	00 00       	nop

	_delay_ms(3000);

	TCCR1B |= (1 << CS12) | (1 << WGM12);
    21e6:	8e b5       	in	r24, 0x2e	; 46
    21e8:	8c 60       	ori	r24, 0x0C	; 12
    21ea:	8e bd       	out	0x2e, r24	; 46
	TCNT1 = 0;
    21ec:	1d bc       	out	0x2d, r1	; 45
    21ee:	1c bc       	out	0x2c, r1	; 44
	OCR1A = 62500;//14400; // 1000ms
    21f0:	84 e2       	ldi	r24, 0x24	; 36
    21f2:	94 ef       	ldi	r25, 0xF4	; 244
    21f4:	9b bd       	out	0x2b, r25	; 43
    21f6:	8a bd       	out	0x2a, r24	; 42
	TIMSK |= (1 << OCIE1A);
    21f8:	87 b7       	in	r24, 0x37	; 55
    21fa:	80 61       	ori	r24, 0x10	; 16
    21fc:	87 bf       	out	0x37, r24	; 55

	//ADMUX |= (1<<REFS0) | (1<< REFS1);
	ADCSRA |= (1 << ADEN)|(1<<ADIE)|(1<<ADSC)|(1<<ADPS0)|(1<<ADPS1)|(1<<ADPS2);
    21fe:	86 b1       	in	r24, 0x06	; 6
    2200:	8f 6c       	ori	r24, 0xCF	; 207
    2202:	86 b9       	out	0x06, r24	; 6

	//reset watchdog
	wdt_reset();
    2204:	a8 95       	wdr
	WDTCR |= (1<<WDE) | (1 << WDCE);
    2206:	81 b5       	in	r24, 0x21	; 33
    2208:	88 61       	ori	r24, 0x18	; 24
    220a:	81 bd       	out	0x21, r24	; 33
	WDTCR |= (1<<WDP2)| (1<<WDP1) | (1<<WDP0);
    220c:	81 b5       	in	r24, 0x21	; 33
    220e:	87 60       	ori	r24, 0x07	; 7
    2210:	81 bd       	out	0x21, r24	; 33


	menuInit();
    2212:	0e 94 fa 11 	call	0x23f4	; 0x23f4 <menuInit>
								xDay = 29;	
								break;
						}
						if (++Day == xDay)
						{
							Day = 1;
    2216:	d1 e0       	ldi	r29, 0x01	; 1
							case 11:
								xDay = 31;
								break;
							
							case 2:
								xDay = 29;	
    2218:	1d e1       	ldi	r17, 0x1D	; 29
								
							case 4:
							case 6:
							case 9:
							case 11:
								xDay = 31;
    221a:	0f e1       	ldi	r16, 0x1F	; 31

	menuInit();

	while(1)
	{
		if (TimerElapsed == 1)
    221c:	80 91 b3 05 	lds	r24, 0x05B3	; 0x8005b3 <TimerElapsed>
    2220:	81 30       	cpi	r24, 0x01	; 1
    2222:	09 f0       	breq	.+2      	; 0x2226 <main+0x182>
    2224:	5e c0       	rjmp	.+188    	; 0x22e2 <main+0x23e>
		{
			if (++Seconds == 60)
    2226:	80 91 ab 05 	lds	r24, 0x05AB	; 0x8005ab <Seconds>
    222a:	8f 5f       	subi	r24, 0xFF	; 255
    222c:	8c 33       	cpi	r24, 0x3C	; 60
    222e:	19 f0       	breq	.+6      	; 0x2236 <main+0x192>
    2230:	80 93 ab 05 	sts	0x05AB, r24	; 0x8005ab <Seconds>
    2234:	4b c0       	rjmp	.+150    	; 0x22cc <main+0x228>
			{
				Seconds = 0;
    2236:	10 92 ab 05 	sts	0x05AB, r1	; 0x8005ab <Seconds>
				if (++Minute == 60)
    223a:	80 91 ac 05 	lds	r24, 0x05AC	; 0x8005ac <Minute>
    223e:	8f 5f       	subi	r24, 0xFF	; 255
    2240:	8c 33       	cpi	r24, 0x3C	; 60
    2242:	19 f0       	breq	.+6      	; 0x224a <main+0x1a6>
    2244:	80 93 ac 05 	sts	0x05AC, r24	; 0x8005ac <Minute>
    2248:	41 c0       	rjmp	.+130    	; 0x22cc <main+0x228>
				{
					Minute = 0;
    224a:	10 92 ac 05 	sts	0x05AC, r1	; 0x8005ac <Minute>
					if (++Hour == 24)
    224e:	80 91 ad 05 	lds	r24, 0x05AD	; 0x8005ad <Hour>
    2252:	8f 5f       	subi	r24, 0xFF	; 255
    2254:	88 31       	cpi	r24, 0x18	; 24
    2256:	19 f0       	breq	.+6      	; 0x225e <main+0x1ba>
    2258:	80 93 ad 05 	sts	0x05AD, r24	; 0x8005ad <Hour>
    225c:	37 c0       	rjmp	.+110    	; 0x22cc <main+0x228>
					{
						Hour = 0;
    225e:	10 92 ad 05 	sts	0x05AD, r1	; 0x8005ad <Hour>
						
						if (++DayName == 8)
    2262:	80 91 a9 05 	lds	r24, 0x05A9	; 0x8005a9 <DayName>
    2266:	8f 5f       	subi	r24, 0xFF	; 255
    2268:	88 30       	cpi	r24, 0x08	; 8
    226a:	19 f0       	breq	.+6      	; 0x2272 <main+0x1ce>
    226c:	80 93 a9 05 	sts	0x05A9, r24	; 0x8005a9 <DayName>
    2270:	02 c0       	rjmp	.+4      	; 0x2276 <main+0x1d2>
							DayName = 1;
    2272:	d0 93 a9 05 	sts	0x05A9, r29	; 0x8005a9 <DayName>
						uint8_t xDay;
						switch (Month)
    2276:	20 91 02 01 	lds	r18, 0x0102	; 0x800102 <Month>
    227a:	82 2f       	mov	r24, r18
    227c:	90 e0       	ldi	r25, 0x00	; 0
    227e:	fc 01       	movw	r30, r24
    2280:	31 97       	sbiw	r30, 0x01	; 1
    2282:	ec 30       	cpi	r30, 0x0C	; 12
    2284:	f1 05       	cpc	r31, r1
    2286:	38 f4       	brcc	.+14     	; 0x2296 <main+0x1f2>
    2288:	e7 57       	subi	r30, 0x77	; 119
    228a:	ff 4f       	sbci	r31, 0xFF	; 255
    228c:	0c 94 7c 22 	jmp	0x44f8	; 0x44f8 <__tablejump2__>
							case 5:
							case 7:
							case 8:
							case 10:
							case 12:
								xDay = 32;
    2290:	c0 e2       	ldi	r28, 0x20	; 32
    2292:	01 c0       	rjmp	.+2      	; 0x2296 <main+0x1f2>
								
							case 4:
							case 6:
							case 9:
							case 11:
								xDay = 31;
    2294:	c0 2f       	mov	r28, r16
							
							case 2:
								xDay = 29;	
								break;
						}
						if (++Day == xDay)
    2296:	80 91 01 01 	lds	r24, 0x0101	; 0x800101 <Day>
    229a:	8f 5f       	subi	r24, 0xFF	; 255
    229c:	c8 17       	cp	r28, r24
    229e:	19 f0       	breq	.+6      	; 0x22a6 <main+0x202>
    22a0:	80 93 01 01 	sts	0x0101, r24	; 0x800101 <Day>
    22a4:	13 c0       	rjmp	.+38     	; 0x22cc <main+0x228>
						{
							Day = 1;
    22a6:	d0 93 01 01 	sts	0x0101, r29	; 0x800101 <Day>
							if (++Month == 13)
    22aa:	2f 5f       	subi	r18, 0xFF	; 255
    22ac:	2d 30       	cpi	r18, 0x0D	; 13
    22ae:	19 f0       	breq	.+6      	; 0x22b6 <main+0x212>
    22b0:	20 93 02 01 	sts	0x0102, r18	; 0x800102 <Month>
    22b4:	0b c0       	rjmp	.+22     	; 0x22cc <main+0x228>
							{
								Month = 1;
    22b6:	d0 93 02 01 	sts	0x0102, r29	; 0x800102 <Month>
								Year++;
    22ba:	80 91 03 01 	lds	r24, 0x0103	; 0x800103 <Year>
    22be:	90 91 04 01 	lds	r25, 0x0104	; 0x800104 <Year+0x1>
    22c2:	01 96       	adiw	r24, 0x01	; 1
    22c4:	90 93 04 01 	sts	0x0104, r25	; 0x800104 <Year+0x1>
    22c8:	80 93 03 01 	sts	0x0103, r24	; 0x800103 <Year>
					}
						
				}
			}

			SensorRead();
    22cc:	0e 94 fa 0a 	call	0x15f4	; 0x15f4 <SensorRead>
			if (DebugMode < 2)
    22d0:	80 91 b2 05 	lds	r24, 0x05B2	; 0x8005b2 <DebugMode>
    22d4:	82 30       	cpi	r24, 0x02	; 2
    22d6:	10 f4       	brcc	.+4      	; 0x22dc <main+0x238>
				CheckConditions();
    22d8:	0e 94 33 0e 	call	0x1c66	; 0x1c66 <CheckConditions>
			wdt_reset();
    22dc:	a8 95       	wdr
			TimerElapsed = 0;
    22de:	10 92 b3 05 	sts	0x05B3, r1	; 0x8005b3 <TimerElapsed>
		}
		menuPollButtons();
    22e2:	0e 94 ff 11 	call	0x23fe	; 0x23fe <menuPollButtons>
	}
    22e6:	9a cf       	rjmp	.-204    	; 0x221c <main+0x178>
								xDay = 29;	
								break;
						}
						if (++Day == xDay)
						{
							Day = 1;
    22e8:	d0 93 01 01 	sts	0x0101, r29	; 0x800101 <Day>
							if (++Month == 13)
    22ec:	2f 5f       	subi	r18, 0xFF	; 255
							case 11:
								xDay = 31;
								break;
							
							case 2:
								xDay = 29;	
    22ee:	c1 2f       	mov	r28, r17
    22f0:	df cf       	rjmp	.-66     	; 0x22b0 <main+0x20c>
								break;
						}
						if (++Day == xDay)
    22f2:	80 91 01 01 	lds	r24, 0x0101	; 0x800101 <Day>
    22f6:	8f 5f       	subi	r24, 0xFF	; 255
    22f8:	8d 31       	cpi	r24, 0x1D	; 29
    22fa:	b1 f3       	breq	.-20     	; 0x22e8 <main+0x244>
							case 11:
								xDay = 31;
								break;
							
							case 2:
								xDay = 29;	
    22fc:	c1 2f       	mov	r28, r17
    22fe:	d0 cf       	rjmp	.-96     	; 0x22a0 <main+0x1fc>

00002300 <renderMenu>:
}

/*************************************************************************
 Basic render menu function, responsible for rendering the menu
*************************************************************************/
static void renderMenu(){
    2300:	ef 92       	push	r14
    2302:	ff 92       	push	r15
    2304:	0f 93       	push	r16
    2306:	1f 93       	push	r17
    2308:	cf 93       	push	r28
    230a:	df 93       	push	r29
	lcd_clrscr();
    230c:	0e 94 cb 09 	call	0x1396	; 0x1396 <lcd_clrscr>

	MENU_ITEM *items = menuItemsGetHomeMenu();
    2310:	0e 94 91 1e 	call	0x3d22	; 0x3d22 <menuItemsGetHomeMenu>
    2314:	ec 01       	movw	r28, r24
	uint8_t max_options = menuItemsGetHomeMenuSize();
    2316:	0e 94 94 1e 	call	0x3d28	; 0x3d28 <menuItemsGetHomeMenuSize>

	if(current_state->level != MENU_LEVEL_1){
    231a:	e0 91 24 01 	lds	r30, 0x0124	; 0x800124 <current_state>
    231e:	f0 91 25 01 	lds	r31, 0x0125	; 0x800125 <current_state+0x1>
    2322:	96 81       	ldd	r25, Z+6	; 0x06
    2324:	99 23       	and	r25, r25
    2326:	a1 f0       	breq	.+40     	; 0x2350 <renderMenu+0x50>
		MENU_ITEM *previous_item = menu_states[current_state->prev_state->level].current_item;
    2328:	a0 81       	ld	r26, Z
    232a:	b1 81       	ldd	r27, Z+1	; 0x01
    232c:	16 96       	adiw	r26, 0x06	; 6
    232e:	ac 91       	ld	r26, X
    2330:	87 e0       	ldi	r24, 0x07	; 7
    2332:	a8 9f       	mul	r26, r24
    2334:	d0 01       	movw	r26, r0
    2336:	11 24       	eor	r1, r1
    2338:	aa 5d       	subi	r26, 0xDA	; 218
    233a:	be 4f       	sbci	r27, 0xFE	; 254
    233c:	12 96       	adiw	r26, 0x02	; 2
    233e:	0d 90       	ld	r0, X+
    2340:	bc 91       	ld	r27, X
    2342:	a0 2d       	mov	r26, r0
		items = previous_item->submenu;
    2344:	17 96       	adiw	r26, 0x07	; 7
    2346:	cd 91       	ld	r28, X+
    2348:	dc 91       	ld	r29, X
    234a:	18 97       	sbiw	r26, 0x08	; 8
		max_options = previous_item->submenu_length;
    234c:	16 96       	adiw	r26, 0x06	; 6
    234e:	8c 91       	ld	r24, X
	}

	uint8_t first_item = current_state->current_item_idx - current_state->cursor_line;
    2350:	24 81       	ldd	r18, Z+4	; 0x04
    2352:	95 81       	ldd	r25, Z+5	; 0x05
    2354:	29 1b       	sub	r18, r25

	for(int i=0; i<max_options && i<LCD_LINES; i++){
    2356:	e8 2e       	mov	r14, r24
    2358:	f1 2c       	mov	r15, r1
    235a:	1e 14       	cp	r1, r14
    235c:	1f 04       	cpc	r1, r15
    235e:	a4 f5       	brge	.+104    	; 0x23c8 <renderMenu+0xc8>
    2360:	30 e0       	ldi	r19, 0x00	; 0
    2362:	89 01       	movw	r16, r18
    2364:	00 0f       	add	r16, r16
    2366:	11 1f       	adc	r17, r17
    2368:	00 0f       	add	r16, r16
    236a:	11 1f       	adc	r17, r17
    236c:	00 0f       	add	r16, r16
    236e:	11 1f       	adc	r17, r17
    2370:	20 0f       	add	r18, r16
    2372:	31 1f       	adc	r19, r17
    2374:	8e 01       	movw	r16, r28
    2376:	02 0f       	add	r16, r18
    2378:	13 1f       	adc	r17, r19
    237a:	c0 e0       	ldi	r28, 0x00	; 0
    237c:	d0 e0       	ldi	r29, 0x00	; 0
		lcd_gotoxy(0, i);
    237e:	6c 2f       	mov	r22, r28
    2380:	80 e0       	ldi	r24, 0x00	; 0
    2382:	0e 94 b5 09 	call	0x136a	; 0x136a <lcd_gotoxy>
		if(i==current_state->cursor_line) lcd_putc('>');
    2386:	e0 91 24 01 	lds	r30, 0x0124	; 0x800124 <current_state>
    238a:	f0 91 25 01 	lds	r31, 0x0125	; 0x800125 <current_state+0x1>
    238e:	85 81       	ldd	r24, Z+5	; 0x05
    2390:	90 e0       	ldi	r25, 0x00	; 0
    2392:	8c 17       	cp	r24, r28
    2394:	9d 07       	cpc	r25, r29
    2396:	21 f4       	brne	.+8      	; 0x23a0 <renderMenu+0xa0>
    2398:	8e e3       	ldi	r24, 0x3E	; 62
    239a:	0e 94 cf 09 	call	0x139e	; 0x139e <lcd_putc>
    239e:	03 c0       	rjmp	.+6      	; 0x23a6 <renderMenu+0xa6>
		else lcd_putc(' ');
    23a0:	80 e2       	ldi	r24, 0x20	; 32
    23a2:	0e 94 cf 09 	call	0x139e	; 0x139e <lcd_putc>
		lcd_putc(' ');
    23a6:	80 e2       	ldi	r24, 0x20	; 32
    23a8:	0e 94 cf 09 	call	0x139e	; 0x139e <lcd_putc>
		lcd_puts(items[first_item+i].title);
    23ac:	f8 01       	movw	r30, r16
    23ae:	80 81       	ld	r24, Z
    23b0:	91 81       	ldd	r25, Z+1	; 0x01
    23b2:	0e 94 84 0a 	call	0x1508	; 0x1508 <lcd_puts>
		max_options = previous_item->submenu_length;
	}

	uint8_t first_item = current_state->current_item_idx - current_state->cursor_line;

	for(int i=0; i<max_options && i<LCD_LINES; i++){
    23b6:	21 96       	adiw	r28, 0x01	; 1
    23b8:	ce 15       	cp	r28, r14
    23ba:	df 05       	cpc	r29, r15
    23bc:	29 f0       	breq	.+10     	; 0x23c8 <renderMenu+0xc8>
    23be:	07 5f       	subi	r16, 0xF7	; 247
    23c0:	1f 4f       	sbci	r17, 0xFF	; 255
    23c2:	c4 30       	cpi	r28, 0x04	; 4
    23c4:	d1 05       	cpc	r29, r1
    23c6:	d9 f6       	brne	.-74     	; 0x237e <renderMenu+0x7e>
		if(i==current_state->cursor_line) lcd_putc('>');
		else lcd_putc(' ');
		lcd_putc(' ');
		lcd_puts(items[first_item+i].title);
	}
}
    23c8:	df 91       	pop	r29
    23ca:	cf 91       	pop	r28
    23cc:	1f 91       	pop	r17
    23ce:	0f 91       	pop	r16
    23d0:	ff 90       	pop	r15
    23d2:	ef 90       	pop	r14
    23d4:	08 95       	ret

000023d6 <menuReset>:
/*
** Public functions accessible from .h file
*/

void menuReset(){
	current_state = &menu_states[MENU_LEVEL_1];
    23d6:	e6 e2       	ldi	r30, 0x26	; 38
    23d8:	f1 e0       	ldi	r31, 0x01	; 1
    23da:	f0 93 25 01 	sts	0x0125, r31	; 0x800125 <current_state+0x1>
    23de:	e0 93 24 01 	sts	0x0124, r30	; 0x800124 <current_state>
*/
/*************************************************************************
 Helpers for setting the state properties
*************************************************************************/
static void setState(MENU_STATE *state, MENU_STATE *new_prev_state, MENU_ITEM *new_current_item, uint8_t new_current_item_idx, uint8_t new_cursor_line){
	state->prev_state = new_prev_state;
    23e2:	11 82       	std	Z+1, r1	; 0x01
    23e4:	10 82       	st	Z, r1
	state->current_item = new_current_item;
    23e6:	13 82       	std	Z+3, r1	; 0x03
    23e8:	12 82       	std	Z+2, r1	; 0x02
	state->current_item_idx = new_current_item_idx;
    23ea:	14 82       	std	Z+4, r1	; 0x04
	state->cursor_line = new_cursor_line;
    23ec:	15 82       	std	Z+5, r1	; 0x05
*/

void menuReset(){
	current_state = &menu_states[MENU_LEVEL_1];
	resetState(current_state);
	renderMenu();
    23ee:	0e 94 80 11 	call	0x2300	; 0x2300 <renderMenu>
    23f2:	08 95       	ret

000023f4 <menuInit>:
}

void menuInit(){
	menuPortsioInit();
    23f4:	0e 94 96 1e 	call	0x3d2c	; 0x3d2c <menuPortsioInit>
	menuReset();
    23f8:	0e 94 eb 11 	call	0x23d6	; 0x23d6 <menuReset>
    23fc:	08 95       	ret

000023fe <menuPollButtons>:
}

void menuPollButtons(){
    23fe:	5f 92       	push	r5
    2400:	6f 92       	push	r6
    2402:	7f 92       	push	r7
    2404:	8f 92       	push	r8
    2406:	9f 92       	push	r9
    2408:	af 92       	push	r10
    240a:	bf 92       	push	r11
    240c:	cf 92       	push	r12
    240e:	df 92       	push	r13
    2410:	ef 92       	push	r14
    2412:	ff 92       	push	r15
    2414:	0f 93       	push	r16
    2416:	1f 93       	push	r17
    2418:	cf 93       	push	r28
    241a:	df 93       	push	r29
    241c:	c0 e1       	ldi	r28, 0x10	; 16
    241e:	d1 e0       	ldi	r29, 0x01	; 1
    2420:	0f 2e       	mov	r0, r31
    2422:	f4 e2       	ldi	r31, 0x24	; 36
    2424:	ef 2e       	mov	r14, r31
    2426:	f1 e0       	ldi	r31, 0x01	; 1
    2428:	ff 2e       	mov	r15, r31
    242a:	f0 2d       	mov	r31, r0
	for(uint8_t i=0; i<MENU_BUTTON_ROLE_COUNT; i++){
		MENU_BUTTON *b = &menu_buttons[i];

		b->state = (b->state << 1) | !((MENU_PORTSIO_PIN) & (1<<(b->button_PIN))) | 0XE000;
    242c:	88 24       	eor	r8, r8
    242e:	83 94       	inc	r8
    2430:	91 2c       	mov	r9, r1
    2432:	61 2c       	mov	r6, r1
    2434:	71 2c       	mov	r7, r1

		if(b->state == 0xF000){
			b->pressed = true;
    2436:	55 24       	eor	r5, r5
    2438:	53 94       	inc	r5

			MENU_ITEM *item = &items[current_state->current_item_idx];
			MENU_STATE *prev_state = current_state;
			if(item->render_callback){
				prev_state->current_item = item;
				current_state = &menu_states[MENU_CALLBACK];
    243a:	0f 2e       	mov	r0, r31
    243c:	f2 e4       	ldi	r31, 0x42	; 66
    243e:	af 2e       	mov	r10, r31
    2440:	f1 e0       	ldi	r31, 0x01	; 1
    2442:	bf 2e       	mov	r11, r31
    2444:	f0 2d       	mov	r31, r0
*/
/*************************************************************************
 Helpers for setting the state properties
*************************************************************************/
static void setState(MENU_STATE *state, MENU_STATE *new_prev_state, MENU_ITEM *new_current_item, uint8_t new_current_item_idx, uint8_t new_cursor_line){
	state->prev_state = new_prev_state;
    2446:	0f 2e       	mov	r0, r31
    2448:	f6 e2       	ldi	r31, 0x26	; 38
    244a:	cf 2e       	mov	r12, r31
    244c:	f1 e0       	ldi	r31, 0x01	; 1
    244e:	df 2e       	mov	r13, r31
    2450:	f0 2d       	mov	r31, r0
    2452:	8e 01       	movw	r16, r28

void menuPollButtons(){
	for(uint8_t i=0; i<MENU_BUTTON_ROLE_COUNT; i++){
		MENU_BUTTON *b = &menu_buttons[i];

		b->state = (b->state << 1) | !((MENU_PORTSIO_PIN) & (1<<(b->button_PIN))) | 0XE000;
    2454:	80 b3       	in	r24, 0x10	; 16
    2456:	90 e0       	ldi	r25, 0x00	; 0
    2458:	09 80       	ldd	r0, Y+1	; 0x01
    245a:	02 c0       	rjmp	.+4      	; 0x2460 <menuPollButtons+0x62>
    245c:	95 95       	asr	r25
    245e:	87 95       	ror	r24
    2460:	0a 94       	dec	r0
    2462:	e2 f7       	brpl	.-8      	; 0x245c <menuPollButtons+0x5e>
    2464:	28 2d       	mov	r18, r8
    2466:	39 2d       	mov	r19, r9
    2468:	80 ff       	sbrs	r24, 0
    246a:	02 c0       	rjmp	.+4      	; 0x2470 <menuPollButtons+0x72>
    246c:	26 2d       	mov	r18, r6
    246e:	37 2d       	mov	r19, r7
    2470:	f8 01       	movw	r30, r16
    2472:	82 81       	ldd	r24, Z+2	; 0x02
    2474:	93 81       	ldd	r25, Z+3	; 0x03
    2476:	88 0f       	add	r24, r24
    2478:	99 1f       	adc	r25, r25
    247a:	90 6e       	ori	r25, 0xE0	; 224
    247c:	82 2b       	or	r24, r18
    247e:	93 2b       	or	r25, r19
    2480:	93 83       	std	Z+3, r25	; 0x03
    2482:	82 83       	std	Z+2, r24	; 0x02

		if(b->state == 0xF000){
    2484:	81 15       	cp	r24, r1
    2486:	90 4f       	sbci	r25, 0xF0	; 240
    2488:	09 f0       	breq	.+2      	; 0x248c <menuPollButtons+0x8e>
    248a:	11 c1       	rjmp	.+546    	; 0x26ae <menuPollButtons+0x2b0>
			b->pressed = true;
    248c:	f8 01       	movw	r30, r16
    248e:	54 82       	std	Z+4, r5	; 0x04
			MenuTimer = eeprom_read_byte(&eeMenuTimer);
    2490:	87 e1       	ldi	r24, 0x17	; 23
    2492:	90 e0       	ldi	r25, 0x00	; 0
    2494:	0e 94 d9 22 	call	0x45b2	; 0x45b2 <eeprom_read_byte>
    2498:	80 93 0f 01 	sts	0x010F, r24	; 0x80010f <MenuTimer>
			BUZZER_PORT |= (1 << BUZZER_PIN);
    249c:	a8 9a       	sbi	0x15, 0	; 21
			if(current_state->level != MENU_CALLBACK){
    249e:	a0 91 24 01 	lds	r26, 0x0124	; 0x800124 <current_state>
    24a2:	b0 91 25 01 	lds	r27, 0x0125	; 0x800125 <current_state+0x1>
    24a6:	16 96       	adiw	r26, 0x06	; 6
    24a8:	9c 91       	ld	r25, X
    24aa:	16 97       	sbiw	r26, 0x06	; 6
    24ac:	94 30       	cpi	r25, 0x04	; 4
    24ae:	09 f4       	brne	.+2      	; 0x24b2 <menuPollButtons+0xb4>
    24b0:	da c0       	rjmp	.+436    	; 0x2666 <menuPollButtons+0x268>

/***************************************************************************************
 Function to handle basic btn clicks (Executed when menu is not in CALLBACK state)
***************************************************************************************/
static void scrollMenu(MENU_BUTTON *button){
	switch(button->role){
    24b2:	f8 01       	movw	r30, r16
    24b4:	80 81       	ld	r24, Z
    24b6:	81 30       	cpi	r24, 0x01	; 1
    24b8:	f9 f0       	breq	.+62     	; 0x24f8 <menuPollButtons+0xfa>
    24ba:	38 f0       	brcs	.+14     	; 0x24ca <menuPollButtons+0xcc>
    24bc:	82 30       	cpi	r24, 0x02	; 2
    24be:	09 f4       	brne	.+2      	; 0x24c2 <menuPollButtons+0xc4>
    24c0:	49 c0       	rjmp	.+146    	; 0x2554 <menuPollButtons+0x156>
    24c2:	83 30       	cpi	r24, 0x03	; 3
    24c4:	09 f4       	brne	.+2      	; 0x24c8 <menuPollButtons+0xca>
    24c6:	a7 c0       	rjmp	.+334    	; 0x2616 <menuPollButtons+0x218>
    24c8:	b5 c0       	rjmp	.+362    	; 0x2634 <menuPollButtons+0x236>
		case MENU_UP:
			if(current_state->current_item_idx != 0){
    24ca:	14 96       	adiw	r26, 0x04	; 4
    24cc:	8c 91       	ld	r24, X
    24ce:	14 97       	sbiw	r26, 0x04	; 4
    24d0:	88 23       	and	r24, r24
    24d2:	09 f4       	brne	.+2      	; 0x24d6 <menuPollButtons+0xd8>
    24d4:	b8 c0       	rjmp	.+368    	; 0x2646 <menuPollButtons+0x248>
				if(current_state->cursor_line == 0){
    24d6:	15 96       	adiw	r26, 0x05	; 5
    24d8:	9c 91       	ld	r25, X
    24da:	15 97       	sbiw	r26, 0x05	; 5
    24dc:	91 11       	cpse	r25, r1
    24de:	04 c0       	rjmp	.+8      	; 0x24e8 <menuPollButtons+0xea>
					// Move screen
					current_state->current_item_idx -= 1;
    24e0:	81 50       	subi	r24, 0x01	; 1
    24e2:	14 96       	adiw	r26, 0x04	; 4
    24e4:	8c 93       	st	X, r24
    24e6:	af c0       	rjmp	.+350    	; 0x2646 <menuPollButtons+0x248>
				}else{
					// Move cursor
					current_state->cursor_line -= 1;
    24e8:	91 50       	subi	r25, 0x01	; 1
    24ea:	15 96       	adiw	r26, 0x05	; 5
    24ec:	9c 93       	st	X, r25
    24ee:	15 97       	sbiw	r26, 0x05	; 5
					current_state->current_item_idx -= 1;
    24f0:	81 50       	subi	r24, 0x01	; 1
    24f2:	14 96       	adiw	r26, 0x04	; 4
    24f4:	8c 93       	st	X, r24
    24f6:	a7 c0       	rjmp	.+334    	; 0x2646 <menuPollButtons+0x248>
				}
			}
			break;
		case MENU_DOWN: {
			uint8_t max_options = menuItemsGetHomeMenuSize();
    24f8:	0e 94 94 1e 	call	0x3d28	; 0x3d28 <menuItemsGetHomeMenuSize>
			if(current_state->level != MENU_LEVEL_1){
    24fc:	e0 91 24 01 	lds	r30, 0x0124	; 0x800124 <current_state>
    2500:	f0 91 25 01 	lds	r31, 0x0125	; 0x800125 <current_state+0x1>
    2504:	96 81       	ldd	r25, Z+6	; 0x06
    2506:	99 23       	and	r25, r25
    2508:	09 f4       	brne	.+2      	; 0x250c <menuPollButtons+0x10e>
    250a:	da c0       	rjmp	.+436    	; 0x26c0 <menuPollButtons+0x2c2>
				MENU_ITEM *previous_item = menu_states[current_state->prev_state->level].current_item;
				max_options = previous_item->submenu_length;
			}

			if(current_state->current_item_idx < max_options-1){
    250c:	44 81       	ldd	r20, Z+4	; 0x04
    250e:	24 2f       	mov	r18, r20
    2510:	30 e0       	ldi	r19, 0x00	; 0
			}
			break;
		case MENU_DOWN: {
			uint8_t max_options = menuItemsGetHomeMenuSize();
			if(current_state->level != MENU_LEVEL_1){
				MENU_ITEM *previous_item = menu_states[current_state->prev_state->level].current_item;
    2512:	a0 81       	ld	r26, Z
    2514:	b1 81       	ldd	r27, Z+1	; 0x01
    2516:	16 96       	adiw	r26, 0x06	; 6
    2518:	ac 91       	ld	r26, X
    251a:	87 e0       	ldi	r24, 0x07	; 7
    251c:	a8 9f       	mul	r26, r24
    251e:	d0 01       	movw	r26, r0
    2520:	11 24       	eor	r1, r1
    2522:	aa 5d       	subi	r26, 0xDA	; 218
    2524:	be 4f       	sbci	r27, 0xFE	; 254
				max_options = previous_item->submenu_length;
    2526:	12 96       	adiw	r26, 0x02	; 2
    2528:	0d 90       	ld	r0, X+
    252a:	bc 91       	ld	r27, X
    252c:	a0 2d       	mov	r26, r0
			}

			if(current_state->current_item_idx < max_options-1){
    252e:	16 96       	adiw	r26, 0x06	; 6
    2530:	8c 91       	ld	r24, X
    2532:	90 e0       	ldi	r25, 0x00	; 0
    2534:	01 97       	sbiw	r24, 0x01	; 1
    2536:	28 17       	cp	r18, r24
    2538:	39 07       	cpc	r19, r25
    253a:	0c f0       	brlt	.+2      	; 0x253e <menuPollButtons+0x140>
    253c:	7b c0       	rjmp	.+246    	; 0x2634 <menuPollButtons+0x236>
				if(current_state->cursor_line == LCD_LINES - 1){
    253e:	85 81       	ldd	r24, Z+5	; 0x05
    2540:	83 30       	cpi	r24, 0x03	; 3
    2542:	19 f4       	brne	.+6      	; 0x254a <menuPollButtons+0x14c>
					// Move screen
					current_state->current_item_idx += 1;
    2544:	4f 5f       	subi	r20, 0xFF	; 255
    2546:	44 83       	std	Z+4, r20	; 0x04
    2548:	75 c0       	rjmp	.+234    	; 0x2634 <menuPollButtons+0x236>
				}else{
					// Move cursor
					current_state->cursor_line += 1;
    254a:	8f 5f       	subi	r24, 0xFF	; 255
    254c:	85 83       	std	Z+5, r24	; 0x05
					current_state->current_item_idx += 1;
    254e:	4f 5f       	subi	r20, 0xFF	; 255
    2550:	44 83       	std	Z+4, r20	; 0x04
    2552:	70 c0       	rjmp	.+224    	; 0x2634 <menuPollButtons+0x236>
				}
			}
			break;
		}
		case MENU_CONFIRM:;
			MENU_ITEM *items = menuItemsGetHomeMenu();
    2554:	0e 94 91 1e 	call	0x3d22	; 0x3d22 <menuItemsGetHomeMenu>
			if(current_state->level != MENU_LEVEL_1){
    2558:	a0 91 24 01 	lds	r26, 0x0124	; 0x800124 <current_state>
    255c:	b0 91 25 01 	lds	r27, 0x0125	; 0x800125 <current_state+0x1>
    2560:	16 96       	adiw	r26, 0x06	; 6
    2562:	4c 91       	ld	r20, X
    2564:	16 97       	sbiw	r26, 0x06	; 6
    2566:	44 23       	and	r20, r20
    2568:	79 f0       	breq	.+30     	; 0x2588 <menuPollButtons+0x18a>
				MENU_ITEM *previous_item = menu_states[current_state->prev_state->level].current_item;
    256a:	ed 91       	ld	r30, X+
    256c:	fc 91       	ld	r31, X
    256e:	11 97       	sbiw	r26, 0x01	; 1
    2570:	e6 81       	ldd	r30, Z+6	; 0x06
    2572:	27 e0       	ldi	r18, 0x07	; 7
    2574:	e2 9f       	mul	r30, r18
    2576:	f0 01       	movw	r30, r0
    2578:	11 24       	eor	r1, r1
    257a:	ea 5d       	subi	r30, 0xDA	; 218
    257c:	fe 4f       	sbci	r31, 0xFE	; 254
				items = previous_item->submenu;
    257e:	02 80       	ldd	r0, Z+2	; 0x02
    2580:	f3 81       	ldd	r31, Z+3	; 0x03
    2582:	e0 2d       	mov	r30, r0
    2584:	87 81       	ldd	r24, Z+7	; 0x07
    2586:	90 85       	ldd	r25, Z+8	; 0x08
			}

			MENU_ITEM *item = &items[current_state->current_item_idx];
    2588:	14 96       	adiw	r26, 0x04	; 4
    258a:	5c 91       	ld	r21, X
    258c:	14 97       	sbiw	r26, 0x04	; 4
    258e:	25 2f       	mov	r18, r21
    2590:	30 e0       	ldi	r19, 0x00	; 0
    2592:	f9 01       	movw	r30, r18
    2594:	ee 0f       	add	r30, r30
    2596:	ff 1f       	adc	r31, r31
    2598:	ee 0f       	add	r30, r30
    259a:	ff 1f       	adc	r31, r31
    259c:	ee 0f       	add	r30, r30
    259e:	ff 1f       	adc	r31, r31
    25a0:	2e 0f       	add	r18, r30
    25a2:	3f 1f       	adc	r19, r31
    25a4:	28 0f       	add	r18, r24
    25a6:	39 1f       	adc	r19, r25
			MENU_STATE *prev_state = current_state;
			if(item->render_callback){
    25a8:	f9 01       	movw	r30, r18
    25aa:	82 81       	ldd	r24, Z+2	; 0x02
    25ac:	93 81       	ldd	r25, Z+3	; 0x03
    25ae:	89 2b       	or	r24, r25
    25b0:	81 f0       	breq	.+32     	; 0x25d2 <menuPollButtons+0x1d4>
				prev_state->current_item = item;
    25b2:	13 96       	adiw	r26, 0x03	; 3
    25b4:	3c 93       	st	X, r19
    25b6:	2e 93       	st	-X, r18
    25b8:	12 97       	sbiw	r26, 0x02	; 2
				current_state = &menu_states[MENU_CALLBACK];
    25ba:	b0 92 25 01 	sts	0x0125, r11	; 0x800125 <current_state+0x1>
    25be:	a0 92 24 01 	sts	0x0124, r10	; 0x800124 <current_state>
*/
/*************************************************************************
 Helpers for setting the state properties
*************************************************************************/
static void setState(MENU_STATE *state, MENU_STATE *new_prev_state, MENU_ITEM *new_current_item, uint8_t new_current_item_idx, uint8_t new_cursor_line){
	state->prev_state = new_prev_state;
    25c2:	f6 01       	movw	r30, r12
    25c4:	b5 8f       	std	Z+29, r27	; 0x1d
    25c6:	a4 8f       	std	Z+28, r26	; 0x1c
	state->current_item = new_current_item;
    25c8:	37 8f       	std	Z+31, r19	; 0x1f
    25ca:	26 8f       	std	Z+30, r18	; 0x1e
	state->current_item_idx = new_current_item_idx;
    25cc:	50 a3       	std	Z+32, r21	; 0x20
	state->cursor_line = new_cursor_line;
    25ce:	11 a2       	std	Z+33, r1	; 0x21
    25d0:	31 c0       	rjmp	.+98     	; 0x2634 <menuPollButtons+0x236>
			MENU_STATE *prev_state = current_state;
			if(item->render_callback){
				prev_state->current_item = item;
				current_state = &menu_states[MENU_CALLBACK];
				setState(current_state, prev_state, prev_state->current_item, prev_state->current_item_idx, 0);
			}else if(item->submenu){
    25d2:	f9 01       	movw	r30, r18
    25d4:	87 81       	ldd	r24, Z+7	; 0x07
    25d6:	90 85       	ldd	r25, Z+8	; 0x08
    25d8:	89 2b       	or	r24, r25
    25da:	61 f1       	breq	.+88     	; 0x2634 <menuPollButtons+0x236>
				prev_state->current_item = item;
    25dc:	13 96       	adiw	r26, 0x03	; 3
    25de:	3c 93       	st	X, r19
    25e0:	2e 93       	st	-X, r18
    25e2:	12 97       	sbiw	r26, 0x02	; 2
				current_state = &menu_states[current_state->level + 1];
    25e4:	84 2f       	mov	r24, r20
    25e6:	90 e0       	ldi	r25, 0x00	; 0
    25e8:	01 96       	adiw	r24, 0x01	; 1
    25ea:	fc 01       	movw	r30, r24
    25ec:	ee 0f       	add	r30, r30
    25ee:	ff 1f       	adc	r31, r31
    25f0:	ee 0f       	add	r30, r30
    25f2:	ff 1f       	adc	r31, r31
    25f4:	ee 0f       	add	r30, r30
    25f6:	ff 1f       	adc	r31, r31
    25f8:	e8 1b       	sub	r30, r24
    25fa:	f9 0b       	sbc	r31, r25
    25fc:	ea 5d       	subi	r30, 0xDA	; 218
    25fe:	fe 4f       	sbci	r31, 0xFE	; 254
    2600:	f0 93 25 01 	sts	0x0125, r31	; 0x800125 <current_state+0x1>
    2604:	e0 93 24 01 	sts	0x0124, r30	; 0x800124 <current_state>
*/
/*************************************************************************
 Helpers for setting the state properties
*************************************************************************/
static void setState(MENU_STATE *state, MENU_STATE *new_prev_state, MENU_ITEM *new_current_item, uint8_t new_current_item_idx, uint8_t new_cursor_line){
	state->prev_state = new_prev_state;
    2608:	b1 83       	std	Z+1, r27	; 0x01
    260a:	a0 83       	st	Z, r26
	state->current_item = new_current_item;
    260c:	13 82       	std	Z+3, r1	; 0x03
    260e:	12 82       	std	Z+2, r1	; 0x02
	state->current_item_idx = new_current_item_idx;
    2610:	14 82       	std	Z+4, r1	; 0x04
	state->cursor_line = new_cursor_line;
    2612:	15 82       	std	Z+5, r1	; 0x05
    2614:	0f c0       	rjmp	.+30     	; 0x2634 <menuPollButtons+0x236>
				current_state = &menu_states[current_state->level + 1];
				setState(current_state, prev_state, NULL, 0, 0);
			}
			break;
		case MENU_CANCEL:
			if(current_state->level != MENU_LEVEL_1){
    2616:	99 23       	and	r25, r25
    2618:	b1 f0       	breq	.+44     	; 0x2646 <menuPollButtons+0x248>
				current_state = &menu_states[current_state->prev_state->level];
    261a:	ed 91       	ld	r30, X+
    261c:	fc 91       	ld	r31, X
    261e:	86 81       	ldd	r24, Z+6	; 0x06
    2620:	f7 e0       	ldi	r31, 0x07	; 7
    2622:	8f 9f       	mul	r24, r31
    2624:	c0 01       	movw	r24, r0
    2626:	11 24       	eor	r1, r1
    2628:	8a 5d       	subi	r24, 0xDA	; 218
    262a:	9e 4f       	sbci	r25, 0xFE	; 254
    262c:	90 93 25 01 	sts	0x0125, r25	; 0x800125 <current_state+0x1>
    2630:	80 93 24 01 	sts	0x0124, r24	; 0x800124 <current_state>
			}
			break;
	}
	if(current_state->level != MENU_CALLBACK){
    2634:	a0 91 24 01 	lds	r26, 0x0124	; 0x800124 <current_state>
    2638:	b0 91 25 01 	lds	r27, 0x0125	; 0x800125 <current_state+0x1>
    263c:	16 96       	adiw	r26, 0x06	; 6
    263e:	8c 91       	ld	r24, X
    2640:	16 97       	sbiw	r26, 0x06	; 6
    2642:	84 30       	cpi	r24, 0x04	; 4
    2644:	19 f0       	breq	.+6      	; 0x264c <menuPollButtons+0x24e>
		renderMenu();
    2646:	0e 94 80 11 	call	0x2300	; 0x2300 <renderMenu>
    264a:	34 c0       	rjmp	.+104    	; 0x26b4 <menuPollButtons+0x2b6>
	}else{
		current_state->prev_state->current_item->render_callback(current_state->current_item_idx);
    264c:	ed 91       	ld	r30, X+
    264e:	fc 91       	ld	r31, X
    2650:	11 97       	sbiw	r26, 0x01	; 1
    2652:	02 80       	ldd	r0, Z+2	; 0x02
    2654:	f3 81       	ldd	r31, Z+3	; 0x03
    2656:	e0 2d       	mov	r30, r0
    2658:	02 80       	ldd	r0, Z+2	; 0x02
    265a:	f3 81       	ldd	r31, Z+3	; 0x03
    265c:	e0 2d       	mov	r30, r0
    265e:	14 96       	adiw	r26, 0x04	; 4
    2660:	8c 91       	ld	r24, X
    2662:	09 95       	icall
    2664:	27 c0       	rjmp	.+78     	; 0x26b4 <menuPollButtons+0x2b6>
			MenuTimer = eeprom_read_byte(&eeMenuTimer);
			BUZZER_PORT |= (1 << BUZZER_PIN);
			if(current_state->level != MENU_CALLBACK){
				scrollMenu(b);
			}else{
				bool exited = current_state->prev_state->current_item->btn_handle_callback(b, current_state->current_item_idx);
    2666:	ed 91       	ld	r30, X+
    2668:	fc 91       	ld	r31, X
    266a:	11 97       	sbiw	r26, 0x01	; 1
    266c:	02 80       	ldd	r0, Z+2	; 0x02
    266e:	f3 81       	ldd	r31, Z+3	; 0x03
    2670:	e0 2d       	mov	r30, r0
    2672:	04 80       	ldd	r0, Z+4	; 0x04
    2674:	f5 81       	ldd	r31, Z+5	; 0x05
    2676:	e0 2d       	mov	r30, r0
    2678:	14 96       	adiw	r26, 0x04	; 4
    267a:	6c 91       	ld	r22, X
    267c:	c8 01       	movw	r24, r16
    267e:	09 95       	icall
				if(exited){
    2680:	88 23       	and	r24, r24
    2682:	c1 f0       	breq	.+48     	; 0x26b4 <menuPollButtons+0x2b6>
					current_state = &menu_states[current_state->prev_state->level];
    2684:	e0 91 24 01 	lds	r30, 0x0124	; 0x800124 <current_state>
    2688:	f0 91 25 01 	lds	r31, 0x0125	; 0x800125 <current_state+0x1>
    268c:	01 90       	ld	r0, Z+
    268e:	f0 81       	ld	r31, Z
    2690:	e0 2d       	mov	r30, r0
    2692:	86 81       	ldd	r24, Z+6	; 0x06
    2694:	27 e0       	ldi	r18, 0x07	; 7
    2696:	82 9f       	mul	r24, r18
    2698:	c0 01       	movw	r24, r0
    269a:	11 24       	eor	r1, r1
    269c:	8a 5d       	subi	r24, 0xDA	; 218
    269e:	9e 4f       	sbci	r25, 0xFE	; 254
    26a0:	90 93 25 01 	sts	0x0125, r25	; 0x800125 <current_state+0x1>
    26a4:	80 93 24 01 	sts	0x0124, r24	; 0x800124 <current_state>
					renderMenu();
    26a8:	0e 94 80 11 	call	0x2300	; 0x2300 <renderMenu>
    26ac:	03 c0       	rjmp	.+6      	; 0x26b4 <menuPollButtons+0x2b6>
				}
			}
		}else{
			b->pressed = false;
    26ae:	f8 01       	movw	r30, r16
    26b0:	14 82       	std	Z+4, r1	; 0x04
			BUZZER_PORT &= ~(1 << BUZZER_PIN);
    26b2:	a8 98       	cbi	0x15, 0	; 21
    26b4:	25 96       	adiw	r28, 0x05	; 5
	menuPortsioInit();
	menuReset();
}

void menuPollButtons(){
	for(uint8_t i=0; i<MENU_BUTTON_ROLE_COUNT; i++){
    26b6:	ce 15       	cp	r28, r14
    26b8:	df 05       	cpc	r29, r15
    26ba:	09 f0       	breq	.+2      	; 0x26be <menuPollButtons+0x2c0>
    26bc:	ca ce       	rjmp	.-620    	; 0x2452 <menuPollButtons+0x54>
    26be:	0a c0       	rjmp	.+20     	; 0x26d4 <menuPollButtons+0x2d6>
			if(current_state->level != MENU_LEVEL_1){
				MENU_ITEM *previous_item = menu_states[current_state->prev_state->level].current_item;
				max_options = previous_item->submenu_length;
			}

			if(current_state->current_item_idx < max_options-1){
    26c0:	44 81       	ldd	r20, Z+4	; 0x04
    26c2:	24 2f       	mov	r18, r20
    26c4:	30 e0       	ldi	r19, 0x00	; 0
    26c6:	90 e0       	ldi	r25, 0x00	; 0
    26c8:	01 97       	sbiw	r24, 0x01	; 1
    26ca:	28 17       	cp	r18, r24
    26cc:	39 07       	cpc	r19, r25
    26ce:	0c f4       	brge	.+2      	; 0x26d2 <menuPollButtons+0x2d4>
    26d0:	36 cf       	rjmp	.-404    	; 0x253e <menuPollButtons+0x140>
    26d2:	b9 cf       	rjmp	.-142    	; 0x2646 <menuPollButtons+0x248>
		}else{
			b->pressed = false;
			BUZZER_PORT &= ~(1 << BUZZER_PIN);
		}
	}
}
    26d4:	df 91       	pop	r29
    26d6:	cf 91       	pop	r28
    26d8:	1f 91       	pop	r17
    26da:	0f 91       	pop	r16
    26dc:	ff 90       	pop	r15
    26de:	ef 90       	pop	r14
    26e0:	df 90       	pop	r13
    26e2:	cf 90       	pop	r12
    26e4:	bf 90       	pop	r11
    26e6:	af 90       	pop	r10
    26e8:	9f 90       	pop	r9
    26ea:	8f 90       	pop	r8
    26ec:	7f 90       	pop	r7
    26ee:	6f 90       	pop	r6
    26f0:	5f 90       	pop	r5
    26f2:	08 95       	ret

000026f4 <ClockDayName_CallbackRender>:
	ClockDay_CallbackRender(column);
	return false;
}

void ClockDayName_CallbackRender(uint8_t which){
	lcd_clrscr();
    26f4:	0e 94 cb 09 	call	0x1396	; 0x1396 <lcd_clrscr>
	lcd_puts_hu(PSTR("nap nv"));
    26f8:	81 e1       	ldi	r24, 0x11	; 17
    26fa:	95 e0       	ldi	r25, 0x05	; 5
    26fc:	0e 94 b6 0a 	call	0x156c	; 0x156c <lcd_puts_hu>
	lcd_gotoxy(0,1);
    2700:	61 e0       	ldi	r22, 0x01	; 1
    2702:	80 e0       	ldi	r24, 0x00	; 0
    2704:	0e 94 b5 09 	call	0x136a	; 0x136a <lcd_gotoxy>
	switch (DayName)
    2708:	e0 91 a9 05 	lds	r30, 0x05A9	; 0x8005a9 <DayName>
    270c:	8e 2f       	mov	r24, r30
    270e:	90 e0       	ldi	r25, 0x00	; 0
    2710:	fc 01       	movw	r30, r24
    2712:	31 97       	sbiw	r30, 0x01	; 1
    2714:	e7 30       	cpi	r30, 0x07	; 7
    2716:	f1 05       	cpc	r31, r1
    2718:	30 f5       	brcc	.+76     	; 0x2766 <ClockDayName_CallbackRender+0x72>
    271a:	eb 56       	subi	r30, 0x6B	; 107
    271c:	ff 4f       	sbci	r31, 0xFF	; 255
    271e:	0c 94 7c 22 	jmp	0x44f8	; 0x44f8 <__tablejump2__>
	{
		case 1:
			lcd_puts_hu(PSTR("htf"));
    2722:	8b e0       	ldi	r24, 0x0B	; 11
    2724:	95 e0       	ldi	r25, 0x05	; 5
    2726:	0e 94 b6 0a 	call	0x156c	; 0x156c <lcd_puts_hu>
			break;
    272a:	08 95       	ret
		case 2:
			lcd_puts_hu(PSTR("kedd"));
    272c:	86 e0       	ldi	r24, 0x06	; 6
    272e:	95 e0       	ldi	r25, 0x05	; 5
    2730:	0e 94 b6 0a 	call	0x156c	; 0x156c <lcd_puts_hu>
			break;
    2734:	08 95       	ret
		case 3:
			lcd_puts_hu(PSTR("szerda"));
    2736:	8f ef       	ldi	r24, 0xFF	; 255
    2738:	94 e0       	ldi	r25, 0x04	; 4
    273a:	0e 94 b6 0a 	call	0x156c	; 0x156c <lcd_puts_hu>
			break;
    273e:	08 95       	ret
		case 4:
			lcd_puts_hu(PSTR("cstrtk"));
    2740:	85 ef       	ldi	r24, 0xF5	; 245
    2742:	94 e0       	ldi	r25, 0x04	; 4
    2744:	0e 94 b6 0a 	call	0x156c	; 0x156c <lcd_puts_hu>
			break;
    2748:	08 95       	ret
		case 5:
			lcd_puts_hu(PSTR("pntek"));
    274a:	8e ee       	ldi	r24, 0xEE	; 238
    274c:	94 e0       	ldi	r25, 0x04	; 4
    274e:	0e 94 b6 0a 	call	0x156c	; 0x156c <lcd_puts_hu>
			break;
    2752:	08 95       	ret
		case 6:
			lcd_puts_hu(PSTR("szombat"));
    2754:	86 ee       	ldi	r24, 0xE6	; 230
    2756:	94 e0       	ldi	r25, 0x04	; 4
    2758:	0e 94 b6 0a 	call	0x156c	; 0x156c <lcd_puts_hu>
			break;
    275c:	08 95       	ret
		case 7:
			lcd_puts_hu(PSTR("vasrnap"));
    275e:	8d ed       	ldi	r24, 0xDD	; 221
    2760:	94 e0       	ldi	r25, 0x04	; 4
    2762:	0e 94 b6 0a 	call	0x156c	; 0x156c <lcd_puts_hu>
    2766:	08 95       	ret

00002768 <ClockDayName_ActionCallback>:
			break;
	}
}

bool ClockDayName_ActionCallback(MENU_BUTTON *button, uint8_t column){
	switch(button->role){
    2768:	fc 01       	movw	r30, r24
    276a:	80 81       	ld	r24, Z
    276c:	81 30       	cpi	r24, 0x01	; 1
    276e:	81 f0       	breq	.+32     	; 0x2790 <ClockDayName_ActionCallback+0x28>
    2770:	18 f0       	brcs	.+6      	; 0x2778 <ClockDayName_ActionCallback+0x10>
    2772:	84 30       	cpi	r24, 0x04	; 4
    2774:	b8 f4       	brcc	.+46     	; 0x27a4 <ClockDayName_ActionCallback+0x3c>
    2776:	1b c0       	rjmp	.+54     	; 0x27ae <ClockDayName_ActionCallback+0x46>
		case MENU_UP:
			if (++DayName == 8)
    2778:	80 91 a9 05 	lds	r24, 0x05A9	; 0x8005a9 <DayName>
    277c:	8f 5f       	subi	r24, 0xFF	; 255
    277e:	88 30       	cpi	r24, 0x08	; 8
    2780:	19 f0       	breq	.+6      	; 0x2788 <ClockDayName_ActionCallback+0x20>
    2782:	80 93 a9 05 	sts	0x05A9, r24	; 0x8005a9 <DayName>
    2786:	0e c0       	rjmp	.+28     	; 0x27a4 <ClockDayName_ActionCallback+0x3c>
				DayName = 1;
    2788:	81 e0       	ldi	r24, 0x01	; 1
    278a:	80 93 a9 05 	sts	0x05A9, r24	; 0x8005a9 <DayName>
    278e:	0a c0       	rjmp	.+20     	; 0x27a4 <ClockDayName_ActionCallback+0x3c>
			break;
		case MENU_DOWN:
			if (--DayName == 0)
    2790:	80 91 a9 05 	lds	r24, 0x05A9	; 0x8005a9 <DayName>
    2794:	81 50       	subi	r24, 0x01	; 1
    2796:	19 f0       	breq	.+6      	; 0x279e <ClockDayName_ActionCallback+0x36>
    2798:	80 93 a9 05 	sts	0x05A9, r24	; 0x8005a9 <DayName>
    279c:	03 c0       	rjmp	.+6      	; 0x27a4 <ClockDayName_ActionCallback+0x3c>
			DayName = 7;
    279e:	87 e0       	ldi	r24, 0x07	; 7
    27a0:	80 93 a9 05 	sts	0x05A9, r24	; 0x8005a9 <DayName>
    27a4:	86 2f       	mov	r24, r22
		case MENU_CONFIRM:
		case MENU_CANCEL:
			return true;
	}

	ClockDayName_CallbackRender(column);
    27a6:	0e 94 7a 13 	call	0x26f4	; 0x26f4 <ClockDayName_CallbackRender>
	return false;
    27aa:	80 e0       	ldi	r24, 0x00	; 0
    27ac:	08 95       	ret
			if (--DayName == 0)
			DayName = 7;
			break;
		case MENU_CONFIRM:
		case MENU_CANCEL:
			return true;
    27ae:	81 e0       	ldi	r24, 0x01	; 1
	}

	ClockDayName_CallbackRender(column);
	return false;
}
    27b0:	08 95       	ret

000027b2 <BME280Temp_CallbackRender>:

/*************************************************************************
 BME 280, submenu definitions
*************************************************************************/
void BME280Temp_CallbackRender(uint8_t which){
	lcd_clrscr();
    27b2:	0e 94 cb 09 	call	0x1396	; 0x1396 <lcd_clrscr>
	lcd_puts_hu(PSTR("BME280 hm"));
    27b6:	8a e4       	ldi	r24, 0x4A	; 74
    27b8:	97 e0       	ldi	r25, 0x07	; 7
    27ba:	0e 94 b6 0a 	call	0x156c	; 0x156c <lcd_puts_hu>
	lcd_gotoxy(0,1);
    27be:	61 e0       	ldi	r22, 0x01	; 1
    27c0:	80 e0       	ldi	r24, 0x00	; 0
    27c2:	0e 94 b5 09 	call	0x136a	; 0x136a <lcd_gotoxy>
	lcd_puts(BME280TempBuf);
    27c6:	86 e9       	ldi	r24, 0x96	; 150
    27c8:	96 e0       	ldi	r25, 0x06	; 6
    27ca:	0e 94 84 0a 	call	0x1508	; 0x1508 <lcd_puts>
    27ce:	08 95       	ret

000027d0 <BME280Temp_Callback>:

}

bool BME280Temp_Callback(MENU_BUTTON *button, uint8_t column){
	switch(button->role){
    27d0:	fc 01       	movw	r30, r24
    27d2:	80 81       	ld	r24, Z
    27d4:	83 30       	cpi	r24, 0x03	; 3
    27d6:	29 f0       	breq	.+10     	; 0x27e2 <BME280Temp_Callback+0x12>
    27d8:	86 2f       	mov	r24, r22
			break;
		case MENU_CANCEL:
			return true;
	}

	BME280Temp_CallbackRender(column);
    27da:	0e 94 d9 13 	call	0x27b2	; 0x27b2 <BME280Temp_CallbackRender>
	return false;
    27de:	80 e0       	ldi	r24, 0x00	; 0
    27e0:	08 95       	ret
		case MENU_DOWN:
			break;
		case MENU_CONFIRM:
			break;
		case MENU_CANCEL:
			return true;
    27e2:	81 e0       	ldi	r24, 0x01	; 1
	}

	BME280Temp_CallbackRender(column);
	return false;
}
    27e4:	08 95       	ret

000027e6 <BME280Humidity_CallbackRender>:

void BME280Humidity_CallbackRender(uint8_t which){
	lcd_clrscr();
    27e6:	0e 94 cb 09 	call	0x1396	; 0x1396 <lcd_clrscr>
	lcd_puts_hu(PSTR("BME280 pra"));
    27ea:	8e e3       	ldi	r24, 0x3E	; 62
    27ec:	97 e0       	ldi	r25, 0x07	; 7
    27ee:	0e 94 b6 0a 	call	0x156c	; 0x156c <lcd_puts_hu>
	lcd_gotoxy(0,1);
    27f2:	61 e0       	ldi	r22, 0x01	; 1
    27f4:	80 e0       	ldi	r24, 0x00	; 0
    27f6:	0e 94 b5 09 	call	0x136a	; 0x136a <lcd_gotoxy>
	lcd_puts(BME280HumidBuf);
    27fa:	89 ea       	ldi	r24, 0xA9	; 169
    27fc:	96 e0       	ldi	r25, 0x06	; 6
    27fe:	0e 94 84 0a 	call	0x1508	; 0x1508 <lcd_puts>
    2802:	08 95       	ret

00002804 <BME280Humidity_Callback>:
}

bool BME280Humidity_Callback(MENU_BUTTON *button, uint8_t column){
	switch(button->role){
    2804:	fc 01       	movw	r30, r24
    2806:	80 81       	ld	r24, Z
    2808:	83 30       	cpi	r24, 0x03	; 3
    280a:	29 f0       	breq	.+10     	; 0x2816 <BME280Humidity_Callback+0x12>
    280c:	86 2f       	mov	r24, r22
			break;
		case MENU_CANCEL:
			return true;
	}

	BME280Humidity_CallbackRender(column);
    280e:	0e 94 f3 13 	call	0x27e6	; 0x27e6 <BME280Humidity_CallbackRender>
	return false;
    2812:	80 e0       	ldi	r24, 0x00	; 0
    2814:	08 95       	ret
		case MENU_DOWN:
			break;
		case MENU_CONFIRM:
			break;
		case MENU_CANCEL:
			return true;
    2816:	81 e0       	ldi	r24, 0x01	; 1
	}

	BME280Humidity_CallbackRender(column);
	return false;
}
    2818:	08 95       	ret

0000281a <SwitchOnOutdoorTempMin_CallbackRender>:

void SwitchOnOutdoorTempMin_CallbackRender(uint8_t which){
    281a:	cf 93       	push	r28
    281c:	df 93       	push	r29
    281e:	00 d0       	rcall	.+0      	; 0x2820 <SwitchOnOutdoorTempMin_CallbackRender+0x6>
    2820:	00 d0       	rcall	.+0      	; 0x2822 <SwitchOnOutdoorTempMin_CallbackRender+0x8>
    2822:	1f 92       	push	r1
    2824:	cd b7       	in	r28, 0x3d	; 61
    2826:	de b7       	in	r29, 0x3e	; 62
	lcd_clrscr();
    2828:	0e 94 cb 09 	call	0x1396	; 0x1396 <lcd_clrscr>
	lcd_puts_hu(PSTR("Kls min hm"));
    282c:	80 e3       	ldi	r24, 0x30	; 48
    282e:	97 e0       	ldi	r25, 0x07	; 7
    2830:	0e 94 b6 0a 	call	0x156c	; 0x156c <lcd_puts_hu>
	lcd_gotoxy(0,1);
    2834:	61 e0       	ldi	r22, 0x01	; 1
    2836:	80 e0       	ldi	r24, 0x00	; 0
    2838:	0e 94 b5 09 	call	0x136a	; 0x136a <lcd_gotoxy>
    283c:	4a e0       	ldi	r20, 0x0A	; 10
    283e:	be 01       	movw	r22, r28
    2840:	6f 5f       	subi	r22, 0xFF	; 255
    2842:	7f 4f       	sbci	r23, 0xFF	; 255
    2844:	80 91 7a 06 	lds	r24, 0x067A	; 0x80067a <SwitchOnOutdoorTempMin>
    2848:	90 91 7b 06 	lds	r25, 0x067B	; 0x80067b <SwitchOnOutdoorTempMin+0x1>
    284c:	0e 94 a4 22 	call	0x4548	; 0x4548 <__itoa_ncheck>
	char buf[5];
	itoa(SwitchOnOutdoorTempMin, buf, 10);
	lcd_puts(buf);
    2850:	ce 01       	movw	r24, r28
    2852:	01 96       	adiw	r24, 0x01	; 1
    2854:	0e 94 84 0a 	call	0x1508	; 0x1508 <lcd_puts>
}
    2858:	0f 90       	pop	r0
    285a:	0f 90       	pop	r0
    285c:	0f 90       	pop	r0
    285e:	0f 90       	pop	r0
    2860:	0f 90       	pop	r0
    2862:	df 91       	pop	r29
    2864:	cf 91       	pop	r28
    2866:	08 95       	ret

00002868 <DHWTempDesired_CallbackRender>:

	DHWTempActual_CallbackRender(column);
	return false;
}

void DHWTempDesired_CallbackRender(uint8_t which){
    2868:	cf 93       	push	r28
    286a:	df 93       	push	r29
    286c:	00 d0       	rcall	.+0      	; 0x286e <DHWTempDesired_CallbackRender+0x6>
    286e:	00 d0       	rcall	.+0      	; 0x2870 <DHWTempDesired_CallbackRender+0x8>
    2870:	cd b7       	in	r28, 0x3d	; 61
    2872:	de b7       	in	r29, 0x3e	; 62
    2874:	80 91 88 06 	lds	r24, 0x0688	; 0x800688 <DHWTempDesired>
    2878:	4a e0       	ldi	r20, 0x0A	; 10
    287a:	be 01       	movw	r22, r28
    287c:	6f 5f       	subi	r22, 0xFF	; 255
    287e:	7f 4f       	sbci	r23, 0xFF	; 255
    2880:	90 e0       	ldi	r25, 0x00	; 0
    2882:	0e 94 a4 22 	call	0x4548	; 0x4548 <__itoa_ncheck>
	char buf[4];
	itoa(DHWTempDesired, buf, 10);
	lcd_clrscr();
    2886:	0e 94 cb 09 	call	0x1396	; 0x1396 <lcd_clrscr>
	lcd_puts_hu(PSTR("HMV kvnt hm"));
    288a:	80 e1       	ldi	r24, 0x10	; 16
    288c:	97 e0       	ldi	r25, 0x07	; 7
    288e:	0e 94 b6 0a 	call	0x156c	; 0x156c <lcd_puts_hu>
	lcd_gotoxy(0,1);
    2892:	61 e0       	ldi	r22, 0x01	; 1
    2894:	80 e0       	ldi	r24, 0x00	; 0
    2896:	0e 94 b5 09 	call	0x136a	; 0x136a <lcd_gotoxy>
	lcd_puts(buf);
    289a:	ce 01       	movw	r24, r28
    289c:	01 96       	adiw	r24, 0x01	; 1
    289e:	0e 94 84 0a 	call	0x1508	; 0x1508 <lcd_puts>
}
    28a2:	0f 90       	pop	r0
    28a4:	0f 90       	pop	r0
    28a6:	0f 90       	pop	r0
    28a8:	0f 90       	pop	r0
    28aa:	df 91       	pop	r29
    28ac:	cf 91       	pop	r28
    28ae:	08 95       	ret

000028b0 <DHWTempMin_CallbackRender>:
	}
	DHWTempDesired_CallbackRender(column);
	return false;
}

void DHWTempMin_CallbackRender(uint8_t which){
    28b0:	cf 93       	push	r28
    28b2:	df 93       	push	r29
    28b4:	00 d0       	rcall	.+0      	; 0x28b6 <DHWTempMin_CallbackRender+0x6>
    28b6:	00 d0       	rcall	.+0      	; 0x28b8 <DHWTempMin_CallbackRender+0x8>
    28b8:	cd b7       	in	r28, 0x3d	; 61
    28ba:	de b7       	in	r29, 0x3e	; 62
    28bc:	80 91 80 06 	lds	r24, 0x0680	; 0x800680 <DHWTempMin>
    28c0:	4a e0       	ldi	r20, 0x0A	; 10
    28c2:	be 01       	movw	r22, r28
    28c4:	6f 5f       	subi	r22, 0xFF	; 255
    28c6:	7f 4f       	sbci	r23, 0xFF	; 255
    28c8:	90 e0       	ldi	r25, 0x00	; 0
    28ca:	0e 94 a4 22 	call	0x4548	; 0x4548 <__itoa_ncheck>
	char buf[4];
	itoa(DHWTempMin, buf, 10);
	lcd_clrscr();
    28ce:	0e 94 cb 09 	call	0x1396	; 0x1396 <lcd_clrscr>
	lcd_puts_hu(PSTR("HMV min hm"));
    28d2:	84 e0       	ldi	r24, 0x04	; 4
    28d4:	97 e0       	ldi	r25, 0x07	; 7
    28d6:	0e 94 b6 0a 	call	0x156c	; 0x156c <lcd_puts_hu>
	lcd_gotoxy(0,1);
    28da:	61 e0       	ldi	r22, 0x01	; 1
    28dc:	80 e0       	ldi	r24, 0x00	; 0
    28de:	0e 94 b5 09 	call	0x136a	; 0x136a <lcd_gotoxy>
	lcd_puts(buf);
    28e2:	ce 01       	movw	r24, r28
    28e4:	01 96       	adiw	r24, 0x01	; 1
    28e6:	0e 94 84 0a 	call	0x1508	; 0x1508 <lcd_puts>
}
    28ea:	0f 90       	pop	r0
    28ec:	0f 90       	pop	r0
    28ee:	0f 90       	pop	r0
    28f0:	0f 90       	pop	r0
    28f2:	df 91       	pop	r29
    28f4:	cf 91       	pop	r28
    28f6:	08 95       	ret

000028f8 <DHWSensor_CallbackRender>:

	DHWTempMin_CallbackRender(column);
	return false;
}

void DHWSensor_CallbackRender(uint8_t which){
    28f8:	cf 93       	push	r28
    28fa:	df 93       	push	r29
    28fc:	00 d0       	rcall	.+0      	; 0x28fe <DHWSensor_CallbackRender+0x6>
    28fe:	00 d0       	rcall	.+0      	; 0x2900 <DHWSensor_CallbackRender+0x8>
    2900:	cd b7       	in	r28, 0x3d	; 61
    2902:	de b7       	in	r29, 0x3e	; 62
	lcd_clrscr();
    2904:	0e 94 cb 09 	call	0x1396	; 0x1396 <lcd_clrscr>
	lcd_puts_hu(PSTR("HMV szenzor ID"));
    2908:	85 ef       	ldi	r24, 0xF5	; 245
    290a:	96 e0       	ldi	r25, 0x06	; 6
    290c:	0e 94 b6 0a 	call	0x156c	; 0x156c <lcd_puts_hu>
	lcd_gotoxy(0,1);
    2910:	61 e0       	ldi	r22, 0x01	; 1
    2912:	80 e0       	ldi	r24, 0x00	; 0
    2914:	0e 94 b5 09 	call	0x136a	; 0x136a <lcd_gotoxy>
    2918:	80 91 ae 05 	lds	r24, 0x05AE	; 0x8005ae <DHWSensorID>
    291c:	4a e0       	ldi	r20, 0x0A	; 10
    291e:	be 01       	movw	r22, r28
    2920:	6f 5f       	subi	r22, 0xFF	; 255
    2922:	7f 4f       	sbci	r23, 0xFF	; 255
    2924:	90 e0       	ldi	r25, 0x00	; 0
    2926:	0e 94 a4 22 	call	0x4548	; 0x4548 <__itoa_ncheck>
	char buf[4];
	itoa(DHWSensorID, buf, 10);
	lcd_puts(buf);
    292a:	ce 01       	movw	r24, r28
    292c:	01 96       	adiw	r24, 0x01	; 1
    292e:	0e 94 84 0a 	call	0x1508	; 0x1508 <lcd_puts>
}
    2932:	0f 90       	pop	r0
    2934:	0f 90       	pop	r0
    2936:	0f 90       	pop	r0
    2938:	0f 90       	pop	r0
    293a:	df 91       	pop	r29
    293c:	cf 91       	pop	r28
    293e:	08 95       	ret

00002940 <DHWMinTime_CallbackRender>:

	DHWSensor_CallbackRender(column);
	return false;
}

void DHWMinTime_CallbackRender(uint8_t which){
    2940:	cf 93       	push	r28
    2942:	df 93       	push	r29
    2944:	00 d0       	rcall	.+0      	; 0x2946 <DHWMinTime_CallbackRender+0x6>
    2946:	00 d0       	rcall	.+0      	; 0x2948 <DHWMinTime_CallbackRender+0x8>
    2948:	1f 92       	push	r1
    294a:	cd b7       	in	r28, 0x3d	; 61
    294c:	de b7       	in	r29, 0x3e	; 62
	lcd_clrscr();
    294e:	0e 94 cb 09 	call	0x1396	; 0x1396 <lcd_clrscr>
	lcd_puts_hu(PSTR("Min id"));
    2952:	8d ee       	ldi	r24, 0xED	; 237
    2954:	96 e0       	ldi	r25, 0x06	; 6
    2956:	0e 94 b6 0a 	call	0x156c	; 0x156c <lcd_puts_hu>
	lcd_gotoxy(0,1);
    295a:	61 e0       	ldi	r22, 0x01	; 1
    295c:	80 e0       	ldi	r24, 0x00	; 0
    295e:	0e 94 b5 09 	call	0x136a	; 0x136a <lcd_gotoxy>
    2962:	4a e0       	ldi	r20, 0x0A	; 10
    2964:	be 01       	movw	r22, r28
    2966:	6f 5f       	subi	r22, 0xFF	; 255
    2968:	7f 4f       	sbci	r23, 0xFF	; 255
    296a:	80 91 94 06 	lds	r24, 0x0694	; 0x800694 <DHWMinTime>
    296e:	90 91 95 06 	lds	r25, 0x0695	; 0x800695 <DHWMinTime+0x1>
    2972:	0e 94 a4 22 	call	0x4548	; 0x4548 <__itoa_ncheck>
	char buf[5];
	itoa(DHWMinTime, buf, 10);
	lcd_puts(buf);
    2976:	ce 01       	movw	r24, r28
    2978:	01 96       	adiw	r24, 0x01	; 1
    297a:	0e 94 84 0a 	call	0x1508	; 0x1508 <lcd_puts>
}
    297e:	0f 90       	pop	r0
    2980:	0f 90       	pop	r0
    2982:	0f 90       	pop	r0
    2984:	0f 90       	pop	r0
    2986:	0f 90       	pop	r0
    2988:	df 91       	pop	r29
    298a:	cf 91       	pop	r28
    298c:	08 95       	ret

0000298e <DHWMaxTime_CallbackRender>:

	DHWMinTime_CallbackRender(column);
	return false;
}

void DHWMaxTime_CallbackRender(uint8_t which){
    298e:	cf 93       	push	r28
    2990:	df 93       	push	r29
    2992:	00 d0       	rcall	.+0      	; 0x2994 <DHWMaxTime_CallbackRender+0x6>
    2994:	00 d0       	rcall	.+0      	; 0x2996 <DHWMaxTime_CallbackRender+0x8>
    2996:	1f 92       	push	r1
    2998:	cd b7       	in	r28, 0x3d	; 61
    299a:	de b7       	in	r29, 0x3e	; 62
	lcd_clrscr();
    299c:	0e 94 cb 09 	call	0x1396	; 0x1396 <lcd_clrscr>
	lcd_puts_hu(PSTR("Max id"));
    29a0:	85 ee       	ldi	r24, 0xE5	; 229
    29a2:	96 e0       	ldi	r25, 0x06	; 6
    29a4:	0e 94 b6 0a 	call	0x156c	; 0x156c <lcd_puts_hu>
	lcd_gotoxy(0,1);
    29a8:	61 e0       	ldi	r22, 0x01	; 1
    29aa:	80 e0       	ldi	r24, 0x00	; 0
    29ac:	0e 94 b5 09 	call	0x136a	; 0x136a <lcd_gotoxy>
    29b0:	4a e0       	ldi	r20, 0x0A	; 10
    29b2:	be 01       	movw	r22, r28
    29b4:	6f 5f       	subi	r22, 0xFF	; 255
    29b6:	7f 4f       	sbci	r23, 0xFF	; 255
    29b8:	80 91 9f 06 	lds	r24, 0x069F	; 0x80069f <DHWMaxTime>
    29bc:	90 91 a0 06 	lds	r25, 0x06A0	; 0x8006a0 <DHWMaxTime+0x1>
    29c0:	0e 94 a4 22 	call	0x4548	; 0x4548 <__itoa_ncheck>
	char buf[5];
	itoa(DHWMaxTime, buf, 10);
	lcd_puts(buf);
    29c4:	ce 01       	movw	r24, r28
    29c6:	01 96       	adiw	r24, 0x01	; 1
    29c8:	0e 94 84 0a 	call	0x1508	; 0x1508 <lcd_puts>
}
    29cc:	0f 90       	pop	r0
    29ce:	0f 90       	pop	r0
    29d0:	0f 90       	pop	r0
    29d2:	0f 90       	pop	r0
    29d4:	0f 90       	pop	r0
    29d6:	df 91       	pop	r29
    29d8:	cf 91       	pop	r28
    29da:	08 95       	ret

000029dc <ForwardHeatTemp_CallbackRender>:

	BufferTempActual_CallbackRender(column);
	return false;
}

void ForwardHeatTemp_CallbackRender(uint8_t which){
    29dc:	cf 93       	push	r28
    29de:	df 93       	push	r29
    29e0:	00 d0       	rcall	.+0      	; 0x29e2 <ForwardHeatTemp_CallbackRender+0x6>
    29e2:	00 d0       	rcall	.+0      	; 0x29e4 <ForwardHeatTemp_CallbackRender+0x8>
    29e4:	cd b7       	in	r28, 0x3d	; 61
    29e6:	de b7       	in	r29, 0x3e	; 62
    29e8:	80 91 0a 01 	lds	r24, 0x010A	; 0x80010a <ForwardHeatTemp>
    29ec:	4a e0       	ldi	r20, 0x0A	; 10
    29ee:	be 01       	movw	r22, r28
    29f0:	6f 5f       	subi	r22, 0xFF	; 255
    29f2:	7f 4f       	sbci	r23, 0xFF	; 255
    29f4:	90 e0       	ldi	r25, 0x00	; 0
    29f6:	0e 94 a4 22 	call	0x4548	; 0x4548 <__itoa_ncheck>
	char buf[4];
	itoa(ForwardHeatTemp, buf, 10);
	lcd_clrscr();
    29fa:	0e 94 cb 09 	call	0x1396	; 0x1396 <lcd_clrscr>
	lcd_puts_hu(PSTR("Elremen hm"));
    29fe:	83 ec       	ldi	r24, 0xC3	; 195
    2a00:	96 e0       	ldi	r25, 0x06	; 6
    2a02:	0e 94 b6 0a 	call	0x156c	; 0x156c <lcd_puts_hu>
	lcd_gotoxy(0,1);
    2a06:	61 e0       	ldi	r22, 0x01	; 1
    2a08:	80 e0       	ldi	r24, 0x00	; 0
    2a0a:	0e 94 b5 09 	call	0x136a	; 0x136a <lcd_gotoxy>
	lcd_puts(buf);
    2a0e:	ce 01       	movw	r24, r28
    2a10:	01 96       	adiw	r24, 0x01	; 1
    2a12:	0e 94 84 0a 	call	0x1508	; 0x1508 <lcd_puts>
}
    2a16:	0f 90       	pop	r0
    2a18:	0f 90       	pop	r0
    2a1a:	0f 90       	pop	r0
    2a1c:	0f 90       	pop	r0
    2a1e:	df 91       	pop	r29
    2a20:	cf 91       	pop	r28
    2a22:	08 95       	ret

00002a24 <BufferSensor_CallbackRender>:

	ForwardHeatTemp_CallbackRender(column);
	return false;
}

void BufferSensor_CallbackRender(uint8_t which){
    2a24:	cf 93       	push	r28
    2a26:	df 93       	push	r29
    2a28:	00 d0       	rcall	.+0      	; 0x2a2a <BufferSensor_CallbackRender+0x6>
    2a2a:	00 d0       	rcall	.+0      	; 0x2a2c <BufferSensor_CallbackRender+0x8>
    2a2c:	cd b7       	in	r28, 0x3d	; 61
    2a2e:	de b7       	in	r29, 0x3e	; 62
	lcd_clrscr();
    2a30:	0e 94 cb 09 	call	0x1396	; 0x1396 <lcd_clrscr>
	lcd_puts_hu(PSTR("Puffer szenzor ID"));
    2a34:	81 eb       	ldi	r24, 0xB1	; 177
    2a36:	96 e0       	ldi	r25, 0x06	; 6
    2a38:	0e 94 b6 0a 	call	0x156c	; 0x156c <lcd_puts_hu>
	lcd_gotoxy(0,1);
    2a3c:	61 e0       	ldi	r22, 0x01	; 1
    2a3e:	80 e0       	ldi	r24, 0x00	; 0
    2a40:	0e 94 b5 09 	call	0x136a	; 0x136a <lcd_gotoxy>
    2a44:	80 91 09 01 	lds	r24, 0x0109	; 0x800109 <BufferSensorID>
    2a48:	4a e0       	ldi	r20, 0x0A	; 10
    2a4a:	be 01       	movw	r22, r28
    2a4c:	6f 5f       	subi	r22, 0xFF	; 255
    2a4e:	7f 4f       	sbci	r23, 0xFF	; 255
    2a50:	90 e0       	ldi	r25, 0x00	; 0
    2a52:	0e 94 a4 22 	call	0x4548	; 0x4548 <__itoa_ncheck>
	char buf[4];
	itoa(BufferSensorID, buf, 10);
	lcd_puts(buf);
    2a56:	ce 01       	movw	r24, r28
    2a58:	01 96       	adiw	r24, 0x01	; 1
    2a5a:	0e 94 84 0a 	call	0x1508	; 0x1508 <lcd_puts>
}
    2a5e:	0f 90       	pop	r0
    2a60:	0f 90       	pop	r0
    2a62:	0f 90       	pop	r0
    2a64:	0f 90       	pop	r0
    2a66:	df 91       	pop	r29
    2a68:	cf 91       	pop	r28
    2a6a:	08 95       	ret

00002a6c <EngineeringTempMin_CallbackRender>:

	EngineeringTempActual_CallbackRender(column);
	return false;
}

void EngineeringTempMin_CallbackRender(uint8_t which){
    2a6c:	cf 93       	push	r28
    2a6e:	df 93       	push	r29
    2a70:	00 d0       	rcall	.+0      	; 0x2a72 <EngineeringTempMin_CallbackRender+0x6>
    2a72:	00 d0       	rcall	.+0      	; 0x2a74 <EngineeringTempMin_CallbackRender+0x8>
    2a74:	cd b7       	in	r28, 0x3d	; 61
    2a76:	de b7       	in	r29, 0x3e	; 62
    2a78:	80 91 a4 06 	lds	r24, 0x06A4	; 0x8006a4 <EngineeringTempMin>
    2a7c:	4a e0       	ldi	r20, 0x0A	; 10
    2a7e:	be 01       	movw	r22, r28
    2a80:	6f 5f       	subi	r22, 0xFF	; 255
    2a82:	7f 4f       	sbci	r23, 0xFF	; 255
    2a84:	90 e0       	ldi	r25, 0x00	; 0
    2a86:	0e 94 a4 22 	call	0x4548	; 0x4548 <__itoa_ncheck>
	char buf[4];
	itoa(EngineeringTempMin, buf, 10);
	lcd_clrscr();
    2a8a:	0e 94 cb 09 	call	0x1396	; 0x1396 <lcd_clrscr>
	lcd_puts_hu(PSTR("Gphz min hm"));
    2a8e:	8e e8       	ldi	r24, 0x8E	; 142
    2a90:	96 e0       	ldi	r25, 0x06	; 6
    2a92:	0e 94 b6 0a 	call	0x156c	; 0x156c <lcd_puts_hu>
	lcd_gotoxy(0,1);
    2a96:	61 e0       	ldi	r22, 0x01	; 1
    2a98:	80 e0       	ldi	r24, 0x00	; 0
    2a9a:	0e 94 b5 09 	call	0x136a	; 0x136a <lcd_gotoxy>
	lcd_puts(buf);
    2a9e:	ce 01       	movw	r24, r28
    2aa0:	01 96       	adiw	r24, 0x01	; 1
    2aa2:	0e 94 84 0a 	call	0x1508	; 0x1508 <lcd_puts>
}
    2aa6:	0f 90       	pop	r0
    2aa8:	0f 90       	pop	r0
    2aaa:	0f 90       	pop	r0
    2aac:	0f 90       	pop	r0
    2aae:	df 91       	pop	r29
    2ab0:	cf 91       	pop	r28
    2ab2:	08 95       	ret

00002ab4 <EngineeringTempDesired_CallbackRender>:

	EngineeringTempMin_CallbackRender(column);
	return false;
}

void EngineeringTempDesired_CallbackRender(uint8_t which){
    2ab4:	cf 93       	push	r28
    2ab6:	df 93       	push	r29
    2ab8:	cd b7       	in	r28, 0x3d	; 61
    2aba:	de b7       	in	r29, 0x3e	; 62
    2abc:	27 97       	sbiw	r28, 0x07	; 7
    2abe:	0f b6       	in	r0, 0x3f	; 63
    2ac0:	f8 94       	cli
    2ac2:	de bf       	out	0x3e, r29	; 62
    2ac4:	0f be       	out	0x3f, r0	; 63
    2ac6:	cd bf       	out	0x3d, r28	; 61
    2ac8:	80 91 6b 06 	lds	r24, 0x066B	; 0x80066b <EngineeringTempDesired>
    2acc:	4a e0       	ldi	r20, 0x0A	; 10
    2ace:	be 01       	movw	r22, r28
    2ad0:	6f 5f       	subi	r22, 0xFF	; 255
    2ad2:	7f 4f       	sbci	r23, 0xFF	; 255
    2ad4:	90 e0       	ldi	r25, 0x00	; 0
    2ad6:	0e 94 a4 22 	call	0x4548	; 0x4548 <__itoa_ncheck>
	char buf[7];
	itoa(EngineeringTempDesired, buf, 10);
	lcd_clrscr();
    2ada:	0e 94 cb 09 	call	0x1396	; 0x1396 <lcd_clrscr>
	lcd_puts_hu(PSTR("Gphz kvnt hm"));
    2ade:	8c e7       	ldi	r24, 0x7C	; 124
    2ae0:	96 e0       	ldi	r25, 0x06	; 6
    2ae2:	0e 94 b6 0a 	call	0x156c	; 0x156c <lcd_puts_hu>
	lcd_gotoxy(0,1);
    2ae6:	61 e0       	ldi	r22, 0x01	; 1
    2ae8:	80 e0       	ldi	r24, 0x00	; 0
    2aea:	0e 94 b5 09 	call	0x136a	; 0x136a <lcd_gotoxy>
	lcd_puts(buf);
    2aee:	ce 01       	movw	r24, r28
    2af0:	01 96       	adiw	r24, 0x01	; 1
    2af2:	0e 94 84 0a 	call	0x1508	; 0x1508 <lcd_puts>
}
    2af6:	27 96       	adiw	r28, 0x07	; 7
    2af8:	0f b6       	in	r0, 0x3f	; 63
    2afa:	f8 94       	cli
    2afc:	de bf       	out	0x3e, r29	; 62
    2afe:	0f be       	out	0x3f, r0	; 63
    2b00:	cd bf       	out	0x3d, r28	; 61
    2b02:	df 91       	pop	r29
    2b04:	cf 91       	pop	r28
    2b06:	08 95       	ret

00002b08 <EngineeringSensor_CallbackRender>:
	}
	EngineeringTempDesired_CallbackRender(column);
	return false;
}

void EngineeringSensor_CallbackRender(uint8_t which){
    2b08:	cf 93       	push	r28
    2b0a:	df 93       	push	r29
    2b0c:	00 d0       	rcall	.+0      	; 0x2b0e <EngineeringSensor_CallbackRender+0x6>
    2b0e:	00 d0       	rcall	.+0      	; 0x2b10 <EngineeringSensor_CallbackRender+0x8>
    2b10:	cd b7       	in	r28, 0x3d	; 61
    2b12:	de b7       	in	r29, 0x3e	; 62
	lcd_clrscr();
    2b14:	0e 94 cb 09 	call	0x1396	; 0x1396 <lcd_clrscr>
	lcd_puts_hu(PSTR("Gphz szenzor ID"));
    2b18:	8a e6       	ldi	r24, 0x6A	; 106
    2b1a:	96 e0       	ldi	r25, 0x06	; 6
    2b1c:	0e 94 b6 0a 	call	0x156c	; 0x156c <lcd_puts_hu>
	lcd_gotoxy(0,1);
    2b20:	61 e0       	ldi	r22, 0x01	; 1
    2b22:	80 e0       	ldi	r24, 0x00	; 0
    2b24:	0e 94 b5 09 	call	0x136a	; 0x136a <lcd_gotoxy>
    2b28:	80 91 07 01 	lds	r24, 0x0107	; 0x800107 <EngineeringSensorID>
    2b2c:	4a e0       	ldi	r20, 0x0A	; 10
    2b2e:	be 01       	movw	r22, r28
    2b30:	6f 5f       	subi	r22, 0xFF	; 255
    2b32:	7f 4f       	sbci	r23, 0xFF	; 255
    2b34:	90 e0       	ldi	r25, 0x00	; 0
    2b36:	0e 94 a4 22 	call	0x4548	; 0x4548 <__itoa_ncheck>
	char buf[4];
	itoa(EngineeringSensorID, buf, 10);
	lcd_puts(buf);
    2b3a:	ce 01       	movw	r24, r28
    2b3c:	01 96       	adiw	r24, 0x01	; 1
    2b3e:	0e 94 84 0a 	call	0x1508	; 0x1508 <lcd_puts>
}
    2b42:	0f 90       	pop	r0
    2b44:	0f 90       	pop	r0
    2b46:	0f 90       	pop	r0
    2b48:	0f 90       	pop	r0
    2b4a:	df 91       	pop	r29
    2b4c:	cf 91       	pop	r28
    2b4e:	08 95       	ret

00002b50 <GarageSensor_CallbackRender>:

	GarageTemp_CallbackRender(column);
	return false;
}

void GarageSensor_CallbackRender(uint8_t which){
    2b50:	cf 93       	push	r28
    2b52:	df 93       	push	r29
    2b54:	00 d0       	rcall	.+0      	; 0x2b56 <GarageSensor_CallbackRender+0x6>
    2b56:	00 d0       	rcall	.+0      	; 0x2b58 <GarageSensor_CallbackRender+0x8>
    2b58:	cd b7       	in	r28, 0x3d	; 61
    2b5a:	de b7       	in	r29, 0x3e	; 62
	lcd_clrscr();
    2b5c:	0e 94 cb 09 	call	0x1396	; 0x1396 <lcd_clrscr>
	lcd_puts_hu(PSTR("Garzs szenzor ID"));
    2b60:	86 eb       	ldi	r24, 0xB6	; 182
    2b62:	95 e0       	ldi	r25, 0x05	; 5
    2b64:	0e 94 b6 0a 	call	0x156c	; 0x156c <lcd_puts_hu>
	lcd_gotoxy(0,1);
    2b68:	61 e0       	ldi	r22, 0x01	; 1
    2b6a:	80 e0       	ldi	r24, 0x00	; 0
    2b6c:	0e 94 b5 09 	call	0x136a	; 0x136a <lcd_gotoxy>
    2b70:	80 91 08 01 	lds	r24, 0x0108	; 0x800108 <GarageSensorID>
    2b74:	4a e0       	ldi	r20, 0x0A	; 10
    2b76:	be 01       	movw	r22, r28
    2b78:	6f 5f       	subi	r22, 0xFF	; 255
    2b7a:	7f 4f       	sbci	r23, 0xFF	; 255
    2b7c:	90 e0       	ldi	r25, 0x00	; 0
    2b7e:	0e 94 a4 22 	call	0x4548	; 0x4548 <__itoa_ncheck>
	char buf[4];
	itoa(GarageSensorID, buf, 10);
	lcd_puts(buf);
    2b82:	ce 01       	movw	r24, r28
    2b84:	01 96       	adiw	r24, 0x01	; 1
    2b86:	0e 94 84 0a 	call	0x1508	; 0x1508 <lcd_puts>
}
    2b8a:	0f 90       	pop	r0
    2b8c:	0f 90       	pop	r0
    2b8e:	0f 90       	pop	r0
    2b90:	0f 90       	pop	r0
    2b92:	df 91       	pop	r29
    2b94:	cf 91       	pop	r28
    2b96:	08 95       	ret

00002b98 <LivingRoomSensor_CallbackRender>:

	LivingRoomTemp_CallbackRender(column);
	return false;
}

void LivingRoomSensor_CallbackRender(uint8_t which){
    2b98:	cf 93       	push	r28
    2b9a:	df 93       	push	r29
    2b9c:	00 d0       	rcall	.+0      	; 0x2b9e <LivingRoomSensor_CallbackRender+0x6>
    2b9e:	00 d0       	rcall	.+0      	; 0x2ba0 <LivingRoomSensor_CallbackRender+0x8>
    2ba0:	cd b7       	in	r28, 0x3d	; 61
    2ba2:	de b7       	in	r29, 0x3e	; 62
	lcd_clrscr();
    2ba4:	0e 94 cb 09 	call	0x1396	; 0x1396 <lcd_clrscr>
	lcd_puts_hu(PSTR("Nappali szenzor ID"));
    2ba8:	8e e8       	ldi	r24, 0x8E	; 142
    2baa:	95 e0       	ldi	r25, 0x05	; 5
    2bac:	0e 94 b6 0a 	call	0x156c	; 0x156c <lcd_puts_hu>
	lcd_gotoxy(0,1);
    2bb0:	61 e0       	ldi	r22, 0x01	; 1
    2bb2:	80 e0       	ldi	r24, 0x00	; 0
    2bb4:	0e 94 b5 09 	call	0x136a	; 0x136a <lcd_gotoxy>
    2bb8:	80 91 06 01 	lds	r24, 0x0106	; 0x800106 <LivingRoomSensorID>
    2bbc:	4a e0       	ldi	r20, 0x0A	; 10
    2bbe:	be 01       	movw	r22, r28
    2bc0:	6f 5f       	subi	r22, 0xFF	; 255
    2bc2:	7f 4f       	sbci	r23, 0xFF	; 255
    2bc4:	90 e0       	ldi	r25, 0x00	; 0
    2bc6:	0e 94 a4 22 	call	0x4548	; 0x4548 <__itoa_ncheck>
	char buf[4];
	itoa(LivingRoomSensorID, buf, 10);
	lcd_puts(buf);
    2bca:	ce 01       	movw	r24, r28
    2bcc:	01 96       	adiw	r24, 0x01	; 1
    2bce:	0e 94 84 0a 	call	0x1508	; 0x1508 <lcd_puts>
}
    2bd2:	0f 90       	pop	r0
    2bd4:	0f 90       	pop	r0
    2bd6:	0f 90       	pop	r0
    2bd8:	0f 90       	pop	r0
    2bda:	df 91       	pop	r29
    2bdc:	cf 91       	pop	r28
    2bde:	08 95       	ret

00002be0 <FloorSensor_CallbackRender>:

	FloorTemp_CallbackRender(column);
	return false;
}

void FloorSensor_CallbackRender(uint8_t which){
    2be0:	cf 93       	push	r28
    2be2:	df 93       	push	r29
    2be4:	00 d0       	rcall	.+0      	; 0x2be6 <FloorSensor_CallbackRender+0x6>
    2be6:	00 d0       	rcall	.+0      	; 0x2be8 <FloorSensor_CallbackRender+0x8>
    2be8:	cd b7       	in	r28, 0x3d	; 61
    2bea:	de b7       	in	r29, 0x3e	; 62
	lcd_clrscr();
    2bec:	0e 94 cb 09 	call	0x1396	; 0x1396 <lcd_clrscr>
	lcd_puts_hu(PSTR("Padl szenzor ID"));
    2bf0:	8a e6       	ldi	r24, 0x6A	; 106
    2bf2:	95 e0       	ldi	r25, 0x05	; 5
    2bf4:	0e 94 b6 0a 	call	0x156c	; 0x156c <lcd_puts_hu>
	lcd_gotoxy(0,1);
    2bf8:	61 e0       	ldi	r22, 0x01	; 1
    2bfa:	80 e0       	ldi	r24, 0x00	; 0
    2bfc:	0e 94 b5 09 	call	0x136a	; 0x136a <lcd_gotoxy>
    2c00:	80 91 05 01 	lds	r24, 0x0105	; 0x800105 <FloorSensorID>
    2c04:	4a e0       	ldi	r20, 0x0A	; 10
    2c06:	be 01       	movw	r22, r28
    2c08:	6f 5f       	subi	r22, 0xFF	; 255
    2c0a:	7f 4f       	sbci	r23, 0xFF	; 255
    2c0c:	90 e0       	ldi	r25, 0x00	; 0
    2c0e:	0e 94 a4 22 	call	0x4548	; 0x4548 <__itoa_ncheck>
	char buf[4];
	itoa(FloorSensorID, buf, 10);
	lcd_puts(buf);
    2c12:	ce 01       	movw	r24, r28
    2c14:	01 96       	adiw	r24, 0x01	; 1
    2c16:	0e 94 84 0a 	call	0x1508	; 0x1508 <lcd_puts>
}
    2c1a:	0f 90       	pop	r0
    2c1c:	0f 90       	pop	r0
    2c1e:	0f 90       	pop	r0
    2c20:	0f 90       	pop	r0
    2c22:	df 91       	pop	r29
    2c24:	cf 91       	pop	r28
    2c26:	08 95       	ret

00002c28 <DebugMode_CallbackRender>:


/*************************************************************************
 Menu Settings, submenu definition
*************************************************************************/
void DebugMode_CallbackRender(uint8_t which){
    2c28:	cf 93       	push	r28
    2c2a:	df 93       	push	r29
    2c2c:	00 d0       	rcall	.+0      	; 0x2c2e <DebugMode_CallbackRender+0x6>
    2c2e:	00 d0       	rcall	.+0      	; 0x2c30 <DebugMode_CallbackRender+0x8>
    2c30:	cd b7       	in	r28, 0x3d	; 61
    2c32:	de b7       	in	r29, 0x3e	; 62
	lcd_clrscr();
    2c34:	0e 94 cb 09 	call	0x1396	; 0x1396 <lcd_clrscr>
	lcd_puts_hu(PSTR("Tesztzem"));
    2c38:	80 e6       	ldi	r24, 0x60	; 96
    2c3a:	95 e0       	ldi	r25, 0x05	; 5
    2c3c:	0e 94 b6 0a 	call	0x156c	; 0x156c <lcd_puts_hu>
	lcd_gotoxy(0,1);
    2c40:	61 e0       	ldi	r22, 0x01	; 1
    2c42:	80 e0       	ldi	r24, 0x00	; 0
    2c44:	0e 94 b5 09 	call	0x136a	; 0x136a <lcd_gotoxy>
    2c48:	80 91 b2 05 	lds	r24, 0x05B2	; 0x8005b2 <DebugMode>
    2c4c:	4a e0       	ldi	r20, 0x0A	; 10
    2c4e:	be 01       	movw	r22, r28
    2c50:	6f 5f       	subi	r22, 0xFF	; 255
    2c52:	7f 4f       	sbci	r23, 0xFF	; 255
    2c54:	90 e0       	ldi	r25, 0x00	; 0
    2c56:	0e 94 a4 22 	call	0x4548	; 0x4548 <__itoa_ncheck>
	char buf[4];
	itoa(DebugMode, buf, 10);
	lcd_puts(buf);
    2c5a:	ce 01       	movw	r24, r28
    2c5c:	01 96       	adiw	r24, 0x01	; 1
    2c5e:	0e 94 84 0a 	call	0x1508	; 0x1508 <lcd_puts>
}
    2c62:	0f 90       	pop	r0
    2c64:	0f 90       	pop	r0
    2c66:	0f 90       	pop	r0
    2c68:	0f 90       	pop	r0
    2c6a:	df 91       	pop	r29
    2c6c:	cf 91       	pop	r28
    2c6e:	08 95       	ret

00002c70 <MenuTimer_CallbackRender>:

	DebugMode_CallbackRender(column);
	return false;
}

void MenuTimer_CallbackRender(uint8_t which){
    2c70:	cf 93       	push	r28
    2c72:	df 93       	push	r29
    2c74:	00 d0       	rcall	.+0      	; 0x2c76 <MenuTimer_CallbackRender+0x6>
    2c76:	00 d0       	rcall	.+0      	; 0x2c78 <MenuTimer_CallbackRender+0x8>
    2c78:	cd b7       	in	r28, 0x3d	; 61
    2c7a:	de b7       	in	r29, 0x3e	; 62
	lcd_clrscr();
    2c7c:	0e 94 cb 09 	call	0x1396	; 0x1396 <lcd_clrscr>
	lcd_puts_hu(PSTR("Men idzt (mp)"));
    2c80:	8e e4       	ldi	r24, 0x4E	; 78
    2c82:	95 e0       	ldi	r25, 0x05	; 5
    2c84:	0e 94 b6 0a 	call	0x156c	; 0x156c <lcd_puts_hu>
    2c88:	80 91 0f 01 	lds	r24, 0x010F	; 0x80010f <MenuTimer>
    2c8c:	4a e0       	ldi	r20, 0x0A	; 10
    2c8e:	be 01       	movw	r22, r28
    2c90:	6f 5f       	subi	r22, 0xFF	; 255
    2c92:	7f 4f       	sbci	r23, 0xFF	; 255
    2c94:	90 e0       	ldi	r25, 0x00	; 0
    2c96:	0e 94 a4 22 	call	0x4548	; 0x4548 <__itoa_ncheck>
	char buf[4];
	itoa(MenuTimer, buf, 10);
	lcd_puts(buf);
    2c9a:	ce 01       	movw	r24, r28
    2c9c:	01 96       	adiw	r24, 0x01	; 1
    2c9e:	0e 94 84 0a 	call	0x1508	; 0x1508 <lcd_puts>
}
    2ca2:	0f 90       	pop	r0
    2ca4:	0f 90       	pop	r0
    2ca6:	0f 90       	pop	r0
    2ca8:	0f 90       	pop	r0
    2caa:	df 91       	pop	r29
    2cac:	cf 91       	pop	r28
    2cae:	08 95       	ret

00002cb0 <LCDBackLight_CallbackRender>:

	MenuTimer_CallbackRender(column);
	return false;
}

void LCDBackLight_CallbackRender(uint8_t which){
    2cb0:	cf 93       	push	r28
    2cb2:	df 93       	push	r29
    2cb4:	00 d0       	rcall	.+0      	; 0x2cb6 <LCDBackLight_CallbackRender+0x6>
    2cb6:	00 d0       	rcall	.+0      	; 0x2cb8 <LCDBackLight_CallbackRender+0x8>
    2cb8:	cd b7       	in	r28, 0x3d	; 61
    2cba:	de b7       	in	r29, 0x3e	; 62
	lcd_clrscr();
    2cbc:	0e 94 cb 09 	call	0x1396	; 0x1396 <lcd_clrscr>
	lcd_puts_hu(PSTR("LCD httr"));
    2cc0:	83 e4       	ldi	r24, 0x43	; 67
    2cc2:	95 e0       	ldi	r25, 0x05	; 5
    2cc4:	0e 94 b6 0a 	call	0x156c	; 0x156c <lcd_puts_hu>
	lcd_gotoxy(0,1);
    2cc8:	61 e0       	ldi	r22, 0x01	; 1
    2cca:	80 e0       	ldi	r24, 0x00	; 0
    2ccc:	0e 94 b5 09 	call	0x136a	; 0x136a <lcd_gotoxy>
    2cd0:	80 91 b1 05 	lds	r24, 0x05B1	; 0x8005b1 <LCDBackLight>
    2cd4:	4a e0       	ldi	r20, 0x0A	; 10
    2cd6:	be 01       	movw	r22, r28
    2cd8:	6f 5f       	subi	r22, 0xFF	; 255
    2cda:	7f 4f       	sbci	r23, 0xFF	; 255
    2cdc:	90 e0       	ldi	r25, 0x00	; 0
    2cde:	0e 94 a4 22 	call	0x4548	; 0x4548 <__itoa_ncheck>
	char buf[4];
	itoa(LCDBackLight, buf, 10);
	lcd_puts(buf);
    2ce2:	ce 01       	movw	r24, r28
    2ce4:	01 96       	adiw	r24, 0x01	; 1
    2ce6:	0e 94 84 0a 	call	0x1508	; 0x1508 <lcd_puts>
}
    2cea:	0f 90       	pop	r0
    2cec:	0f 90       	pop	r0
    2cee:	0f 90       	pop	r0
    2cf0:	0f 90       	pop	r0
    2cf2:	df 91       	pop	r29
    2cf4:	cf 91       	pop	r28
    2cf6:	08 95       	ret

00002cf8 <PumpPlusTime_CallbackRender>:

	LCDBackLight_CallbackRender(column);
	return false;
}

void PumpPlusTime_CallbackRender(uint8_t which){
    2cf8:	cf 93       	push	r28
    2cfa:	df 93       	push	r29
    2cfc:	00 d0       	rcall	.+0      	; 0x2cfe <PumpPlusTime_CallbackRender+0x6>
    2cfe:	00 d0       	rcall	.+0      	; 0x2d00 <PumpPlusTime_CallbackRender+0x8>
    2d00:	cd b7       	in	r28, 0x3d	; 61
    2d02:	de b7       	in	r29, 0x3e	; 62
	lcd_clrscr();
    2d04:	0e 94 cb 09 	call	0x1396	; 0x1396 <lcd_clrscr>
	lcd_puts_hu(PSTR("Szivatty utnfuts"));
    2d08:	8f e2       	ldi	r24, 0x2F	; 47
    2d0a:	95 e0       	ldi	r25, 0x05	; 5
    2d0c:	0e 94 b6 0a 	call	0x156c	; 0x156c <lcd_puts_hu>
	lcd_gotoxy(0,1);
    2d10:	61 e0       	ldi	r22, 0x01	; 1
    2d12:	80 e0       	ldi	r24, 0x00	; 0
    2d14:	0e 94 b5 09 	call	0x136a	; 0x136a <lcd_gotoxy>
    2d18:	4a e0       	ldi	r20, 0x0A	; 10
    2d1a:	be 01       	movw	r22, r28
    2d1c:	6f 5f       	subi	r22, 0xFF	; 255
    2d1e:	7f 4f       	sbci	r23, 0xFF	; 255
    2d20:	80 91 0d 01 	lds	r24, 0x010D	; 0x80010d <PumpPlusTime>
    2d24:	90 91 0e 01 	lds	r25, 0x010E	; 0x80010e <PumpPlusTime+0x1>
    2d28:	0e 94 a4 22 	call	0x4548	; 0x4548 <__itoa_ncheck>
	char buf[4];
	itoa(PumpPlusTime, buf, 10);
	lcd_puts(buf);
    2d2c:	ce 01       	movw	r24, r28
    2d2e:	01 96       	adiw	r24, 0x01	; 1
    2d30:	0e 94 84 0a 	call	0x1508	; 0x1508 <lcd_puts>
}
    2d34:	0f 90       	pop	r0
    2d36:	0f 90       	pop	r0
    2d38:	0f 90       	pop	r0
    2d3a:	0f 90       	pop	r0
    2d3c:	df 91       	pop	r29
    2d3e:	cf 91       	pop	r28
    2d40:	08 95       	ret

00002d42 <ClockHour_CallbackRender>:

	PumpPlusTime_CallbackRender(column);
	return false;
}

void ClockHour_CallbackRender(uint8_t which){
    2d42:	cf 93       	push	r28
    2d44:	df 93       	push	r29
    2d46:	00 d0       	rcall	.+0      	; 0x2d48 <ClockHour_CallbackRender+0x6>
    2d48:	1f 92       	push	r1
    2d4a:	cd b7       	in	r28, 0x3d	; 61
    2d4c:	de b7       	in	r29, 0x3e	; 62
	lcd_clrscr();
    2d4e:	0e 94 cb 09 	call	0x1396	; 0x1396 <lcd_clrscr>
	lcd_puts_hu(PSTR("ra"));
    2d52:	8b e2       	ldi	r24, 0x2B	; 43
    2d54:	95 e0       	ldi	r25, 0x05	; 5
    2d56:	0e 94 b6 0a 	call	0x156c	; 0x156c <lcd_puts_hu>
	lcd_gotoxy(0,1);
    2d5a:	61 e0       	ldi	r22, 0x01	; 1
    2d5c:	80 e0       	ldi	r24, 0x00	; 0
    2d5e:	0e 94 b5 09 	call	0x136a	; 0x136a <lcd_gotoxy>
    2d62:	80 91 ad 05 	lds	r24, 0x05AD	; 0x8005ad <Hour>
    2d66:	4a e0       	ldi	r20, 0x0A	; 10
    2d68:	be 01       	movw	r22, r28
    2d6a:	6f 5f       	subi	r22, 0xFF	; 255
    2d6c:	7f 4f       	sbci	r23, 0xFF	; 255
    2d6e:	90 e0       	ldi	r25, 0x00	; 0
    2d70:	0e 94 a4 22 	call	0x4548	; 0x4548 <__itoa_ncheck>
	char buf[3];
	itoa(Hour, buf, 10);
	lcd_puts(buf);
    2d74:	ce 01       	movw	r24, r28
    2d76:	01 96       	adiw	r24, 0x01	; 1
    2d78:	0e 94 84 0a 	call	0x1508	; 0x1508 <lcd_puts>
}
    2d7c:	0f 90       	pop	r0
    2d7e:	0f 90       	pop	r0
    2d80:	0f 90       	pop	r0
    2d82:	df 91       	pop	r29
    2d84:	cf 91       	pop	r28
    2d86:	08 95       	ret

00002d88 <ClockHour_ActionCallback>:

bool ClockHour_ActionCallback(MENU_BUTTON *button, uint8_t column){
	switch(button->role){
    2d88:	fc 01       	movw	r30, r24
    2d8a:	90 81       	ld	r25, Z
    2d8c:	91 30       	cpi	r25, 0x01	; 1
    2d8e:	89 f0       	breq	.+34     	; 0x2db2 <ClockHour_ActionCallback+0x2a>
    2d90:	28 f0       	brcs	.+10     	; 0x2d9c <ClockHour_ActionCallback+0x14>
    2d92:	92 30       	cpi	r25, 0x02	; 2
    2d94:	c9 f0       	breq	.+50     	; 0x2dc8 <ClockHour_ActionCallback+0x40>
    2d96:	93 30       	cpi	r25, 0x03	; 3
    2d98:	01 f1       	breq	.+64     	; 0x2dda <ClockHour_ActionCallback+0x52>
    2d9a:	1a c0       	rjmp	.+52     	; 0x2dd0 <ClockHour_ActionCallback+0x48>
		case MENU_UP:
			if (++Hour == 24)
    2d9c:	80 91 ad 05 	lds	r24, 0x05AD	; 0x8005ad <Hour>
    2da0:	8f 5f       	subi	r24, 0xFF	; 255
    2da2:	88 31       	cpi	r24, 0x18	; 24
    2da4:	19 f0       	breq	.+6      	; 0x2dac <ClockHour_ActionCallback+0x24>
    2da6:	80 93 ad 05 	sts	0x05AD, r24	; 0x8005ad <Hour>
    2daa:	12 c0       	rjmp	.+36     	; 0x2dd0 <ClockHour_ActionCallback+0x48>
				Hour = 0;
    2dac:	10 92 ad 05 	sts	0x05AD, r1	; 0x8005ad <Hour>
    2db0:	0f c0       	rjmp	.+30     	; 0x2dd0 <ClockHour_ActionCallback+0x48>
			break;
		case MENU_DOWN:
			if (--Hour == 255)
    2db2:	80 91 ad 05 	lds	r24, 0x05AD	; 0x8005ad <Hour>
    2db6:	81 50       	subi	r24, 0x01	; 1
    2db8:	18 f0       	brcs	.+6      	; 0x2dc0 <ClockHour_ActionCallback+0x38>
    2dba:	80 93 ad 05 	sts	0x05AD, r24	; 0x8005ad <Hour>
    2dbe:	08 c0       	rjmp	.+16     	; 0x2dd0 <ClockHour_ActionCallback+0x48>
				Hour = 23;
    2dc0:	87 e1       	ldi	r24, 0x17	; 23
    2dc2:	80 93 ad 05 	sts	0x05AD, r24	; 0x8005ad <Hour>
    2dc6:	04 c0       	rjmp	.+8      	; 0x2dd0 <ClockHour_ActionCallback+0x48>
			break;
		case MENU_CONFIRM:
			ClockInitialized = 1;
    2dc8:	81 e0       	ldi	r24, 0x01	; 1
    2dca:	80 93 aa 05 	sts	0x05AA, r24	; 0x8005aa <ClockInitialized>
			return true;
    2dce:	08 95       	ret
    2dd0:	86 2f       	mov	r24, r22
		case MENU_CANCEL:
			return true;
	}

	ClockHour_CallbackRender(column);
    2dd2:	0e 94 a1 16 	call	0x2d42	; 0x2d42 <ClockHour_CallbackRender>
	return false;
    2dd6:	80 e0       	ldi	r24, 0x00	; 0
    2dd8:	08 95       	ret
			break;
		case MENU_CONFIRM:
			ClockInitialized = 1;
			return true;
		case MENU_CANCEL:
			return true;
    2dda:	81 e0       	ldi	r24, 0x01	; 1
	}

	ClockHour_CallbackRender(column);
	return false;
}
    2ddc:	08 95       	ret

00002dde <ClockYear_CallbackRender>:

	ClockMinute_CallbackRender(column);
	return false;
}

void ClockYear_CallbackRender(uint8_t which){
    2dde:	cf 93       	push	r28
    2de0:	df 93       	push	r29
    2de2:	00 d0       	rcall	.+0      	; 0x2de4 <ClockYear_CallbackRender+0x6>
    2de4:	00 d0       	rcall	.+0      	; 0x2de6 <ClockYear_CallbackRender+0x8>
    2de6:	1f 92       	push	r1
    2de8:	cd b7       	in	r28, 0x3d	; 61
    2dea:	de b7       	in	r29, 0x3e	; 62
	lcd_clrscr();
    2dec:	0e 94 cb 09 	call	0x1396	; 0x1396 <lcd_clrscr>
	lcd_puts_hu(PSTR("v"));
    2df0:	83 e2       	ldi	r24, 0x23	; 35
    2df2:	95 e0       	ldi	r25, 0x05	; 5
    2df4:	0e 94 b6 0a 	call	0x156c	; 0x156c <lcd_puts_hu>
	lcd_gotoxy(0,1);
    2df8:	61 e0       	ldi	r22, 0x01	; 1
    2dfa:	80 e0       	ldi	r24, 0x00	; 0
    2dfc:	0e 94 b5 09 	call	0x136a	; 0x136a <lcd_gotoxy>
    2e00:	4a e0       	ldi	r20, 0x0A	; 10
    2e02:	be 01       	movw	r22, r28
    2e04:	6f 5f       	subi	r22, 0xFF	; 255
    2e06:	7f 4f       	sbci	r23, 0xFF	; 255
    2e08:	80 91 03 01 	lds	r24, 0x0103	; 0x800103 <Year>
    2e0c:	90 91 04 01 	lds	r25, 0x0104	; 0x800104 <Year+0x1>
    2e10:	0e 94 a4 22 	call	0x4548	; 0x4548 <__itoa_ncheck>
	char buf[5];
	itoa(Year, buf, 10);
	lcd_puts(buf);
    2e14:	ce 01       	movw	r24, r28
    2e16:	01 96       	adiw	r24, 0x01	; 1
    2e18:	0e 94 84 0a 	call	0x1508	; 0x1508 <lcd_puts>
}
    2e1c:	0f 90       	pop	r0
    2e1e:	0f 90       	pop	r0
    2e20:	0f 90       	pop	r0
    2e22:	0f 90       	pop	r0
    2e24:	0f 90       	pop	r0
    2e26:	df 91       	pop	r29
    2e28:	cf 91       	pop	r28
    2e2a:	08 95       	ret

00002e2c <ClockYear_ActionCallback>:

bool ClockYear_ActionCallback(MENU_BUTTON *button, uint8_t column){
	switch(button->role){
    2e2c:	fc 01       	movw	r30, r24
    2e2e:	80 81       	ld	r24, Z
    2e30:	81 30       	cpi	r24, 0x01	; 1
    2e32:	71 f0       	breq	.+28     	; 0x2e50 <ClockYear_ActionCallback+0x24>
    2e34:	18 f0       	brcs	.+6      	; 0x2e3c <ClockYear_ActionCallback+0x10>
    2e36:	84 30       	cpi	r24, 0x04	; 4
    2e38:	a0 f4       	brcc	.+40     	; 0x2e62 <ClockYear_ActionCallback+0x36>
    2e3a:	18 c0       	rjmp	.+48     	; 0x2e6c <ClockYear_ActionCallback+0x40>
		case MENU_UP:
			Year++;
    2e3c:	80 91 03 01 	lds	r24, 0x0103	; 0x800103 <Year>
    2e40:	90 91 04 01 	lds	r25, 0x0104	; 0x800104 <Year+0x1>
    2e44:	01 96       	adiw	r24, 0x01	; 1
    2e46:	90 93 04 01 	sts	0x0104, r25	; 0x800104 <Year+0x1>
    2e4a:	80 93 03 01 	sts	0x0103, r24	; 0x800103 <Year>
			break;
    2e4e:	09 c0       	rjmp	.+18     	; 0x2e62 <ClockYear_ActionCallback+0x36>
		case MENU_DOWN:
			Year--;
    2e50:	80 91 03 01 	lds	r24, 0x0103	; 0x800103 <Year>
    2e54:	90 91 04 01 	lds	r25, 0x0104	; 0x800104 <Year+0x1>
    2e58:	01 97       	sbiw	r24, 0x01	; 1
    2e5a:	90 93 04 01 	sts	0x0104, r25	; 0x800104 <Year+0x1>
    2e5e:	80 93 03 01 	sts	0x0103, r24	; 0x800103 <Year>
    2e62:	86 2f       	mov	r24, r22
		case MENU_CONFIRM:
		case MENU_CANCEL:
			return true;
	}

	ClockYear_CallbackRender(column);
    2e64:	0e 94 ef 16 	call	0x2dde	; 0x2dde <ClockYear_CallbackRender>
	return false;
    2e68:	80 e0       	ldi	r24, 0x00	; 0
    2e6a:	08 95       	ret
		case MENU_DOWN:
			Year--;
			break;
		case MENU_CONFIRM:
		case MENU_CANCEL:
			return true;
    2e6c:	81 e0       	ldi	r24, 0x01	; 1
	}

	ClockYear_CallbackRender(column);
	return false;
}
    2e6e:	08 95       	ret

00002e70 <ClockMonth_CallbackRender>:

void ClockMonth_CallbackRender(uint8_t which){
    2e70:	cf 93       	push	r28
    2e72:	df 93       	push	r29
    2e74:	00 d0       	rcall	.+0      	; 0x2e76 <ClockMonth_CallbackRender+0x6>
    2e76:	1f 92       	push	r1
    2e78:	cd b7       	in	r28, 0x3d	; 61
    2e7a:	de b7       	in	r29, 0x3e	; 62
	lcd_clrscr();
    2e7c:	0e 94 cb 09 	call	0x1396	; 0x1396 <lcd_clrscr>
	lcd_puts_hu(PSTR("hnap"));
    2e80:	8d e1       	ldi	r24, 0x1D	; 29
    2e82:	95 e0       	ldi	r25, 0x05	; 5
    2e84:	0e 94 b6 0a 	call	0x156c	; 0x156c <lcd_puts_hu>
	lcd_gotoxy(0,1);
    2e88:	61 e0       	ldi	r22, 0x01	; 1
    2e8a:	80 e0       	ldi	r24, 0x00	; 0
    2e8c:	0e 94 b5 09 	call	0x136a	; 0x136a <lcd_gotoxy>
    2e90:	80 91 02 01 	lds	r24, 0x0102	; 0x800102 <Month>
    2e94:	4a e0       	ldi	r20, 0x0A	; 10
    2e96:	be 01       	movw	r22, r28
    2e98:	6f 5f       	subi	r22, 0xFF	; 255
    2e9a:	7f 4f       	sbci	r23, 0xFF	; 255
    2e9c:	90 e0       	ldi	r25, 0x00	; 0
    2e9e:	0e 94 a4 22 	call	0x4548	; 0x4548 <__itoa_ncheck>
	char buf[3];
	itoa(Month, buf, 10);
	lcd_puts(buf);
    2ea2:	ce 01       	movw	r24, r28
    2ea4:	01 96       	adiw	r24, 0x01	; 1
    2ea6:	0e 94 84 0a 	call	0x1508	; 0x1508 <lcd_puts>
}
    2eaa:	0f 90       	pop	r0
    2eac:	0f 90       	pop	r0
    2eae:	0f 90       	pop	r0
    2eb0:	df 91       	pop	r29
    2eb2:	cf 91       	pop	r28
    2eb4:	08 95       	ret

00002eb6 <ClockMonth_ActionCallback>:

bool ClockMonth_ActionCallback(MENU_BUTTON *button, uint8_t column){
	switch(button->role){
    2eb6:	fc 01       	movw	r30, r24
    2eb8:	80 81       	ld	r24, Z
    2eba:	81 30       	cpi	r24, 0x01	; 1
    2ebc:	81 f0       	breq	.+32     	; 0x2ede <ClockMonth_ActionCallback+0x28>
    2ebe:	18 f0       	brcs	.+6      	; 0x2ec6 <ClockMonth_ActionCallback+0x10>
    2ec0:	84 30       	cpi	r24, 0x04	; 4
    2ec2:	b8 f4       	brcc	.+46     	; 0x2ef2 <ClockMonth_ActionCallback+0x3c>
    2ec4:	1b c0       	rjmp	.+54     	; 0x2efc <ClockMonth_ActionCallback+0x46>
		case MENU_UP:
			if (++Month == 13)
    2ec6:	80 91 02 01 	lds	r24, 0x0102	; 0x800102 <Month>
    2eca:	8f 5f       	subi	r24, 0xFF	; 255
    2ecc:	8d 30       	cpi	r24, 0x0D	; 13
    2ece:	19 f0       	breq	.+6      	; 0x2ed6 <ClockMonth_ActionCallback+0x20>
    2ed0:	80 93 02 01 	sts	0x0102, r24	; 0x800102 <Month>
    2ed4:	0e c0       	rjmp	.+28     	; 0x2ef2 <ClockMonth_ActionCallback+0x3c>
				Month = 1;
    2ed6:	81 e0       	ldi	r24, 0x01	; 1
    2ed8:	80 93 02 01 	sts	0x0102, r24	; 0x800102 <Month>
    2edc:	0a c0       	rjmp	.+20     	; 0x2ef2 <ClockMonth_ActionCallback+0x3c>
			break;
		case MENU_DOWN:
			if (--Month == 0)
    2ede:	80 91 02 01 	lds	r24, 0x0102	; 0x800102 <Month>
    2ee2:	81 50       	subi	r24, 0x01	; 1
    2ee4:	19 f0       	breq	.+6      	; 0x2eec <ClockMonth_ActionCallback+0x36>
    2ee6:	80 93 02 01 	sts	0x0102, r24	; 0x800102 <Month>
    2eea:	03 c0       	rjmp	.+6      	; 0x2ef2 <ClockMonth_ActionCallback+0x3c>
			Month = 12;
    2eec:	8c e0       	ldi	r24, 0x0C	; 12
    2eee:	80 93 02 01 	sts	0x0102, r24	; 0x800102 <Month>
    2ef2:	86 2f       	mov	r24, r22
		case MENU_CONFIRM:
		case MENU_CANCEL:
			return true;
	}

	ClockMonth_CallbackRender(column);
    2ef4:	0e 94 38 17 	call	0x2e70	; 0x2e70 <ClockMonth_CallbackRender>
	return false;
    2ef8:	80 e0       	ldi	r24, 0x00	; 0
    2efa:	08 95       	ret
			if (--Month == 0)
			Month = 12;
			break;
		case MENU_CONFIRM:
		case MENU_CANCEL:
			return true;
    2efc:	81 e0       	ldi	r24, 0x01	; 1
	}

	ClockMonth_CallbackRender(column);
	return false;
}
    2efe:	08 95       	ret

00002f00 <ClockDay_CallbackRender>:

void ClockDay_CallbackRender(uint8_t which){
    2f00:	cf 93       	push	r28
    2f02:	df 93       	push	r29
    2f04:	00 d0       	rcall	.+0      	; 0x2f06 <ClockDay_CallbackRender+0x6>
    2f06:	1f 92       	push	r1
    2f08:	cd b7       	in	r28, 0x3d	; 61
    2f0a:	de b7       	in	r29, 0x3e	; 62
	lcd_clrscr();
    2f0c:	0e 94 cb 09 	call	0x1396	; 0x1396 <lcd_clrscr>
	lcd_puts_hu(PSTR("nap"));
    2f10:	89 e1       	ldi	r24, 0x19	; 25
    2f12:	95 e0       	ldi	r25, 0x05	; 5
    2f14:	0e 94 b6 0a 	call	0x156c	; 0x156c <lcd_puts_hu>
	lcd_gotoxy(0,1);
    2f18:	61 e0       	ldi	r22, 0x01	; 1
    2f1a:	80 e0       	ldi	r24, 0x00	; 0
    2f1c:	0e 94 b5 09 	call	0x136a	; 0x136a <lcd_gotoxy>
    2f20:	80 91 01 01 	lds	r24, 0x0101	; 0x800101 <Day>
    2f24:	4a e0       	ldi	r20, 0x0A	; 10
    2f26:	be 01       	movw	r22, r28
    2f28:	6f 5f       	subi	r22, 0xFF	; 255
    2f2a:	7f 4f       	sbci	r23, 0xFF	; 255
    2f2c:	90 e0       	ldi	r25, 0x00	; 0
    2f2e:	0e 94 a4 22 	call	0x4548	; 0x4548 <__itoa_ncheck>
	char buf[3];
	itoa(Day, buf, 10);
	lcd_puts(buf);
    2f32:	ce 01       	movw	r24, r28
    2f34:	01 96       	adiw	r24, 0x01	; 1
    2f36:	0e 94 84 0a 	call	0x1508	; 0x1508 <lcd_puts>
}
    2f3a:	0f 90       	pop	r0
    2f3c:	0f 90       	pop	r0
    2f3e:	0f 90       	pop	r0
    2f40:	df 91       	pop	r29
    2f42:	cf 91       	pop	r28
    2f44:	08 95       	ret

00002f46 <ClockDay_ActionCallback>:

bool ClockDay_ActionCallback(MENU_BUTTON *button, uint8_t column){
	switch(button->role){
    2f46:	fc 01       	movw	r30, r24
    2f48:	80 81       	ld	r24, Z
    2f4a:	81 30       	cpi	r24, 0x01	; 1
    2f4c:	81 f0       	breq	.+32     	; 0x2f6e <ClockDay_ActionCallback+0x28>
    2f4e:	18 f0       	brcs	.+6      	; 0x2f56 <ClockDay_ActionCallback+0x10>
    2f50:	84 30       	cpi	r24, 0x04	; 4
    2f52:	b8 f4       	brcc	.+46     	; 0x2f82 <ClockDay_ActionCallback+0x3c>
    2f54:	1b c0       	rjmp	.+54     	; 0x2f8c <ClockDay_ActionCallback+0x46>
		case MENU_UP:
			if (++Day == 32)
    2f56:	80 91 01 01 	lds	r24, 0x0101	; 0x800101 <Day>
    2f5a:	8f 5f       	subi	r24, 0xFF	; 255
    2f5c:	80 32       	cpi	r24, 0x20	; 32
    2f5e:	19 f0       	breq	.+6      	; 0x2f66 <ClockDay_ActionCallback+0x20>
    2f60:	80 93 01 01 	sts	0x0101, r24	; 0x800101 <Day>
    2f64:	0e c0       	rjmp	.+28     	; 0x2f82 <ClockDay_ActionCallback+0x3c>
				Day = 1;
    2f66:	81 e0       	ldi	r24, 0x01	; 1
    2f68:	80 93 01 01 	sts	0x0101, r24	; 0x800101 <Day>
    2f6c:	0a c0       	rjmp	.+20     	; 0x2f82 <ClockDay_ActionCallback+0x3c>
			break;
		case MENU_DOWN:
			if (--Day == 0)
    2f6e:	80 91 01 01 	lds	r24, 0x0101	; 0x800101 <Day>
    2f72:	81 50       	subi	r24, 0x01	; 1
    2f74:	80 93 01 01 	sts	0x0101, r24	; 0x800101 <Day>
    2f78:	81 11       	cpse	r24, r1
    2f7a:	03 c0       	rjmp	.+6      	; 0x2f82 <ClockDay_ActionCallback+0x3c>
			Minute = 31;
    2f7c:	8f e1       	ldi	r24, 0x1F	; 31
    2f7e:	80 93 ac 05 	sts	0x05AC, r24	; 0x8005ac <Minute>
    2f82:	86 2f       	mov	r24, r22
		case MENU_CONFIRM:
		case MENU_CANCEL:
			return true;
	}

	ClockDay_CallbackRender(column);
    2f84:	0e 94 80 17 	call	0x2f00	; 0x2f00 <ClockDay_CallbackRender>
	return false;
    2f88:	80 e0       	ldi	r24, 0x00	; 0
    2f8a:	08 95       	ret
			if (--Day == 0)
			Minute = 31;
			break;
		case MENU_CONFIRM:
		case MENU_CANCEL:
			return true;
    2f8c:	81 e0       	ldi	r24, 0x01	; 1
	}

	ClockDay_CallbackRender(column);
	return false;
}
    2f8e:	08 95       	ret

00002f90 <ComfortMode_CallbackRender>:
	{"nap", 			ClockDay_CallbackRender,		ClockDay_ActionCallback,		0,	NULL},
	{"nap neve", 		ClockDayName_CallbackRender,	ClockDayName_ActionCallback,	0,	NULL},
};


void ComfortMode_CallbackRender(uint8_t which){
    2f90:	cf 93       	push	r28
    2f92:	df 93       	push	r29
    2f94:	00 d0       	rcall	.+0      	; 0x2f96 <ComfortMode_CallbackRender+0x6>
    2f96:	cd b7       	in	r28, 0x3d	; 61
    2f98:	de b7       	in	r29, 0x3e	; 62
	lcd_clrscr();
    2f9a:	0e 94 cb 09 	call	0x1396	; 0x1396 <lcd_clrscr>
	lcd_puts_hu(PSTR("Komfort md"));
    2f9e:	81 ed       	ldi	r24, 0xD1	; 209
    2fa0:	94 e0       	ldi	r25, 0x04	; 4
    2fa2:	0e 94 b6 0a 	call	0x156c	; 0x156c <lcd_puts_hu>
	lcd_gotoxy(0,1);
    2fa6:	61 e0       	ldi	r22, 0x01	; 1
    2fa8:	80 e0       	ldi	r24, 0x00	; 0
    2faa:	0e 94 b5 09 	call	0x136a	; 0x136a <lcd_gotoxy>
    2fae:	80 91 b0 05 	lds	r24, 0x05B0	; 0x8005b0 <ComfortMode>
    2fb2:	4a e0       	ldi	r20, 0x0A	; 10
    2fb4:	be 01       	movw	r22, r28
    2fb6:	6f 5f       	subi	r22, 0xFF	; 255
    2fb8:	7f 4f       	sbci	r23, 0xFF	; 255
    2fba:	90 e0       	ldi	r25, 0x00	; 0
    2fbc:	0e 94 a4 22 	call	0x4548	; 0x4548 <__itoa_ncheck>
	char buf[2];
	itoa(ComfortMode, buf, 10);
	lcd_puts(buf);
    2fc0:	ce 01       	movw	r24, r28
    2fc2:	01 96       	adiw	r24, 0x01	; 1
    2fc4:	0e 94 84 0a 	call	0x1508	; 0x1508 <lcd_puts>
}
    2fc8:	0f 90       	pop	r0
    2fca:	0f 90       	pop	r0
    2fcc:	df 91       	pop	r29
    2fce:	cf 91       	pop	r28
    2fd0:	08 95       	ret

00002fd2 <ComfortTemp_CallbackRender>:

	ComfortMode_CallbackRender(column);
	return false;
}

void ComfortTemp_CallbackRender(uint8_t which){
    2fd2:	cf 93       	push	r28
    2fd4:	df 93       	push	r29
    2fd6:	00 d0       	rcall	.+0      	; 0x2fd8 <ComfortTemp_CallbackRender+0x6>
    2fd8:	00 d0       	rcall	.+0      	; 0x2fda <ComfortTemp_CallbackRender+0x8>
    2fda:	cd b7       	in	r28, 0x3d	; 61
    2fdc:	de b7       	in	r29, 0x3e	; 62
	lcd_clrscr();
    2fde:	0e 94 cb 09 	call	0x1396	; 0x1396 <lcd_clrscr>
	lcd_puts_hu(PSTR("Komfort hm"));
    2fe2:	85 ec       	ldi	r24, 0xC5	; 197
    2fe4:	94 e0       	ldi	r25, 0x04	; 4
    2fe6:	0e 94 b6 0a 	call	0x156c	; 0x156c <lcd_puts_hu>
	lcd_gotoxy(0,1);
    2fea:	61 e0       	ldi	r22, 0x01	; 1
    2fec:	80 e0       	ldi	r24, 0x00	; 0
    2fee:	0e 94 b5 09 	call	0x136a	; 0x136a <lcd_gotoxy>
    2ff2:	80 91 0c 01 	lds	r24, 0x010C	; 0x80010c <ComfortTemp>
    2ff6:	4a e0       	ldi	r20, 0x0A	; 10
    2ff8:	be 01       	movw	r22, r28
    2ffa:	6f 5f       	subi	r22, 0xFF	; 255
    2ffc:	7f 4f       	sbci	r23, 0xFF	; 255
    2ffe:	90 e0       	ldi	r25, 0x00	; 0
    3000:	0e 94 a4 22 	call	0x4548	; 0x4548 <__itoa_ncheck>
	char buf[4];
	itoa(ComfortTemp, buf, 10);
	lcd_puts(buf);
    3004:	ce 01       	movw	r24, r28
    3006:	01 96       	adiw	r24, 0x01	; 1
    3008:	0e 94 84 0a 	call	0x1508	; 0x1508 <lcd_puts>
}
    300c:	0f 90       	pop	r0
    300e:	0f 90       	pop	r0
    3010:	0f 90       	pop	r0
    3012:	0f 90       	pop	r0
    3014:	df 91       	pop	r29
    3016:	cf 91       	pop	r28
    3018:	08 95       	ret

0000301a <ComfortForwardTemp_CallbackRender>:

	ComfortTemp_CallbackRender(column);
	return false;
}

void ComfortForwardTemp_CallbackRender(uint8_t which){
    301a:	cf 93       	push	r28
    301c:	df 93       	push	r29
    301e:	00 d0       	rcall	.+0      	; 0x3020 <ComfortForwardTemp_CallbackRender+0x6>
    3020:	00 d0       	rcall	.+0      	; 0x3022 <ComfortForwardTemp_CallbackRender+0x8>
    3022:	cd b7       	in	r28, 0x3d	; 61
    3024:	de b7       	in	r29, 0x3e	; 62
	lcd_clrscr();
    3026:	0e 94 cb 09 	call	0x1396	; 0x1396 <lcd_clrscr>
	lcd_puts_hu(PSTR("Komfort elremen"));
    302a:	83 eb       	ldi	r24, 0xB3	; 179
    302c:	94 e0       	ldi	r25, 0x04	; 4
    302e:	0e 94 b6 0a 	call	0x156c	; 0x156c <lcd_puts_hu>
	lcd_gotoxy(0,1);
    3032:	61 e0       	ldi	r22, 0x01	; 1
    3034:	80 e0       	ldi	r24, 0x00	; 0
    3036:	0e 94 b5 09 	call	0x136a	; 0x136a <lcd_gotoxy>
    303a:	80 91 0c 01 	lds	r24, 0x010C	; 0x80010c <ComfortTemp>
    303e:	4a e0       	ldi	r20, 0x0A	; 10
    3040:	be 01       	movw	r22, r28
    3042:	6f 5f       	subi	r22, 0xFF	; 255
    3044:	7f 4f       	sbci	r23, 0xFF	; 255
    3046:	90 e0       	ldi	r25, 0x00	; 0
    3048:	0e 94 a4 22 	call	0x4548	; 0x4548 <__itoa_ncheck>
	char buf[4];
	itoa(ComfortTemp, buf, 10);
	lcd_puts(buf);
    304c:	ce 01       	movw	r24, r28
    304e:	01 96       	adiw	r24, 0x01	; 1
    3050:	0e 94 84 0a 	call	0x1508	; 0x1508 <lcd_puts>
}
    3054:	0f 90       	pop	r0
    3056:	0f 90       	pop	r0
    3058:	0f 90       	pop	r0
    305a:	0f 90       	pop	r0
    305c:	df 91       	pop	r29
    305e:	cf 91       	pop	r28
    3060:	08 95       	ret

00003062 <SwitchOnOutdoorTempMin_ActionCallback>:
	itoa(SwitchOnOutdoorTempMin, buf, 10);
	lcd_puts(buf);
}

bool SwitchOnOutdoorTempMin_ActionCallback(MENU_BUTTON *button, uint8_t column){
	switch(button->role){
    3062:	fc 01       	movw	r30, r24
    3064:	90 81       	ld	r25, Z
    3066:	91 30       	cpi	r25, 0x01	; 1
    3068:	d9 f0       	breq	.+54     	; 0x30a0 <SwitchOnOutdoorTempMin_ActionCallback+0x3e>
    306a:	28 f0       	brcs	.+10     	; 0x3076 <SwitchOnOutdoorTempMin_ActionCallback+0x14>
    306c:	92 30       	cpi	r25, 0x02	; 2
    306e:	69 f1       	breq	.+90     	; 0x30ca <SwitchOnOutdoorTempMin_ActionCallback+0x68>
    3070:	93 30       	cpi	r25, 0x03	; 3
    3072:	d1 f1       	breq	.+116    	; 0x30e8 <SwitchOnOutdoorTempMin_ActionCallback+0x86>
    3074:	34 c0       	rjmp	.+104    	; 0x30de <SwitchOnOutdoorTempMin_ActionCallback+0x7c>
		case MENU_UP:
			if (SwitchOnOutdoorTempMin > 3490)
    3076:	80 91 7a 06 	lds	r24, 0x067A	; 0x80067a <SwitchOnOutdoorTempMin>
    307a:	90 91 7b 06 	lds	r25, 0x067B	; 0x80067b <SwitchOnOutdoorTempMin+0x1>
    307e:	83 3a       	cpi	r24, 0xA3	; 163
    3080:	fd e0       	ldi	r31, 0x0D	; 13
    3082:	9f 07       	cpc	r25, r31
    3084:	38 f0       	brcs	.+14     	; 0x3094 <SwitchOnOutdoorTempMin_ActionCallback+0x32>
				SwitchOnOutdoorTempMin = 310;
    3086:	86 e3       	ldi	r24, 0x36	; 54
    3088:	91 e0       	ldi	r25, 0x01	; 1
    308a:	90 93 7b 06 	sts	0x067B, r25	; 0x80067b <SwitchOnOutdoorTempMin+0x1>
    308e:	80 93 7a 06 	sts	0x067A, r24	; 0x80067a <SwitchOnOutdoorTempMin>
    3092:	25 c0       	rjmp	.+74     	; 0x30de <SwitchOnOutdoorTempMin_ActionCallback+0x7c>
			else
				SwitchOnOutdoorTempMin += 10;
    3094:	0a 96       	adiw	r24, 0x0a	; 10
    3096:	90 93 7b 06 	sts	0x067B, r25	; 0x80067b <SwitchOnOutdoorTempMin+0x1>
    309a:	80 93 7a 06 	sts	0x067A, r24	; 0x80067a <SwitchOnOutdoorTempMin>
    309e:	1f c0       	rjmp	.+62     	; 0x30de <SwitchOnOutdoorTempMin_ActionCallback+0x7c>
			break;
		case MENU_DOWN:
			if (SwitchOnOutdoorTempMin > 310)
    30a0:	80 91 7a 06 	lds	r24, 0x067A	; 0x80067a <SwitchOnOutdoorTempMin>
    30a4:	90 91 7b 06 	lds	r25, 0x067B	; 0x80067b <SwitchOnOutdoorTempMin+0x1>
    30a8:	87 33       	cpi	r24, 0x37	; 55
    30aa:	21 e0       	ldi	r18, 0x01	; 1
    30ac:	92 07       	cpc	r25, r18
    30ae:	30 f0       	brcs	.+12     	; 0x30bc <SwitchOnOutdoorTempMin_ActionCallback+0x5a>
				SwitchOnOutdoorTempMin -= 10;
    30b0:	0a 97       	sbiw	r24, 0x0a	; 10
    30b2:	90 93 7b 06 	sts	0x067B, r25	; 0x80067b <SwitchOnOutdoorTempMin+0x1>
    30b6:	80 93 7a 06 	sts	0x067A, r24	; 0x80067a <SwitchOnOutdoorTempMin>
    30ba:	11 c0       	rjmp	.+34     	; 0x30de <SwitchOnOutdoorTempMin_ActionCallback+0x7c>
			else
				SwitchOnOutdoorTempMin = 3500;
    30bc:	8c ea       	ldi	r24, 0xAC	; 172
    30be:	9d e0       	ldi	r25, 0x0D	; 13
    30c0:	90 93 7b 06 	sts	0x067B, r25	; 0x80067b <SwitchOnOutdoorTempMin+0x1>
    30c4:	80 93 7a 06 	sts	0x067A, r24	; 0x80067a <SwitchOnOutdoorTempMin>
    30c8:	0a c0       	rjmp	.+20     	; 0x30de <SwitchOnOutdoorTempMin_ActionCallback+0x7c>
			break;
		case MENU_CONFIRM:
			eeprom_update_word(&eeSwitchOnOutdoorTempMin, SwitchOnOutdoorTempMin);
    30ca:	60 91 7a 06 	lds	r22, 0x067A	; 0x80067a <SwitchOnOutdoorTempMin>
    30ce:	70 91 7b 06 	lds	r23, 0x067B	; 0x80067b <SwitchOnOutdoorTempMin+0x1>
    30d2:	86 e0       	ldi	r24, 0x06	; 6
    30d4:	90 e0       	ldi	r25, 0x00	; 0
    30d6:	0e 94 f8 22 	call	0x45f0	; 0x45f0 <eeprom_update_word>
			return true;
    30da:	81 e0       	ldi	r24, 0x01	; 1
    30dc:	08 95       	ret
		case MENU_CANCEL:
			return true;
	}

	SwitchOnOutdoorTempMin_CallbackRender(column);
    30de:	86 2f       	mov	r24, r22
    30e0:	0e 94 0d 14 	call	0x281a	; 0x281a <SwitchOnOutdoorTempMin_CallbackRender>
	return false;
    30e4:	80 e0       	ldi	r24, 0x00	; 0
    30e6:	08 95       	ret
			break;
		case MENU_CONFIRM:
			eeprom_update_word(&eeSwitchOnOutdoorTempMin, SwitchOnOutdoorTempMin);
			return true;
		case MENU_CANCEL:
			return true;
    30e8:	81 e0       	ldi	r24, 0x01	; 1
	}

	SwitchOnOutdoorTempMin_CallbackRender(column);
	return false;
}
    30ea:	08 95       	ret

000030ec <DHWMinTime_ActionCallback>:
	itoa(DHWMinTime, buf, 10);
	lcd_puts(buf);
}

bool DHWMinTime_ActionCallback(MENU_BUTTON *button, uint8_t column){
	switch(button->role){
    30ec:	fc 01       	movw	r30, r24
    30ee:	90 81       	ld	r25, Z
    30f0:	91 30       	cpi	r25, 0x01	; 1
    30f2:	c9 f0       	breq	.+50     	; 0x3126 <DHWMinTime_ActionCallback+0x3a>
    30f4:	28 f0       	brcs	.+10     	; 0x3100 <DHWMinTime_ActionCallback+0x14>
    30f6:	92 30       	cpi	r25, 0x02	; 2
    30f8:	59 f1       	breq	.+86     	; 0x3150 <DHWMinTime_ActionCallback+0x64>
    30fa:	93 30       	cpi	r25, 0x03	; 3
    30fc:	c1 f1       	breq	.+112    	; 0x316e <DHWMinTime_ActionCallback+0x82>
    30fe:	32 c0       	rjmp	.+100    	; 0x3164 <DHWMinTime_ActionCallback+0x78>
		case MENU_UP:
			if (DHWMinTime < 2340)
    3100:	80 91 94 06 	lds	r24, 0x0694	; 0x800694 <DHWMinTime>
    3104:	90 91 95 06 	lds	r25, 0x0695	; 0x800695 <DHWMinTime+0x1>
    3108:	84 32       	cpi	r24, 0x24	; 36
    310a:	f9 e0       	ldi	r31, 0x09	; 9
    310c:	9f 07       	cpc	r25, r31
    310e:	30 f4       	brcc	.+12     	; 0x311c <DHWMinTime_ActionCallback+0x30>
				DHWMinTime += 10;
    3110:	0a 96       	adiw	r24, 0x0a	; 10
    3112:	90 93 95 06 	sts	0x0695, r25	; 0x800695 <DHWMinTime+0x1>
    3116:	80 93 94 06 	sts	0x0694, r24	; 0x800694 <DHWMinTime>
    311a:	24 c0       	rjmp	.+72     	; 0x3164 <DHWMinTime_ActionCallback+0x78>
			else
				DHWMinTime = 0;
    311c:	10 92 95 06 	sts	0x0695, r1	; 0x800695 <DHWMinTime+0x1>
    3120:	10 92 94 06 	sts	0x0694, r1	; 0x800694 <DHWMinTime>
    3124:	1f c0       	rjmp	.+62     	; 0x3164 <DHWMinTime_ActionCallback+0x78>
			break;
		case MENU_DOWN:
			if (DHWMinTime > 65525)
    3126:	80 91 94 06 	lds	r24, 0x0694	; 0x800694 <DHWMinTime>
    312a:	90 91 95 06 	lds	r25, 0x0695	; 0x800695 <DHWMinTime+0x1>
    312e:	86 3f       	cpi	r24, 0xF6	; 246
    3130:	2f ef       	ldi	r18, 0xFF	; 255
    3132:	92 07       	cpc	r25, r18
    3134:	38 f0       	brcs	.+14     	; 0x3144 <DHWMinTime_ActionCallback+0x58>
				DHWMinTime = 2350;
    3136:	8e e2       	ldi	r24, 0x2E	; 46
    3138:	99 e0       	ldi	r25, 0x09	; 9
    313a:	90 93 95 06 	sts	0x0695, r25	; 0x800695 <DHWMinTime+0x1>
    313e:	80 93 94 06 	sts	0x0694, r24	; 0x800694 <DHWMinTime>
    3142:	10 c0       	rjmp	.+32     	; 0x3164 <DHWMinTime_ActionCallback+0x78>
			else
				DHWMinTime -= 10;
    3144:	0a 97       	sbiw	r24, 0x0a	; 10
    3146:	90 93 95 06 	sts	0x0695, r25	; 0x800695 <DHWMinTime+0x1>
    314a:	80 93 94 06 	sts	0x0694, r24	; 0x800694 <DHWMinTime>
    314e:	0a c0       	rjmp	.+20     	; 0x3164 <DHWMinTime_ActionCallback+0x78>
			break;
		case MENU_CONFIRM:
		eeprom_update_word(&eeDHWMinTime, DHWMinTime);
    3150:	60 91 94 06 	lds	r22, 0x0694	; 0x800694 <DHWMinTime>
    3154:	70 91 95 06 	lds	r23, 0x0695	; 0x800695 <DHWMinTime+0x1>
    3158:	8d e0       	ldi	r24, 0x0D	; 13
    315a:	90 e0       	ldi	r25, 0x00	; 0
    315c:	0e 94 f8 22 	call	0x45f0	; 0x45f0 <eeprom_update_word>
		case MENU_CANCEL:
		return true;
    3160:	81 e0       	ldi	r24, 0x01	; 1
    3162:	08 95       	ret
	}

	DHWMinTime_CallbackRender(column);
    3164:	86 2f       	mov	r24, r22
    3166:	0e 94 a0 14 	call	0x2940	; 0x2940 <DHWMinTime_CallbackRender>
	return false;
    316a:	80 e0       	ldi	r24, 0x00	; 0
    316c:	08 95       	ret
				DHWMinTime -= 10;
			break;
		case MENU_CONFIRM:
		eeprom_update_word(&eeDHWMinTime, DHWMinTime);
		case MENU_CANCEL:
		return true;
    316e:	81 e0       	ldi	r24, 0x01	; 1
	}

	DHWMinTime_CallbackRender(column);
	return false;
}
    3170:	08 95       	ret

00003172 <DHWMaxTime_ActionCallback>:
	itoa(DHWMaxTime, buf, 10);
	lcd_puts(buf);
}

bool DHWMaxTime_ActionCallback(MENU_BUTTON *button, uint8_t column){
	switch(button->role){
    3172:	fc 01       	movw	r30, r24
    3174:	90 81       	ld	r25, Z
    3176:	91 30       	cpi	r25, 0x01	; 1
    3178:	c9 f0       	breq	.+50     	; 0x31ac <DHWMaxTime_ActionCallback+0x3a>
    317a:	28 f0       	brcs	.+10     	; 0x3186 <DHWMaxTime_ActionCallback+0x14>
    317c:	92 30       	cpi	r25, 0x02	; 2
    317e:	59 f1       	breq	.+86     	; 0x31d6 <DHWMaxTime_ActionCallback+0x64>
    3180:	93 30       	cpi	r25, 0x03	; 3
    3182:	c1 f1       	breq	.+112    	; 0x31f4 <DHWMaxTime_ActionCallback+0x82>
    3184:	32 c0       	rjmp	.+100    	; 0x31ea <DHWMaxTime_ActionCallback+0x78>
		case MENU_UP:
			if (DHWMaxTime < 2340)
    3186:	80 91 9f 06 	lds	r24, 0x069F	; 0x80069f <DHWMaxTime>
    318a:	90 91 a0 06 	lds	r25, 0x06A0	; 0x8006a0 <DHWMaxTime+0x1>
    318e:	84 32       	cpi	r24, 0x24	; 36
    3190:	f9 e0       	ldi	r31, 0x09	; 9
    3192:	9f 07       	cpc	r25, r31
    3194:	30 f4       	brcc	.+12     	; 0x31a2 <DHWMaxTime_ActionCallback+0x30>
				DHWMaxTime += 10;
    3196:	0a 96       	adiw	r24, 0x0a	; 10
    3198:	90 93 a0 06 	sts	0x06A0, r25	; 0x8006a0 <DHWMaxTime+0x1>
    319c:	80 93 9f 06 	sts	0x069F, r24	; 0x80069f <DHWMaxTime>
    31a0:	24 c0       	rjmp	.+72     	; 0x31ea <DHWMaxTime_ActionCallback+0x78>
			else
				DHWMaxTime = 0;
    31a2:	10 92 a0 06 	sts	0x06A0, r1	; 0x8006a0 <DHWMaxTime+0x1>
    31a6:	10 92 9f 06 	sts	0x069F, r1	; 0x80069f <DHWMaxTime>
    31aa:	1f c0       	rjmp	.+62     	; 0x31ea <DHWMaxTime_ActionCallback+0x78>
			break;
		case MENU_DOWN:
			if (DHWMaxTime > 65525)
    31ac:	80 91 9f 06 	lds	r24, 0x069F	; 0x80069f <DHWMaxTime>
    31b0:	90 91 a0 06 	lds	r25, 0x06A0	; 0x8006a0 <DHWMaxTime+0x1>
    31b4:	86 3f       	cpi	r24, 0xF6	; 246
    31b6:	2f ef       	ldi	r18, 0xFF	; 255
    31b8:	92 07       	cpc	r25, r18
    31ba:	38 f0       	brcs	.+14     	; 0x31ca <DHWMaxTime_ActionCallback+0x58>
				DHWMaxTime = 2350;
    31bc:	8e e2       	ldi	r24, 0x2E	; 46
    31be:	99 e0       	ldi	r25, 0x09	; 9
    31c0:	90 93 a0 06 	sts	0x06A0, r25	; 0x8006a0 <DHWMaxTime+0x1>
    31c4:	80 93 9f 06 	sts	0x069F, r24	; 0x80069f <DHWMaxTime>
    31c8:	10 c0       	rjmp	.+32     	; 0x31ea <DHWMaxTime_ActionCallback+0x78>
			else
				DHWMaxTime -= 10;
    31ca:	0a 97       	sbiw	r24, 0x0a	; 10
    31cc:	90 93 a0 06 	sts	0x06A0, r25	; 0x8006a0 <DHWMaxTime+0x1>
    31d0:	80 93 9f 06 	sts	0x069F, r24	; 0x80069f <DHWMaxTime>
    31d4:	0a c0       	rjmp	.+20     	; 0x31ea <DHWMaxTime_ActionCallback+0x78>
			break;
		case MENU_CONFIRM:
		eeprom_update_word(&eeDHWMaxTime, DHWMaxTime);
    31d6:	60 91 9f 06 	lds	r22, 0x069F	; 0x80069f <DHWMaxTime>
    31da:	70 91 a0 06 	lds	r23, 0x06A0	; 0x8006a0 <DHWMaxTime+0x1>
    31de:	8b e0       	ldi	r24, 0x0B	; 11
    31e0:	90 e0       	ldi	r25, 0x00	; 0
    31e2:	0e 94 f8 22 	call	0x45f0	; 0x45f0 <eeprom_update_word>
		case MENU_CANCEL:
		return true;
    31e6:	81 e0       	ldi	r24, 0x01	; 1
    31e8:	08 95       	ret
	}

	DHWMaxTime_CallbackRender(column);
    31ea:	86 2f       	mov	r24, r22
    31ec:	0e 94 c7 14 	call	0x298e	; 0x298e <DHWMaxTime_CallbackRender>
	return false;
    31f0:	80 e0       	ldi	r24, 0x00	; 0
    31f2:	08 95       	ret
				DHWMaxTime -= 10;
			break;
		case MENU_CONFIRM:
		eeprom_update_word(&eeDHWMaxTime, DHWMaxTime);
		case MENU_CANCEL:
		return true;
    31f4:	81 e0       	ldi	r24, 0x01	; 1
	}

	DHWMaxTime_CallbackRender(column);
	return false;
}
    31f6:	08 95       	ret

000031f8 <PumpPlusTime_ActionCallback>:
	itoa(PumpPlusTime, buf, 10);
	lcd_puts(buf);
}

bool PumpPlusTime_ActionCallback(MENU_BUTTON *button, uint8_t column){
	switch(button->role){
    31f8:	fc 01       	movw	r30, r24
    31fa:	90 81       	ld	r25, Z
    31fc:	91 30       	cpi	r25, 0x01	; 1
    31fe:	81 f0       	breq	.+32     	; 0x3220 <PumpPlusTime_ActionCallback+0x28>
    3200:	28 f0       	brcs	.+10     	; 0x320c <PumpPlusTime_ActionCallback+0x14>
    3202:	92 30       	cpi	r25, 0x02	; 2
    3204:	b9 f0       	breq	.+46     	; 0x3234 <PumpPlusTime_ActionCallback+0x3c>
    3206:	93 30       	cpi	r25, 0x03	; 3
    3208:	21 f1       	breq	.+72     	; 0x3252 <PumpPlusTime_ActionCallback+0x5a>
    320a:	1e c0       	rjmp	.+60     	; 0x3248 <PumpPlusTime_ActionCallback+0x50>
		case MENU_UP:
			++PumpPlusTime;
    320c:	80 91 0d 01 	lds	r24, 0x010D	; 0x80010d <PumpPlusTime>
    3210:	90 91 0e 01 	lds	r25, 0x010E	; 0x80010e <PumpPlusTime+0x1>
    3214:	01 96       	adiw	r24, 0x01	; 1
    3216:	90 93 0e 01 	sts	0x010E, r25	; 0x80010e <PumpPlusTime+0x1>
    321a:	80 93 0d 01 	sts	0x010D, r24	; 0x80010d <PumpPlusTime>
			break;
    321e:	14 c0       	rjmp	.+40     	; 0x3248 <PumpPlusTime_ActionCallback+0x50>
		case MENU_DOWN:
			--PumpPlusTime;
    3220:	80 91 0d 01 	lds	r24, 0x010D	; 0x80010d <PumpPlusTime>
    3224:	90 91 0e 01 	lds	r25, 0x010E	; 0x80010e <PumpPlusTime+0x1>
    3228:	01 97       	sbiw	r24, 0x01	; 1
    322a:	90 93 0e 01 	sts	0x010E, r25	; 0x80010e <PumpPlusTime+0x1>
    322e:	80 93 0d 01 	sts	0x010D, r24	; 0x80010d <PumpPlusTime>
			break;
    3232:	0a c0       	rjmp	.+20     	; 0x3248 <PumpPlusTime_ActionCallback+0x50>
		case MENU_CONFIRM:
			eeprom_update_word(&eePumpPlusTime, PumpPlusTime);
    3234:	60 91 0d 01 	lds	r22, 0x010D	; 0x80010d <PumpPlusTime>
    3238:	70 91 0e 01 	lds	r23, 0x010E	; 0x80010e <PumpPlusTime+0x1>
    323c:	84 e1       	ldi	r24, 0x14	; 20
    323e:	90 e0       	ldi	r25, 0x00	; 0
    3240:	0e 94 f8 22 	call	0x45f0	; 0x45f0 <eeprom_update_word>
			return true;
    3244:	81 e0       	ldi	r24, 0x01	; 1
    3246:	08 95       	ret
		case MENU_CANCEL:
			return true;
	}

	PumpPlusTime_CallbackRender(column);
    3248:	86 2f       	mov	r24, r22
    324a:	0e 94 7c 16 	call	0x2cf8	; 0x2cf8 <PumpPlusTime_CallbackRender>
	return false;
    324e:	80 e0       	ldi	r24, 0x00	; 0
    3250:	08 95       	ret
			break;
		case MENU_CONFIRM:
			eeprom_update_word(&eePumpPlusTime, PumpPlusTime);
			return true;
		case MENU_CANCEL:
			return true;
    3252:	81 e0       	ldi	r24, 0x01	; 1
	}

	PumpPlusTime_CallbackRender(column);
	return false;
}
    3254:	08 95       	ret

00003256 <DHWTempActual_CallbackRender>:

/*************************************************************************
 Menu DHW, submenu definitions
*************************************************************************/
void DHWTempActual_CallbackRender(uint8_t which){
	lcd_clrscr();
    3256:	0e 94 cb 09 	call	0x1396	; 0x1396 <lcd_clrscr>
	lcd_puts_hu(PSTR("HMV akt hm"));
    325a:	84 e2       	ldi	r24, 0x24	; 36
    325c:	97 e0       	ldi	r25, 0x07	; 7
    325e:	0e 94 b6 0a 	call	0x156c	; 0x156c <lcd_puts_hu>
	lcd_gotoxy(0,1);
    3262:	61 e0       	ldi	r22, 0x01	; 1
    3264:	80 e0       	ldi	r24, 0x00	; 0
    3266:	0e 94 b5 09 	call	0x136a	; 0x136a <lcd_gotoxy>
	lcd_puts(DHWTempActualBuf); lcd_puts_p(PSTR(".")), lcd_puts(DHWTempActualFracBuf); lcd_puts_p(PSTR(" C"));
    326a:	82 e8       	ldi	r24, 0x82	; 130
    326c:	96 e0       	ldi	r25, 0x06	; 6
    326e:	0e 94 84 0a 	call	0x1508	; 0x1508 <lcd_puts>
    3272:	82 e2       	ldi	r24, 0x22	; 34
    3274:	97 e0       	ldi	r25, 0x07	; 7
    3276:	0e 94 ef 09 	call	0x13de	; 0x13de <lcd_puts_p>
    327a:	86 ea       	ldi	r24, 0xA6	; 166
    327c:	96 e0       	ldi	r25, 0x06	; 6
    327e:	0e 94 84 0a 	call	0x1508	; 0x1508 <lcd_puts>
    3282:	8f e1       	ldi	r24, 0x1F	; 31
    3284:	97 e0       	ldi	r25, 0x07	; 7
    3286:	0e 94 ef 09 	call	0x13de	; 0x13de <lcd_puts_p>
    328a:	08 95       	ret

0000328c <DHWTempActual_Callback>:
}

bool DHWTempActual_Callback(MENU_BUTTON *button, uint8_t column){
	switch(button->role){
    328c:	fc 01       	movw	r30, r24
    328e:	80 81       	ld	r24, Z
    3290:	83 30       	cpi	r24, 0x03	; 3
    3292:	29 f0       	breq	.+10     	; 0x329e <DHWTempActual_Callback+0x12>
    3294:	86 2f       	mov	r24, r22
			break;
		case MENU_CANCEL:
			return true;
	}

	DHWTempActual_CallbackRender(column);
    3296:	0e 94 2b 19 	call	0x3256	; 0x3256 <DHWTempActual_CallbackRender>
	return false;
    329a:	80 e0       	ldi	r24, 0x00	; 0
    329c:	08 95       	ret
		case MENU_DOWN:
			break;
		case MENU_CONFIRM:
			break;
		case MENU_CANCEL:
			return true;
    329e:	81 e0       	ldi	r24, 0x01	; 1
	}

	DHWTempActual_CallbackRender(column);
	return false;
}
    32a0:	08 95       	ret

000032a2 <BufferTempActual_CallbackRender>:

/*************************************************************************
 Menu Buffer, submenu definitions
*************************************************************************/
void BufferTempActual_CallbackRender(uint8_t which){
	lcd_clrscr();
    32a2:	0e 94 cb 09 	call	0x1396	; 0x1396 <lcd_clrscr>
	lcd_puts_hu(PSTR("Puffer akt hm"));
    32a6:	86 ed       	ldi	r24, 0xD6	; 214
    32a8:	96 e0       	ldi	r25, 0x06	; 6
    32aa:	0e 94 b6 0a 	call	0x156c	; 0x156c <lcd_puts_hu>
	lcd_gotoxy(0,1);
    32ae:	61 e0       	ldi	r22, 0x01	; 1
    32b0:	80 e0       	ldi	r24, 0x00	; 0
    32b2:	0e 94 b5 09 	call	0x136a	; 0x136a <lcd_gotoxy>
	lcd_puts(BufferTempActualBuf); lcd_puts_p(PSTR(".")), lcd_puts(BufferTempActualFracBuf); lcd_puts_p(PSTR(" C"));
    32b6:	8b e8       	ldi	r24, 0x8B	; 139
    32b8:	96 e0       	ldi	r25, 0x06	; 6
    32ba:	0e 94 84 0a 	call	0x1508	; 0x1508 <lcd_puts>
    32be:	84 ed       	ldi	r24, 0xD4	; 212
    32c0:	96 e0       	ldi	r25, 0x06	; 6
    32c2:	0e 94 ef 09 	call	0x13de	; 0x13de <lcd_puts_p>
    32c6:	8c e9       	ldi	r24, 0x9C	; 156
    32c8:	96 e0       	ldi	r25, 0x06	; 6
    32ca:	0e 94 84 0a 	call	0x1508	; 0x1508 <lcd_puts>
    32ce:	81 ed       	ldi	r24, 0xD1	; 209
    32d0:	96 e0       	ldi	r25, 0x06	; 6
    32d2:	0e 94 ef 09 	call	0x13de	; 0x13de <lcd_puts_p>
    32d6:	08 95       	ret

000032d8 <BufferTempActual_Callback>:
}

bool BufferTempActual_Callback(MENU_BUTTON *button, uint8_t column){
	switch(button->role){
    32d8:	fc 01       	movw	r30, r24
    32da:	80 81       	ld	r24, Z
    32dc:	83 30       	cpi	r24, 0x03	; 3
    32de:	29 f0       	breq	.+10     	; 0x32ea <BufferTempActual_Callback+0x12>
    32e0:	86 2f       	mov	r24, r22
			break;
		case MENU_CANCEL:
			return true;
	}

	BufferTempActual_CallbackRender(column);
    32e2:	0e 94 51 19 	call	0x32a2	; 0x32a2 <BufferTempActual_CallbackRender>
	return false;
    32e6:	80 e0       	ldi	r24, 0x00	; 0
    32e8:	08 95       	ret
		case MENU_DOWN:
			break;
		case MENU_CONFIRM:
			break;
		case MENU_CANCEL:
			return true;
    32ea:	81 e0       	ldi	r24, 0x01	; 1
	}

	BufferTempActual_CallbackRender(column);
	return false;
}
    32ec:	08 95       	ret

000032ee <EngineeringTempActual_CallbackRender>:

/*************************************************************************
 Menu Garage, submenu definitions
*************************************************************************/
void EngineeringTempActual_CallbackRender(uint8_t which){
	lcd_clrscr();
    32ee:	0e 94 cb 09 	call	0x1396	; 0x1396 <lcd_clrscr>
	lcd_puts_hu(PSTR("Gphz akt hm"));
    32f2:	82 ea       	ldi	r24, 0xA2	; 162
    32f4:	96 e0       	ldi	r25, 0x06	; 6
    32f6:	0e 94 b6 0a 	call	0x156c	; 0x156c <lcd_puts_hu>
	lcd_gotoxy(0,1);
    32fa:	61 e0       	ldi	r22, 0x01	; 1
    32fc:	80 e0       	ldi	r24, 0x00	; 0
    32fe:	0e 94 b5 09 	call	0x136a	; 0x136a <lcd_gotoxy>
	lcd_puts(EngineeringTempActualBuf); lcd_puts_p(PSTR(".")), lcd_puts(EngineeringTempActualFracBuf); lcd_puts_p(PSTR(" C"));
    3302:	8c e7       	ldi	r24, 0x7C	; 124
    3304:	96 e0       	ldi	r25, 0x06	; 6
    3306:	0e 94 84 0a 	call	0x1508	; 0x1508 <lcd_puts>
    330a:	80 ea       	ldi	r24, 0xA0	; 160
    330c:	96 e0       	ldi	r25, 0x06	; 6
    330e:	0e 94 ef 09 	call	0x13de	; 0x13de <lcd_puts_p>
    3312:	85 e8       	ldi	r24, 0x85	; 133
    3314:	96 e0       	ldi	r25, 0x06	; 6
    3316:	0e 94 84 0a 	call	0x1508	; 0x1508 <lcd_puts>
    331a:	8d e9       	ldi	r24, 0x9D	; 157
    331c:	96 e0       	ldi	r25, 0x06	; 6
    331e:	0e 94 ef 09 	call	0x13de	; 0x13de <lcd_puts_p>
    3322:	08 95       	ret

00003324 <EngineeringTempActual_Callback>:
}

bool EngineeringTempActual_Callback(MENU_BUTTON *button, uint8_t column){
	switch(button->role){
    3324:	fc 01       	movw	r30, r24
    3326:	80 81       	ld	r24, Z
    3328:	83 30       	cpi	r24, 0x03	; 3
    332a:	29 f0       	breq	.+10     	; 0x3336 <EngineeringTempActual_Callback+0x12>
    332c:	86 2f       	mov	r24, r22
			break;
		case MENU_CANCEL:
			return true;
	}

	EngineeringTempActual_CallbackRender(column);
    332e:	0e 94 77 19 	call	0x32ee	; 0x32ee <EngineeringTempActual_CallbackRender>
	return false;
    3332:	80 e0       	ldi	r24, 0x00	; 0
    3334:	08 95       	ret
		case MENU_DOWN:
			break;
		case MENU_CONFIRM:
			break;
		case MENU_CANCEL:
			return true;
    3336:	81 e0       	ldi	r24, 0x01	; 1
	}

	EngineeringTempActual_CallbackRender(column);
	return false;
}
    3338:	08 95       	ret

0000333a <DHWRelay_CallbackRender>:
/*************************************************************************
 Menu Relays, submenu definitions
*************************************************************************/

void DHWRelay_CallbackRender(uint8_t which){
	lcd_clrscr();
    333a:	0e 94 cb 09 	call	0x1396	; 0x1396 <lcd_clrscr>
	lcd_puts_hu(PSTR("HMV szelep llapot"));
    333e:	87 e5       	ldi	r24, 0x57	; 87
    3340:	96 e0       	ldi	r25, 0x06	; 6
    3342:	0e 94 b6 0a 	call	0x156c	; 0x156c <lcd_puts_hu>
	lcd_gotoxy(0,1);
    3346:	61 e0       	ldi	r22, 0x01	; 1
    3348:	80 e0       	ldi	r24, 0x00	; 0
    334a:	0e 94 b5 09 	call	0x136a	; 0x136a <lcd_gotoxy>
	if (Relays & (1 << DHW_VALVE_RELAY))
    334e:	80 91 af 05 	lds	r24, 0x05AF	; 0x8005af <Relays>
    3352:	84 ff       	sbrs	r24, 4
    3354:	05 c0       	rjmp	.+10     	; 0x3360 <DHWRelay_CallbackRender+0x26>
		lcd_puts_p(PSTR("Be"));
    3356:	84 e5       	ldi	r24, 0x54	; 84
    3358:	96 e0       	ldi	r25, 0x06	; 6
    335a:	0e 94 ef 09 	call	0x13de	; 0x13de <lcd_puts_p>
    335e:	08 95       	ret
	else
		lcd_puts_p(PSTR("Ki"));
    3360:	81 e5       	ldi	r24, 0x51	; 81
    3362:	96 e0       	ldi	r25, 0x06	; 6
    3364:	0e 94 ef 09 	call	0x13de	; 0x13de <lcd_puts_p>
    3368:	08 95       	ret

0000336a <ZoneValve1_CallbackRender>:
	DHWRelay_CallbackRender(column);
	return false;
}

void ZoneValve1_CallbackRender(uint8_t which){
	lcd_clrscr();
    336a:	0e 94 cb 09 	call	0x1396	; 0x1396 <lcd_clrscr>
	lcd_puts_hu(PSTR("Fldszinti szelep"));
    336e:	8f e3       	ldi	r24, 0x3F	; 63
    3370:	96 e0       	ldi	r25, 0x06	; 6
    3372:	0e 94 b6 0a 	call	0x156c	; 0x156c <lcd_puts_hu>
	lcd_gotoxy(0,1);
    3376:	61 e0       	ldi	r22, 0x01	; 1
    3378:	80 e0       	ldi	r24, 0x00	; 0
    337a:	0e 94 b5 09 	call	0x136a	; 0x136a <lcd_gotoxy>
	if (Relays & (1 << FIRST_FLOOR_VALVE))
    337e:	80 91 af 05 	lds	r24, 0x05AF	; 0x8005af <Relays>
    3382:	82 ff       	sbrs	r24, 2
    3384:	05 c0       	rjmp	.+10     	; 0x3390 <ZoneValve1_CallbackRender+0x26>
		lcd_puts_p(PSTR("Be"));
    3386:	8c e3       	ldi	r24, 0x3C	; 60
    3388:	96 e0       	ldi	r25, 0x06	; 6
    338a:	0e 94 ef 09 	call	0x13de	; 0x13de <lcd_puts_p>
    338e:	08 95       	ret
	else
		lcd_puts_p(PSTR("Ki"));
    3390:	89 e3       	ldi	r24, 0x39	; 57
    3392:	96 e0       	ldi	r25, 0x06	; 6
    3394:	0e 94 ef 09 	call	0x13de	; 0x13de <lcd_puts_p>
    3398:	08 95       	ret

0000339a <ZoneValve2_CallbackRender>:
	ZoneValve1_CallbackRender(column);
	return false;
}

void ZoneValve2_CallbackRender(uint8_t which){
	lcd_clrscr();
    339a:	0e 94 cb 09 	call	0x1396	; 0x1396 <lcd_clrscr>
	lcd_puts_p(PSTR("Emeleti szelep"));
    339e:	8a e2       	ldi	r24, 0x2A	; 42
    33a0:	96 e0       	ldi	r25, 0x06	; 6
    33a2:	0e 94 ef 09 	call	0x13de	; 0x13de <lcd_puts_p>
	lcd_gotoxy(0,1);
    33a6:	61 e0       	ldi	r22, 0x01	; 1
    33a8:	80 e0       	ldi	r24, 0x00	; 0
    33aa:	0e 94 b5 09 	call	0x136a	; 0x136a <lcd_gotoxy>
	if (Relays & (1 << SECOND_FLOOR_VALVE))
    33ae:	80 91 af 05 	lds	r24, 0x05AF	; 0x8005af <Relays>
    33b2:	83 ff       	sbrs	r24, 3
    33b4:	05 c0       	rjmp	.+10     	; 0x33c0 <ZoneValve2_CallbackRender+0x26>
			lcd_puts_p(PSTR("Be"));
    33b6:	87 e2       	ldi	r24, 0x27	; 39
    33b8:	96 e0       	ldi	r25, 0x06	; 6
    33ba:	0e 94 ef 09 	call	0x13de	; 0x13de <lcd_puts_p>
    33be:	08 95       	ret
		else
			lcd_puts_p(PSTR("Ki"));
    33c0:	84 e2       	ldi	r24, 0x24	; 36
    33c2:	96 e0       	ldi	r25, 0x06	; 6
    33c4:	0e 94 ef 09 	call	0x13de	; 0x13de <lcd_puts_p>
    33c8:	08 95       	ret

000033ca <BufferValve_CallbackRender>:
	ZoneValve2_CallbackRender(column);
	return false;
}

void BufferValve_CallbackRender(uint8_t which){
	lcd_clrscr();
    33ca:	0e 94 cb 09 	call	0x1396	; 0x1396 <lcd_clrscr>
	lcd_puts_hu(PSTR("Puffer / gz szelep"));
    33ce:	80 e1       	ldi	r24, 0x10	; 16
    33d0:	96 e0       	ldi	r25, 0x06	; 6
    33d2:	0e 94 b6 0a 	call	0x156c	; 0x156c <lcd_puts_hu>
	lcd_gotoxy(0,1);
    33d6:	61 e0       	ldi	r22, 0x01	; 1
    33d8:	80 e0       	ldi	r24, 0x00	; 0
    33da:	0e 94 b5 09 	call	0x136a	; 0x136a <lcd_gotoxy>
	if (Relays & (1 << BUFFER_VALVE_RELAY))
    33de:	80 91 af 05 	lds	r24, 0x05AF	; 0x8005af <Relays>
    33e2:	85 ff       	sbrs	r24, 5
    33e4:	05 c0       	rjmp	.+10     	; 0x33f0 <BufferValve_CallbackRender+0x26>
		lcd_puts_p(PSTR("Puffer"));
    33e6:	89 e0       	ldi	r24, 0x09	; 9
    33e8:	96 e0       	ldi	r25, 0x06	; 6
    33ea:	0e 94 ef 09 	call	0x13de	; 0x13de <lcd_puts_p>
    33ee:	08 95       	ret
	else
		lcd_puts_hu(PSTR("Gz"));
    33f0:	85 e0       	ldi	r24, 0x05	; 5
    33f2:	96 e0       	ldi	r25, 0x06	; 6
    33f4:	0e 94 b6 0a 	call	0x156c	; 0x156c <lcd_puts_hu>
    33f8:	08 95       	ret

000033fa <BufferPump_CallbackRender>:
	BufferValve_CallbackRender(column);
	return false;
}

void BufferPump_CallbackRender(uint8_t which){
	lcd_clrscr();
    33fa:	0e 94 cb 09 	call	0x1396	; 0x1396 <lcd_clrscr>
	lcd_puts_hu(PSTR("Puffer szivatty"));
    33fe:	84 ef       	ldi	r24, 0xF4	; 244
    3400:	95 e0       	ldi	r25, 0x05	; 5
    3402:	0e 94 b6 0a 	call	0x156c	; 0x156c <lcd_puts_hu>
	lcd_gotoxy(0,1);
    3406:	61 e0       	ldi	r22, 0x01	; 1
    3408:	80 e0       	ldi	r24, 0x00	; 0
    340a:	0e 94 b5 09 	call	0x136a	; 0x136a <lcd_gotoxy>
	if (Relays & (1 << BUFFER_PUMP_RELAY))
    340e:	80 91 af 05 	lds	r24, 0x05AF	; 0x8005af <Relays>
    3412:	86 ff       	sbrs	r24, 6
    3414:	05 c0       	rjmp	.+10     	; 0x3420 <BufferPump_CallbackRender+0x26>
		lcd_puts_p(PSTR("Be"));
    3416:	81 ef       	ldi	r24, 0xF1	; 241
    3418:	95 e0       	ldi	r25, 0x05	; 5
    341a:	0e 94 ef 09 	call	0x13de	; 0x13de <lcd_puts_p>
    341e:	08 95       	ret
	else
		lcd_puts_p(PSTR("Ki"));
    3420:	8e ee       	ldi	r24, 0xEE	; 238
    3422:	95 e0       	ldi	r25, 0x05	; 5
    3424:	0e 94 ef 09 	call	0x13de	; 0x13de <lcd_puts_p>
    3428:	08 95       	ret

0000342a <GasRelay_CallbackRender>:
	BufferPump_CallbackRender(column);
	return false;
}

void GasRelay_CallbackRender(uint8_t which){
	lcd_clrscr();
    342a:	0e 94 cb 09 	call	0x1396	; 0x1396 <lcd_clrscr>
	lcd_puts_hu(PSTR("Gz llapot"));
    342e:	82 ee       	ldi	r24, 0xE2	; 226
    3430:	95 e0       	ldi	r25, 0x05	; 5
    3432:	0e 94 b6 0a 	call	0x156c	; 0x156c <lcd_puts_hu>
	lcd_gotoxy(0,1);
    3436:	61 e0       	ldi	r22, 0x01	; 1
    3438:	80 e0       	ldi	r24, 0x00	; 0
    343a:	0e 94 b5 09 	call	0x136a	; 0x136a <lcd_gotoxy>
	if (Relays & (1 << GAS_RELAY))
    343e:	80 91 af 05 	lds	r24, 0x05AF	; 0x8005af <Relays>
    3442:	88 23       	and	r24, r24
    3444:	2c f4       	brge	.+10     	; 0x3450 <GasRelay_CallbackRender+0x26>
		lcd_puts_p(PSTR("Be"));
    3446:	8f ed       	ldi	r24, 0xDF	; 223
    3448:	95 e0       	ldi	r25, 0x05	; 5
    344a:	0e 94 ef 09 	call	0x13de	; 0x13de <lcd_puts_p>
    344e:	08 95       	ret
	else
		lcd_puts_p(PSTR("Ki"));
    3450:	8c ed       	ldi	r24, 0xDC	; 220
    3452:	95 e0       	ldi	r25, 0x05	; 5
    3454:	0e 94 ef 09 	call	0x13de	; 0x13de <lcd_puts_p>
    3458:	08 95       	ret

0000345a <GarageTemp_CallbackRender>:

/*************************************************************************
 Sensors, submenu definitions
*************************************************************************/
void GarageTemp_CallbackRender(uint8_t which){
	lcd_clrscr();
    345a:	0e 94 cb 09 	call	0x1396	; 0x1396 <lcd_clrscr>
	lcd_puts_hu(PSTR("Garzs akt hm"));
    345e:	8d ec       	ldi	r24, 0xCD	; 205
    3460:	95 e0       	ldi	r25, 0x05	; 5
    3462:	0e 94 b6 0a 	call	0x156c	; 0x156c <lcd_puts_hu>
	lcd_gotoxy(0,1);
    3466:	61 e0       	ldi	r22, 0x01	; 1
    3468:	80 e0       	ldi	r24, 0x00	; 0
    346a:	0e 94 b5 09 	call	0x136a	; 0x136a <lcd_gotoxy>
	lcd_puts(GarageTempBuf); lcd_puts_p(PSTR(".")), lcd_puts(GarageTempFracBuf); lcd_puts_p(PSTR(" C"));
    346e:	8f ed       	ldi	r24, 0xDF	; 223
    3470:	96 e0       	ldi	r25, 0x06	; 6
    3472:	0e 94 84 0a 	call	0x1508	; 0x1508 <lcd_puts>
    3476:	8b ec       	ldi	r24, 0xCB	; 203
    3478:	95 e0       	ldi	r25, 0x05	; 5
    347a:	0e 94 ef 09 	call	0x13de	; 0x13de <lcd_puts_p>
    347e:	81 e9       	ldi	r24, 0x91	; 145
    3480:	96 e0       	ldi	r25, 0x06	; 6
    3482:	0e 94 84 0a 	call	0x1508	; 0x1508 <lcd_puts>
    3486:	88 ec       	ldi	r24, 0xC8	; 200
    3488:	95 e0       	ldi	r25, 0x05	; 5
    348a:	0e 94 ef 09 	call	0x13de	; 0x13de <lcd_puts_p>
    348e:	08 95       	ret

00003490 <GarageTemp_Callback>:
}

bool GarageTemp_Callback(MENU_BUTTON *button, uint8_t column){
	switch(button->role){
    3490:	fc 01       	movw	r30, r24
    3492:	80 81       	ld	r24, Z
    3494:	84 30       	cpi	r24, 0x04	; 4
    3496:	28 f0       	brcs	.+10     	; 0x34a2 <GarageTemp_Callback+0x12>
    3498:	86 2f       	mov	r24, r22
		case MENU_CONFIRM:
		case MENU_CANCEL:
			return true;
	}

	GarageTemp_CallbackRender(column);
    349a:	0e 94 2d 1a 	call	0x345a	; 0x345a <GarageTemp_CallbackRender>
	return false;
    349e:	80 e0       	ldi	r24, 0x00	; 0
    34a0:	08 95       	ret
	switch(button->role){
		case MENU_UP:
		case MENU_DOWN:
		case MENU_CONFIRM:
		case MENU_CANCEL:
			return true;
    34a2:	81 e0       	ldi	r24, 0x01	; 1
	}

	GarageTemp_CallbackRender(column);
	return false;
}
    34a4:	08 95       	ret

000034a6 <LivingRoomTemp_CallbackRender>:
	GarageSensor_CallbackRender(column);
	return false;
}

void LivingRoomTemp_CallbackRender(uint8_t which){
	lcd_clrscr();
    34a6:	0e 94 cb 09 	call	0x1396	; 0x1396 <lcd_clrscr>
	lcd_puts_hu(PSTR("Nappali akt hm"));
    34aa:	86 ea       	ldi	r24, 0xA6	; 166
    34ac:	95 e0       	ldi	r25, 0x05	; 5
    34ae:	0e 94 b6 0a 	call	0x156c	; 0x156c <lcd_puts_hu>
	lcd_gotoxy(0,1);
    34b2:	61 e0       	ldi	r22, 0x01	; 1
    34b4:	80 e0       	ldi	r24, 0x00	; 0
    34b6:	0e 94 b5 09 	call	0x136a	; 0x136a <lcd_gotoxy>
	lcd_puts(LivingRoomTempBuf); lcd_puts_p(PSTR(".")), lcd_puts(LivingRoomTempFracBuf); lcd_puts_p(PSTR(" C"));
    34ba:	8c e6       	ldi	r24, 0x6C	; 108
    34bc:	96 e0       	ldi	r25, 0x06	; 6
    34be:	0e 94 84 0a 	call	0x1508	; 0x1508 <lcd_puts>
    34c2:	84 ea       	ldi	r24, 0xA4	; 164
    34c4:	95 e0       	ldi	r25, 0x05	; 5
    34c6:	0e 94 ef 09 	call	0x13de	; 0x13de <lcd_puts_p>
    34ca:	81 ea       	ldi	r24, 0xA1	; 161
    34cc:	96 e0       	ldi	r25, 0x06	; 6
    34ce:	0e 94 84 0a 	call	0x1508	; 0x1508 <lcd_puts>
    34d2:	81 ea       	ldi	r24, 0xA1	; 161
    34d4:	95 e0       	ldi	r25, 0x05	; 5
    34d6:	0e 94 ef 09 	call	0x13de	; 0x13de <lcd_puts_p>
    34da:	08 95       	ret

000034dc <LivingRoomTemp_Callback>:
}

bool LivingRoomTemp_Callback(MENU_BUTTON *button, uint8_t column){
	switch(button->role){
    34dc:	fc 01       	movw	r30, r24
    34de:	80 81       	ld	r24, Z
    34e0:	84 30       	cpi	r24, 0x04	; 4
    34e2:	28 f0       	brcs	.+10     	; 0x34ee <LivingRoomTemp_Callback+0x12>
    34e4:	86 2f       	mov	r24, r22
		case MENU_CONFIRM:
		case MENU_CANCEL:
			return true;
	}

	LivingRoomTemp_CallbackRender(column);
    34e6:	0e 94 53 1a 	call	0x34a6	; 0x34a6 <LivingRoomTemp_CallbackRender>
	return false;
    34ea:	80 e0       	ldi	r24, 0x00	; 0
    34ec:	08 95       	ret
	switch(button->role){
		case MENU_UP:
		case MENU_DOWN:
		case MENU_CONFIRM:
		case MENU_CANCEL:
			return true;
    34ee:	81 e0       	ldi	r24, 0x01	; 1
	}

	LivingRoomTemp_CallbackRender(column);
	return false;
}
    34f0:	08 95       	ret

000034f2 <FloorTemp_CallbackRender>:
	LivingRoomSensor_CallbackRender(column);
	return false;
}

void FloorTemp_CallbackRender(uint8_t which){
	lcd_clrscr();
    34f2:	0e 94 cb 09 	call	0x1396	; 0x1396 <lcd_clrscr>
	lcd_puts_hu(PSTR("Padl akt hm"));
    34f6:	80 e8       	ldi	r24, 0x80	; 128
    34f8:	95 e0       	ldi	r25, 0x05	; 5
    34fa:	0e 94 b6 0a 	call	0x156c	; 0x156c <lcd_puts_hu>
	lcd_gotoxy(0,1);
    34fe:	61 e0       	ldi	r22, 0x01	; 1
    3500:	80 e0       	ldi	r24, 0x00	; 0
    3502:	0e 94 b5 09 	call	0x136a	; 0x136a <lcd_gotoxy>
	lcd_puts(FloorTempBuf); lcd_puts_p(PSTR(".")), lcd_puts(FloorTempFracBuf); lcd_puts_p(PSTR(" C"));
    3506:	87 e7       	ldi	r24, 0x77	; 119
    3508:	96 e0       	ldi	r25, 0x06	; 6
    350a:	0e 94 84 0a 	call	0x1508	; 0x1508 <lcd_puts>
    350e:	8e e7       	ldi	r24, 0x7E	; 126
    3510:	95 e0       	ldi	r25, 0x05	; 5
    3512:	0e 94 ef 09 	call	0x13de	; 0x13de <lcd_puts_p>
    3516:	8e e8       	ldi	r24, 0x8E	; 142
    3518:	96 e0       	ldi	r25, 0x06	; 6
    351a:	0e 94 84 0a 	call	0x1508	; 0x1508 <lcd_puts>
    351e:	8b e7       	ldi	r24, 0x7B	; 123
    3520:	95 e0       	ldi	r25, 0x05	; 5
    3522:	0e 94 ef 09 	call	0x13de	; 0x13de <lcd_puts_p>
    3526:	08 95       	ret

00003528 <FloorTemp_Callback>:
}

bool FloorTemp_Callback(MENU_BUTTON *button, uint8_t column){
	switch(button->role){
    3528:	fc 01       	movw	r30, r24
    352a:	80 81       	ld	r24, Z
    352c:	84 30       	cpi	r24, 0x04	; 4
    352e:	28 f0       	brcs	.+10     	; 0x353a <FloorTemp_Callback+0x12>
    3530:	86 2f       	mov	r24, r22
		case MENU_CONFIRM:
		case MENU_CANCEL:
			return true;
	}

	FloorTemp_CallbackRender(column);
    3532:	0e 94 79 1a 	call	0x34f2	; 0x34f2 <FloorTemp_CallbackRender>
	return false;
    3536:	80 e0       	ldi	r24, 0x00	; 0
    3538:	08 95       	ret
	switch(button->role){
		case MENU_UP:
		case MENU_DOWN:
		case MENU_CONFIRM:
		case MENU_CANCEL:
			return true;
    353a:	81 e0       	ldi	r24, 0x01	; 1
	}

	FloorTemp_CallbackRender(column);
	return false;
}
    353c:	08 95       	ret

0000353e <ClockMinute_CallbackRender>:

	ClockHour_CallbackRender(column);
	return false;
}

void ClockMinute_CallbackRender(uint8_t which){
    353e:	cf 93       	push	r28
    3540:	df 93       	push	r29
    3542:	00 d0       	rcall	.+0      	; 0x3544 <ClockMinute_CallbackRender+0x6>
    3544:	1f 92       	push	r1
    3546:	cd b7       	in	r28, 0x3d	; 61
    3548:	de b7       	in	r29, 0x3e	; 62
	lcd_clrscr();
    354a:	0e 94 cb 09 	call	0x1396	; 0x1396 <lcd_clrscr>
	lcd_puts_p(PSTR("perc"));
    354e:	86 e2       	ldi	r24, 0x26	; 38
    3550:	95 e0       	ldi	r25, 0x05	; 5
    3552:	0e 94 ef 09 	call	0x13de	; 0x13de <lcd_puts_p>
	lcd_gotoxy(0,1);
    3556:	61 e0       	ldi	r22, 0x01	; 1
    3558:	80 e0       	ldi	r24, 0x00	; 0
    355a:	0e 94 b5 09 	call	0x136a	; 0x136a <lcd_gotoxy>
    355e:	80 91 ac 05 	lds	r24, 0x05AC	; 0x8005ac <Minute>
    3562:	4a e0       	ldi	r20, 0x0A	; 10
    3564:	be 01       	movw	r22, r28
    3566:	6f 5f       	subi	r22, 0xFF	; 255
    3568:	7f 4f       	sbci	r23, 0xFF	; 255
    356a:	90 e0       	ldi	r25, 0x00	; 0
    356c:	0e 94 a4 22 	call	0x4548	; 0x4548 <__itoa_ncheck>
	char buf[3];
	itoa(Minute, buf, 10);
	lcd_puts(buf);
    3570:	ce 01       	movw	r24, r28
    3572:	01 96       	adiw	r24, 0x01	; 1
    3574:	0e 94 84 0a 	call	0x1508	; 0x1508 <lcd_puts>
}
    3578:	0f 90       	pop	r0
    357a:	0f 90       	pop	r0
    357c:	0f 90       	pop	r0
    357e:	df 91       	pop	r29
    3580:	cf 91       	pop	r28
    3582:	08 95       	ret

00003584 <ClockMinute_ActionCallback>:

bool ClockMinute_ActionCallback(MENU_BUTTON *button, uint8_t column){
	switch(button->role){
    3584:	fc 01       	movw	r30, r24
    3586:	90 81       	ld	r25, Z
    3588:	91 30       	cpi	r25, 0x01	; 1
    358a:	89 f0       	breq	.+34     	; 0x35ae <ClockMinute_ActionCallback+0x2a>
    358c:	28 f0       	brcs	.+10     	; 0x3598 <ClockMinute_ActionCallback+0x14>
    358e:	92 30       	cpi	r25, 0x02	; 2
    3590:	c9 f0       	breq	.+50     	; 0x35c4 <ClockMinute_ActionCallback+0x40>
    3592:	93 30       	cpi	r25, 0x03	; 3
    3594:	01 f1       	breq	.+64     	; 0x35d6 <ClockMinute_ActionCallback+0x52>
    3596:	1a c0       	rjmp	.+52     	; 0x35cc <ClockMinute_ActionCallback+0x48>
		case MENU_UP:
			if (++Minute == 60)
    3598:	80 91 ac 05 	lds	r24, 0x05AC	; 0x8005ac <Minute>
    359c:	8f 5f       	subi	r24, 0xFF	; 255
    359e:	8c 33       	cpi	r24, 0x3C	; 60
    35a0:	19 f0       	breq	.+6      	; 0x35a8 <ClockMinute_ActionCallback+0x24>
    35a2:	80 93 ac 05 	sts	0x05AC, r24	; 0x8005ac <Minute>
    35a6:	12 c0       	rjmp	.+36     	; 0x35cc <ClockMinute_ActionCallback+0x48>
				Minute = 0;
    35a8:	10 92 ac 05 	sts	0x05AC, r1	; 0x8005ac <Minute>
    35ac:	0f c0       	rjmp	.+30     	; 0x35cc <ClockMinute_ActionCallback+0x48>
			break;
		case MENU_DOWN:
			if (--Minute == 255)
    35ae:	80 91 ac 05 	lds	r24, 0x05AC	; 0x8005ac <Minute>
    35b2:	81 50       	subi	r24, 0x01	; 1
    35b4:	18 f0       	brcs	.+6      	; 0x35bc <ClockMinute_ActionCallback+0x38>
    35b6:	80 93 ac 05 	sts	0x05AC, r24	; 0x8005ac <Minute>
    35ba:	08 c0       	rjmp	.+16     	; 0x35cc <ClockMinute_ActionCallback+0x48>
			Minute = 59;
    35bc:	8b e3       	ldi	r24, 0x3B	; 59
    35be:	80 93 ac 05 	sts	0x05AC, r24	; 0x8005ac <Minute>
    35c2:	04 c0       	rjmp	.+8      	; 0x35cc <ClockMinute_ActionCallback+0x48>
			break;
		case MENU_CONFIRM:
			ClockInitialized = 1;
    35c4:	81 e0       	ldi	r24, 0x01	; 1
    35c6:	80 93 aa 05 	sts	0x05AA, r24	; 0x8005aa <ClockInitialized>
			return true;
    35ca:	08 95       	ret
    35cc:	86 2f       	mov	r24, r22
		case MENU_CANCEL:
			return true;
	}

	ClockMinute_CallbackRender(column);
    35ce:	0e 94 9f 1a 	call	0x353e	; 0x353e <ClockMinute_CallbackRender>
	return false;
    35d2:	80 e0       	ldi	r24, 0x00	; 0
    35d4:	08 95       	ret
			break;
		case MENU_CONFIRM:
			ClockInitialized = 1;
			return true;
		case MENU_CANCEL:
			return true;
    35d6:	81 e0       	ldi	r24, 0x01	; 1
	}

	ClockMinute_CallbackRender(column);
	return false;
}
    35d8:	08 95       	ret

000035da <DHWTempDesired_ActionCallback>:
	lcd_gotoxy(0,1);
	lcd_puts(buf);
}

bool DHWTempDesired_ActionCallback(MENU_BUTTON *button, uint8_t column){
	switch(button->role){
    35da:	fc 01       	movw	r30, r24
    35dc:	90 81       	ld	r25, Z
    35de:	91 30       	cpi	r25, 0x01	; 1
    35e0:	71 f0       	breq	.+28     	; 0x35fe <DHWTempDesired_ActionCallback+0x24>
    35e2:	28 f0       	brcs	.+10     	; 0x35ee <DHWTempDesired_ActionCallback+0x14>
    35e4:	92 30       	cpi	r25, 0x02	; 2
    35e6:	a9 f0       	breq	.+42     	; 0x3612 <DHWTempDesired_ActionCallback+0x38>
    35e8:	93 30       	cpi	r25, 0x03	; 3
    35ea:	01 f1       	breq	.+64     	; 0x362c <DHWTempDesired_ActionCallback+0x52>
    35ec:	1a c0       	rjmp	.+52     	; 0x3622 <DHWTempDesired_ActionCallback+0x48>
		case MENU_UP:
			if (DHWTempDesired != 90)
    35ee:	80 91 88 06 	lds	r24, 0x0688	; 0x800688 <DHWTempDesired>
    35f2:	8a 35       	cpi	r24, 0x5A	; 90
    35f4:	b1 f0       	breq	.+44     	; 0x3622 <DHWTempDesired_ActionCallback+0x48>
				++DHWTempDesired;
    35f6:	8f 5f       	subi	r24, 0xFF	; 255
    35f8:	80 93 88 06 	sts	0x0688, r24	; 0x800688 <DHWTempDesired>
    35fc:	12 c0       	rjmp	.+36     	; 0x3622 <DHWTempDesired_ActionCallback+0x48>
			break;
		case MENU_DOWN:
			if (DHWTempDesired > DHWTempMin)
    35fe:	80 91 88 06 	lds	r24, 0x0688	; 0x800688 <DHWTempDesired>
    3602:	90 91 80 06 	lds	r25, 0x0680	; 0x800680 <DHWTempMin>
    3606:	98 17       	cp	r25, r24
    3608:	60 f4       	brcc	.+24     	; 0x3622 <DHWTempDesired_ActionCallback+0x48>
				--DHWTempDesired;
    360a:	81 50       	subi	r24, 0x01	; 1
    360c:	80 93 88 06 	sts	0x0688, r24	; 0x800688 <DHWTempDesired>
    3610:	08 c0       	rjmp	.+16     	; 0x3622 <DHWTempDesired_ActionCallback+0x48>
			break;
		case MENU_CONFIRM:
			eeprom_update_byte(&eeDHWTempDesired, DHWTempDesired);
    3612:	60 91 88 06 	lds	r22, 0x0688	; 0x800688 <DHWTempDesired>
    3616:	80 e1       	ldi	r24, 0x10	; 16
    3618:	90 e0       	ldi	r25, 0x00	; 0
    361a:	0e 94 e7 22 	call	0x45ce	; 0x45ce <eeprom_update_byte>
			return true;
    361e:	81 e0       	ldi	r24, 0x01	; 1
    3620:	08 95       	ret
		case MENU_CANCEL:
			return true;
	}
	DHWTempDesired_CallbackRender(column);
    3622:	86 2f       	mov	r24, r22
    3624:	0e 94 34 14 	call	0x2868	; 0x2868 <DHWTempDesired_CallbackRender>
	return false;
    3628:	80 e0       	ldi	r24, 0x00	; 0
    362a:	08 95       	ret
			break;
		case MENU_CONFIRM:
			eeprom_update_byte(&eeDHWTempDesired, DHWTempDesired);
			return true;
		case MENU_CANCEL:
			return true;
    362c:	81 e0       	ldi	r24, 0x01	; 1
	}
	DHWTempDesired_CallbackRender(column);
	return false;
}
    362e:	08 95       	ret

00003630 <DHWTempMin_ActionCallback>:
	lcd_gotoxy(0,1);
	lcd_puts(buf);
}

bool DHWTempMin_ActionCallback(MENU_BUTTON *button, uint8_t column){
	switch(button->role){
    3630:	fc 01       	movw	r30, r24
    3632:	90 81       	ld	r25, Z
    3634:	91 30       	cpi	r25, 0x01	; 1
    3636:	81 f0       	breq	.+32     	; 0x3658 <DHWTempMin_ActionCallback+0x28>
    3638:	28 f0       	brcs	.+10     	; 0x3644 <DHWTempMin_ActionCallback+0x14>
    363a:	92 30       	cpi	r25, 0x02	; 2
    363c:	a9 f0       	breq	.+42     	; 0x3668 <DHWTempMin_ActionCallback+0x38>
    363e:	93 30       	cpi	r25, 0x03	; 3
    3640:	01 f1       	breq	.+64     	; 0x3682 <DHWTempMin_ActionCallback+0x52>
    3642:	1a c0       	rjmp	.+52     	; 0x3678 <DHWTempMin_ActionCallback+0x48>
		case MENU_UP:
			if (DHWTempMin < DHWTempDesired)
    3644:	80 91 80 06 	lds	r24, 0x0680	; 0x800680 <DHWTempMin>
    3648:	90 91 88 06 	lds	r25, 0x0688	; 0x800688 <DHWTempDesired>
    364c:	89 17       	cp	r24, r25
    364e:	a0 f4       	brcc	.+40     	; 0x3678 <DHWTempMin_ActionCallback+0x48>
				++DHWTempMin;
    3650:	8f 5f       	subi	r24, 0xFF	; 255
    3652:	80 93 80 06 	sts	0x0680, r24	; 0x800680 <DHWTempMin>
    3656:	10 c0       	rjmp	.+32     	; 0x3678 <DHWTempMin_ActionCallback+0x48>
			break;
		case MENU_DOWN:
			if (DHWTempMin > 5)
    3658:	80 91 80 06 	lds	r24, 0x0680	; 0x800680 <DHWTempMin>
    365c:	86 30       	cpi	r24, 0x06	; 6
    365e:	60 f0       	brcs	.+24     	; 0x3678 <DHWTempMin_ActionCallback+0x48>
				--DHWTempMin;
    3660:	81 50       	subi	r24, 0x01	; 1
    3662:	80 93 80 06 	sts	0x0680, r24	; 0x800680 <DHWTempMin>
    3666:	08 c0       	rjmp	.+16     	; 0x3678 <DHWTempMin_ActionCallback+0x48>
			break;
		case MENU_CONFIRM:
			eeprom_update_byte(&eeDHWTempMin, DHWTempMin);
    3668:	60 91 80 06 	lds	r22, 0x0680	; 0x800680 <DHWTempMin>
    366c:	8f e0       	ldi	r24, 0x0F	; 15
    366e:	90 e0       	ldi	r25, 0x00	; 0
    3670:	0e 94 e7 22 	call	0x45ce	; 0x45ce <eeprom_update_byte>
			return true;
    3674:	81 e0       	ldi	r24, 0x01	; 1
    3676:	08 95       	ret
		case MENU_CANCEL:
			return true;
	}

	DHWTempMin_CallbackRender(column);
    3678:	86 2f       	mov	r24, r22
    367a:	0e 94 58 14 	call	0x28b0	; 0x28b0 <DHWTempMin_CallbackRender>
	return false;
    367e:	80 e0       	ldi	r24, 0x00	; 0
    3680:	08 95       	ret
			break;
		case MENU_CONFIRM:
			eeprom_update_byte(&eeDHWTempMin, DHWTempMin);
			return true;
		case MENU_CANCEL:
			return true;
    3682:	81 e0       	ldi	r24, 0x01	; 1
	}

	DHWTempMin_CallbackRender(column);
	return false;
}
    3684:	08 95       	ret

00003686 <DHWSensor_ActionCallback>:
	itoa(DHWSensorID, buf, 10);
	lcd_puts(buf);
}

bool DHWSensor_ActionCallback(MENU_BUTTON *button, uint8_t column){
	switch(button->role){
    3686:	fc 01       	movw	r30, r24
    3688:	90 81       	ld	r25, Z
    368a:	91 30       	cpi	r25, 0x01	; 1
    368c:	91 f0       	breq	.+36     	; 0x36b2 <DHWSensor_ActionCallback+0x2c>
    368e:	28 f0       	brcs	.+10     	; 0x369a <DHWSensor_ActionCallback+0x14>
    3690:	92 30       	cpi	r25, 0x02	; 2
    3692:	e1 f0       	breq	.+56     	; 0x36cc <DHWSensor_ActionCallback+0x46>
    3694:	93 30       	cpi	r25, 0x03	; 3
    3696:	39 f1       	breq	.+78     	; 0x36e6 <DHWSensor_ActionCallback+0x60>
    3698:	21 c0       	rjmp	.+66     	; 0x36dc <DHWSensor_ActionCallback+0x56>
		case MENU_UP:
			DHWSensorID++;
    369a:	80 91 ae 05 	lds	r24, 0x05AE	; 0x8005ae <DHWSensorID>
    369e:	8f 5f       	subi	r24, 0xFF	; 255
    36a0:	80 93 ae 05 	sts	0x05AE, r24	; 0x8005ae <DHWSensorID>
			if (DHWSensorID == nSensors)
    36a4:	90 91 7f 06 	lds	r25, 0x067F	; 0x80067f <nSensors>
    36a8:	89 13       	cpse	r24, r25
    36aa:	18 c0       	rjmp	.+48     	; 0x36dc <DHWSensor_ActionCallback+0x56>
				DHWSensorID = 0;
    36ac:	10 92 ae 05 	sts	0x05AE, r1	; 0x8005ae <DHWSensorID>
    36b0:	15 c0       	rjmp	.+42     	; 0x36dc <DHWSensor_ActionCallback+0x56>
			break;
		case MENU_DOWN:
			DHWSensorID--;
    36b2:	80 91 ae 05 	lds	r24, 0x05AE	; 0x8005ae <DHWSensorID>
    36b6:	81 50       	subi	r24, 0x01	; 1
    36b8:	80 93 ae 05 	sts	0x05AE, r24	; 0x8005ae <DHWSensorID>
			if (DHWSensorID == 255)
    36bc:	8f 3f       	cpi	r24, 0xFF	; 255
    36be:	71 f4       	brne	.+28     	; 0x36dc <DHWSensor_ActionCallback+0x56>
				DHWSensorID = nSensors - 1;
    36c0:	80 91 7f 06 	lds	r24, 0x067F	; 0x80067f <nSensors>
    36c4:	81 50       	subi	r24, 0x01	; 1
    36c6:	80 93 ae 05 	sts	0x05AE, r24	; 0x8005ae <DHWSensorID>
    36ca:	08 c0       	rjmp	.+16     	; 0x36dc <DHWSensor_ActionCallback+0x56>
			break;
		case MENU_CONFIRM:
			eeprom_update_byte(&eeDHWSensorID, DHWSensorID);
    36cc:	60 91 ae 05 	lds	r22, 0x05AE	; 0x8005ae <DHWSensorID>
    36d0:	85 e0       	ldi	r24, 0x05	; 5
    36d2:	90 e0       	ldi	r25, 0x00	; 0
    36d4:	0e 94 e7 22 	call	0x45ce	; 0x45ce <eeprom_update_byte>
			return true;
    36d8:	81 e0       	ldi	r24, 0x01	; 1
    36da:	08 95       	ret
		case MENU_CANCEL:
			return true;
	}

	DHWSensor_CallbackRender(column);
    36dc:	86 2f       	mov	r24, r22
    36de:	0e 94 7c 14 	call	0x28f8	; 0x28f8 <DHWSensor_CallbackRender>
	return false;
    36e2:	80 e0       	ldi	r24, 0x00	; 0
    36e4:	08 95       	ret
			break;
		case MENU_CONFIRM:
			eeprom_update_byte(&eeDHWSensorID, DHWSensorID);
			return true;
		case MENU_CANCEL:
			return true;
    36e6:	81 e0       	ldi	r24, 0x01	; 1
	}

	DHWSensor_CallbackRender(column);
	return false;
}
    36e8:	08 95       	ret

000036ea <ForwardHeatTemp_ActionCallback>:
	lcd_gotoxy(0,1);
	lcd_puts(buf);
}

bool ForwardHeatTemp_ActionCallback(MENU_BUTTON *button, uint8_t column){
	switch(button->role){
    36ea:	fc 01       	movw	r30, r24
    36ec:	90 81       	ld	r25, Z
    36ee:	91 30       	cpi	r25, 0x01	; 1
    36f0:	71 f0       	breq	.+28     	; 0x370e <ForwardHeatTemp_ActionCallback+0x24>
    36f2:	28 f0       	brcs	.+10     	; 0x36fe <ForwardHeatTemp_ActionCallback+0x14>
    36f4:	92 30       	cpi	r25, 0x02	; 2
    36f6:	99 f0       	breq	.+38     	; 0x371e <ForwardHeatTemp_ActionCallback+0x34>
    36f8:	93 30       	cpi	r25, 0x03	; 3
    36fa:	f1 f0       	breq	.+60     	; 0x3738 <ForwardHeatTemp_ActionCallback+0x4e>
    36fc:	18 c0       	rjmp	.+48     	; 0x372e <ForwardHeatTemp_ActionCallback+0x44>
		case MENU_UP:
			if (ForwardHeatTemp != 90)
    36fe:	80 91 0a 01 	lds	r24, 0x010A	; 0x80010a <ForwardHeatTemp>
    3702:	8a 35       	cpi	r24, 0x5A	; 90
    3704:	a1 f0       	breq	.+40     	; 0x372e <ForwardHeatTemp_ActionCallback+0x44>
				++ForwardHeatTemp;
    3706:	8f 5f       	subi	r24, 0xFF	; 255
    3708:	80 93 0a 01 	sts	0x010A, r24	; 0x80010a <ForwardHeatTemp>
    370c:	10 c0       	rjmp	.+32     	; 0x372e <ForwardHeatTemp_ActionCallback+0x44>
			break;
		case MENU_DOWN:
			if (ForwardHeatTemp > 20)
    370e:	80 91 0a 01 	lds	r24, 0x010A	; 0x80010a <ForwardHeatTemp>
    3712:	85 31       	cpi	r24, 0x15	; 21
    3714:	60 f0       	brcs	.+24     	; 0x372e <ForwardHeatTemp_ActionCallback+0x44>
				--ForwardHeatTemp;
    3716:	81 50       	subi	r24, 0x01	; 1
    3718:	80 93 0a 01 	sts	0x010A, r24	; 0x80010a <ForwardHeatTemp>
    371c:	08 c0       	rjmp	.+16     	; 0x372e <ForwardHeatTemp_ActionCallback+0x44>
			break;
		case MENU_CONFIRM:
			eeprom_update_byte(&eeForwardHeatTemp, ForwardHeatTemp);
    371e:	60 91 0a 01 	lds	r22, 0x010A	; 0x80010a <ForwardHeatTemp>
    3722:	8a e0       	ldi	r24, 0x0A	; 10
    3724:	90 e0       	ldi	r25, 0x00	; 0
    3726:	0e 94 e7 22 	call	0x45ce	; 0x45ce <eeprom_update_byte>
			return true;
    372a:	81 e0       	ldi	r24, 0x01	; 1
    372c:	08 95       	ret
		case MENU_CANCEL:
			return true;
	}

	ForwardHeatTemp_CallbackRender(column);
    372e:	86 2f       	mov	r24, r22
    3730:	0e 94 ee 14 	call	0x29dc	; 0x29dc <ForwardHeatTemp_CallbackRender>
	return false;
    3734:	80 e0       	ldi	r24, 0x00	; 0
    3736:	08 95       	ret
			break;
		case MENU_CONFIRM:
			eeprom_update_byte(&eeForwardHeatTemp, ForwardHeatTemp);
			return true;
		case MENU_CANCEL:
			return true;
    3738:	81 e0       	ldi	r24, 0x01	; 1
	}

	ForwardHeatTemp_CallbackRender(column);
	return false;
}
    373a:	08 95       	ret

0000373c <BufferSensor_ActionCallback>:
	itoa(BufferSensorID, buf, 10);
	lcd_puts(buf);
}

bool BufferSensor_ActionCallback(MENU_BUTTON *button, uint8_t column){
	switch(button->role){
    373c:	fc 01       	movw	r30, r24
    373e:	90 81       	ld	r25, Z
    3740:	91 30       	cpi	r25, 0x01	; 1
    3742:	91 f0       	breq	.+36     	; 0x3768 <BufferSensor_ActionCallback+0x2c>
    3744:	28 f0       	brcs	.+10     	; 0x3750 <BufferSensor_ActionCallback+0x14>
    3746:	92 30       	cpi	r25, 0x02	; 2
    3748:	e1 f0       	breq	.+56     	; 0x3782 <BufferSensor_ActionCallback+0x46>
    374a:	93 30       	cpi	r25, 0x03	; 3
    374c:	39 f1       	breq	.+78     	; 0x379c <BufferSensor_ActionCallback+0x60>
    374e:	21 c0       	rjmp	.+66     	; 0x3792 <BufferSensor_ActionCallback+0x56>
		case MENU_UP:
			BufferSensorID++;
    3750:	80 91 09 01 	lds	r24, 0x0109	; 0x800109 <BufferSensorID>
    3754:	8f 5f       	subi	r24, 0xFF	; 255
    3756:	80 93 09 01 	sts	0x0109, r24	; 0x800109 <BufferSensorID>
			if (BufferSensorID == nSensors)
    375a:	90 91 7f 06 	lds	r25, 0x067F	; 0x80067f <nSensors>
    375e:	89 13       	cpse	r24, r25
    3760:	18 c0       	rjmp	.+48     	; 0x3792 <BufferSensor_ActionCallback+0x56>
				BufferSensorID = 0;
    3762:	10 92 09 01 	sts	0x0109, r1	; 0x800109 <BufferSensorID>
    3766:	15 c0       	rjmp	.+42     	; 0x3792 <BufferSensor_ActionCallback+0x56>
			break;
		case MENU_DOWN:
			BufferSensorID--;
    3768:	80 91 09 01 	lds	r24, 0x0109	; 0x800109 <BufferSensorID>
    376c:	81 50       	subi	r24, 0x01	; 1
    376e:	80 93 09 01 	sts	0x0109, r24	; 0x800109 <BufferSensorID>
			if (BufferSensorID == 255)
    3772:	8f 3f       	cpi	r24, 0xFF	; 255
    3774:	71 f4       	brne	.+28     	; 0x3792 <BufferSensor_ActionCallback+0x56>
				BufferSensorID = nSensors - 1;
    3776:	80 91 7f 06 	lds	r24, 0x067F	; 0x80067f <nSensors>
    377a:	81 50       	subi	r24, 0x01	; 1
    377c:	80 93 09 01 	sts	0x0109, r24	; 0x800109 <BufferSensorID>
    3780:	08 c0       	rjmp	.+16     	; 0x3792 <BufferSensor_ActionCallback+0x56>
			break;
		case MENU_CONFIRM:
			eeprom_update_byte(&eeBufferSensorID, BufferSensorID);
    3782:	60 91 09 01 	lds	r22, 0x0109	; 0x800109 <BufferSensorID>
    3786:	84 e0       	ldi	r24, 0x04	; 4
    3788:	90 e0       	ldi	r25, 0x00	; 0
    378a:	0e 94 e7 22 	call	0x45ce	; 0x45ce <eeprom_update_byte>
			return true;
    378e:	81 e0       	ldi	r24, 0x01	; 1
    3790:	08 95       	ret
		case MENU_CANCEL:
			return true;
	}

	BufferSensor_CallbackRender(column);
    3792:	86 2f       	mov	r24, r22
    3794:	0e 94 12 15 	call	0x2a24	; 0x2a24 <BufferSensor_CallbackRender>
	return false;
    3798:	80 e0       	ldi	r24, 0x00	; 0
    379a:	08 95       	ret
			break;
		case MENU_CONFIRM:
			eeprom_update_byte(&eeBufferSensorID, BufferSensorID);
			return true;
		case MENU_CANCEL:
			return true;
    379c:	81 e0       	ldi	r24, 0x01	; 1
	}

	BufferSensor_CallbackRender(column);
	return false;
}
    379e:	08 95       	ret

000037a0 <EngineeringTempMin_ActionCallback>:
	lcd_gotoxy(0,1);
	lcd_puts(buf);
}

bool EngineeringTempMin_ActionCallback(MENU_BUTTON *button, uint8_t column){
	switch(button->role){
    37a0:	fc 01       	movw	r30, r24
    37a2:	90 81       	ld	r25, Z
    37a4:	91 30       	cpi	r25, 0x01	; 1
    37a6:	81 f0       	breq	.+32     	; 0x37c8 <EngineeringTempMin_ActionCallback+0x28>
    37a8:	28 f0       	brcs	.+10     	; 0x37b4 <EngineeringTempMin_ActionCallback+0x14>
    37aa:	92 30       	cpi	r25, 0x02	; 2
    37ac:	a9 f0       	breq	.+42     	; 0x37d8 <EngineeringTempMin_ActionCallback+0x38>
    37ae:	93 30       	cpi	r25, 0x03	; 3
    37b0:	01 f1       	breq	.+64     	; 0x37f2 <EngineeringTempMin_ActionCallback+0x52>
    37b2:	1a c0       	rjmp	.+52     	; 0x37e8 <EngineeringTempMin_ActionCallback+0x48>
		case MENU_UP:
			if (EngineeringTempMin < EngineeringTempDesired)
    37b4:	80 91 a4 06 	lds	r24, 0x06A4	; 0x8006a4 <EngineeringTempMin>
    37b8:	90 91 6b 06 	lds	r25, 0x066B	; 0x80066b <EngineeringTempDesired>
    37bc:	89 17       	cp	r24, r25
    37be:	a0 f4       	brcc	.+40     	; 0x37e8 <EngineeringTempMin_ActionCallback+0x48>
				++EngineeringTempMin;
    37c0:	8f 5f       	subi	r24, 0xFF	; 255
    37c2:	80 93 a4 06 	sts	0x06A4, r24	; 0x8006a4 <EngineeringTempMin>
    37c6:	10 c0       	rjmp	.+32     	; 0x37e8 <EngineeringTempMin_ActionCallback+0x48>
			break;
		case MENU_DOWN:
			if (EngineeringTempMin > 5)
    37c8:	80 91 a4 06 	lds	r24, 0x06A4	; 0x8006a4 <EngineeringTempMin>
    37cc:	86 30       	cpi	r24, 0x06	; 6
    37ce:	60 f0       	brcs	.+24     	; 0x37e8 <EngineeringTempMin_ActionCallback+0x48>
				--EngineeringTempMin;
    37d0:	81 50       	subi	r24, 0x01	; 1
    37d2:	80 93 a4 06 	sts	0x06A4, r24	; 0x8006a4 <EngineeringTempMin>
    37d6:	08 c0       	rjmp	.+16     	; 0x37e8 <EngineeringTempMin_ActionCallback+0x48>
			break;
		case MENU_CONFIRM:
			eeprom_update_byte(&eeEngineeringTempMin, EngineeringTempMin);
    37d8:	60 91 a4 06 	lds	r22, 0x06A4	; 0x8006a4 <EngineeringTempMin>
    37dc:	88 e0       	ldi	r24, 0x08	; 8
    37de:	90 e0       	ldi	r25, 0x00	; 0
    37e0:	0e 94 e7 22 	call	0x45ce	; 0x45ce <eeprom_update_byte>
			return true;
    37e4:	81 e0       	ldi	r24, 0x01	; 1
    37e6:	08 95       	ret
		case MENU_CANCEL:
			return true;
	}

	EngineeringTempMin_CallbackRender(column);
    37e8:	86 2f       	mov	r24, r22
    37ea:	0e 94 36 15 	call	0x2a6c	; 0x2a6c <EngineeringTempMin_CallbackRender>
	return false;
    37ee:	80 e0       	ldi	r24, 0x00	; 0
    37f0:	08 95       	ret
			break;
		case MENU_CONFIRM:
			eeprom_update_byte(&eeEngineeringTempMin, EngineeringTempMin);
			return true;
		case MENU_CANCEL:
			return true;
    37f2:	81 e0       	ldi	r24, 0x01	; 1
	}

	EngineeringTempMin_CallbackRender(column);
	return false;
}
    37f4:	08 95       	ret

000037f6 <EngineeringTempDesired_ActionCallback>:
	lcd_gotoxy(0,1);
	lcd_puts(buf);
}

bool EngineeringTempDesired_ActionCallback(MENU_BUTTON *button, uint8_t column){
	switch(button->role){
    37f6:	fc 01       	movw	r30, r24
    37f8:	90 81       	ld	r25, Z
    37fa:	91 30       	cpi	r25, 0x01	; 1
    37fc:	71 f0       	breq	.+28     	; 0x381a <EngineeringTempDesired_ActionCallback+0x24>
    37fe:	28 f0       	brcs	.+10     	; 0x380a <EngineeringTempDesired_ActionCallback+0x14>
    3800:	92 30       	cpi	r25, 0x02	; 2
    3802:	a9 f0       	breq	.+42     	; 0x382e <EngineeringTempDesired_ActionCallback+0x38>
    3804:	93 30       	cpi	r25, 0x03	; 3
    3806:	01 f1       	breq	.+64     	; 0x3848 <EngineeringTempDesired_ActionCallback+0x52>
    3808:	1a c0       	rjmp	.+52     	; 0x383e <EngineeringTempDesired_ActionCallback+0x48>
		case MENU_UP:
			if (EngineeringTempDesired < 35)
    380a:	80 91 6b 06 	lds	r24, 0x066B	; 0x80066b <EngineeringTempDesired>
    380e:	83 32       	cpi	r24, 0x23	; 35
    3810:	b0 f4       	brcc	.+44     	; 0x383e <EngineeringTempDesired_ActionCallback+0x48>
				++EngineeringTempDesired;
    3812:	8f 5f       	subi	r24, 0xFF	; 255
    3814:	80 93 6b 06 	sts	0x066B, r24	; 0x80066b <EngineeringTempDesired>
    3818:	12 c0       	rjmp	.+36     	; 0x383e <EngineeringTempDesired_ActionCallback+0x48>
			break;
		case MENU_DOWN:
			if (EngineeringTempDesired > EngineeringTempMin)
    381a:	80 91 6b 06 	lds	r24, 0x066B	; 0x80066b <EngineeringTempDesired>
    381e:	90 91 a4 06 	lds	r25, 0x06A4	; 0x8006a4 <EngineeringTempMin>
    3822:	98 17       	cp	r25, r24
    3824:	60 f4       	brcc	.+24     	; 0x383e <EngineeringTempDesired_ActionCallback+0x48>
				--EngineeringTempDesired;
    3826:	81 50       	subi	r24, 0x01	; 1
    3828:	80 93 6b 06 	sts	0x066B, r24	; 0x80066b <EngineeringTempDesired>
    382c:	08 c0       	rjmp	.+16     	; 0x383e <EngineeringTempDesired_ActionCallback+0x48>
			break;
		case MENU_CONFIRM:
			eeprom_update_byte(&eeEngineeringTempDesired, EngineeringTempDesired);
    382e:	60 91 6b 06 	lds	r22, 0x066B	; 0x80066b <EngineeringTempDesired>
    3832:	89 e0       	ldi	r24, 0x09	; 9
    3834:	90 e0       	ldi	r25, 0x00	; 0
    3836:	0e 94 e7 22 	call	0x45ce	; 0x45ce <eeprom_update_byte>
			return true;
    383a:	81 e0       	ldi	r24, 0x01	; 1
    383c:	08 95       	ret
		case MENU_CANCEL:
			return true;
	}
	EngineeringTempDesired_CallbackRender(column);
    383e:	86 2f       	mov	r24, r22
    3840:	0e 94 5a 15 	call	0x2ab4	; 0x2ab4 <EngineeringTempDesired_CallbackRender>
	return false;
    3844:	80 e0       	ldi	r24, 0x00	; 0
    3846:	08 95       	ret
			break;
		case MENU_CONFIRM:
			eeprom_update_byte(&eeEngineeringTempDesired, EngineeringTempDesired);
			return true;
		case MENU_CANCEL:
			return true;
    3848:	81 e0       	ldi	r24, 0x01	; 1
	}
	EngineeringTempDesired_CallbackRender(column);
	return false;
}
    384a:	08 95       	ret

0000384c <EngineeringSensor_ActionCallback>:
	itoa(EngineeringSensorID, buf, 10);
	lcd_puts(buf);
}

bool EngineeringSensor_ActionCallback(MENU_BUTTON *button, uint8_t column){
	switch(button->role){
    384c:	fc 01       	movw	r30, r24
    384e:	90 81       	ld	r25, Z
    3850:	91 30       	cpi	r25, 0x01	; 1
    3852:	91 f0       	breq	.+36     	; 0x3878 <EngineeringSensor_ActionCallback+0x2c>
    3854:	28 f0       	brcs	.+10     	; 0x3860 <EngineeringSensor_ActionCallback+0x14>
    3856:	92 30       	cpi	r25, 0x02	; 2
    3858:	e1 f0       	breq	.+56     	; 0x3892 <EngineeringSensor_ActionCallback+0x46>
    385a:	93 30       	cpi	r25, 0x03	; 3
    385c:	39 f1       	breq	.+78     	; 0x38ac <EngineeringSensor_ActionCallback+0x60>
    385e:	21 c0       	rjmp	.+66     	; 0x38a2 <EngineeringSensor_ActionCallback+0x56>
		case MENU_UP:
			EngineeringSensorID++;
    3860:	80 91 07 01 	lds	r24, 0x0107	; 0x800107 <EngineeringSensorID>
    3864:	8f 5f       	subi	r24, 0xFF	; 255
    3866:	80 93 07 01 	sts	0x0107, r24	; 0x800107 <EngineeringSensorID>
			if (EngineeringSensorID == nSensors)
    386a:	90 91 7f 06 	lds	r25, 0x067F	; 0x80067f <nSensors>
    386e:	89 13       	cpse	r24, r25
    3870:	18 c0       	rjmp	.+48     	; 0x38a2 <EngineeringSensor_ActionCallback+0x56>
				EngineeringSensorID = 0;
    3872:	10 92 07 01 	sts	0x0107, r1	; 0x800107 <EngineeringSensorID>
    3876:	15 c0       	rjmp	.+42     	; 0x38a2 <EngineeringSensor_ActionCallback+0x56>
			break;
		case MENU_DOWN:
			EngineeringSensorID--;
    3878:	80 91 07 01 	lds	r24, 0x0107	; 0x800107 <EngineeringSensorID>
    387c:	81 50       	subi	r24, 0x01	; 1
    387e:	80 93 07 01 	sts	0x0107, r24	; 0x800107 <EngineeringSensorID>
			if (EngineeringSensorID == 255)
    3882:	8f 3f       	cpi	r24, 0xFF	; 255
    3884:	71 f4       	brne	.+28     	; 0x38a2 <EngineeringSensor_ActionCallback+0x56>
				EngineeringSensorID = nSensors - 1;
    3886:	80 91 7f 06 	lds	r24, 0x067F	; 0x80067f <nSensors>
    388a:	81 50       	subi	r24, 0x01	; 1
    388c:	80 93 07 01 	sts	0x0107, r24	; 0x800107 <EngineeringSensorID>
    3890:	08 c0       	rjmp	.+16     	; 0x38a2 <EngineeringSensor_ActionCallback+0x56>
			break;
		case MENU_CONFIRM:
			eeprom_update_byte(&eeEngineeringSensorID, EngineeringSensorID);
    3892:	60 91 07 01 	lds	r22, 0x0107	; 0x800107 <EngineeringSensorID>
    3896:	82 e0       	ldi	r24, 0x02	; 2
    3898:	90 e0       	ldi	r25, 0x00	; 0
    389a:	0e 94 e7 22 	call	0x45ce	; 0x45ce <eeprom_update_byte>
			return true;
    389e:	81 e0       	ldi	r24, 0x01	; 1
    38a0:	08 95       	ret
		case MENU_CANCEL:
			return true;
	}

	EngineeringSensor_CallbackRender(column);
    38a2:	86 2f       	mov	r24, r22
    38a4:	0e 94 84 15 	call	0x2b08	; 0x2b08 <EngineeringSensor_CallbackRender>
	return false;
    38a8:	80 e0       	ldi	r24, 0x00	; 0
    38aa:	08 95       	ret
			break;
		case MENU_CONFIRM:
			eeprom_update_byte(&eeEngineeringSensorID, EngineeringSensorID);
			return true;
		case MENU_CANCEL:
			return true;
    38ac:	81 e0       	ldi	r24, 0x01	; 1
	}

	EngineeringSensor_CallbackRender(column);
	return false;
}
    38ae:	08 95       	ret

000038b0 <GarageSensor_ActionCallback>:
	itoa(GarageSensorID, buf, 10);
	lcd_puts(buf);
}

bool GarageSensor_ActionCallback(MENU_BUTTON *button, uint8_t column){
	switch(button->role){
    38b0:	fc 01       	movw	r30, r24
    38b2:	90 81       	ld	r25, Z
    38b4:	91 30       	cpi	r25, 0x01	; 1
    38b6:	91 f0       	breq	.+36     	; 0x38dc <GarageSensor_ActionCallback+0x2c>
    38b8:	28 f0       	brcs	.+10     	; 0x38c4 <GarageSensor_ActionCallback+0x14>
    38ba:	92 30       	cpi	r25, 0x02	; 2
    38bc:	e1 f0       	breq	.+56     	; 0x38f6 <GarageSensor_ActionCallback+0x46>
    38be:	93 30       	cpi	r25, 0x03	; 3
    38c0:	39 f1       	breq	.+78     	; 0x3910 <GarageSensor_ActionCallback+0x60>
    38c2:	21 c0       	rjmp	.+66     	; 0x3906 <GarageSensor_ActionCallback+0x56>
		case MENU_UP:
			GarageSensorID++;
    38c4:	80 91 08 01 	lds	r24, 0x0108	; 0x800108 <GarageSensorID>
    38c8:	8f 5f       	subi	r24, 0xFF	; 255
    38ca:	80 93 08 01 	sts	0x0108, r24	; 0x800108 <GarageSensorID>
			if (GarageSensorID == nSensors)
    38ce:	90 91 7f 06 	lds	r25, 0x067F	; 0x80067f <nSensors>
    38d2:	89 13       	cpse	r24, r25
    38d4:	18 c0       	rjmp	.+48     	; 0x3906 <GarageSensor_ActionCallback+0x56>
				GarageSensorID = 0;
    38d6:	10 92 08 01 	sts	0x0108, r1	; 0x800108 <GarageSensorID>
    38da:	15 c0       	rjmp	.+42     	; 0x3906 <GarageSensor_ActionCallback+0x56>
			break;
		case MENU_DOWN:
			GarageSensorID--;
    38dc:	80 91 08 01 	lds	r24, 0x0108	; 0x800108 <GarageSensorID>
    38e0:	81 50       	subi	r24, 0x01	; 1
    38e2:	80 93 08 01 	sts	0x0108, r24	; 0x800108 <GarageSensorID>
			if (GarageSensorID == 255)
    38e6:	8f 3f       	cpi	r24, 0xFF	; 255
    38e8:	71 f4       	brne	.+28     	; 0x3906 <GarageSensor_ActionCallback+0x56>
				GarageSensorID = nSensors - 1;
    38ea:	80 91 7f 06 	lds	r24, 0x067F	; 0x80067f <nSensors>
    38ee:	81 50       	subi	r24, 0x01	; 1
    38f0:	80 93 08 01 	sts	0x0108, r24	; 0x800108 <GarageSensorID>
    38f4:	08 c0       	rjmp	.+16     	; 0x3906 <GarageSensor_ActionCallback+0x56>
			break;
		case MENU_CONFIRM:
			eeprom_update_byte(&eeGarageSensorID, GarageSensorID);
    38f6:	60 91 08 01 	lds	r22, 0x0108	; 0x800108 <GarageSensorID>
    38fa:	83 e0       	ldi	r24, 0x03	; 3
    38fc:	90 e0       	ldi	r25, 0x00	; 0
    38fe:	0e 94 e7 22 	call	0x45ce	; 0x45ce <eeprom_update_byte>
			return true;
    3902:	81 e0       	ldi	r24, 0x01	; 1
    3904:	08 95       	ret
		case MENU_CANCEL:
			return true;
	}

	GarageSensor_CallbackRender(column);
    3906:	86 2f       	mov	r24, r22
    3908:	0e 94 a8 15 	call	0x2b50	; 0x2b50 <GarageSensor_CallbackRender>
	return false;
    390c:	80 e0       	ldi	r24, 0x00	; 0
    390e:	08 95       	ret
			break;
		case MENU_CONFIRM:
			eeprom_update_byte(&eeGarageSensorID, GarageSensorID);
			return true;
		case MENU_CANCEL:
			return true;
    3910:	81 e0       	ldi	r24, 0x01	; 1
	}

	GarageSensor_CallbackRender(column);
	return false;
}
    3912:	08 95       	ret

00003914 <LivingRoomSensor_ActionCallback>:
	itoa(LivingRoomSensorID, buf, 10);
	lcd_puts(buf);
}

bool LivingRoomSensor_ActionCallback(MENU_BUTTON *button, uint8_t column){
	switch(button->role){
    3914:	fc 01       	movw	r30, r24
    3916:	90 81       	ld	r25, Z
    3918:	91 30       	cpi	r25, 0x01	; 1
    391a:	91 f0       	breq	.+36     	; 0x3940 <LivingRoomSensor_ActionCallback+0x2c>
    391c:	28 f0       	brcs	.+10     	; 0x3928 <LivingRoomSensor_ActionCallback+0x14>
    391e:	92 30       	cpi	r25, 0x02	; 2
    3920:	e1 f0       	breq	.+56     	; 0x395a <LivingRoomSensor_ActionCallback+0x46>
    3922:	93 30       	cpi	r25, 0x03	; 3
    3924:	39 f1       	breq	.+78     	; 0x3974 <LivingRoomSensor_ActionCallback+0x60>
    3926:	21 c0       	rjmp	.+66     	; 0x396a <LivingRoomSensor_ActionCallback+0x56>
		case MENU_UP:
			LivingRoomSensorID++;
    3928:	80 91 06 01 	lds	r24, 0x0106	; 0x800106 <LivingRoomSensorID>
    392c:	8f 5f       	subi	r24, 0xFF	; 255
    392e:	80 93 06 01 	sts	0x0106, r24	; 0x800106 <LivingRoomSensorID>
			if (LivingRoomSensorID == nSensors)
    3932:	90 91 7f 06 	lds	r25, 0x067F	; 0x80067f <nSensors>
    3936:	89 13       	cpse	r24, r25
    3938:	18 c0       	rjmp	.+48     	; 0x396a <LivingRoomSensor_ActionCallback+0x56>
				LivingRoomSensorID = 0;
    393a:	10 92 06 01 	sts	0x0106, r1	; 0x800106 <LivingRoomSensorID>
    393e:	15 c0       	rjmp	.+42     	; 0x396a <LivingRoomSensor_ActionCallback+0x56>
			break;
		case MENU_DOWN:
			LivingRoomSensorID--;
    3940:	80 91 06 01 	lds	r24, 0x0106	; 0x800106 <LivingRoomSensorID>
    3944:	81 50       	subi	r24, 0x01	; 1
    3946:	80 93 06 01 	sts	0x0106, r24	; 0x800106 <LivingRoomSensorID>
			if (LivingRoomSensorID == 255)
    394a:	8f 3f       	cpi	r24, 0xFF	; 255
    394c:	71 f4       	brne	.+28     	; 0x396a <LivingRoomSensor_ActionCallback+0x56>
				LivingRoomSensorID = nSensors - 1;
    394e:	80 91 7f 06 	lds	r24, 0x067F	; 0x80067f <nSensors>
    3952:	81 50       	subi	r24, 0x01	; 1
    3954:	80 93 06 01 	sts	0x0106, r24	; 0x800106 <LivingRoomSensorID>
    3958:	08 c0       	rjmp	.+16     	; 0x396a <LivingRoomSensor_ActionCallback+0x56>
			break;
		case MENU_CONFIRM:
			eeprom_update_byte(&eeLivingRoomSensorID, LivingRoomSensorID);
    395a:	60 91 06 01 	lds	r22, 0x0106	; 0x800106 <LivingRoomSensorID>
    395e:	81 e0       	ldi	r24, 0x01	; 1
    3960:	90 e0       	ldi	r25, 0x00	; 0
    3962:	0e 94 e7 22 	call	0x45ce	; 0x45ce <eeprom_update_byte>
			return true;
    3966:	81 e0       	ldi	r24, 0x01	; 1
    3968:	08 95       	ret
		case MENU_CANCEL:
			return true;
	}

	LivingRoomSensor_CallbackRender(column);
    396a:	86 2f       	mov	r24, r22
    396c:	0e 94 cc 15 	call	0x2b98	; 0x2b98 <LivingRoomSensor_CallbackRender>
	return false;
    3970:	80 e0       	ldi	r24, 0x00	; 0
    3972:	08 95       	ret
			break;
		case MENU_CONFIRM:
			eeprom_update_byte(&eeLivingRoomSensorID, LivingRoomSensorID);
			return true;
		case MENU_CANCEL:
			return true;
    3974:	81 e0       	ldi	r24, 0x01	; 1
	}

	LivingRoomSensor_CallbackRender(column);
	return false;
}
    3976:	08 95       	ret

00003978 <FloorSensor_ActionCallback>:
	itoa(FloorSensorID, buf, 10);
	lcd_puts(buf);
}

bool FloorSensor_ActionCallback(MENU_BUTTON *button, uint8_t column){
	switch(button->role){
    3978:	fc 01       	movw	r30, r24
    397a:	90 81       	ld	r25, Z
    397c:	91 30       	cpi	r25, 0x01	; 1
    397e:	91 f0       	breq	.+36     	; 0x39a4 <FloorSensor_ActionCallback+0x2c>
    3980:	28 f0       	brcs	.+10     	; 0x398c <FloorSensor_ActionCallback+0x14>
    3982:	92 30       	cpi	r25, 0x02	; 2
    3984:	e1 f0       	breq	.+56     	; 0x39be <FloorSensor_ActionCallback+0x46>
    3986:	93 30       	cpi	r25, 0x03	; 3
    3988:	39 f1       	breq	.+78     	; 0x39d8 <FloorSensor_ActionCallback+0x60>
    398a:	21 c0       	rjmp	.+66     	; 0x39ce <FloorSensor_ActionCallback+0x56>
		case MENU_UP:
			FloorSensorID++;
    398c:	80 91 05 01 	lds	r24, 0x0105	; 0x800105 <FloorSensorID>
    3990:	8f 5f       	subi	r24, 0xFF	; 255
    3992:	80 93 05 01 	sts	0x0105, r24	; 0x800105 <FloorSensorID>
			if (FloorSensorID == nSensors)
    3996:	90 91 7f 06 	lds	r25, 0x067F	; 0x80067f <nSensors>
    399a:	89 13       	cpse	r24, r25
    399c:	18 c0       	rjmp	.+48     	; 0x39ce <FloorSensor_ActionCallback+0x56>
				FloorSensorID = 0;
    399e:	10 92 05 01 	sts	0x0105, r1	; 0x800105 <FloorSensorID>
    39a2:	15 c0       	rjmp	.+42     	; 0x39ce <FloorSensor_ActionCallback+0x56>
			break;
		case MENU_DOWN:
			FloorSensorID--;
    39a4:	80 91 05 01 	lds	r24, 0x0105	; 0x800105 <FloorSensorID>
    39a8:	81 50       	subi	r24, 0x01	; 1
    39aa:	80 93 05 01 	sts	0x0105, r24	; 0x800105 <FloorSensorID>
			if (FloorSensorID == 255)
    39ae:	8f 3f       	cpi	r24, 0xFF	; 255
    39b0:	71 f4       	brne	.+28     	; 0x39ce <FloorSensor_ActionCallback+0x56>
				FloorSensorID = nSensors - 1;
    39b2:	80 91 7f 06 	lds	r24, 0x067F	; 0x80067f <nSensors>
    39b6:	81 50       	subi	r24, 0x01	; 1
    39b8:	80 93 05 01 	sts	0x0105, r24	; 0x800105 <FloorSensorID>
    39bc:	08 c0       	rjmp	.+16     	; 0x39ce <FloorSensor_ActionCallback+0x56>
			break;
		case MENU_CONFIRM:
			eeprom_update_byte(&eeFloorSensorID, FloorSensorID);
    39be:	60 91 05 01 	lds	r22, 0x0105	; 0x800105 <FloorSensorID>
    39c2:	80 e0       	ldi	r24, 0x00	; 0
    39c4:	90 e0       	ldi	r25, 0x00	; 0
    39c6:	0e 94 e7 22 	call	0x45ce	; 0x45ce <eeprom_update_byte>
			return true;
    39ca:	81 e0       	ldi	r24, 0x01	; 1
    39cc:	08 95       	ret
		case MENU_CANCEL:
			return true;
	}

	FloorSensor_CallbackRender(column);
    39ce:	86 2f       	mov	r24, r22
    39d0:	0e 94 f0 15 	call	0x2be0	; 0x2be0 <FloorSensor_CallbackRender>
	return false;
    39d4:	80 e0       	ldi	r24, 0x00	; 0
    39d6:	08 95       	ret
			break;
		case MENU_CONFIRM:
			eeprom_update_byte(&eeFloorSensorID, FloorSensorID);
			return true;
		case MENU_CANCEL:
			return true;
    39d8:	81 e0       	ldi	r24, 0x01	; 1
	}

	FloorSensor_CallbackRender(column);
	return false;
}
    39da:	08 95       	ret

000039dc <DebugMode_ActionCallback>:
	itoa(DebugMode, buf, 10);
	lcd_puts(buf);
}

bool DebugMode_ActionCallback(MENU_BUTTON *button, uint8_t column){
	switch(button->role){
    39dc:	fc 01       	movw	r30, r24
    39de:	90 81       	ld	r25, Z
    39e0:	91 30       	cpi	r25, 0x01	; 1
    39e2:	61 f0       	breq	.+24     	; 0x39fc <DebugMode_ActionCallback+0x20>
    39e4:	28 f0       	brcs	.+10     	; 0x39f0 <DebugMode_ActionCallback+0x14>
    39e6:	92 30       	cpi	r25, 0x02	; 2
    39e8:	79 f0       	breq	.+30     	; 0x3a08 <DebugMode_ActionCallback+0x2c>
    39ea:	93 30       	cpi	r25, 0x03	; 3
    39ec:	d1 f0       	breq	.+52     	; 0x3a22 <DebugMode_ActionCallback+0x46>
    39ee:	14 c0       	rjmp	.+40     	; 0x3a18 <DebugMode_ActionCallback+0x3c>
		case MENU_UP:
			++DebugMode;
    39f0:	80 91 b2 05 	lds	r24, 0x05B2	; 0x8005b2 <DebugMode>
    39f4:	8f 5f       	subi	r24, 0xFF	; 255
    39f6:	80 93 b2 05 	sts	0x05B2, r24	; 0x8005b2 <DebugMode>
			break;
    39fa:	0e c0       	rjmp	.+28     	; 0x3a18 <DebugMode_ActionCallback+0x3c>
		case MENU_DOWN:
			--DebugMode;
    39fc:	80 91 b2 05 	lds	r24, 0x05B2	; 0x8005b2 <DebugMode>
    3a00:	81 50       	subi	r24, 0x01	; 1
    3a02:	80 93 b2 05 	sts	0x05B2, r24	; 0x8005b2 <DebugMode>
			break;
    3a06:	08 c0       	rjmp	.+16     	; 0x3a18 <DebugMode_ActionCallback+0x3c>
		case MENU_CONFIRM:
			eeprom_update_byte(&eeDebugMode, DebugMode);
    3a08:	60 91 b2 05 	lds	r22, 0x05B2	; 0x8005b2 <DebugMode>
    3a0c:	88 e1       	ldi	r24, 0x18	; 24
    3a0e:	90 e0       	ldi	r25, 0x00	; 0
    3a10:	0e 94 e7 22 	call	0x45ce	; 0x45ce <eeprom_update_byte>
			return true;
    3a14:	81 e0       	ldi	r24, 0x01	; 1
    3a16:	08 95       	ret
		case MENU_CANCEL:
			return true;
	}

	DebugMode_CallbackRender(column);
    3a18:	86 2f       	mov	r24, r22
    3a1a:	0e 94 14 16 	call	0x2c28	; 0x2c28 <DebugMode_CallbackRender>
	return false;
    3a1e:	80 e0       	ldi	r24, 0x00	; 0
    3a20:	08 95       	ret
			break;
		case MENU_CONFIRM:
			eeprom_update_byte(&eeDebugMode, DebugMode);
			return true;
		case MENU_CANCEL:
			return true;
    3a22:	81 e0       	ldi	r24, 0x01	; 1
	}

	DebugMode_CallbackRender(column);
	return false;
}
    3a24:	08 95       	ret

00003a26 <MenuTimer_ActionCallback>:
	itoa(MenuTimer, buf, 10);
	lcd_puts(buf);
}

bool MenuTimer_ActionCallback(MENU_BUTTON *button, uint8_t column){
	switch(button->role){
    3a26:	fc 01       	movw	r30, r24
    3a28:	90 81       	ld	r25, Z
    3a2a:	91 30       	cpi	r25, 0x01	; 1
    3a2c:	61 f0       	breq	.+24     	; 0x3a46 <MenuTimer_ActionCallback+0x20>
    3a2e:	28 f0       	brcs	.+10     	; 0x3a3a <MenuTimer_ActionCallback+0x14>
    3a30:	92 30       	cpi	r25, 0x02	; 2
    3a32:	79 f0       	breq	.+30     	; 0x3a52 <MenuTimer_ActionCallback+0x2c>
    3a34:	93 30       	cpi	r25, 0x03	; 3
    3a36:	d1 f0       	breq	.+52     	; 0x3a6c <MenuTimer_ActionCallback+0x46>
    3a38:	14 c0       	rjmp	.+40     	; 0x3a62 <MenuTimer_ActionCallback+0x3c>
		case MENU_UP:
			++MenuTimer;
    3a3a:	80 91 0f 01 	lds	r24, 0x010F	; 0x80010f <MenuTimer>
    3a3e:	8f 5f       	subi	r24, 0xFF	; 255
    3a40:	80 93 0f 01 	sts	0x010F, r24	; 0x80010f <MenuTimer>
			break;
    3a44:	0e c0       	rjmp	.+28     	; 0x3a62 <MenuTimer_ActionCallback+0x3c>
		case MENU_DOWN:
			--MenuTimer;
    3a46:	80 91 0f 01 	lds	r24, 0x010F	; 0x80010f <MenuTimer>
    3a4a:	81 50       	subi	r24, 0x01	; 1
    3a4c:	80 93 0f 01 	sts	0x010F, r24	; 0x80010f <MenuTimer>
			break;
    3a50:	08 c0       	rjmp	.+16     	; 0x3a62 <MenuTimer_ActionCallback+0x3c>
		case MENU_CONFIRM:
			eeprom_update_byte(&eeMenuTimer, MenuTimer);
    3a52:	60 91 0f 01 	lds	r22, 0x010F	; 0x80010f <MenuTimer>
    3a56:	87 e1       	ldi	r24, 0x17	; 23
    3a58:	90 e0       	ldi	r25, 0x00	; 0
    3a5a:	0e 94 e7 22 	call	0x45ce	; 0x45ce <eeprom_update_byte>
			return true;
    3a5e:	81 e0       	ldi	r24, 0x01	; 1
    3a60:	08 95       	ret
		case MENU_CANCEL:
			return true;
	}

	MenuTimer_CallbackRender(column);
    3a62:	86 2f       	mov	r24, r22
    3a64:	0e 94 38 16 	call	0x2c70	; 0x2c70 <MenuTimer_CallbackRender>
	return false;
    3a68:	80 e0       	ldi	r24, 0x00	; 0
    3a6a:	08 95       	ret
			break;
		case MENU_CONFIRM:
			eeprom_update_byte(&eeMenuTimer, MenuTimer);
			return true;
		case MENU_CANCEL:
			return true;
    3a6c:	81 e0       	ldi	r24, 0x01	; 1
	}

	MenuTimer_CallbackRender(column);
	return false;
}
    3a6e:	08 95       	ret

00003a70 <LCDBackLight_ActionCallback>:
	itoa(LCDBackLight, buf, 10);
	lcd_puts(buf);
}

bool LCDBackLight_ActionCallback(MENU_BUTTON *button, uint8_t column){
	switch(button->role){
    3a70:	fc 01       	movw	r30, r24
    3a72:	90 81       	ld	r25, Z
    3a74:	91 30       	cpi	r25, 0x01	; 1
    3a76:	61 f0       	breq	.+24     	; 0x3a90 <LCDBackLight_ActionCallback+0x20>
    3a78:	28 f0       	brcs	.+10     	; 0x3a84 <LCDBackLight_ActionCallback+0x14>
    3a7a:	92 30       	cpi	r25, 0x02	; 2
    3a7c:	79 f0       	breq	.+30     	; 0x3a9c <LCDBackLight_ActionCallback+0x2c>
    3a7e:	93 30       	cpi	r25, 0x03	; 3
    3a80:	19 f1       	breq	.+70     	; 0x3ac8 <LCDBackLight_ActionCallback+0x58>
    3a82:	14 c0       	rjmp	.+40     	; 0x3aac <LCDBackLight_ActionCallback+0x3c>
		case MENU_UP:
			++LCDBackLight;
    3a84:	80 91 b1 05 	lds	r24, 0x05B1	; 0x8005b1 <LCDBackLight>
    3a88:	8f 5f       	subi	r24, 0xFF	; 255
    3a8a:	80 93 b1 05 	sts	0x05B1, r24	; 0x8005b1 <LCDBackLight>
			break;
    3a8e:	0e c0       	rjmp	.+28     	; 0x3aac <LCDBackLight_ActionCallback+0x3c>
		case MENU_DOWN:
			--LCDBackLight;
    3a90:	80 91 b1 05 	lds	r24, 0x05B1	; 0x8005b1 <LCDBackLight>
    3a94:	81 50       	subi	r24, 0x01	; 1
    3a96:	80 93 b1 05 	sts	0x05B1, r24	; 0x8005b1 <LCDBackLight>
			break;
    3a9a:	08 c0       	rjmp	.+16     	; 0x3aac <LCDBackLight_ActionCallback+0x3c>
		case MENU_CONFIRM:
			eeprom_update_byte(&eeLCDBackLight, LCDBackLight);
    3a9c:	60 91 b1 05 	lds	r22, 0x05B1	; 0x8005b1 <LCDBackLight>
    3aa0:	86 e1       	ldi	r24, 0x16	; 22
    3aa2:	90 e0       	ldi	r25, 0x00	; 0
    3aa4:	0e 94 e7 22 	call	0x45ce	; 0x45ce <eeprom_update_byte>
			return true;
    3aa8:	81 e0       	ldi	r24, 0x01	; 1
    3aaa:	08 95       	ret
		case MENU_CANCEL:
			return true;
	}
	if (LCDBackLight != 0)
    3aac:	20 91 b1 05 	lds	r18, 0x05B1	; 0x8005b1 <LCDBackLight>
    3ab0:	22 23       	and	r18, r18
    3ab2:	29 f0       	breq	.+10     	; 0x3abe <LCDBackLight_ActionCallback+0x4e>
		OCR3C = LCDBackLight;
    3ab4:	30 e0       	ldi	r19, 0x00	; 0
    3ab6:	30 93 83 00 	sts	0x0083, r19	; 0x800083 <__TEXT_REGION_LENGTH__+0x7e0083>
    3aba:	20 93 82 00 	sts	0x0082, r18	; 0x800082 <__TEXT_REGION_LENGTH__+0x7e0082>

	LCDBackLight_CallbackRender(column);
    3abe:	86 2f       	mov	r24, r22
    3ac0:	0e 94 58 16 	call	0x2cb0	; 0x2cb0 <LCDBackLight_CallbackRender>
	return false;
    3ac4:	80 e0       	ldi	r24, 0x00	; 0
    3ac6:	08 95       	ret
			break;
		case MENU_CONFIRM:
			eeprom_update_byte(&eeLCDBackLight, LCDBackLight);
			return true;
		case MENU_CANCEL:
			return true;
    3ac8:	81 e0       	ldi	r24, 0x01	; 1
	if (LCDBackLight != 0)
		OCR3C = LCDBackLight;

	LCDBackLight_CallbackRender(column);
	return false;
}
    3aca:	08 95       	ret

00003acc <ComfortMode_ActionCallback>:
	itoa(ComfortMode, buf, 10);
	lcd_puts(buf);
}

bool ComfortMode_ActionCallback(MENU_BUTTON *button, uint8_t column){
	switch(button->role){
    3acc:	fc 01       	movw	r30, r24
    3ace:	90 81       	ld	r25, Z
    3ad0:	91 30       	cpi	r25, 0x01	; 1
    3ad2:	89 f0       	breq	.+34     	; 0x3af6 <ComfortMode_ActionCallback+0x2a>
    3ad4:	28 f0       	brcs	.+10     	; 0x3ae0 <ComfortMode_ActionCallback+0x14>
    3ad6:	92 30       	cpi	r25, 0x02	; 2
    3ad8:	c9 f0       	breq	.+50     	; 0x3b0c <ComfortMode_ActionCallback+0x40>
    3ada:	93 30       	cpi	r25, 0x03	; 3
    3adc:	21 f1       	breq	.+72     	; 0x3b26 <ComfortMode_ActionCallback+0x5a>
    3ade:	1e c0       	rjmp	.+60     	; 0x3b1c <ComfortMode_ActionCallback+0x50>
		case MENU_UP:
			if (++ComfortMode == 2)
    3ae0:	80 91 b0 05 	lds	r24, 0x05B0	; 0x8005b0 <ComfortMode>
    3ae4:	8f 5f       	subi	r24, 0xFF	; 255
    3ae6:	82 30       	cpi	r24, 0x02	; 2
    3ae8:	19 f0       	breq	.+6      	; 0x3af0 <ComfortMode_ActionCallback+0x24>
    3aea:	80 93 b0 05 	sts	0x05B0, r24	; 0x8005b0 <ComfortMode>
    3aee:	16 c0       	rjmp	.+44     	; 0x3b1c <ComfortMode_ActionCallback+0x50>
				ComfortMode = 0;
    3af0:	10 92 b0 05 	sts	0x05B0, r1	; 0x8005b0 <ComfortMode>
    3af4:	13 c0       	rjmp	.+38     	; 0x3b1c <ComfortMode_ActionCallback+0x50>
			break;
		case MENU_DOWN:
			if (--ComfortMode == 255)
    3af6:	80 91 b0 05 	lds	r24, 0x05B0	; 0x8005b0 <ComfortMode>
    3afa:	81 50       	subi	r24, 0x01	; 1
    3afc:	18 f0       	brcs	.+6      	; 0x3b04 <ComfortMode_ActionCallback+0x38>
    3afe:	80 93 b0 05 	sts	0x05B0, r24	; 0x8005b0 <ComfortMode>
    3b02:	0c c0       	rjmp	.+24     	; 0x3b1c <ComfortMode_ActionCallback+0x50>
				ComfortMode = 1;
    3b04:	81 e0       	ldi	r24, 0x01	; 1
    3b06:	80 93 b0 05 	sts	0x05B0, r24	; 0x8005b0 <ComfortMode>
    3b0a:	08 c0       	rjmp	.+16     	; 0x3b1c <ComfortMode_ActionCallback+0x50>
			break;
		case MENU_CONFIRM:
			eeprom_update_byte(&eeComfortMode, ComfortMode);
    3b0c:	60 91 b0 05 	lds	r22, 0x05B0	; 0x8005b0 <ComfortMode>
    3b10:	83 e1       	ldi	r24, 0x13	; 19
    3b12:	90 e0       	ldi	r25, 0x00	; 0
    3b14:	0e 94 e7 22 	call	0x45ce	; 0x45ce <eeprom_update_byte>
			return true;
    3b18:	81 e0       	ldi	r24, 0x01	; 1
    3b1a:	08 95       	ret
		case MENU_CANCEL:
			return true;
	}

	ComfortMode_CallbackRender(column);
    3b1c:	86 2f       	mov	r24, r22
    3b1e:	0e 94 c8 17 	call	0x2f90	; 0x2f90 <ComfortMode_CallbackRender>
	return false;
    3b22:	80 e0       	ldi	r24, 0x00	; 0
    3b24:	08 95       	ret
			break;
		case MENU_CONFIRM:
			eeprom_update_byte(&eeComfortMode, ComfortMode);
			return true;
		case MENU_CANCEL:
			return true;
    3b26:	81 e0       	ldi	r24, 0x01	; 1
	}

	ComfortMode_CallbackRender(column);
	return false;
}
    3b28:	08 95       	ret

00003b2a <ComfortTemp_ActionCallback>:
	itoa(ComfortTemp, buf, 10);
	lcd_puts(buf);
}

bool ComfortTemp_ActionCallback(MENU_BUTTON *button, uint8_t column){
	switch(button->role){
    3b2a:	fc 01       	movw	r30, r24
    3b2c:	90 81       	ld	r25, Z
    3b2e:	91 30       	cpi	r25, 0x01	; 1
    3b30:	91 f0       	breq	.+36     	; 0x3b56 <ComfortTemp_ActionCallback+0x2c>
    3b32:	28 f0       	brcs	.+10     	; 0x3b3e <ComfortTemp_ActionCallback+0x14>
    3b34:	92 30       	cpi	r25, 0x02	; 2
    3b36:	d1 f0       	breq	.+52     	; 0x3b6c <ComfortTemp_ActionCallback+0x42>
    3b38:	93 30       	cpi	r25, 0x03	; 3
    3b3a:	29 f1       	breq	.+74     	; 0x3b86 <ComfortTemp_ActionCallback+0x5c>
    3b3c:	1f c0       	rjmp	.+62     	; 0x3b7c <ComfortTemp_ActionCallback+0x52>
		case MENU_UP:
			if (++ComfortTemp == 35)
    3b3e:	80 91 0c 01 	lds	r24, 0x010C	; 0x80010c <ComfortTemp>
    3b42:	8f 5f       	subi	r24, 0xFF	; 255
    3b44:	83 32       	cpi	r24, 0x23	; 35
    3b46:	19 f0       	breq	.+6      	; 0x3b4e <ComfortTemp_ActionCallback+0x24>
    3b48:	80 93 0c 01 	sts	0x010C, r24	; 0x80010c <ComfortTemp>
    3b4c:	17 c0       	rjmp	.+46     	; 0x3b7c <ComfortTemp_ActionCallback+0x52>
				ComfortTemp = 15;
    3b4e:	8f e0       	ldi	r24, 0x0F	; 15
    3b50:	80 93 0c 01 	sts	0x010C, r24	; 0x80010c <ComfortTemp>
    3b54:	13 c0       	rjmp	.+38     	; 0x3b7c <ComfortTemp_ActionCallback+0x52>
			break;
		case MENU_DOWN:
			if (--ComfortTemp == 255)
    3b56:	80 91 0c 01 	lds	r24, 0x010C	; 0x80010c <ComfortTemp>
    3b5a:	81 50       	subi	r24, 0x01	; 1
    3b5c:	18 f0       	brcs	.+6      	; 0x3b64 <ComfortTemp_ActionCallback+0x3a>
    3b5e:	80 93 0c 01 	sts	0x010C, r24	; 0x80010c <ComfortTemp>
    3b62:	0c c0       	rjmp	.+24     	; 0x3b7c <ComfortTemp_ActionCallback+0x52>
				ComfortTemp = 35;
    3b64:	83 e2       	ldi	r24, 0x23	; 35
    3b66:	80 93 0c 01 	sts	0x010C, r24	; 0x80010c <ComfortTemp>
    3b6a:	08 c0       	rjmp	.+16     	; 0x3b7c <ComfortTemp_ActionCallback+0x52>
			break;
		case MENU_CONFIRM:
			eeprom_update_byte(&eeComfortTemp, ComfortTemp);
    3b6c:	60 91 0c 01 	lds	r22, 0x010C	; 0x80010c <ComfortTemp>
    3b70:	82 e1       	ldi	r24, 0x12	; 18
    3b72:	90 e0       	ldi	r25, 0x00	; 0
    3b74:	0e 94 e7 22 	call	0x45ce	; 0x45ce <eeprom_update_byte>
			return true;
    3b78:	81 e0       	ldi	r24, 0x01	; 1
    3b7a:	08 95       	ret
		case MENU_CANCEL:
			return true;
	}

	ComfortTemp_CallbackRender(column);
    3b7c:	86 2f       	mov	r24, r22
    3b7e:	0e 94 e9 17 	call	0x2fd2	; 0x2fd2 <ComfortTemp_CallbackRender>
	return false;
    3b82:	80 e0       	ldi	r24, 0x00	; 0
    3b84:	08 95       	ret
			break;
		case MENU_CONFIRM:
			eeprom_update_byte(&eeComfortTemp, ComfortTemp);
			return true;
		case MENU_CANCEL:
			return true;
    3b86:	81 e0       	ldi	r24, 0x01	; 1
	}

	ComfortTemp_CallbackRender(column);
	return false;
}
    3b88:	08 95       	ret

00003b8a <ComfortForwardTemp_ActionCallback>:
	itoa(ComfortTemp, buf, 10);
	lcd_puts(buf);
}

bool ComfortForwardTemp_ActionCallback(MENU_BUTTON *button, uint8_t column){
	switch(button->role){
    3b8a:	fc 01       	movw	r30, r24
    3b8c:	90 81       	ld	r25, Z
    3b8e:	91 30       	cpi	r25, 0x01	; 1
    3b90:	99 f0       	breq	.+38     	; 0x3bb8 <ComfortForwardTemp_ActionCallback+0x2e>
    3b92:	28 f0       	brcs	.+10     	; 0x3b9e <ComfortForwardTemp_ActionCallback+0x14>
    3b94:	92 30       	cpi	r25, 0x02	; 2
    3b96:	e1 f0       	breq	.+56     	; 0x3bd0 <ComfortForwardTemp_ActionCallback+0x46>
    3b98:	93 30       	cpi	r25, 0x03	; 3
    3b9a:	39 f1       	breq	.+78     	; 0x3bea <ComfortForwardTemp_ActionCallback+0x60>
    3b9c:	21 c0       	rjmp	.+66     	; 0x3be0 <ComfortForwardTemp_ActionCallback+0x56>
		case MENU_UP:
			if (++ComfortForwardTemp == ForwardHeatTemp)
    3b9e:	90 91 0b 01 	lds	r25, 0x010B	; 0x80010b <ComfortForwardTemp>
    3ba2:	81 e0       	ldi	r24, 0x01	; 1
    3ba4:	89 0f       	add	r24, r25
    3ba6:	80 93 0b 01 	sts	0x010B, r24	; 0x80010b <ComfortForwardTemp>
    3baa:	20 91 0a 01 	lds	r18, 0x010A	; 0x80010a <ForwardHeatTemp>
    3bae:	82 13       	cpse	r24, r18
    3bb0:	17 c0       	rjmp	.+46     	; 0x3be0 <ComfortForwardTemp_ActionCallback+0x56>
				ComfortForwardTemp -= 1;
    3bb2:	90 93 0b 01 	sts	0x010B, r25	; 0x80010b <ComfortForwardTemp>
    3bb6:	14 c0       	rjmp	.+40     	; 0x3be0 <ComfortForwardTemp_ActionCallback+0x56>
			break;
		case MENU_DOWN:
			if (--ComfortForwardTemp == 255)
    3bb8:	80 91 0b 01 	lds	r24, 0x010B	; 0x80010b <ComfortForwardTemp>
    3bbc:	81 50       	subi	r24, 0x01	; 1
    3bbe:	80 93 0b 01 	sts	0x010B, r24	; 0x80010b <ComfortForwardTemp>
    3bc2:	8f 3f       	cpi	r24, 0xFF	; 255
    3bc4:	69 f4       	brne	.+26     	; 0x3be0 <ComfortForwardTemp_ActionCallback+0x56>
				ComfortForwardTemp = ForwardHeatTemp;
    3bc6:	80 91 0a 01 	lds	r24, 0x010A	; 0x80010a <ForwardHeatTemp>
    3bca:	80 93 0b 01 	sts	0x010B, r24	; 0x80010b <ComfortForwardTemp>
    3bce:	08 c0       	rjmp	.+16     	; 0x3be0 <ComfortForwardTemp_ActionCallback+0x56>
			break;
		case MENU_CONFIRM:
			eeprom_update_byte(&eeComfortForwardTemp, ComfortForwardTemp);
    3bd0:	60 91 0b 01 	lds	r22, 0x010B	; 0x80010b <ComfortForwardTemp>
    3bd4:	81 e1       	ldi	r24, 0x11	; 17
    3bd6:	90 e0       	ldi	r25, 0x00	; 0
    3bd8:	0e 94 e7 22 	call	0x45ce	; 0x45ce <eeprom_update_byte>
			return true;
    3bdc:	81 e0       	ldi	r24, 0x01	; 1
    3bde:	08 95       	ret
		case MENU_CANCEL:
			return true;
	}

	ComfortTemp_CallbackRender(column);
    3be0:	86 2f       	mov	r24, r22
    3be2:	0e 94 e9 17 	call	0x2fd2	; 0x2fd2 <ComfortTemp_CallbackRender>
	return false;
    3be6:	80 e0       	ldi	r24, 0x00	; 0
    3be8:	08 95       	ret
			break;
		case MENU_CONFIRM:
			eeprom_update_byte(&eeComfortForwardTemp, ComfortForwardTemp);
			return true;
		case MENU_CANCEL:
			return true;
    3bea:	81 e0       	ldi	r24, 0x01	; 1
	}

	ComfortTemp_CallbackRender(column);
	return false;
}
    3bec:	08 95       	ret

00003bee <DHWRelay_ActionCallback>:
		lcd_puts_p(PSTR("Be"));
	else
		lcd_puts_p(PSTR("Ki"));
}

bool DHWRelay_ActionCallback(MENU_BUTTON *button, uint8_t column){
    3bee:	cf 93       	push	r28
    3bf0:	c6 2f       	mov	r28, r22
	switch(button->role){
    3bf2:	fc 01       	movw	r30, r24
    3bf4:	80 81       	ld	r24, Z
    3bf6:	82 30       	cpi	r24, 0x02	; 2
    3bf8:	18 f0       	brcs	.+6      	; 0x3c00 <DHWRelay_ActionCallback+0x12>
    3bfa:	84 30       	cpi	r24, 0x04	; 4
    3bfc:	70 f4       	brcc	.+28     	; 0x3c1a <DHWRelay_ActionCallback+0x2c>
    3bfe:	12 c0       	rjmp	.+36     	; 0x3c24 <DHWRelay_ActionCallback+0x36>
		case MENU_UP:
		case MENU_DOWN:
		{
			if (Relays & DHW_VALVE_RELAY)
    3c00:	80 91 af 05 	lds	r24, 0x05AF	; 0x8005af <Relays>
    3c04:	82 ff       	sbrs	r24, 2
    3c06:	04 c0       	rjmp	.+8      	; 0x3c10 <DHWRelay_ActionCallback+0x22>
				Relays &= ~(1 << DHW_VALVE_RELAY);
    3c08:	8f 7e       	andi	r24, 0xEF	; 239
    3c0a:	80 93 af 05 	sts	0x05AF, r24	; 0x8005af <Relays>
    3c0e:	03 c0       	rjmp	.+6      	; 0x3c16 <DHWRelay_ActionCallback+0x28>
			else
				Relays |= (1 << DHW_VALVE_RELAY);
    3c10:	80 61       	ori	r24, 0x10	; 16
    3c12:	80 93 af 05 	sts	0x05AF, r24	; 0x8005af <Relays>
			SwitchRelays();
    3c16:	0e 94 29 0e 	call	0x1c52	; 0x1c52 <SwitchRelays>
			return true;
		case MENU_CANCEL:
			return true;
	}

	DHWRelay_CallbackRender(column);
    3c1a:	8c 2f       	mov	r24, r28
    3c1c:	0e 94 9d 19 	call	0x333a	; 0x333a <DHWRelay_CallbackRender>
	return false;
    3c20:	80 e0       	ldi	r24, 0x00	; 0
    3c22:	01 c0       	rjmp	.+2      	; 0x3c26 <DHWRelay_ActionCallback+0x38>
			SwitchRelays();

			break;
		}
		case MENU_CONFIRM:
			return true;
    3c24:	81 e0       	ldi	r24, 0x01	; 1
			return true;
	}

	DHWRelay_CallbackRender(column);
	return false;
}
    3c26:	cf 91       	pop	r28
    3c28:	08 95       	ret

00003c2a <ZoneValve1_ActionCallback>:
		lcd_puts_p(PSTR("Be"));
	else
		lcd_puts_p(PSTR("Ki"));
}

bool ZoneValve1_ActionCallback(MENU_BUTTON *button, uint8_t column){
    3c2a:	cf 93       	push	r28
    3c2c:	c6 2f       	mov	r28, r22
	switch(button->role){
    3c2e:	fc 01       	movw	r30, r24
    3c30:	80 81       	ld	r24, Z
    3c32:	82 30       	cpi	r24, 0x02	; 2
    3c34:	18 f0       	brcs	.+6      	; 0x3c3c <ZoneValve1_ActionCallback+0x12>
    3c36:	84 30       	cpi	r24, 0x04	; 4
    3c38:	48 f4       	brcc	.+18     	; 0x3c4c <ZoneValve1_ActionCallback+0x22>
    3c3a:	0d c0       	rjmp	.+26     	; 0x3c56 <ZoneValve1_ActionCallback+0x2c>
		case MENU_UP:
		case MENU_DOWN:
			Relays ^= (1 << FIRST_FLOOR_VALVE);
    3c3c:	90 91 af 05 	lds	r25, 0x05AF	; 0x8005af <Relays>
    3c40:	84 e0       	ldi	r24, 0x04	; 4
    3c42:	89 27       	eor	r24, r25
    3c44:	80 93 af 05 	sts	0x05AF, r24	; 0x8005af <Relays>
			SwitchRelays();
    3c48:	0e 94 29 0e 	call	0x1c52	; 0x1c52 <SwitchRelays>
		return true;
		case MENU_CANCEL:
		return true;
	}

	ZoneValve1_CallbackRender(column);
    3c4c:	8c 2f       	mov	r24, r28
    3c4e:	0e 94 b5 19 	call	0x336a	; 0x336a <ZoneValve1_CallbackRender>
	return false;
    3c52:	80 e0       	ldi	r24, 0x00	; 0
    3c54:	01 c0       	rjmp	.+2      	; 0x3c58 <ZoneValve1_ActionCallback+0x2e>
		case MENU_DOWN:
			Relays ^= (1 << FIRST_FLOOR_VALVE);
			SwitchRelays();
			break;
		case MENU_CONFIRM:
		return true;
    3c56:	81 e0       	ldi	r24, 0x01	; 1
		return true;
	}

	ZoneValve1_CallbackRender(column);
	return false;
}
    3c58:	cf 91       	pop	r28
    3c5a:	08 95       	ret

00003c5c <ZoneValve2_ActionCallback>:
			lcd_puts_p(PSTR("Be"));
		else
			lcd_puts_p(PSTR("Ki"));
}

bool ZoneValve2_ActionCallback(MENU_BUTTON *button, uint8_t column){
    3c5c:	cf 93       	push	r28
    3c5e:	c6 2f       	mov	r28, r22
	switch(button->role){
    3c60:	fc 01       	movw	r30, r24
    3c62:	80 81       	ld	r24, Z
    3c64:	82 30       	cpi	r24, 0x02	; 2
    3c66:	18 f0       	brcs	.+6      	; 0x3c6e <ZoneValve2_ActionCallback+0x12>
    3c68:	84 30       	cpi	r24, 0x04	; 4
    3c6a:	48 f4       	brcc	.+18     	; 0x3c7e <ZoneValve2_ActionCallback+0x22>
    3c6c:	0d c0       	rjmp	.+26     	; 0x3c88 <ZoneValve2_ActionCallback+0x2c>
		case MENU_UP:
		case MENU_DOWN:
			Relays ^= (1 << SECOND_FLOOR_VALVE);
    3c6e:	90 91 af 05 	lds	r25, 0x05AF	; 0x8005af <Relays>
    3c72:	88 e0       	ldi	r24, 0x08	; 8
    3c74:	89 27       	eor	r24, r25
    3c76:	80 93 af 05 	sts	0x05AF, r24	; 0x8005af <Relays>
			SwitchRelays();
    3c7a:	0e 94 29 0e 	call	0x1c52	; 0x1c52 <SwitchRelays>
		return true;
		case MENU_CANCEL:
		return true;
	}

	ZoneValve2_CallbackRender(column);
    3c7e:	8c 2f       	mov	r24, r28
    3c80:	0e 94 cd 19 	call	0x339a	; 0x339a <ZoneValve2_CallbackRender>
	return false;
    3c84:	80 e0       	ldi	r24, 0x00	; 0
    3c86:	01 c0       	rjmp	.+2      	; 0x3c8a <ZoneValve2_ActionCallback+0x2e>
		case MENU_DOWN:
			Relays ^= (1 << SECOND_FLOOR_VALVE);
			SwitchRelays();
			break;
		case MENU_CONFIRM:
		return true;
    3c88:	81 e0       	ldi	r24, 0x01	; 1
		return true;
	}

	ZoneValve2_CallbackRender(column);
	return false;
}
    3c8a:	cf 91       	pop	r28
    3c8c:	08 95       	ret

00003c8e <BufferValve_ActionCallback>:
		lcd_puts_p(PSTR("Puffer"));
	else
		lcd_puts_hu(PSTR("Gz"));
}

bool BufferValve_ActionCallback(MENU_BUTTON *button, uint8_t column){
    3c8e:	cf 93       	push	r28
    3c90:	c6 2f       	mov	r28, r22
	switch(button->role){
    3c92:	fc 01       	movw	r30, r24
    3c94:	80 81       	ld	r24, Z
    3c96:	82 30       	cpi	r24, 0x02	; 2
    3c98:	18 f0       	brcs	.+6      	; 0x3ca0 <BufferValve_ActionCallback+0x12>
    3c9a:	84 30       	cpi	r24, 0x04	; 4
    3c9c:	48 f4       	brcc	.+18     	; 0x3cb0 <BufferValve_ActionCallback+0x22>
    3c9e:	0d c0       	rjmp	.+26     	; 0x3cba <BufferValve_ActionCallback+0x2c>
		case MENU_UP:
		case MENU_DOWN:
			Relays ^= (1 << BUFFER_VALVE_RELAY);
    3ca0:	90 91 af 05 	lds	r25, 0x05AF	; 0x8005af <Relays>
    3ca4:	80 e2       	ldi	r24, 0x20	; 32
    3ca6:	89 27       	eor	r24, r25
    3ca8:	80 93 af 05 	sts	0x05AF, r24	; 0x8005af <Relays>
			SwitchRelays();
    3cac:	0e 94 29 0e 	call	0x1c52	; 0x1c52 <SwitchRelays>
		return true;
		case MENU_CANCEL:
		return true;
	}

	BufferValve_CallbackRender(column);
    3cb0:	8c 2f       	mov	r24, r28
    3cb2:	0e 94 e5 19 	call	0x33ca	; 0x33ca <BufferValve_CallbackRender>
	return false;
    3cb6:	80 e0       	ldi	r24, 0x00	; 0
    3cb8:	01 c0       	rjmp	.+2      	; 0x3cbc <BufferValve_ActionCallback+0x2e>
		case MENU_DOWN:
			Relays ^= (1 << BUFFER_VALVE_RELAY);
			SwitchRelays();
			break;
		case MENU_CONFIRM:
		return true;
    3cba:	81 e0       	ldi	r24, 0x01	; 1
		return true;
	}

	BufferValve_CallbackRender(column);
	return false;
}
    3cbc:	cf 91       	pop	r28
    3cbe:	08 95       	ret

00003cc0 <BufferPump_ActionCallback>:
		lcd_puts_p(PSTR("Be"));
	else
		lcd_puts_p(PSTR("Ki"));
}

bool BufferPump_ActionCallback(MENU_BUTTON *button, uint8_t column){
    3cc0:	cf 93       	push	r28
    3cc2:	c6 2f       	mov	r28, r22
	switch(button->role){
    3cc4:	fc 01       	movw	r30, r24
    3cc6:	80 81       	ld	r24, Z
    3cc8:	82 30       	cpi	r24, 0x02	; 2
    3cca:	18 f0       	brcs	.+6      	; 0x3cd2 <BufferPump_ActionCallback+0x12>
    3ccc:	84 30       	cpi	r24, 0x04	; 4
    3cce:	48 f4       	brcc	.+18     	; 0x3ce2 <BufferPump_ActionCallback+0x22>
    3cd0:	0d c0       	rjmp	.+26     	; 0x3cec <BufferPump_ActionCallback+0x2c>
		case MENU_UP:
		case MENU_DOWN:
			Relays ^= (1 << BUFFER_PUMP_RELAY);
    3cd2:	90 91 af 05 	lds	r25, 0x05AF	; 0x8005af <Relays>
    3cd6:	80 e4       	ldi	r24, 0x40	; 64
    3cd8:	89 27       	eor	r24, r25
    3cda:	80 93 af 05 	sts	0x05AF, r24	; 0x8005af <Relays>
			SwitchRelays();
    3cde:	0e 94 29 0e 	call	0x1c52	; 0x1c52 <SwitchRelays>
		return true;
		case MENU_CANCEL:
		return true;
	}

	BufferPump_CallbackRender(column);
    3ce2:	8c 2f       	mov	r24, r28
    3ce4:	0e 94 fd 19 	call	0x33fa	; 0x33fa <BufferPump_CallbackRender>
	return false;
    3ce8:	80 e0       	ldi	r24, 0x00	; 0
    3cea:	01 c0       	rjmp	.+2      	; 0x3cee <BufferPump_ActionCallback+0x2e>
		case MENU_DOWN:
			Relays ^= (1 << BUFFER_PUMP_RELAY);
			SwitchRelays();
			break;
		case MENU_CONFIRM:
		return true;
    3cec:	81 e0       	ldi	r24, 0x01	; 1
		return true;
	}

	BufferPump_CallbackRender(column);
	return false;
}
    3cee:	cf 91       	pop	r28
    3cf0:	08 95       	ret

00003cf2 <GasRelay_ActionCallback>:
		lcd_puts_p(PSTR("Be"));
	else
		lcd_puts_p(PSTR("Ki"));
}

bool GasRelay_ActionCallback(MENU_BUTTON *button, uint8_t column){
    3cf2:	cf 93       	push	r28
    3cf4:	c6 2f       	mov	r28, r22
	switch(button->role){
    3cf6:	fc 01       	movw	r30, r24
    3cf8:	80 81       	ld	r24, Z
    3cfa:	82 30       	cpi	r24, 0x02	; 2
    3cfc:	18 f0       	brcs	.+6      	; 0x3d04 <GasRelay_ActionCallback+0x12>
    3cfe:	84 30       	cpi	r24, 0x04	; 4
    3d00:	40 f4       	brcc	.+16     	; 0x3d12 <GasRelay_ActionCallback+0x20>
    3d02:	0c c0       	rjmp	.+24     	; 0x3d1c <GasRelay_ActionCallback+0x2a>
		case MENU_UP:
		case MENU_DOWN:
			Relays ^= (1 << GAS_RELAY);
    3d04:	80 91 af 05 	lds	r24, 0x05AF	; 0x8005af <Relays>
    3d08:	80 58       	subi	r24, 0x80	; 128
    3d0a:	80 93 af 05 	sts	0x05AF, r24	; 0x8005af <Relays>
			SwitchRelays();
    3d0e:	0e 94 29 0e 	call	0x1c52	; 0x1c52 <SwitchRelays>
		return true;
		case MENU_CANCEL:
		return true;
	}

	GasRelay_CallbackRender(column);
    3d12:	8c 2f       	mov	r24, r28
    3d14:	0e 94 15 1a 	call	0x342a	; 0x342a <GasRelay_CallbackRender>
	return false;
    3d18:	80 e0       	ldi	r24, 0x00	; 0
    3d1a:	01 c0       	rjmp	.+2      	; 0x3d1e <GasRelay_ActionCallback+0x2c>
		case MENU_DOWN:
			Relays ^= (1 << GAS_RELAY);
			SwitchRelays();
			break;
		case MENU_CONFIRM:
		return true;
    3d1c:	81 e0       	ldi	r24, 0x01	; 1
		return true;
	}

	GasRelay_CallbackRender(column);
	return false;
}
    3d1e:	cf 91       	pop	r28
    3d20:	08 95       	ret

00003d22 <menuItemsGetHomeMenu>:
** Public methods to access home view and home view size
*/

MENU_ITEM *menuItemsGetHomeMenu(){
	return home_items;
}
    3d22:	89 e4       	ldi	r24, 0x49	; 73
    3d24:	91 e0       	ldi	r25, 0x01	; 1
    3d26:	08 95       	ret

00003d28 <menuItemsGetHomeMenuSize>:

uint8_t menuItemsGetHomeMenuSize(){
	return MENU_HOME_ITEMS;
    3d28:	87 e0       	ldi	r24, 0x07	; 7
    3d2a:	08 95       	ret

00003d2c <menuPortsioInit>:
#include "menu_portsio.h"


static void setupPortsForControlButtons(){
	// Set buttons as input
	MENU_PORTSIO_DDR &= ~(_BV(MENU_PORTSIO_BTN_UP)     |
    3d2c:	81 b3       	in	r24, 0x11	; 17
    3d2e:	8f 70       	andi	r24, 0x0F	; 15
    3d30:	81 bb       	out	0x11, r24	; 17
					     _BV(MENU_PORTSIO_BTN_DOWN)    |
					     _BV(MENU_PORTSIO_BTN_CONFIRM) |
					     _BV(MENU_PORTSIO_BTN_CANCEL));

	// with active low
	MENU_PORTSIO_PORT |= _BV(MENU_PORTSIO_BTN_UP)      |
    3d32:	82 b3       	in	r24, 0x12	; 18
    3d34:	80 6f       	ori	r24, 0xF0	; 240
    3d36:	82 bb       	out	0x12, r24	; 18
    3d38:	08 95       	ret

00003d3a <SPIInit>:
#include "spi.h"

void SPIInit()
{
	//Set up SPI I/O Ports
	SPI_DDR |= (1<<MOSI_POS)|(1<<SCK_POS)|(1<<SS_POS);
    3d3a:	87 b3       	in	r24, 0x17	; 23
    3d3c:	87 60       	ori	r24, 0x07	; 7
    3d3e:	87 bb       	out	0x17, r24	; 23
	
	SPI_PORT |= (1<<SS_POS)|(1 << MISO_POS);
    3d40:	88 b3       	in	r24, 0x18	; 24
    3d42:	89 60       	ori	r24, 0x09	; 9
    3d44:	88 bb       	out	0x18, r24	; 24

	SPI_CS_PORT |= 0xFF;
    3d46:	8b b3       	in	r24, 0x1b	; 27
    3d48:	8f ef       	ldi	r24, 0xFF	; 255
    3d4a:	8b bb       	out	0x1b, r24	; 27
	SPI_CS_DDR |= 0xFF;
    3d4c:	9a b3       	in	r25, 0x1a	; 26
    3d4e:	8a bb       	out	0x1a, r24	; 26

	SPCR |= (1 << SPE)|(1 << MSTR)|(1 << SPR0)|(1 << SPR1);
    3d50:	8d b1       	in	r24, 0x0d	; 13
    3d52:	83 65       	ori	r24, 0x53	; 83
    3d54:	8d b9       	out	0x0d, r24	; 13
    3d56:	08 95       	ret

00003d58 <SPIClose>:
}

void SPIClose()
{
	SPCR&=(~(1<<SPE));
    3d58:	6e 98       	cbi	0x0d, 6	; 13
	SPI_DDR&=(~((1<<MOSI_POS)|(1<<SCK_POS)));
    3d5a:	87 b3       	in	r24, 0x17	; 23
    3d5c:	89 7f       	andi	r24, 0xF9	; 249
    3d5e:	87 bb       	out	0x17, r24	; 23
    3d60:	08 95       	ret

00003d62 <SPIWrite>:
}

unsigned char SPIWrite(unsigned char address, unsigned char data)
{
	SPI_CS_PORT &= ~(1 << address);
    3d62:	4b b3       	in	r20, 0x1b	; 27
    3d64:	21 e0       	ldi	r18, 0x01	; 1
    3d66:	30 e0       	ldi	r19, 0x00	; 0
    3d68:	f9 01       	movw	r30, r18
    3d6a:	02 c0       	rjmp	.+4      	; 0x3d70 <SPIWrite+0xe>
    3d6c:	ee 0f       	add	r30, r30
    3d6e:	ff 1f       	adc	r31, r31
    3d70:	8a 95       	dec	r24
    3d72:	e2 f7       	brpl	.-8      	; 0x3d6c <SPIWrite+0xa>
    3d74:	cf 01       	movw	r24, r30
    3d76:	2e 2f       	mov	r18, r30
    3d78:	20 95       	com	r18
    3d7a:	42 23       	and	r20, r18
    3d7c:	4b bb       	out	0x1b, r20	; 27
	SPDR = data;
    3d7e:	6f b9       	out	0x0f, r22	; 15
	while(!(SPSR & (1 << SPIF)));
    3d80:	77 9b       	sbis	0x0e, 7	; 14
    3d82:	fe cf       	rjmp	.-4      	; 0x3d80 <SPIWrite+0x1e>
	SPI_CS_PORT |= (1 << address);
    3d84:	9b b3       	in	r25, 0x1b	; 27
    3d86:	89 2b       	or	r24, r25
    3d88:	8b bb       	out	0x1b, r24	; 27
	return SPDR;
    3d8a:	8f b1       	in	r24, 0x0f	; 15
}
    3d8c:	08 95       	ret

00003d8e <__vector_18>:
**************************************************************************/
void uart_puthex_byte(const unsigned char  b)
{
	uart_puthex_nibble(b>>4);
	uart_puthex_nibble(b);
} /* uart_puthex_byte */
    3d8e:	1f 92       	push	r1
    3d90:	0f 92       	push	r0
    3d92:	0f b6       	in	r0, 0x3f	; 63
    3d94:	0f 92       	push	r0
    3d96:	11 24       	eor	r1, r1
    3d98:	2f 93       	push	r18
    3d9a:	8f 93       	push	r24
    3d9c:	9f 93       	push	r25
    3d9e:	ef 93       	push	r30
    3da0:	ff 93       	push	r31
    3da2:	8b b1       	in	r24, 0x0b	; 11
    3da4:	2c b1       	in	r18, 0x0c	; 12
    3da6:	8c 71       	andi	r24, 0x1C	; 28
    3da8:	e0 91 fb 05 	lds	r30, 0x05FB	; 0x8005fb <UART_RxHead>
    3dac:	ef 5f       	subi	r30, 0xFF	; 255
    3dae:	ef 71       	andi	r30, 0x1F	; 31
    3db0:	90 91 fa 05 	lds	r25, 0x05FA	; 0x8005fa <UART_RxTail>
    3db4:	e9 17       	cp	r30, r25
    3db6:	39 f0       	breq	.+14     	; 0x3dc6 <__vector_18+0x38>
    3db8:	e0 93 fb 05 	sts	0x05FB, r30	; 0x8005fb <UART_RxHead>
    3dbc:	f0 e0       	ldi	r31, 0x00	; 0
    3dbe:	e2 50       	subi	r30, 0x02	; 2
    3dc0:	fa 4f       	sbci	r31, 0xFA	; 250
    3dc2:	20 83       	st	Z, r18
    3dc4:	01 c0       	rjmp	.+2      	; 0x3dc8 <__vector_18+0x3a>
    3dc6:	82 e0       	ldi	r24, 0x02	; 2
    3dc8:	90 91 f9 05 	lds	r25, 0x05F9	; 0x8005f9 <UART_LastRxError>
    3dcc:	89 2b       	or	r24, r25
    3dce:	80 93 f9 05 	sts	0x05F9, r24	; 0x8005f9 <UART_LastRxError>
    3dd2:	ff 91       	pop	r31
    3dd4:	ef 91       	pop	r30
    3dd6:	9f 91       	pop	r25
    3dd8:	8f 91       	pop	r24
    3dda:	2f 91       	pop	r18
    3ddc:	0f 90       	pop	r0
    3dde:	0f be       	out	0x3f, r0	; 63
    3de0:	0f 90       	pop	r0
    3de2:	1f 90       	pop	r1
    3de4:	18 95       	reti

00003de6 <__vector_19>:
    3de6:	1f 92       	push	r1
    3de8:	0f 92       	push	r0
    3dea:	0f b6       	in	r0, 0x3f	; 63
    3dec:	0f 92       	push	r0
    3dee:	11 24       	eor	r1, r1
    3df0:	8f 93       	push	r24
    3df2:	9f 93       	push	r25
    3df4:	ef 93       	push	r30
    3df6:	ff 93       	push	r31
    3df8:	90 91 fd 05 	lds	r25, 0x05FD	; 0x8005fd <UART_TxHead>
    3dfc:	80 91 fc 05 	lds	r24, 0x05FC	; 0x8005fc <UART_TxTail>
    3e00:	98 17       	cp	r25, r24
    3e02:	61 f0       	breq	.+24     	; 0x3e1c <__vector_19+0x36>
    3e04:	e0 91 fc 05 	lds	r30, 0x05FC	; 0x8005fc <UART_TxTail>
    3e08:	ef 5f       	subi	r30, 0xFF	; 255
    3e0a:	ef 71       	andi	r30, 0x1F	; 31
    3e0c:	e0 93 fc 05 	sts	0x05FC, r30	; 0x8005fc <UART_TxTail>
    3e10:	f0 e0       	ldi	r31, 0x00	; 0
    3e12:	e2 5e       	subi	r30, 0xE2	; 226
    3e14:	f9 4f       	sbci	r31, 0xF9	; 249
    3e16:	80 81       	ld	r24, Z
    3e18:	8c b9       	out	0x0c, r24	; 12
    3e1a:	01 c0       	rjmp	.+2      	; 0x3e1e <__vector_19+0x38>
    3e1c:	55 98       	cbi	0x0a, 5	; 10
    3e1e:	ff 91       	pop	r31
    3e20:	ef 91       	pop	r30
    3e22:	9f 91       	pop	r25
    3e24:	8f 91       	pop	r24
    3e26:	0f 90       	pop	r0
    3e28:	0f be       	out	0x3f, r0	; 63
    3e2a:	0f 90       	pop	r0
    3e2c:	1f 90       	pop	r1
    3e2e:	18 95       	reti

00003e30 <uart_init>:
    3e30:	10 92 fd 05 	sts	0x05FD, r1	; 0x8005fd <UART_TxHead>
    3e34:	10 92 fc 05 	sts	0x05FC, r1	; 0x8005fc <UART_TxTail>
    3e38:	10 92 fb 05 	sts	0x05FB, r1	; 0x8005fb <UART_RxHead>
    3e3c:	10 92 fa 05 	sts	0x05FA, r1	; 0x8005fa <UART_RxTail>
    3e40:	99 23       	and	r25, r25
    3e42:	14 f4       	brge	.+4      	; 0x3e48 <uart_init+0x18>
    3e44:	22 e0       	ldi	r18, 0x02	; 2
    3e46:	2b b9       	out	0x0b, r18	; 11
    3e48:	90 78       	andi	r25, 0x80	; 128
    3e4a:	90 93 90 00 	sts	0x0090, r25	; 0x800090 <__TEXT_REGION_LENGTH__+0x7e0090>
    3e4e:	89 b9       	out	0x09, r24	; 9
    3e50:	88 e9       	ldi	r24, 0x98	; 152
    3e52:	8a b9       	out	0x0a, r24	; 10
    3e54:	86 e0       	ldi	r24, 0x06	; 6
    3e56:	80 93 95 00 	sts	0x0095, r24	; 0x800095 <__TEXT_REGION_LENGTH__+0x7e0095>
    3e5a:	08 95       	ret

00003e5c <uart_putc>:
    3e5c:	20 91 fd 05 	lds	r18, 0x05FD	; 0x8005fd <UART_TxHead>
    3e60:	2f 5f       	subi	r18, 0xFF	; 255
    3e62:	2f 71       	andi	r18, 0x1F	; 31
    3e64:	90 91 fc 05 	lds	r25, 0x05FC	; 0x8005fc <UART_TxTail>
    3e68:	29 17       	cp	r18, r25
    3e6a:	e1 f3       	breq	.-8      	; 0x3e64 <uart_putc+0x8>
    3e6c:	e2 2f       	mov	r30, r18
    3e6e:	f0 e0       	ldi	r31, 0x00	; 0
    3e70:	e2 5e       	subi	r30, 0xE2	; 226
    3e72:	f9 4f       	sbci	r31, 0xF9	; 249
    3e74:	80 83       	st	Z, r24
    3e76:	20 93 fd 05 	sts	0x05FD, r18	; 0x8005fd <UART_TxHead>
    3e7a:	55 9a       	sbi	0x0a, 5	; 10
    3e7c:	08 95       	ret

00003e7e <uart_puts>:
    3e7e:	cf 93       	push	r28
    3e80:	df 93       	push	r29
    3e82:	ec 01       	movw	r28, r24
    3e84:	88 81       	ld	r24, Y
    3e86:	88 23       	and	r24, r24
    3e88:	31 f0       	breq	.+12     	; 0x3e96 <uart_puts+0x18>
    3e8a:	21 96       	adiw	r28, 0x01	; 1
    3e8c:	0e 94 2e 1f 	call	0x3e5c	; 0x3e5c <uart_putc>
    3e90:	89 91       	ld	r24, Y+
    3e92:	81 11       	cpse	r24, r1
    3e94:	fb cf       	rjmp	.-10     	; 0x3e8c <uart_puts+0xe>
    3e96:	df 91       	pop	r29
    3e98:	cf 91       	pop	r28
    3e9a:	08 95       	ret

00003e9c <uart_puts_p>:
    3e9c:	cf 93       	push	r28
    3e9e:	df 93       	push	r29
    3ea0:	ec 01       	movw	r28, r24
    3ea2:	21 96       	adiw	r28, 0x01	; 1
    3ea4:	fc 01       	movw	r30, r24
    3ea6:	84 91       	lpm	r24, Z
    3ea8:	88 23       	and	r24, r24
    3eaa:	39 f0       	breq	.+14     	; 0x3eba <uart_puts_p+0x1e>
    3eac:	0e 94 2e 1f 	call	0x3e5c	; 0x3e5c <uart_putc>
    3eb0:	fe 01       	movw	r30, r28
    3eb2:	84 91       	lpm	r24, Z
    3eb4:	21 96       	adiw	r28, 0x01	; 1
    3eb6:	81 11       	cpse	r24, r1
    3eb8:	f9 cf       	rjmp	.-14     	; 0x3eac <uart_puts_p+0x10>
    3eba:	df 91       	pop	r29
    3ebc:	cf 91       	pop	r28
    3ebe:	08 95       	ret

00003ec0 <__vector_30>:
    3ec0:	1f 92       	push	r1
    3ec2:	0f 92       	push	r0
    3ec4:	0f b6       	in	r0, 0x3f	; 63
    3ec6:	0f 92       	push	r0
    3ec8:	11 24       	eor	r1, r1
    3eca:	2f 93       	push	r18
    3ecc:	8f 93       	push	r24
    3ece:	9f 93       	push	r25
    3ed0:	ef 93       	push	r30
    3ed2:	ff 93       	push	r31
    3ed4:	80 91 9b 00 	lds	r24, 0x009B	; 0x80009b <__TEXT_REGION_LENGTH__+0x7e009b>
    3ed8:	20 91 9c 00 	lds	r18, 0x009C	; 0x80009c <__TEXT_REGION_LENGTH__+0x7e009c>
    3edc:	8c 71       	andi	r24, 0x1C	; 28
    3ede:	e0 91 b6 05 	lds	r30, 0x05B6	; 0x8005b6 <UART1_RxHead>
    3ee2:	ef 5f       	subi	r30, 0xFF	; 255
    3ee4:	ef 71       	andi	r30, 0x1F	; 31
    3ee6:	90 91 b5 05 	lds	r25, 0x05B5	; 0x8005b5 <UART1_RxTail>
    3eea:	e9 17       	cp	r30, r25
    3eec:	39 f0       	breq	.+14     	; 0x3efc <__vector_30+0x3c>
    3eee:	e0 93 b6 05 	sts	0x05B6, r30	; 0x8005b6 <UART1_RxHead>
    3ef2:	f0 e0       	ldi	r31, 0x00	; 0
    3ef4:	e7 54       	subi	r30, 0x47	; 71
    3ef6:	fa 4f       	sbci	r31, 0xFA	; 250
    3ef8:	20 83       	st	Z, r18
    3efa:	01 c0       	rjmp	.+2      	; 0x3efe <__vector_30+0x3e>
    3efc:	82 e0       	ldi	r24, 0x02	; 2
    3efe:	90 91 b4 05 	lds	r25, 0x05B4	; 0x8005b4 <UART1_LastRxError>
    3f02:	89 2b       	or	r24, r25
    3f04:	80 93 b4 05 	sts	0x05B4, r24	; 0x8005b4 <UART1_LastRxError>
    3f08:	ff 91       	pop	r31
    3f0a:	ef 91       	pop	r30
    3f0c:	9f 91       	pop	r25
    3f0e:	8f 91       	pop	r24
    3f10:	2f 91       	pop	r18
    3f12:	0f 90       	pop	r0
    3f14:	0f be       	out	0x3f, r0	; 63
    3f16:	0f 90       	pop	r0
    3f18:	1f 90       	pop	r1
    3f1a:	18 95       	reti

00003f1c <__vector_31>:
    3f1c:	1f 92       	push	r1
    3f1e:	0f 92       	push	r0
    3f20:	0f b6       	in	r0, 0x3f	; 63
    3f22:	0f 92       	push	r0
    3f24:	11 24       	eor	r1, r1
    3f26:	8f 93       	push	r24
    3f28:	9f 93       	push	r25
    3f2a:	ef 93       	push	r30
    3f2c:	ff 93       	push	r31
    3f2e:	90 91 b8 05 	lds	r25, 0x05B8	; 0x8005b8 <UART1_TxHead>
    3f32:	80 91 b7 05 	lds	r24, 0x05B7	; 0x8005b7 <UART1_TxTail>
    3f36:	98 17       	cp	r25, r24
    3f38:	69 f0       	breq	.+26     	; 0x3f54 <__vector_31+0x38>
    3f3a:	e0 91 b7 05 	lds	r30, 0x05B7	; 0x8005b7 <UART1_TxTail>
    3f3e:	ef 5f       	subi	r30, 0xFF	; 255
    3f40:	ef 71       	andi	r30, 0x1F	; 31
    3f42:	e0 93 b7 05 	sts	0x05B7, r30	; 0x8005b7 <UART1_TxTail>
    3f46:	f0 e0       	ldi	r31, 0x00	; 0
    3f48:	e7 52       	subi	r30, 0x27	; 39
    3f4a:	fa 4f       	sbci	r31, 0xFA	; 250
    3f4c:	80 81       	ld	r24, Z
    3f4e:	80 93 9c 00 	sts	0x009C, r24	; 0x80009c <__TEXT_REGION_LENGTH__+0x7e009c>
    3f52:	05 c0       	rjmp	.+10     	; 0x3f5e <__vector_31+0x42>
    3f54:	ea e9       	ldi	r30, 0x9A	; 154
    3f56:	f0 e0       	ldi	r31, 0x00	; 0
    3f58:	80 81       	ld	r24, Z
    3f5a:	8f 7d       	andi	r24, 0xDF	; 223
    3f5c:	80 83       	st	Z, r24
    3f5e:	ff 91       	pop	r31
    3f60:	ef 91       	pop	r30
    3f62:	9f 91       	pop	r25
    3f64:	8f 91       	pop	r24
    3f66:	0f 90       	pop	r0
    3f68:	0f be       	out	0x3f, r0	; 63
    3f6a:	0f 90       	pop	r0
    3f6c:	1f 90       	pop	r1
    3f6e:	18 95       	reti

00003f70 <uart_puti>:
Returns:  none
This functions has been added by Martin Thomas <eversmith@heizung-thomas.de>
Don't blame P. Fleury if it doesn't work ;-)
**************************************************************************/
void uart_puti( const int val )
{
    3f70:	cf 93       	push	r28
    3f72:	df 93       	push	r29
    3f74:	cd b7       	in	r28, 0x3d	; 61
    3f76:	de b7       	in	r29, 0x3e	; 62
    3f78:	61 97       	sbiw	r28, 0x11	; 17
    3f7a:	0f b6       	in	r0, 0x3f	; 63
    3f7c:	f8 94       	cli
    3f7e:	de bf       	out	0x3e, r29	; 62
    3f80:	0f be       	out	0x3f, r0	; 63
    3f82:	cd bf       	out	0x3d, r28	; 61
    3f84:	4a e0       	ldi	r20, 0x0A	; 10
    3f86:	be 01       	movw	r22, r28
    3f88:	6f 5f       	subi	r22, 0xFF	; 255
    3f8a:	7f 4f       	sbci	r23, 0xFF	; 255
    3f8c:	0e 94 a4 22 	call	0x4548	; 0x4548 <__itoa_ncheck>
	char buffer[sizeof(int)*8+1];
	
	uart_puts( itoa(val, buffer, 10) );
    3f90:	0e 94 3f 1f 	call	0x3e7e	; 0x3e7e <uart_puts>

}/* uart_puti */
    3f94:	61 96       	adiw	r28, 0x11	; 17
    3f96:	0f b6       	in	r0, 0x3f	; 63
    3f98:	f8 94       	cli
    3f9a:	de bf       	out	0x3e, r29	; 62
    3f9c:	0f be       	out	0x3f, r0	; 63
    3f9e:	cd bf       	out	0x3d, r28	; 61
    3fa0:	df 91       	pop	r29
    3fa2:	cf 91       	pop	r28
    3fa4:	08 95       	ret

00003fa6 <ftoa>:
#include "ftoa.h"


char *ftoa(char *a, double f, int precision)
{
    3fa6:	2f 92       	push	r2
    3fa8:	3f 92       	push	r3
    3faa:	4f 92       	push	r4
    3fac:	5f 92       	push	r5
    3fae:	6f 92       	push	r6
    3fb0:	7f 92       	push	r7
    3fb2:	8f 92       	push	r8
    3fb4:	9f 92       	push	r9
    3fb6:	af 92       	push	r10
    3fb8:	bf 92       	push	r11
    3fba:	cf 92       	push	r12
    3fbc:	df 92       	push	r13
    3fbe:	ef 92       	push	r14
    3fc0:	ff 92       	push	r15
    3fc2:	0f 93       	push	r16
    3fc4:	1f 93       	push	r17
    3fc6:	cf 93       	push	r28
    3fc8:	df 93       	push	r29
    3fca:	cd b7       	in	r28, 0x3d	; 61
    3fcc:	de b7       	in	r29, 0x3e	; 62
    3fce:	a4 97       	sbiw	r28, 0x24	; 36
    3fd0:	0f b6       	in	r0, 0x3f	; 63
    3fd2:	f8 94       	cli
    3fd4:	de bf       	out	0x3e, r29	; 62
    3fd6:	0f be       	out	0x3f, r0	; 63
    3fd8:	cd bf       	out	0x3d, r28	; 61
    3fda:	8c 01       	movw	r16, r24
    3fdc:	6a 01       	movw	r12, r20
    3fde:	7b 01       	movw	r14, r22
    3fe0:	39 01       	movw	r6, r18
	long p[] = {0,10,100,1000,10000,100000,1000000,10000000,100000000};
    3fe2:	84 e2       	ldi	r24, 0x24	; 36
    3fe4:	e4 e1       	ldi	r30, 0x14	; 20
    3fe6:	f3 e0       	ldi	r31, 0x03	; 3
    3fe8:	de 01       	movw	r26, r28
    3fea:	11 96       	adiw	r26, 0x01	; 1
    3fec:	01 90       	ld	r0, Z+
    3fee:	0d 92       	st	X+, r0
    3ff0:	8a 95       	dec	r24
    3ff2:	e1 f7       	brne	.-8      	; 0x3fec <ftoa+0x46>
	
	char *ret = a;
	long heiltal = (long)f;
    3ff4:	cb 01       	movw	r24, r22
    3ff6:	ba 01       	movw	r22, r20
    3ff8:	0e 94 3b 21 	call	0x4276	; 0x4276 <__fixsfsi>
    3ffc:	4b 01       	movw	r8, r22
    3ffe:	5c 01       	movw	r10, r24
    4000:	4a e0       	ldi	r20, 0x0A	; 10
    4002:	b8 01       	movw	r22, r16
    4004:	c4 01       	movw	r24, r8
    4006:	0e 94 a4 22 	call	0x4548	; 0x4548 <__itoa_ncheck>
	itoa(heiltal, a, 10);
	while (*a != '\0') a++;
    400a:	f8 01       	movw	r30, r16
    400c:	80 81       	ld	r24, Z
    400e:	88 23       	and	r24, r24
    4010:	41 f0       	breq	.+16     	; 0x4022 <ftoa+0x7c>
    4012:	c8 01       	movw	r24, r16
    4014:	01 96       	adiw	r24, 0x01	; 1
    4016:	fc 01       	movw	r30, r24
    4018:	01 96       	adiw	r24, 0x01	; 1
    401a:	20 81       	ld	r18, Z
    401c:	21 11       	cpse	r18, r1
    401e:	fb cf       	rjmp	.-10     	; 0x4016 <ftoa+0x70>
    4020:	01 c0       	rjmp	.+2      	; 0x4024 <ftoa+0x7e>
    4022:	f8 01       	movw	r30, r16
	*a++ = '.';
    4024:	8e e2       	ldi	r24, 0x2E	; 46
    4026:	81 93       	st	Z+, r24
    4028:	1f 01       	movw	r2, r30
	long desimal = abs((long)((f - heiltal) * p[precision]));
    402a:	66 0c       	add	r6, r6
    402c:	77 1c       	adc	r7, r7
    402e:	66 0c       	add	r6, r6
    4030:	77 1c       	adc	r7, r7
    4032:	fe 01       	movw	r30, r28
    4034:	e6 0d       	add	r30, r6
    4036:	f7 1d       	adc	r31, r7
    4038:	61 81       	ldd	r22, Z+1	; 0x01
    403a:	72 81       	ldd	r23, Z+2	; 0x02
    403c:	83 81       	ldd	r24, Z+3	; 0x03
    403e:	94 81       	ldd	r25, Z+4	; 0x04
    4040:	0e 94 73 21 	call	0x42e6	; 0x42e6 <__floatsisf>
    4044:	2b 01       	movw	r4, r22
    4046:	3c 01       	movw	r6, r24
    4048:	c5 01       	movw	r24, r10
    404a:	b4 01       	movw	r22, r8
    404c:	0e 94 73 21 	call	0x42e6	; 0x42e6 <__floatsisf>
    4050:	9b 01       	movw	r18, r22
    4052:	ac 01       	movw	r20, r24
    4054:	c7 01       	movw	r24, r14
    4056:	b6 01       	movw	r22, r12
    4058:	0e 94 5c 20 	call	0x40b8	; 0x40b8 <__subsf3>
    405c:	9b 01       	movw	r18, r22
    405e:	ac 01       	movw	r20, r24
    4060:	c3 01       	movw	r24, r6
    4062:	b2 01       	movw	r22, r4
    4064:	0e 94 ff 21 	call	0x43fe	; 0x43fe <__mulsf3>
    4068:	0e 94 3b 21 	call	0x4276	; 0x4276 <__fixsfsi>
    406c:	9b 01       	movw	r18, r22
    406e:	77 23       	and	r23, r23
    4070:	24 f4       	brge	.+8      	; 0x407a <ftoa+0xd4>
    4072:	22 27       	eor	r18, r18
    4074:	33 27       	eor	r19, r19
    4076:	26 1b       	sub	r18, r22
    4078:	37 0b       	sbc	r19, r23
    407a:	4a e0       	ldi	r20, 0x0A	; 10
    407c:	b1 01       	movw	r22, r2
    407e:	c9 01       	movw	r24, r18
    4080:	0e 94 a4 22 	call	0x4548	; 0x4548 <__itoa_ncheck>
	itoa(desimal, a, 10);
	return ret;
    4084:	c8 01       	movw	r24, r16
    4086:	a4 96       	adiw	r28, 0x24	; 36
    4088:	0f b6       	in	r0, 0x3f	; 63
    408a:	f8 94       	cli
    408c:	de bf       	out	0x3e, r29	; 62
    408e:	0f be       	out	0x3f, r0	; 63
    4090:	cd bf       	out	0x3d, r28	; 61
    4092:	df 91       	pop	r29
    4094:	cf 91       	pop	r28
    4096:	1f 91       	pop	r17
    4098:	0f 91       	pop	r16
    409a:	ff 90       	pop	r15
    409c:	ef 90       	pop	r14
    409e:	df 90       	pop	r13
    40a0:	cf 90       	pop	r12
    40a2:	bf 90       	pop	r11
    40a4:	af 90       	pop	r10
    40a6:	9f 90       	pop	r9
    40a8:	8f 90       	pop	r8
    40aa:	7f 90       	pop	r7
    40ac:	6f 90       	pop	r6
    40ae:	5f 90       	pop	r5
    40b0:	4f 90       	pop	r4
    40b2:	3f 90       	pop	r3
    40b4:	2f 90       	pop	r2
    40b6:	08 95       	ret

000040b8 <__subsf3>:
    40b8:	50 58       	subi	r21, 0x80	; 128

000040ba <__addsf3>:
    40ba:	bb 27       	eor	r27, r27
    40bc:	aa 27       	eor	r26, r26
    40be:	0e 94 74 20 	call	0x40e8	; 0x40e8 <__addsf3x>
    40c2:	0c 94 c5 21 	jmp	0x438a	; 0x438a <__fp_round>
    40c6:	0e 94 b7 21 	call	0x436e	; 0x436e <__fp_pscA>
    40ca:	38 f0       	brcs	.+14     	; 0x40da <__addsf3+0x20>
    40cc:	0e 94 be 21 	call	0x437c	; 0x437c <__fp_pscB>
    40d0:	20 f0       	brcs	.+8      	; 0x40da <__addsf3+0x20>
    40d2:	39 f4       	brne	.+14     	; 0x40e2 <__addsf3+0x28>
    40d4:	9f 3f       	cpi	r25, 0xFF	; 255
    40d6:	19 f4       	brne	.+6      	; 0x40de <__addsf3+0x24>
    40d8:	26 f4       	brtc	.+8      	; 0x40e2 <__addsf3+0x28>
    40da:	0c 94 b4 21 	jmp	0x4368	; 0x4368 <__fp_nan>
    40de:	0e f4       	brtc	.+2      	; 0x40e2 <__addsf3+0x28>
    40e0:	e0 95       	com	r30
    40e2:	e7 fb       	bst	r30, 7
    40e4:	0c 94 ae 21 	jmp	0x435c	; 0x435c <__fp_inf>

000040e8 <__addsf3x>:
    40e8:	e9 2f       	mov	r30, r25
    40ea:	0e 94 d6 21 	call	0x43ac	; 0x43ac <__fp_split3>
    40ee:	58 f3       	brcs	.-42     	; 0x40c6 <__addsf3+0xc>
    40f0:	ba 17       	cp	r27, r26
    40f2:	62 07       	cpc	r22, r18
    40f4:	73 07       	cpc	r23, r19
    40f6:	84 07       	cpc	r24, r20
    40f8:	95 07       	cpc	r25, r21
    40fa:	20 f0       	brcs	.+8      	; 0x4104 <__addsf3x+0x1c>
    40fc:	79 f4       	brne	.+30     	; 0x411c <__addsf3x+0x34>
    40fe:	a6 f5       	brtc	.+104    	; 0x4168 <__addsf3x+0x80>
    4100:	0c 94 f8 21 	jmp	0x43f0	; 0x43f0 <__fp_zero>
    4104:	0e f4       	brtc	.+2      	; 0x4108 <__addsf3x+0x20>
    4106:	e0 95       	com	r30
    4108:	0b 2e       	mov	r0, r27
    410a:	ba 2f       	mov	r27, r26
    410c:	a0 2d       	mov	r26, r0
    410e:	0b 01       	movw	r0, r22
    4110:	b9 01       	movw	r22, r18
    4112:	90 01       	movw	r18, r0
    4114:	0c 01       	movw	r0, r24
    4116:	ca 01       	movw	r24, r20
    4118:	a0 01       	movw	r20, r0
    411a:	11 24       	eor	r1, r1
    411c:	ff 27       	eor	r31, r31
    411e:	59 1b       	sub	r21, r25
    4120:	99 f0       	breq	.+38     	; 0x4148 <__addsf3x+0x60>
    4122:	59 3f       	cpi	r21, 0xF9	; 249
    4124:	50 f4       	brcc	.+20     	; 0x413a <__addsf3x+0x52>
    4126:	50 3e       	cpi	r21, 0xE0	; 224
    4128:	68 f1       	brcs	.+90     	; 0x4184 <__addsf3x+0x9c>
    412a:	1a 16       	cp	r1, r26
    412c:	f0 40       	sbci	r31, 0x00	; 0
    412e:	a2 2f       	mov	r26, r18
    4130:	23 2f       	mov	r18, r19
    4132:	34 2f       	mov	r19, r20
    4134:	44 27       	eor	r20, r20
    4136:	58 5f       	subi	r21, 0xF8	; 248
    4138:	f3 cf       	rjmp	.-26     	; 0x4120 <__addsf3x+0x38>
    413a:	46 95       	lsr	r20
    413c:	37 95       	ror	r19
    413e:	27 95       	ror	r18
    4140:	a7 95       	ror	r26
    4142:	f0 40       	sbci	r31, 0x00	; 0
    4144:	53 95       	inc	r21
    4146:	c9 f7       	brne	.-14     	; 0x413a <__addsf3x+0x52>
    4148:	7e f4       	brtc	.+30     	; 0x4168 <__addsf3x+0x80>
    414a:	1f 16       	cp	r1, r31
    414c:	ba 0b       	sbc	r27, r26
    414e:	62 0b       	sbc	r22, r18
    4150:	73 0b       	sbc	r23, r19
    4152:	84 0b       	sbc	r24, r20
    4154:	ba f0       	brmi	.+46     	; 0x4184 <__addsf3x+0x9c>
    4156:	91 50       	subi	r25, 0x01	; 1
    4158:	a1 f0       	breq	.+40     	; 0x4182 <__addsf3x+0x9a>
    415a:	ff 0f       	add	r31, r31
    415c:	bb 1f       	adc	r27, r27
    415e:	66 1f       	adc	r22, r22
    4160:	77 1f       	adc	r23, r23
    4162:	88 1f       	adc	r24, r24
    4164:	c2 f7       	brpl	.-16     	; 0x4156 <__addsf3x+0x6e>
    4166:	0e c0       	rjmp	.+28     	; 0x4184 <__addsf3x+0x9c>
    4168:	ba 0f       	add	r27, r26
    416a:	62 1f       	adc	r22, r18
    416c:	73 1f       	adc	r23, r19
    416e:	84 1f       	adc	r24, r20
    4170:	48 f4       	brcc	.+18     	; 0x4184 <__addsf3x+0x9c>
    4172:	87 95       	ror	r24
    4174:	77 95       	ror	r23
    4176:	67 95       	ror	r22
    4178:	b7 95       	ror	r27
    417a:	f7 95       	ror	r31
    417c:	9e 3f       	cpi	r25, 0xFE	; 254
    417e:	08 f0       	brcs	.+2      	; 0x4182 <__addsf3x+0x9a>
    4180:	b0 cf       	rjmp	.-160    	; 0x40e2 <__addsf3+0x28>
    4182:	93 95       	inc	r25
    4184:	88 0f       	add	r24, r24
    4186:	08 f0       	brcs	.+2      	; 0x418a <__addsf3x+0xa2>
    4188:	99 27       	eor	r25, r25
    418a:	ee 0f       	add	r30, r30
    418c:	97 95       	ror	r25
    418e:	87 95       	ror	r24
    4190:	08 95       	ret

00004192 <__divsf3>:
    4192:	0e 94 dd 20 	call	0x41ba	; 0x41ba <__divsf3x>
    4196:	0c 94 c5 21 	jmp	0x438a	; 0x438a <__fp_round>
    419a:	0e 94 be 21 	call	0x437c	; 0x437c <__fp_pscB>
    419e:	58 f0       	brcs	.+22     	; 0x41b6 <__divsf3+0x24>
    41a0:	0e 94 b7 21 	call	0x436e	; 0x436e <__fp_pscA>
    41a4:	40 f0       	brcs	.+16     	; 0x41b6 <__divsf3+0x24>
    41a6:	29 f4       	brne	.+10     	; 0x41b2 <__divsf3+0x20>
    41a8:	5f 3f       	cpi	r21, 0xFF	; 255
    41aa:	29 f0       	breq	.+10     	; 0x41b6 <__divsf3+0x24>
    41ac:	0c 94 ae 21 	jmp	0x435c	; 0x435c <__fp_inf>
    41b0:	51 11       	cpse	r21, r1
    41b2:	0c 94 f9 21 	jmp	0x43f2	; 0x43f2 <__fp_szero>
    41b6:	0c 94 b4 21 	jmp	0x4368	; 0x4368 <__fp_nan>

000041ba <__divsf3x>:
    41ba:	0e 94 d6 21 	call	0x43ac	; 0x43ac <__fp_split3>
    41be:	68 f3       	brcs	.-38     	; 0x419a <__divsf3+0x8>

000041c0 <__divsf3_pse>:
    41c0:	99 23       	and	r25, r25
    41c2:	b1 f3       	breq	.-20     	; 0x41b0 <__divsf3+0x1e>
    41c4:	55 23       	and	r21, r21
    41c6:	91 f3       	breq	.-28     	; 0x41ac <__divsf3+0x1a>
    41c8:	95 1b       	sub	r25, r21
    41ca:	55 0b       	sbc	r21, r21
    41cc:	bb 27       	eor	r27, r27
    41ce:	aa 27       	eor	r26, r26
    41d0:	62 17       	cp	r22, r18
    41d2:	73 07       	cpc	r23, r19
    41d4:	84 07       	cpc	r24, r20
    41d6:	38 f0       	brcs	.+14     	; 0x41e6 <__divsf3_pse+0x26>
    41d8:	9f 5f       	subi	r25, 0xFF	; 255
    41da:	5f 4f       	sbci	r21, 0xFF	; 255
    41dc:	22 0f       	add	r18, r18
    41de:	33 1f       	adc	r19, r19
    41e0:	44 1f       	adc	r20, r20
    41e2:	aa 1f       	adc	r26, r26
    41e4:	a9 f3       	breq	.-22     	; 0x41d0 <__divsf3_pse+0x10>
    41e6:	35 d0       	rcall	.+106    	; 0x4252 <__divsf3_pse+0x92>
    41e8:	0e 2e       	mov	r0, r30
    41ea:	3a f0       	brmi	.+14     	; 0x41fa <__divsf3_pse+0x3a>
    41ec:	e0 e8       	ldi	r30, 0x80	; 128
    41ee:	32 d0       	rcall	.+100    	; 0x4254 <__divsf3_pse+0x94>
    41f0:	91 50       	subi	r25, 0x01	; 1
    41f2:	50 40       	sbci	r21, 0x00	; 0
    41f4:	e6 95       	lsr	r30
    41f6:	00 1c       	adc	r0, r0
    41f8:	ca f7       	brpl	.-14     	; 0x41ec <__divsf3_pse+0x2c>
    41fa:	2b d0       	rcall	.+86     	; 0x4252 <__divsf3_pse+0x92>
    41fc:	fe 2f       	mov	r31, r30
    41fe:	29 d0       	rcall	.+82     	; 0x4252 <__divsf3_pse+0x92>
    4200:	66 0f       	add	r22, r22
    4202:	77 1f       	adc	r23, r23
    4204:	88 1f       	adc	r24, r24
    4206:	bb 1f       	adc	r27, r27
    4208:	26 17       	cp	r18, r22
    420a:	37 07       	cpc	r19, r23
    420c:	48 07       	cpc	r20, r24
    420e:	ab 07       	cpc	r26, r27
    4210:	b0 e8       	ldi	r27, 0x80	; 128
    4212:	09 f0       	breq	.+2      	; 0x4216 <__divsf3_pse+0x56>
    4214:	bb 0b       	sbc	r27, r27
    4216:	80 2d       	mov	r24, r0
    4218:	bf 01       	movw	r22, r30
    421a:	ff 27       	eor	r31, r31
    421c:	93 58       	subi	r25, 0x83	; 131
    421e:	5f 4f       	sbci	r21, 0xFF	; 255
    4220:	3a f0       	brmi	.+14     	; 0x4230 <__divsf3_pse+0x70>
    4222:	9e 3f       	cpi	r25, 0xFE	; 254
    4224:	51 05       	cpc	r21, r1
    4226:	78 f0       	brcs	.+30     	; 0x4246 <__divsf3_pse+0x86>
    4228:	0c 94 ae 21 	jmp	0x435c	; 0x435c <__fp_inf>
    422c:	0c 94 f9 21 	jmp	0x43f2	; 0x43f2 <__fp_szero>
    4230:	5f 3f       	cpi	r21, 0xFF	; 255
    4232:	e4 f3       	brlt	.-8      	; 0x422c <__divsf3_pse+0x6c>
    4234:	98 3e       	cpi	r25, 0xE8	; 232
    4236:	d4 f3       	brlt	.-12     	; 0x422c <__divsf3_pse+0x6c>
    4238:	86 95       	lsr	r24
    423a:	77 95       	ror	r23
    423c:	67 95       	ror	r22
    423e:	b7 95       	ror	r27
    4240:	f7 95       	ror	r31
    4242:	9f 5f       	subi	r25, 0xFF	; 255
    4244:	c9 f7       	brne	.-14     	; 0x4238 <__divsf3_pse+0x78>
    4246:	88 0f       	add	r24, r24
    4248:	91 1d       	adc	r25, r1
    424a:	96 95       	lsr	r25
    424c:	87 95       	ror	r24
    424e:	97 f9       	bld	r25, 7
    4250:	08 95       	ret
    4252:	e1 e0       	ldi	r30, 0x01	; 1
    4254:	66 0f       	add	r22, r22
    4256:	77 1f       	adc	r23, r23
    4258:	88 1f       	adc	r24, r24
    425a:	bb 1f       	adc	r27, r27
    425c:	62 17       	cp	r22, r18
    425e:	73 07       	cpc	r23, r19
    4260:	84 07       	cpc	r24, r20
    4262:	ba 07       	cpc	r27, r26
    4264:	20 f0       	brcs	.+8      	; 0x426e <__divsf3_pse+0xae>
    4266:	62 1b       	sub	r22, r18
    4268:	73 0b       	sbc	r23, r19
    426a:	84 0b       	sbc	r24, r20
    426c:	ba 0b       	sbc	r27, r26
    426e:	ee 1f       	adc	r30, r30
    4270:	88 f7       	brcc	.-30     	; 0x4254 <__divsf3_pse+0x94>
    4272:	e0 95       	com	r30
    4274:	08 95       	ret

00004276 <__fixsfsi>:
    4276:	0e 94 42 21 	call	0x4284	; 0x4284 <__fixunssfsi>
    427a:	68 94       	set
    427c:	b1 11       	cpse	r27, r1
    427e:	0c 94 f9 21 	jmp	0x43f2	; 0x43f2 <__fp_szero>
    4282:	08 95       	ret

00004284 <__fixunssfsi>:
    4284:	0e 94 de 21 	call	0x43bc	; 0x43bc <__fp_splitA>
    4288:	88 f0       	brcs	.+34     	; 0x42ac <__fixunssfsi+0x28>
    428a:	9f 57       	subi	r25, 0x7F	; 127
    428c:	98 f0       	brcs	.+38     	; 0x42b4 <__fixunssfsi+0x30>
    428e:	b9 2f       	mov	r27, r25
    4290:	99 27       	eor	r25, r25
    4292:	b7 51       	subi	r27, 0x17	; 23
    4294:	b0 f0       	brcs	.+44     	; 0x42c2 <__fixunssfsi+0x3e>
    4296:	e1 f0       	breq	.+56     	; 0x42d0 <__fixunssfsi+0x4c>
    4298:	66 0f       	add	r22, r22
    429a:	77 1f       	adc	r23, r23
    429c:	88 1f       	adc	r24, r24
    429e:	99 1f       	adc	r25, r25
    42a0:	1a f0       	brmi	.+6      	; 0x42a8 <__fixunssfsi+0x24>
    42a2:	ba 95       	dec	r27
    42a4:	c9 f7       	brne	.-14     	; 0x4298 <__fixunssfsi+0x14>
    42a6:	14 c0       	rjmp	.+40     	; 0x42d0 <__fixunssfsi+0x4c>
    42a8:	b1 30       	cpi	r27, 0x01	; 1
    42aa:	91 f0       	breq	.+36     	; 0x42d0 <__fixunssfsi+0x4c>
    42ac:	0e 94 f8 21 	call	0x43f0	; 0x43f0 <__fp_zero>
    42b0:	b1 e0       	ldi	r27, 0x01	; 1
    42b2:	08 95       	ret
    42b4:	0c 94 f8 21 	jmp	0x43f0	; 0x43f0 <__fp_zero>
    42b8:	67 2f       	mov	r22, r23
    42ba:	78 2f       	mov	r23, r24
    42bc:	88 27       	eor	r24, r24
    42be:	b8 5f       	subi	r27, 0xF8	; 248
    42c0:	39 f0       	breq	.+14     	; 0x42d0 <__fixunssfsi+0x4c>
    42c2:	b9 3f       	cpi	r27, 0xF9	; 249
    42c4:	cc f3       	brlt	.-14     	; 0x42b8 <__fixunssfsi+0x34>
    42c6:	86 95       	lsr	r24
    42c8:	77 95       	ror	r23
    42ca:	67 95       	ror	r22
    42cc:	b3 95       	inc	r27
    42ce:	d9 f7       	brne	.-10     	; 0x42c6 <__fixunssfsi+0x42>
    42d0:	3e f4       	brtc	.+14     	; 0x42e0 <__fixunssfsi+0x5c>
    42d2:	90 95       	com	r25
    42d4:	80 95       	com	r24
    42d6:	70 95       	com	r23
    42d8:	61 95       	neg	r22
    42da:	7f 4f       	sbci	r23, 0xFF	; 255
    42dc:	8f 4f       	sbci	r24, 0xFF	; 255
    42de:	9f 4f       	sbci	r25, 0xFF	; 255
    42e0:	08 95       	ret

000042e2 <__floatunsisf>:
    42e2:	e8 94       	clt
    42e4:	09 c0       	rjmp	.+18     	; 0x42f8 <__floatsisf+0x12>

000042e6 <__floatsisf>:
    42e6:	97 fb       	bst	r25, 7
    42e8:	3e f4       	brtc	.+14     	; 0x42f8 <__floatsisf+0x12>
    42ea:	90 95       	com	r25
    42ec:	80 95       	com	r24
    42ee:	70 95       	com	r23
    42f0:	61 95       	neg	r22
    42f2:	7f 4f       	sbci	r23, 0xFF	; 255
    42f4:	8f 4f       	sbci	r24, 0xFF	; 255
    42f6:	9f 4f       	sbci	r25, 0xFF	; 255
    42f8:	99 23       	and	r25, r25
    42fa:	a9 f0       	breq	.+42     	; 0x4326 <__floatsisf+0x40>
    42fc:	f9 2f       	mov	r31, r25
    42fe:	96 e9       	ldi	r25, 0x96	; 150
    4300:	bb 27       	eor	r27, r27
    4302:	93 95       	inc	r25
    4304:	f6 95       	lsr	r31
    4306:	87 95       	ror	r24
    4308:	77 95       	ror	r23
    430a:	67 95       	ror	r22
    430c:	b7 95       	ror	r27
    430e:	f1 11       	cpse	r31, r1
    4310:	f8 cf       	rjmp	.-16     	; 0x4302 <__floatsisf+0x1c>
    4312:	fa f4       	brpl	.+62     	; 0x4352 <__floatsisf+0x6c>
    4314:	bb 0f       	add	r27, r27
    4316:	11 f4       	brne	.+4      	; 0x431c <__floatsisf+0x36>
    4318:	60 ff       	sbrs	r22, 0
    431a:	1b c0       	rjmp	.+54     	; 0x4352 <__floatsisf+0x6c>
    431c:	6f 5f       	subi	r22, 0xFF	; 255
    431e:	7f 4f       	sbci	r23, 0xFF	; 255
    4320:	8f 4f       	sbci	r24, 0xFF	; 255
    4322:	9f 4f       	sbci	r25, 0xFF	; 255
    4324:	16 c0       	rjmp	.+44     	; 0x4352 <__floatsisf+0x6c>
    4326:	88 23       	and	r24, r24
    4328:	11 f0       	breq	.+4      	; 0x432e <__floatsisf+0x48>
    432a:	96 e9       	ldi	r25, 0x96	; 150
    432c:	11 c0       	rjmp	.+34     	; 0x4350 <__floatsisf+0x6a>
    432e:	77 23       	and	r23, r23
    4330:	21 f0       	breq	.+8      	; 0x433a <__floatsisf+0x54>
    4332:	9e e8       	ldi	r25, 0x8E	; 142
    4334:	87 2f       	mov	r24, r23
    4336:	76 2f       	mov	r23, r22
    4338:	05 c0       	rjmp	.+10     	; 0x4344 <__floatsisf+0x5e>
    433a:	66 23       	and	r22, r22
    433c:	71 f0       	breq	.+28     	; 0x435a <__floatsisf+0x74>
    433e:	96 e8       	ldi	r25, 0x86	; 134
    4340:	86 2f       	mov	r24, r22
    4342:	70 e0       	ldi	r23, 0x00	; 0
    4344:	60 e0       	ldi	r22, 0x00	; 0
    4346:	2a f0       	brmi	.+10     	; 0x4352 <__floatsisf+0x6c>
    4348:	9a 95       	dec	r25
    434a:	66 0f       	add	r22, r22
    434c:	77 1f       	adc	r23, r23
    434e:	88 1f       	adc	r24, r24
    4350:	da f7       	brpl	.-10     	; 0x4348 <__floatsisf+0x62>
    4352:	88 0f       	add	r24, r24
    4354:	96 95       	lsr	r25
    4356:	87 95       	ror	r24
    4358:	97 f9       	bld	r25, 7
    435a:	08 95       	ret

0000435c <__fp_inf>:
    435c:	97 f9       	bld	r25, 7
    435e:	9f 67       	ori	r25, 0x7F	; 127
    4360:	80 e8       	ldi	r24, 0x80	; 128
    4362:	70 e0       	ldi	r23, 0x00	; 0
    4364:	60 e0       	ldi	r22, 0x00	; 0
    4366:	08 95       	ret

00004368 <__fp_nan>:
    4368:	9f ef       	ldi	r25, 0xFF	; 255
    436a:	80 ec       	ldi	r24, 0xC0	; 192
    436c:	08 95       	ret

0000436e <__fp_pscA>:
    436e:	00 24       	eor	r0, r0
    4370:	0a 94       	dec	r0
    4372:	16 16       	cp	r1, r22
    4374:	17 06       	cpc	r1, r23
    4376:	18 06       	cpc	r1, r24
    4378:	09 06       	cpc	r0, r25
    437a:	08 95       	ret

0000437c <__fp_pscB>:
    437c:	00 24       	eor	r0, r0
    437e:	0a 94       	dec	r0
    4380:	12 16       	cp	r1, r18
    4382:	13 06       	cpc	r1, r19
    4384:	14 06       	cpc	r1, r20
    4386:	05 06       	cpc	r0, r21
    4388:	08 95       	ret

0000438a <__fp_round>:
    438a:	09 2e       	mov	r0, r25
    438c:	03 94       	inc	r0
    438e:	00 0c       	add	r0, r0
    4390:	11 f4       	brne	.+4      	; 0x4396 <__fp_round+0xc>
    4392:	88 23       	and	r24, r24
    4394:	52 f0       	brmi	.+20     	; 0x43aa <__fp_round+0x20>
    4396:	bb 0f       	add	r27, r27
    4398:	40 f4       	brcc	.+16     	; 0x43aa <__fp_round+0x20>
    439a:	bf 2b       	or	r27, r31
    439c:	11 f4       	brne	.+4      	; 0x43a2 <__fp_round+0x18>
    439e:	60 ff       	sbrs	r22, 0
    43a0:	04 c0       	rjmp	.+8      	; 0x43aa <__fp_round+0x20>
    43a2:	6f 5f       	subi	r22, 0xFF	; 255
    43a4:	7f 4f       	sbci	r23, 0xFF	; 255
    43a6:	8f 4f       	sbci	r24, 0xFF	; 255
    43a8:	9f 4f       	sbci	r25, 0xFF	; 255
    43aa:	08 95       	ret

000043ac <__fp_split3>:
    43ac:	57 fd       	sbrc	r21, 7
    43ae:	90 58       	subi	r25, 0x80	; 128
    43b0:	44 0f       	add	r20, r20
    43b2:	55 1f       	adc	r21, r21
    43b4:	59 f0       	breq	.+22     	; 0x43cc <__fp_splitA+0x10>
    43b6:	5f 3f       	cpi	r21, 0xFF	; 255
    43b8:	71 f0       	breq	.+28     	; 0x43d6 <__fp_splitA+0x1a>
    43ba:	47 95       	ror	r20

000043bc <__fp_splitA>:
    43bc:	88 0f       	add	r24, r24
    43be:	97 fb       	bst	r25, 7
    43c0:	99 1f       	adc	r25, r25
    43c2:	61 f0       	breq	.+24     	; 0x43dc <__fp_splitA+0x20>
    43c4:	9f 3f       	cpi	r25, 0xFF	; 255
    43c6:	79 f0       	breq	.+30     	; 0x43e6 <__fp_splitA+0x2a>
    43c8:	87 95       	ror	r24
    43ca:	08 95       	ret
    43cc:	12 16       	cp	r1, r18
    43ce:	13 06       	cpc	r1, r19
    43d0:	14 06       	cpc	r1, r20
    43d2:	55 1f       	adc	r21, r21
    43d4:	f2 cf       	rjmp	.-28     	; 0x43ba <__fp_split3+0xe>
    43d6:	46 95       	lsr	r20
    43d8:	f1 df       	rcall	.-30     	; 0x43bc <__fp_splitA>
    43da:	08 c0       	rjmp	.+16     	; 0x43ec <__fp_splitA+0x30>
    43dc:	16 16       	cp	r1, r22
    43de:	17 06       	cpc	r1, r23
    43e0:	18 06       	cpc	r1, r24
    43e2:	99 1f       	adc	r25, r25
    43e4:	f1 cf       	rjmp	.-30     	; 0x43c8 <__fp_splitA+0xc>
    43e6:	86 95       	lsr	r24
    43e8:	71 05       	cpc	r23, r1
    43ea:	61 05       	cpc	r22, r1
    43ec:	08 94       	sec
    43ee:	08 95       	ret

000043f0 <__fp_zero>:
    43f0:	e8 94       	clt

000043f2 <__fp_szero>:
    43f2:	bb 27       	eor	r27, r27
    43f4:	66 27       	eor	r22, r22
    43f6:	77 27       	eor	r23, r23
    43f8:	cb 01       	movw	r24, r22
    43fa:	97 f9       	bld	r25, 7
    43fc:	08 95       	ret

000043fe <__mulsf3>:
    43fe:	0e 94 12 22 	call	0x4424	; 0x4424 <__mulsf3x>
    4402:	0c 94 c5 21 	jmp	0x438a	; 0x438a <__fp_round>
    4406:	0e 94 b7 21 	call	0x436e	; 0x436e <__fp_pscA>
    440a:	38 f0       	brcs	.+14     	; 0x441a <__mulsf3+0x1c>
    440c:	0e 94 be 21 	call	0x437c	; 0x437c <__fp_pscB>
    4410:	20 f0       	brcs	.+8      	; 0x441a <__mulsf3+0x1c>
    4412:	95 23       	and	r25, r21
    4414:	11 f0       	breq	.+4      	; 0x441a <__mulsf3+0x1c>
    4416:	0c 94 ae 21 	jmp	0x435c	; 0x435c <__fp_inf>
    441a:	0c 94 b4 21 	jmp	0x4368	; 0x4368 <__fp_nan>
    441e:	11 24       	eor	r1, r1
    4420:	0c 94 f9 21 	jmp	0x43f2	; 0x43f2 <__fp_szero>

00004424 <__mulsf3x>:
    4424:	0e 94 d6 21 	call	0x43ac	; 0x43ac <__fp_split3>
    4428:	70 f3       	brcs	.-36     	; 0x4406 <__mulsf3+0x8>

0000442a <__mulsf3_pse>:
    442a:	95 9f       	mul	r25, r21
    442c:	c1 f3       	breq	.-16     	; 0x441e <__mulsf3+0x20>
    442e:	95 0f       	add	r25, r21
    4430:	50 e0       	ldi	r21, 0x00	; 0
    4432:	55 1f       	adc	r21, r21
    4434:	62 9f       	mul	r22, r18
    4436:	f0 01       	movw	r30, r0
    4438:	72 9f       	mul	r23, r18
    443a:	bb 27       	eor	r27, r27
    443c:	f0 0d       	add	r31, r0
    443e:	b1 1d       	adc	r27, r1
    4440:	63 9f       	mul	r22, r19
    4442:	aa 27       	eor	r26, r26
    4444:	f0 0d       	add	r31, r0
    4446:	b1 1d       	adc	r27, r1
    4448:	aa 1f       	adc	r26, r26
    444a:	64 9f       	mul	r22, r20
    444c:	66 27       	eor	r22, r22
    444e:	b0 0d       	add	r27, r0
    4450:	a1 1d       	adc	r26, r1
    4452:	66 1f       	adc	r22, r22
    4454:	82 9f       	mul	r24, r18
    4456:	22 27       	eor	r18, r18
    4458:	b0 0d       	add	r27, r0
    445a:	a1 1d       	adc	r26, r1
    445c:	62 1f       	adc	r22, r18
    445e:	73 9f       	mul	r23, r19
    4460:	b0 0d       	add	r27, r0
    4462:	a1 1d       	adc	r26, r1
    4464:	62 1f       	adc	r22, r18
    4466:	83 9f       	mul	r24, r19
    4468:	a0 0d       	add	r26, r0
    446a:	61 1d       	adc	r22, r1
    446c:	22 1f       	adc	r18, r18
    446e:	74 9f       	mul	r23, r20
    4470:	33 27       	eor	r19, r19
    4472:	a0 0d       	add	r26, r0
    4474:	61 1d       	adc	r22, r1
    4476:	23 1f       	adc	r18, r19
    4478:	84 9f       	mul	r24, r20
    447a:	60 0d       	add	r22, r0
    447c:	21 1d       	adc	r18, r1
    447e:	82 2f       	mov	r24, r18
    4480:	76 2f       	mov	r23, r22
    4482:	6a 2f       	mov	r22, r26
    4484:	11 24       	eor	r1, r1
    4486:	9f 57       	subi	r25, 0x7F	; 127
    4488:	50 40       	sbci	r21, 0x00	; 0
    448a:	9a f0       	brmi	.+38     	; 0x44b2 <__mulsf3_pse+0x88>
    448c:	f1 f0       	breq	.+60     	; 0x44ca <__mulsf3_pse+0xa0>
    448e:	88 23       	and	r24, r24
    4490:	4a f0       	brmi	.+18     	; 0x44a4 <__mulsf3_pse+0x7a>
    4492:	ee 0f       	add	r30, r30
    4494:	ff 1f       	adc	r31, r31
    4496:	bb 1f       	adc	r27, r27
    4498:	66 1f       	adc	r22, r22
    449a:	77 1f       	adc	r23, r23
    449c:	88 1f       	adc	r24, r24
    449e:	91 50       	subi	r25, 0x01	; 1
    44a0:	50 40       	sbci	r21, 0x00	; 0
    44a2:	a9 f7       	brne	.-22     	; 0x448e <__mulsf3_pse+0x64>
    44a4:	9e 3f       	cpi	r25, 0xFE	; 254
    44a6:	51 05       	cpc	r21, r1
    44a8:	80 f0       	brcs	.+32     	; 0x44ca <__mulsf3_pse+0xa0>
    44aa:	0c 94 ae 21 	jmp	0x435c	; 0x435c <__fp_inf>
    44ae:	0c 94 f9 21 	jmp	0x43f2	; 0x43f2 <__fp_szero>
    44b2:	5f 3f       	cpi	r21, 0xFF	; 255
    44b4:	e4 f3       	brlt	.-8      	; 0x44ae <__mulsf3_pse+0x84>
    44b6:	98 3e       	cpi	r25, 0xE8	; 232
    44b8:	d4 f3       	brlt	.-12     	; 0x44ae <__mulsf3_pse+0x84>
    44ba:	86 95       	lsr	r24
    44bc:	77 95       	ror	r23
    44be:	67 95       	ror	r22
    44c0:	b7 95       	ror	r27
    44c2:	f7 95       	ror	r31
    44c4:	e7 95       	ror	r30
    44c6:	9f 5f       	subi	r25, 0xFF	; 255
    44c8:	c1 f7       	brne	.-16     	; 0x44ba <__mulsf3_pse+0x90>
    44ca:	fe 2b       	or	r31, r30
    44cc:	88 0f       	add	r24, r24
    44ce:	91 1d       	adc	r25, r1
    44d0:	96 95       	lsr	r25
    44d2:	87 95       	ror	r24
    44d4:	97 f9       	bld	r25, 7
    44d6:	08 95       	ret

000044d8 <__mulsi3>:
    44d8:	db 01       	movw	r26, r22
    44da:	8f 93       	push	r24
    44dc:	9f 93       	push	r25
    44de:	0e 94 82 22 	call	0x4504	; 0x4504 <__muluhisi3>
    44e2:	bf 91       	pop	r27
    44e4:	af 91       	pop	r26
    44e6:	a2 9f       	mul	r26, r18
    44e8:	80 0d       	add	r24, r0
    44ea:	91 1d       	adc	r25, r1
    44ec:	a3 9f       	mul	r26, r19
    44ee:	90 0d       	add	r25, r0
    44f0:	b2 9f       	mul	r27, r18
    44f2:	90 0d       	add	r25, r0
    44f4:	11 24       	eor	r1, r1
    44f6:	08 95       	ret

000044f8 <__tablejump2__>:
    44f8:	ee 0f       	add	r30, r30
    44fa:	ff 1f       	adc	r31, r31
    44fc:	05 90       	lpm	r0, Z+
    44fe:	f4 91       	lpm	r31, Z
    4500:	e0 2d       	mov	r30, r0
    4502:	09 94       	ijmp

00004504 <__muluhisi3>:
    4504:	0e 94 95 22 	call	0x452a	; 0x452a <__umulhisi3>
    4508:	a5 9f       	mul	r26, r21
    450a:	90 0d       	add	r25, r0
    450c:	b4 9f       	mul	r27, r20
    450e:	90 0d       	add	r25, r0
    4510:	a4 9f       	mul	r26, r20
    4512:	80 0d       	add	r24, r0
    4514:	91 1d       	adc	r25, r1
    4516:	11 24       	eor	r1, r1
    4518:	08 95       	ret

0000451a <__mulshisi3>:
    451a:	b7 ff       	sbrs	r27, 7
    451c:	0c 94 82 22 	jmp	0x4504	; 0x4504 <__muluhisi3>

00004520 <__mulohisi3>:
    4520:	0e 94 82 22 	call	0x4504	; 0x4504 <__muluhisi3>
    4524:	82 1b       	sub	r24, r18
    4526:	93 0b       	sbc	r25, r19
    4528:	08 95       	ret

0000452a <__umulhisi3>:
    452a:	a2 9f       	mul	r26, r18
    452c:	b0 01       	movw	r22, r0
    452e:	b3 9f       	mul	r27, r19
    4530:	c0 01       	movw	r24, r0
    4532:	a3 9f       	mul	r26, r19
    4534:	70 0d       	add	r23, r0
    4536:	81 1d       	adc	r24, r1
    4538:	11 24       	eor	r1, r1
    453a:	91 1d       	adc	r25, r1
    453c:	b2 9f       	mul	r27, r18
    453e:	70 0d       	add	r23, r0
    4540:	81 1d       	adc	r24, r1
    4542:	11 24       	eor	r1, r1
    4544:	91 1d       	adc	r25, r1
    4546:	08 95       	ret

00004548 <__itoa_ncheck>:
    4548:	bb 27       	eor	r27, r27
    454a:	4a 30       	cpi	r20, 0x0A	; 10
    454c:	31 f4       	brne	.+12     	; 0x455a <__itoa_ncheck+0x12>
    454e:	99 23       	and	r25, r25
    4550:	22 f4       	brpl	.+8      	; 0x455a <__itoa_ncheck+0x12>
    4552:	bd e2       	ldi	r27, 0x2D	; 45
    4554:	90 95       	com	r25
    4556:	81 95       	neg	r24
    4558:	9f 4f       	sbci	r25, 0xFF	; 255
    455a:	0c 94 b0 22 	jmp	0x4560	; 0x4560 <__utoa_common>

0000455e <__utoa_ncheck>:
    455e:	bb 27       	eor	r27, r27

00004560 <__utoa_common>:
    4560:	fb 01       	movw	r30, r22
    4562:	55 27       	eor	r21, r21
    4564:	aa 27       	eor	r26, r26
    4566:	88 0f       	add	r24, r24
    4568:	99 1f       	adc	r25, r25
    456a:	aa 1f       	adc	r26, r26
    456c:	a4 17       	cp	r26, r20
    456e:	10 f0       	brcs	.+4      	; 0x4574 <__utoa_common+0x14>
    4570:	a4 1b       	sub	r26, r20
    4572:	83 95       	inc	r24
    4574:	50 51       	subi	r21, 0x10	; 16
    4576:	b9 f7       	brne	.-18     	; 0x4566 <__utoa_common+0x6>
    4578:	a0 5d       	subi	r26, 0xD0	; 208
    457a:	aa 33       	cpi	r26, 0x3A	; 58
    457c:	08 f0       	brcs	.+2      	; 0x4580 <__utoa_common+0x20>
    457e:	a9 5d       	subi	r26, 0xD9	; 217
    4580:	a1 93       	st	Z+, r26
    4582:	00 97       	sbiw	r24, 0x00	; 0
    4584:	79 f7       	brne	.-34     	; 0x4564 <__utoa_common+0x4>
    4586:	b1 11       	cpse	r27, r1
    4588:	b1 93       	st	Z+, r27
    458a:	11 92       	st	Z+, r1
    458c:	cb 01       	movw	r24, r22
    458e:	0c 94 c9 22 	jmp	0x4592	; 0x4592 <strrev>

00004592 <strrev>:
    4592:	dc 01       	movw	r26, r24
    4594:	fc 01       	movw	r30, r24
    4596:	67 2f       	mov	r22, r23
    4598:	71 91       	ld	r23, Z+
    459a:	77 23       	and	r23, r23
    459c:	e1 f7       	brne	.-8      	; 0x4596 <strrev+0x4>
    459e:	32 97       	sbiw	r30, 0x02	; 2
    45a0:	04 c0       	rjmp	.+8      	; 0x45aa <strrev+0x18>
    45a2:	7c 91       	ld	r23, X
    45a4:	6d 93       	st	X+, r22
    45a6:	70 83       	st	Z, r23
    45a8:	62 91       	ld	r22, -Z
    45aa:	ae 17       	cp	r26, r30
    45ac:	bf 07       	cpc	r27, r31
    45ae:	c8 f3       	brcs	.-14     	; 0x45a2 <strrev+0x10>
    45b0:	08 95       	ret

000045b2 <eeprom_read_byte>:
    45b2:	e1 99       	sbic	0x1c, 1	; 28
    45b4:	fe cf       	rjmp	.-4      	; 0x45b2 <eeprom_read_byte>
    45b6:	9f bb       	out	0x1f, r25	; 31
    45b8:	8e bb       	out	0x1e, r24	; 30
    45ba:	e0 9a       	sbi	0x1c, 0	; 28
    45bc:	99 27       	eor	r25, r25
    45be:	8d b3       	in	r24, 0x1d	; 29
    45c0:	08 95       	ret

000045c2 <eeprom_read_word>:
    45c2:	a8 e1       	ldi	r26, 0x18	; 24
    45c4:	b0 e0       	ldi	r27, 0x00	; 0
    45c6:	42 e0       	ldi	r20, 0x02	; 2
    45c8:	50 e0       	ldi	r21, 0x00	; 0
    45ca:	0c 94 00 23 	jmp	0x4600	; 0x4600 <eeprom_read_blraw>

000045ce <eeprom_update_byte>:
    45ce:	26 2f       	mov	r18, r22

000045d0 <eeprom_update_r18>:
    45d0:	e1 99       	sbic	0x1c, 1	; 28
    45d2:	fe cf       	rjmp	.-4      	; 0x45d0 <eeprom_update_r18>
    45d4:	9f bb       	out	0x1f, r25	; 31
    45d6:	8e bb       	out	0x1e, r24	; 30
    45d8:	e0 9a       	sbi	0x1c, 0	; 28
    45da:	01 97       	sbiw	r24, 0x01	; 1
    45dc:	0d b2       	in	r0, 0x1d	; 29
    45de:	02 16       	cp	r0, r18
    45e0:	31 f0       	breq	.+12     	; 0x45ee <eeprom_update_r18+0x1e>
    45e2:	2d bb       	out	0x1d, r18	; 29
    45e4:	0f b6       	in	r0, 0x3f	; 63
    45e6:	f8 94       	cli
    45e8:	e2 9a       	sbi	0x1c, 2	; 28
    45ea:	e1 9a       	sbi	0x1c, 1	; 28
    45ec:	0f be       	out	0x3f, r0	; 63
    45ee:	08 95       	ret

000045f0 <eeprom_update_word>:
    45f0:	01 96       	adiw	r24, 0x01	; 1
    45f2:	27 2f       	mov	r18, r23
    45f4:	0e 94 e8 22 	call	0x45d0	; 0x45d0 <eeprom_update_r18>
    45f8:	0c 94 e7 22 	jmp	0x45ce	; 0x45ce <eeprom_update_byte>

000045fc <eeprom_read_block>:
    45fc:	dc 01       	movw	r26, r24
    45fe:	cb 01       	movw	r24, r22

00004600 <eeprom_read_blraw>:
    4600:	fc 01       	movw	r30, r24
    4602:	e1 99       	sbic	0x1c, 1	; 28
    4604:	fe cf       	rjmp	.-4      	; 0x4602 <eeprom_read_blraw+0x2>
    4606:	06 c0       	rjmp	.+12     	; 0x4614 <eeprom_read_blraw+0x14>
    4608:	ff bb       	out	0x1f, r31	; 31
    460a:	ee bb       	out	0x1e, r30	; 30
    460c:	e0 9a       	sbi	0x1c, 0	; 28
    460e:	31 96       	adiw	r30, 0x01	; 1
    4610:	0d b2       	in	r0, 0x1d	; 29
    4612:	0d 92       	st	X+, r0
    4614:	41 50       	subi	r20, 0x01	; 1
    4616:	50 40       	sbci	r21, 0x00	; 0
    4618:	b8 f7       	brcc	.-18     	; 0x4608 <eeprom_read_blraw+0x8>
    461a:	08 95       	ret

0000461c <_exit>:
    461c:	f8 94       	cli

0000461e <__stop_program>:
    461e:	ff cf       	rjmp	.-2      	; 0x461e <__stop_program>
