
futes_vezerlo.elf:     file format elf32-avr

Sections:
Idx Name          Size      VMA       LMA       File off  Algn
  0 .data         0000036a  00800100  00003a14  00003ac8  2**0
                  CONTENTS, ALLOC, LOAD, DATA
  1 .text         00003a14  00000000  00000000  000000b4  2**1
                  CONTENTS, ALLOC, LOAD, READONLY, CODE
  2 .bss          00000127  0080046a  0080046a  00003e32  2**0
                  ALLOC
  3 .eeprom       00000013  00810000  00810000  00003e32  2**0
                  CONTENTS, ALLOC, LOAD, DATA
  4 .comment      00000030  00000000  00000000  00003e45  2**0
                  CONTENTS, READONLY
  5 .note.gnu.avr.deviceinfo 0000003c  00000000  00000000  00003e78  2**2
                  CONTENTS, READONLY
  6 .debug_aranges 000006b8  00000000  00000000  00003eb8  2**3
                  CONTENTS, READONLY, DEBUGGING
  7 .debug_info   00007f48  00000000  00000000  00004570  2**0
                  CONTENTS, READONLY, DEBUGGING
  8 .debug_abbrev 00001dca  00000000  00000000  0000c4b8  2**0
                  CONTENTS, READONLY, DEBUGGING
  9 .debug_line   00003d51  00000000  00000000  0000e282  2**0
                  CONTENTS, READONLY, DEBUGGING
 10 .debug_frame  000011a8  00000000  00000000  00011fd4  2**2
                  CONTENTS, READONLY, DEBUGGING
 11 .debug_str    00001b1d  00000000  00000000  0001317c  2**0
                  CONTENTS, READONLY, DEBUGGING
 12 .debug_loc    00005e0a  00000000  00000000  00014c99  2**0
                  CONTENTS, READONLY, DEBUGGING
 13 .debug_ranges 00000660  00000000  00000000  0001aaa3  2**0
                  CONTENTS, READONLY, DEBUGGING

Disassembly of section .text:

00000000 <__vectors>:
       0:	0c 94 f1 02 	jmp	0x5e2	; 0x5e2 <__ctors_end>
       4:	0c 94 0e 03 	jmp	0x61c	; 0x61c <__bad_interrupt>
       8:	0c 94 0e 03 	jmp	0x61c	; 0x61c <__bad_interrupt>
       c:	0c 94 0e 03 	jmp	0x61c	; 0x61c <__bad_interrupt>
      10:	0c 94 0e 03 	jmp	0x61c	; 0x61c <__bad_interrupt>
      14:	0c 94 0e 03 	jmp	0x61c	; 0x61c <__bad_interrupt>
      18:	0c 94 0e 03 	jmp	0x61c	; 0x61c <__bad_interrupt>
      1c:	0c 94 0e 03 	jmp	0x61c	; 0x61c <__bad_interrupt>
      20:	0c 94 0e 03 	jmp	0x61c	; 0x61c <__bad_interrupt>
      24:	0c 94 0e 03 	jmp	0x61c	; 0x61c <__bad_interrupt>
      28:	0c 94 0e 03 	jmp	0x61c	; 0x61c <__bad_interrupt>
      2c:	0c 94 0e 03 	jmp	0x61c	; 0x61c <__bad_interrupt>
      30:	0c 94 2d 0a 	jmp	0x145a	; 0x145a <__vector_12>
      34:	0c 94 0e 03 	jmp	0x61c	; 0x61c <__bad_interrupt>
      38:	0c 94 0e 03 	jmp	0x61c	; 0x61c <__bad_interrupt>
      3c:	0c 94 0e 03 	jmp	0x61c	; 0x61c <__bad_interrupt>
      40:	0c 94 0e 03 	jmp	0x61c	; 0x61c <__bad_interrupt>
      44:	0c 94 0e 03 	jmp	0x61c	; 0x61c <__bad_interrupt>
      48:	0c 94 c1 18 	jmp	0x3182	; 0x3182 <__vector_18>
      4c:	0c 94 ed 18 	jmp	0x31da	; 0x31da <__vector_19>
      50:	0c 94 0e 03 	jmp	0x61c	; 0x61c <__bad_interrupt>
      54:	0c 94 0e 0a 	jmp	0x141c	; 0x141c <__vector_21>
      58:	0c 94 0e 03 	jmp	0x61c	; 0x61c <__bad_interrupt>
      5c:	0c 94 0e 03 	jmp	0x61c	; 0x61c <__bad_interrupt>
      60:	0c 94 0e 03 	jmp	0x61c	; 0x61c <__bad_interrupt>
      64:	0c 94 0e 03 	jmp	0x61c	; 0x61c <__bad_interrupt>
      68:	0c 94 0e 03 	jmp	0x61c	; 0x61c <__bad_interrupt>
      6c:	0c 94 0e 03 	jmp	0x61c	; 0x61c <__bad_interrupt>
      70:	0c 94 0e 03 	jmp	0x61c	; 0x61c <__bad_interrupt>
      74:	0c 94 0e 03 	jmp	0x61c	; 0x61c <__bad_interrupt>
      78:	0c 94 5a 19 	jmp	0x32b4	; 0x32b4 <__vector_30>
      7c:	0c 94 88 19 	jmp	0x3310	; 0x3310 <__vector_31>
      80:	0c 94 0e 03 	jmp	0x61c	; 0x61c <__bad_interrupt>
      84:	0c 94 0e 03 	jmp	0x61c	; 0x61c <__bad_interrupt>
      88:	0c 94 0e 03 	jmp	0x61c	; 0x61c <__bad_interrupt>
      8c:	ba 09       	sbc	r27, r10
      8e:	c7 09       	sbc	r28, r7
      90:	c7 09       	sbc	r28, r7
      92:	c7 09       	sbc	r28, r7
      94:	c7 09       	sbc	r28, r7
      96:	c7 09       	sbc	r28, r7
      98:	c7 09       	sbc	r28, r7
      9a:	c7 09       	sbc	r28, r7
      9c:	bc 09       	sbc	r27, r12
      9e:	c7 09       	sbc	r28, r7
      a0:	c7 09       	sbc	r28, r7
      a2:	c7 09       	sbc	r28, r7
      a4:	be 09       	sbc	r27, r14
      a6:	c7 09       	sbc	r28, r7
      a8:	c7 09       	sbc	r28, r7
      aa:	c7 09       	sbc	r28, r7
      ac:	c7 09       	sbc	r28, r7
      ae:	c7 09       	sbc	r28, r7
      b0:	c0 09       	sbc	r28, r0
      b2:	c7 09       	sbc	r28, r7
      b4:	c2 09       	sbc	r28, r2
      b6:	b6 09       	sbc	r27, r6
      b8:	c7 09       	sbc	r28, r7
      ba:	c7 09       	sbc	r28, r7
      bc:	c7 09       	sbc	r28, r7
      be:	c4 09       	sbc	r28, r4
      c0:	c6 09       	sbc	r28, r6
      c2:	b8 09       	sbc	r27, r8
      c4:	c7 09       	sbc	r28, r7
      c6:	c7 09       	sbc	r28, r7
      c8:	c7 09       	sbc	r28, r7
      ca:	c7 09       	sbc	r28, r7
      cc:	ba 09       	sbc	r27, r10
      ce:	c7 09       	sbc	r28, r7
      d0:	c7 09       	sbc	r28, r7
      d2:	c7 09       	sbc	r28, r7
      d4:	c7 09       	sbc	r28, r7
      d6:	c7 09       	sbc	r28, r7
      d8:	c7 09       	sbc	r28, r7
      da:	c7 09       	sbc	r28, r7
      dc:	bc 09       	sbc	r27, r12
      de:	c7 09       	sbc	r28, r7
      e0:	c7 09       	sbc	r28, r7
      e2:	c7 09       	sbc	r28, r7
      e4:	be 09       	sbc	r27, r14
      e6:	c7 09       	sbc	r28, r7
      e8:	c7 09       	sbc	r28, r7
      ea:	c7 09       	sbc	r28, r7
      ec:	c7 09       	sbc	r28, r7
      ee:	c7 09       	sbc	r28, r7
      f0:	c0 09       	sbc	r28, r0
      f2:	c7 09       	sbc	r28, r7
      f4:	c2 09       	sbc	r28, r2
      f6:	b6 09       	sbc	r27, r6
      f8:	c7 09       	sbc	r28, r7
      fa:	c7 09       	sbc	r28, r7
      fc:	c7 09       	sbc	r28, r7
      fe:	c4 09       	sbc	r28, r4
     100:	c6 09       	sbc	r28, r6
     102:	b8 09       	sbc	r27, r8

00000104 <__trampolines_end>:
     104:	43 6f       	ori	r20, 0xF3	; 243
     106:	75 6c       	ori	r23, 0xC5	; 197
     108:	64 20       	and	r6, r4
     10a:	6e 6f       	ori	r22, 0xFE	; 254
     10c:	74 20       	and	r7, r4
     10e:	63 6f       	ori	r22, 0xF3	; 243
     110:	6e 6e       	ori	r22, 0xEE	; 238
     112:	65 63       	ori	r22, 0x35	; 53
     114:	74 20       	and	r7, r4
     116:	74 6f       	ori	r23, 0xF4	; 244
     118:	20 73       	andi	r18, 0x30	; 48
     11a:	65 6e       	ori	r22, 0xE5	; 229
     11c:	73 6f       	ori	r23, 0xF3	; 243
     11e:	72 00       	.word	0x0072	; ????

00000120 <magyar_betuk>:
     120:	02 04 0e 01 0f 11 0f 00 02 04 0e 11 1f 10 0e 00     ................
     130:	02 04 00 0c 04 04 0e 00 02 04 0e 11 11 11 0e 00     ................
     140:	05 0a 0e 11 11 11 0e 00 02 04 00 11 11 13 0d 00     ................
     150:	05 0a 00 11 11 13 0d 00                             ........

00000158 <__c.2988>:
     158:	20 64 62 00                                          db.

0000015c <__c.2986>:
     15c:	44 53 31 38 42 32 30 3a 20 00                       DS18B20: .

00000166 <__c.2984>:
     166:	20 44 53 31 38 42 32 30 20 73 65 6e 73 6f 72 73      DS18B20 sensors
     176:	0a 00                                               ..

00000178 <__c.2982>:
     178:	46 6f 75 6e 64 20 00                                Found .

0000017f <__c.2980>:
     17f:	49 6e 74 65 72 72 75 70 74 20 65 6e 61 62 6c 65     Interrupt enable
     18f:	64 0a 00                                            d..

00000192 <__c.2978>:
     192:	42 4d 45 32 38 30 20 69 6e 64 ed 74 e1 73 00        BME280 ind.t.s.

000001a1 <__c.2976>:
     1a1:	49 32 43 20 69 6e 64 ed 74 e1 73 00                 I2C ind.t.s.

000001ad <__c.2970>:
     1ad:	41 6c 61 70 e1 6c 6c 61 70 6f 74 62 61 20 e1 6c     Alap.llapotba .l
     1bd:	6c e1 73 00                                         l.s.

000001c1 <__c.2968>:
     1c1:	46 fb 74 e9 73 20 76 65 7a e9 72 6c e9 73 20 76     F.t.s vez.rl.s v
     1d1:	30 2e 38 00                                         0.8.

000001d5 <__c.2954>:
     1d5:	42 75 73 20 65 72 72 6f 72 0a 00                    Bus error..

000001e0 <__c.2951>:
     1e0:	4e 6f 20 73 65 6e 73 6f 72 20 66 6f 75 6e 64 0a     No sensor found.
	...

000001f1 <__c.2949>:
     1f1:	42 75 73 20 73 63 61 6e 6e 69 6e 67 20 2e 2e 2e     Bus scanning ...
     201:	0a 00                                               ..

00000203 <__c.2940>:
     203:	47 41 53 20 61 6e 64 20 46 49 52 53 54 5f 46 4c     GAS and FIRST_FL
     213:	4f 4f 52 5f 56 41 4c 56 45 2c 20 53 45 43 4f 4e     OOR_VALVE, SECON
     223:	44 5f 46 4c 4f 4f 52 5f 56 41 4c 56 45 20 72 65     D_FLOOR_VALVE re
     233:	6c 61 79 20 64 65 61 63 74 69 76 61 74 65 64 0a     lay deactivated.
	...

00000244 <__c.2938>:
     244:	53 45 43 4f 4e 44 20 46 4c 4f 4f 52 20 64 65 61     SECOND FLOOR dea
     254:	63 74 69 76 61 74 65 64 0a 00                       ctivated..

0000025e <__c.2936>:
     25e:	53 45 43 4f 4e 44 20 46 4c 4f 4f 52 20 61 63 74     SECOND FLOOR act
     26e:	69 76 61 74 65 64 0a 00                             ivated..

00000276 <__c.2934>:
     276:	46 49 52 53 54 20 46 4c 4f 4f 52 20 64 65 61 63     FIRST FLOOR deac
     286:	74 69 76 61 74 65 64 0a 00                          tivated..

0000028f <__c.2932>:
     28f:	46 49 52 53 54 20 46 4c 4f 4f 52 20 61 63 74 69     FIRST FLOOR acti
     29f:	76 61 74 65 64 0a 00                                vated..

000002a6 <__c.2930>:
     2a6:	47 41 53 2c 20 44 48 57 20 64 65 61 63 74 69 76     GAS, DHW deactiv
     2b6:	61 74 65 64 3b 20 42 55 46 46 45 52 20 72 65 6c     ated; BUFFER rel
     2c6:	61 79 20 64 65 61 63 74 69 76 61 74 65 64 0a 00     ay deactivated..

000002d6 <__c.2928>:
     2d6:	47 41 53 20 61 63 74 69 76 61 74 65 64 3b 20 42     GAS activated; B
     2e6:	55 46 46 45 52 2c 20 44 48 57 20 72 65 6c 61 79     UFFER, DHW relay
     2f6:	20 64 65 61 63 74 69 76 61 74 65 64 0a 00            deactivated..

00000304 <__c.2926>:
     304:	44 48 57 20 72 65 6c 61 79 20 64 65 61 63 74 69     DHW relay deacti
     314:	76 61 74 65 64 0a 00                                vated..

0000031b <__c.2924>:
     31b:	44 48 57 20 72 65 6c 61 79 20 61 63 74 69 76 61     DHW relay activa
     32b:	74 65 64 20 77 69 74 68 20 62 75 66 66 65 72 0a     ted with buffer.
	...

0000033c <__c.2922>:
     33c:	44 48 57 20 72 65 6c 61 79 20 61 63 74 69 76 61     DHW relay activa
     34c:	74 65 64 20 77 69 74 68 20 67 61 73 0a 00           ted with gas..

0000035a <__c.2916>:
     35a:	46 f6 6c 64 2f 45 6d 65 6c 20 00                    F.ld/Emel .

00000365 <__c.2914>:
     365:	50 75 66 66 65 72 20 73 7a 2f 70 20 00              Puffer sz/p .

00000372 <__c.2912>:
     372:	47 e1 7a 20 72 65 6c e9 20 00                       G.z rel. .

0000037c <__c.2910>:
     37c:	3a 00                                               :.

0000037e <__c.2908>:
     37e:	48 4d 56 20 73 7a 65 6c 65 70 20 00                 HMV szelep .

0000038a <__c.2906>:
     38a:	20 43 00                                             C.

0000038d <__c.2904>:
     38d:	4b fc 6c 73 f5 20 00                                K.ls. .

00000394 <__c.2902>:
     394:	20 43 00                                             C.

00000397 <__c.2900>:
     397:	2e 00                                               ..

00000399 <__c.2898>:
     399:	47 e9 70 68 e1 7a 20 00                             G.ph.z .

000003a1 <__c.2896>:
     3a1:	20 43 00                                             C.

000003a4 <__c.2894>:
     3a4:	2e 00                                               ..

000003a6 <__c.2892>:
     3a6:	50 75 66 66 65 72 20 00                             Puffer .

000003ae <__c.2890>:
     3ae:	3a 00                                               :.

000003b0 <__c.2888>:
     3b0:	20 43 00                                             C.

000003b3 <__c.2886>:
     3b3:	2e 00                                               ..

000003b5 <__c.2884>:
     3b5:	48 4d 56 20 00                                      HMV .

000003ba <__c.2878>:
     3ba:	0a 00                                               ..

000003bc <__c.2876>:
     3bc:	2e 00                                               ..

000003be <__c.2869>:
     3be:	25 20 0a 00                                         % ..

000003c2 <__c.2867>:
     3c2:	42 4d 45 32 38 30 20 48 75 6d 69 64 69 74 79 3a     BME280 Humidity:
     3d2:	20 00                                                .

000003d4 <__c.2863>:
     3d4:	43 20 0a 00                                         C ..

000003d8 <__c.2861>:
     3d8:	42 4d 45 32 38 30 20 54 65 6d 70 65 72 61 74 75     BME280 Temperatu
     3e8:	72 65 3a 20 00                                      re: .

000003ed <magyar_betuk>:
     3ed:	02 04 0e 01 0f 11 0f 00 02 04 0e 11 1f 10 0e 00     ................
     3fd:	02 04 00 0c 04 04 0e 00 02 04 0e 11 11 11 0e 00     ................
     40d:	05 0a 0e 11 11 11 0e 00 02 04 00 11 11 13 0d 00     ................
     41d:	05 0a 00 11 11 13 0d 00                             ........

00000425 <__c.2745>:
     425:	70 65 72 63 00                                      perc.

0000042a <__c.2730>:
     42a:	f3 72 61 00                                         .ra.

0000042e <__c.2715>:
     42e:	53 7a 69 76 61 74 74 79 fa 20 75 74 e1 6e 66 75     Szivatty. ut.nfu
     43e:	74 e1 73 00                                         t.s.

00000442 <__c.2700>:
     442:	4c 43 44 20 68 e1 74 74 e9 72 00                    LCD h.tt.r.

0000044d <__c.2685>:
     44d:	4d 65 6e fc 20 69 64 f5 7a ed 74 f5 20 28 6d 70     Men. id.z.t. (mp
     45d:	29 00                                               ).

0000045f <__c.2670>:
     45f:	54 65 73 7a 74 fc 7a 65 6d 00                       Teszt.zem.

00000469 <__c.2655>:
     469:	4b 69 00                                            Ki.

0000046c <__c.2653>:
     46c:	42 65 00                                            Be.

0000046f <__c.2651>:
     46f:	47 e1 7a 20 e1 6c 6c 61 70 6f 74 00                 G.z .llapot.

0000047b <__c.2637>:
     47b:	4b 69 00                                            Ki.

0000047e <__c.2635>:
     47e:	42 65 00                                            Be.

00000481 <__c.2633>:
     481:	50 75 66 66 65 72 20 73 7a 69 76 61 74 74 79 fa     Puffer szivatty.
	...

00000492 <__c.2619>:
     492:	47 e1 7a 00                                         G.z.

00000496 <__c.2617>:
     496:	50 75 66 66 65 72 00                                Puffer.

0000049d <__c.2615>:
     49d:	50 75 66 66 65 72 20 2f 20 67 e1 7a 20 73 7a 65     Puffer / g.z sze
     4ad:	6c 65 70 00                                         lep.

000004b1 <__c.2601>:
     4b1:	4b 69 00                                            Ki.

000004b4 <__c.2599>:
     4b4:	42 65 00                                            Be.

000004b7 <__c.2597>:
     4b7:	45 6d 65 6c 65 74 69 20 73 7a 65 6c 65 70 00        Emeleti szelep.

000004c6 <__c.2583>:
     4c6:	4b 69 00                                            Ki.

000004c9 <__c.2581>:
     4c9:	42 65 00                                            Be.

000004cc <__c.2579>:
     4cc:	46 f6 6c 64 73 7a 69 6e 74 69 20 73 7a 65 6c 65     F.ldszinti szele
     4dc:	70 00                                               p.

000004de <__c.2565>:
     4de:	4b 69 00                                            Ki.

000004e1 <__c.2563>:
     4e1:	42 65 00                                            Be.

000004e4 <__c.2561>:
     4e4:	48 4d 56 20 73 7a 65 6c 65 70 20 e1 6c 6c 61 70     HMV szelep .llap
     4f4:	6f 74 00                                            ot.

000004f7 <__c.2545>:
     4f7:	47 e9 70 68 e1 7a 20 73 7a 65 6e 7a 6f 72 20 49     G.ph.z szenzor I
     507:	44 00                                               D.

00000509 <__c.2531>:
     509:	47 e9 70 68 e1 7a 20 6b ed 76 e1 6e 74 20 68 f5     G.ph.z k.v.nt h.
     519:	6d 00                                               m.

0000051b <__c.2516>:
     51b:	47 e9 70 68 e1 7a 20 6d 69 6e 20 68 f5 6d 00        G.ph.z min h.m.

0000052a <__c.2501>:
     52a:	20 43 00                                             C.

0000052d <__c.2499>:
     52d:	2e 00                                               ..

0000052f <__c.2497>:
     52f:	47 e9 70 68 e1 7a 20 61 6b 74 20 68 f5 6d 00        G.ph.z akt h.m.

0000053e <__c.2481>:
     53e:	50 75 66 66 65 72 20 73 7a 65 6e 7a 6f 72 20 49     Puffer szenzor I
     54e:	44 00                                               D.

00000550 <__c.2467>:
     550:	45 6c f5 72 65 6d 65 6e f5 20 68 f5 6d 00           El.remen. h.m.

0000055e <__c.2452>:
     55e:	20 43 00                                             C.

00000561 <__c.2450>:
     561:	2e 00                                               ..

00000563 <__c.2448>:
     563:	50 75 66 66 65 72 20 61 6b 74 20 68 f5 6d 00        Puffer akt h.m.

00000572 <__c.2431>:
     572:	4d 61 78 20 69 64 f5 00                             Max id..

0000057a <__c.2416>:
     57a:	4d 69 6e 20 69 64 f5 00                             Min id..

00000582 <__c.2401>:
     582:	48 4d 56 20 73 7a 65 6e 7a 6f 72 20 49 44 00        HMV szenzor ID.

00000591 <__c.2387>:
     591:	48 4d 56 20 6d 69 6e 20 68 f5 6d 00                 HMV min h.m.

0000059d <__c.2372>:
     59d:	48 4d 56 20 6b ed 76 e1 6e 74 20 68 f5 6d 00        HMV k.v.nt h.m.

000005ac <__c.2357>:
     5ac:	20 43 00                                             C.

000005af <__c.2355>:
     5af:	2e 00                                               ..

000005b1 <__c.2353>:
     5b1:	48 4d 56 20 61 6b 74 20 68 f5 6d 00                 HMV akt h.m.

000005bd <__c.2337>:
     5bd:	4b fc 6c 73 f5 20 6d 69 6e 20 68 f5 6d 00           K.ls. min h.m.

000005cb <__c.2323>:
     5cb:	42 4d 45 32 38 30 20 70 e1 72 61 00                 BME280 p.ra.

000005d7 <__c.2309>:
     5d7:	42 4d 45 32 38 30 20 68 f5 6d 00                    BME280 h.m.

000005e2 <__ctors_end>:
     5e2:	11 24       	eor	r1, r1
     5e4:	1f be       	out	0x3f, r1	; 63
     5e6:	cf ef       	ldi	r28, 0xFF	; 255
     5e8:	d0 e1       	ldi	r29, 0x10	; 16
     5ea:	de bf       	out	0x3e, r29	; 62
     5ec:	cd bf       	out	0x3d, r28	; 61

000005ee <__do_copy_data>:
     5ee:	14 e0       	ldi	r17, 0x04	; 4
     5f0:	a0 e0       	ldi	r26, 0x00	; 0
     5f2:	b1 e0       	ldi	r27, 0x01	; 1
     5f4:	e4 e1       	ldi	r30, 0x14	; 20
     5f6:	fa e3       	ldi	r31, 0x3A	; 58
     5f8:	02 c0       	rjmp	.+4      	; 0x5fe <__do_copy_data+0x10>
     5fa:	05 90       	lpm	r0, Z+
     5fc:	0d 92       	st	X+, r0
     5fe:	aa 36       	cpi	r26, 0x6A	; 106
     600:	b1 07       	cpc	r27, r17
     602:	d9 f7       	brne	.-10     	; 0x5fa <__do_copy_data+0xc>

00000604 <__do_clear_bss>:
     604:	25 e0       	ldi	r18, 0x05	; 5
     606:	aa e6       	ldi	r26, 0x6A	; 106
     608:	b4 e0       	ldi	r27, 0x04	; 4
     60a:	01 c0       	rjmp	.+2      	; 0x60e <.do_clear_bss_start>

0000060c <.do_clear_bss_loop>:
     60c:	1d 92       	st	X+, r1

0000060e <.do_clear_bss_start>:
     60e:	a1 39       	cpi	r26, 0x91	; 145
     610:	b2 07       	cpc	r27, r18
     612:	e1 f7       	brne	.-8      	; 0x60c <.do_clear_bss_loop>
     614:	0e 94 45 0e 	call	0x1c8a	; 0x1c8a <main>
     618:	0c 94 08 1d 	jmp	0x3a10	; 0x3a10 <_exit>

0000061c <__bad_interrupt>:
     61c:	0c 94 00 00 	jmp	0	; 0x0 <__vectors>

00000620 <read8>:
	return var2;
	
	p = ((p + var1 + var2) >> 8) + (((int64_t)_bme280_calib.dig_P7)<<4);
	
	return (float)p/256;
}
     620:	cf 93       	push	r28
     622:	df 93       	push	r29
     624:	c8 2f       	mov	r28, r24
     626:	8c ee       	ldi	r24, 0xEC	; 236
     628:	0e 94 2d 08 	call	0x105a	; 0x105a <i2c_start>
     62c:	81 11       	cpse	r24, r1
     62e:	11 c0       	rjmp	.+34     	; 0x652 <read8+0x32>
     630:	8c 2f       	mov	r24, r28
     632:	0e 94 52 08 	call	0x10a4	; 0x10a4 <i2c_write>
     636:	0e 94 7a 08 	call	0x10f4	; 0x10f4 <i2c_stop>
     63a:	8d ee       	ldi	r24, 0xED	; 237
     63c:	0e 94 2d 08 	call	0x105a	; 0x105a <i2c_start>
     640:	81 11       	cpse	r24, r1
     642:	0a c0       	rjmp	.+20     	; 0x658 <read8+0x38>
     644:	0e 94 6f 08 	call	0x10de	; 0x10de <i2c_read_nack>
     648:	c8 2f       	mov	r28, r24
     64a:	d0 e0       	ldi	r29, 0x00	; 0
     64c:	0e 94 7a 08 	call	0x10f4	; 0x10f4 <i2c_stop>
     650:	05 c0       	rjmp	.+10     	; 0x65c <read8+0x3c>
     652:	c0 e0       	ldi	r28, 0x00	; 0
     654:	d0 e0       	ldi	r29, 0x00	; 0
     656:	02 c0       	rjmp	.+4      	; 0x65c <read8+0x3c>
     658:	c0 e0       	ldi	r28, 0x00	; 0
     65a:	d0 e0       	ldi	r29, 0x00	; 0
     65c:	ce 01       	movw	r24, r28
     65e:	df 91       	pop	r29
     660:	cf 91       	pop	r28
     662:	08 95       	ret

00000664 <read16>:
     664:	cf 93       	push	r28
     666:	df 93       	push	r29
     668:	c8 2f       	mov	r28, r24
     66a:	8c ee       	ldi	r24, 0xEC	; 236
     66c:	0e 94 2d 08 	call	0x105a	; 0x105a <i2c_start>
     670:	81 11       	cpse	r24, r1
     672:	18 c0       	rjmp	.+48     	; 0x6a4 <read16+0x40>
     674:	8c 2f       	mov	r24, r28
     676:	0e 94 52 08 	call	0x10a4	; 0x10a4 <i2c_write>
     67a:	0e 94 7a 08 	call	0x10f4	; 0x10f4 <i2c_stop>
     67e:	8d ee       	ldi	r24, 0xED	; 237
     680:	0e 94 2d 08 	call	0x105a	; 0x105a <i2c_start>
     684:	81 11       	cpse	r24, r1
     686:	11 c0       	rjmp	.+34     	; 0x6aa <read16+0x46>
     688:	0e 94 64 08 	call	0x10c8	; 0x10c8 <i2c_read_ack>
     68c:	c8 2f       	mov	r28, r24
     68e:	d0 e0       	ldi	r29, 0x00	; 0
     690:	dc 2f       	mov	r29, r28
     692:	cc 27       	eor	r28, r28
     694:	0e 94 6f 08 	call	0x10de	; 0x10de <i2c_read_nack>
     698:	c8 2b       	or	r28, r24
     69a:	0e 94 7a 08 	call	0x10f4	; 0x10f4 <i2c_stop>
     69e:	8c 2f       	mov	r24, r28
     6a0:	9d 2f       	mov	r25, r29
     6a2:	05 c0       	rjmp	.+10     	; 0x6ae <read16+0x4a>
     6a4:	80 e0       	ldi	r24, 0x00	; 0
     6a6:	90 e0       	ldi	r25, 0x00	; 0
     6a8:	02 c0       	rjmp	.+4      	; 0x6ae <read16+0x4a>
     6aa:	80 e0       	ldi	r24, 0x00	; 0
     6ac:	90 e0       	ldi	r25, 0x00	; 0
     6ae:	df 91       	pop	r29
     6b0:	cf 91       	pop	r28
     6b2:	08 95       	ret

000006b4 <read16_LE>:
     6b4:	0e 94 32 03 	call	0x664	; 0x664 <read16>
     6b8:	98 27       	eor	r25, r24
     6ba:	89 27       	eor	r24, r25
     6bc:	98 27       	eor	r25, r24
     6be:	08 95       	ret

000006c0 <read24>:
     6c0:	cf 92       	push	r12
     6c2:	df 92       	push	r13
     6c4:	ef 92       	push	r14
     6c6:	ff 92       	push	r15
     6c8:	f8 2e       	mov	r15, r24
     6ca:	8c ee       	ldi	r24, 0xEC	; 236
     6cc:	0e 94 2d 08 	call	0x105a	; 0x105a <i2c_start>
     6d0:	81 11       	cpse	r24, r1
     6d2:	2e c0       	rjmp	.+92     	; 0x730 <read24+0x70>
     6d4:	8f 2d       	mov	r24, r15
     6d6:	0e 94 52 08 	call	0x10a4	; 0x10a4 <i2c_write>
     6da:	0e 94 7a 08 	call	0x10f4	; 0x10f4 <i2c_stop>
     6de:	8d ee       	ldi	r24, 0xED	; 237
     6e0:	0e 94 2d 08 	call	0x105a	; 0x105a <i2c_start>
     6e4:	81 11       	cpse	r24, r1
     6e6:	1b c0       	rjmp	.+54     	; 0x71e <read24+0x5e>
     6e8:	0e 94 64 08 	call	0x10c8	; 0x10c8 <i2c_read_ack>
     6ec:	c8 2e       	mov	r12, r24
     6ee:	d1 2c       	mov	r13, r1
     6f0:	e1 2c       	mov	r14, r1
     6f2:	f1 2c       	mov	r15, r1
     6f4:	fe 2c       	mov	r15, r14
     6f6:	ed 2c       	mov	r14, r13
     6f8:	dc 2c       	mov	r13, r12
     6fa:	cc 24       	eor	r12, r12
     6fc:	0e 94 64 08 	call	0x10c8	; 0x10c8 <i2c_read_ack>
     700:	c8 2a       	or	r12, r24
     702:	fe 2c       	mov	r15, r14
     704:	ed 2c       	mov	r14, r13
     706:	dc 2c       	mov	r13, r12
     708:	cc 24       	eor	r12, r12
     70a:	0e 94 6f 08 	call	0x10de	; 0x10de <i2c_read_nack>
     70e:	c8 2a       	or	r12, r24
     710:	0e 94 7a 08 	call	0x10f4	; 0x10f4 <i2c_stop>
     714:	6c 2d       	mov	r22, r12
     716:	7d 2d       	mov	r23, r13
     718:	8e 2d       	mov	r24, r14
     71a:	9f 2d       	mov	r25, r15
     71c:	0d c0       	rjmp	.+26     	; 0x738 <read24+0x78>
     71e:	84 e0       	ldi	r24, 0x04	; 4
     720:	91 e0       	ldi	r25, 0x01	; 1
     722:	0e 94 48 19 	call	0x3290	; 0x3290 <uart_puts_p>
     726:	60 e0       	ldi	r22, 0x00	; 0
     728:	70 e0       	ldi	r23, 0x00	; 0
     72a:	80 e0       	ldi	r24, 0x00	; 0
     72c:	90 e0       	ldi	r25, 0x00	; 0
     72e:	04 c0       	rjmp	.+8      	; 0x738 <read24+0x78>
     730:	60 e0       	ldi	r22, 0x00	; 0
     732:	70 e0       	ldi	r23, 0x00	; 0
     734:	80 e0       	ldi	r24, 0x00	; 0
     736:	90 e0       	ldi	r25, 0x00	; 0
     738:	ff 90       	pop	r15
     73a:	ef 90       	pop	r14
     73c:	df 90       	pop	r13
     73e:	cf 90       	pop	r12
     740:	08 95       	ret

00000742 <bme280_readCoefficients>:
     742:	0f 93       	push	r16
     744:	1f 93       	push	r17
     746:	cf 93       	push	r28
     748:	df 93       	push	r29
     74a:	88 e8       	ldi	r24, 0x88	; 136
     74c:	0e 94 5a 03 	call	0x6b4	; 0x6b4 <read16_LE>
     750:	cf ef       	ldi	r28, 0xFF	; 255
     752:	d4 e0       	ldi	r29, 0x04	; 4
     754:	99 83       	std	Y+1, r25	; 0x01
     756:	88 83       	st	Y, r24
     758:	8a e8       	ldi	r24, 0x8A	; 138
     75a:	0e 94 5a 03 	call	0x6b4	; 0x6b4 <read16_LE>
     75e:	9b 83       	std	Y+3, r25	; 0x03
     760:	8a 83       	std	Y+2, r24	; 0x02
     762:	8c e8       	ldi	r24, 0x8C	; 140
     764:	0e 94 5a 03 	call	0x6b4	; 0x6b4 <read16_LE>
     768:	9d 83       	std	Y+5, r25	; 0x05
     76a:	8c 83       	std	Y+4, r24	; 0x04
     76c:	8e e8       	ldi	r24, 0x8E	; 142
     76e:	0e 94 5a 03 	call	0x6b4	; 0x6b4 <read16_LE>
     772:	9f 83       	std	Y+7, r25	; 0x07
     774:	8e 83       	std	Y+6, r24	; 0x06
     776:	80 e9       	ldi	r24, 0x90	; 144
     778:	0e 94 5a 03 	call	0x6b4	; 0x6b4 <read16_LE>
     77c:	99 87       	std	Y+9, r25	; 0x09
     77e:	88 87       	std	Y+8, r24	; 0x08
     780:	82 e9       	ldi	r24, 0x92	; 146
     782:	0e 94 5a 03 	call	0x6b4	; 0x6b4 <read16_LE>
     786:	9b 87       	std	Y+11, r25	; 0x0b
     788:	8a 87       	std	Y+10, r24	; 0x0a
     78a:	84 e9       	ldi	r24, 0x94	; 148
     78c:	0e 94 5a 03 	call	0x6b4	; 0x6b4 <read16_LE>
     790:	9d 87       	std	Y+13, r25	; 0x0d
     792:	8c 87       	std	Y+12, r24	; 0x0c
     794:	86 e9       	ldi	r24, 0x96	; 150
     796:	0e 94 5a 03 	call	0x6b4	; 0x6b4 <read16_LE>
     79a:	9f 87       	std	Y+15, r25	; 0x0f
     79c:	8e 87       	std	Y+14, r24	; 0x0e
     79e:	88 e9       	ldi	r24, 0x98	; 152
     7a0:	0e 94 5a 03 	call	0x6b4	; 0x6b4 <read16_LE>
     7a4:	99 8b       	std	Y+17, r25	; 0x11
     7a6:	88 8b       	std	Y+16, r24	; 0x10
     7a8:	8a e9       	ldi	r24, 0x9A	; 154
     7aa:	0e 94 5a 03 	call	0x6b4	; 0x6b4 <read16_LE>
     7ae:	9b 8b       	std	Y+19, r25	; 0x13
     7b0:	8a 8b       	std	Y+18, r24	; 0x12
     7b2:	8c e9       	ldi	r24, 0x9C	; 156
     7b4:	0e 94 5a 03 	call	0x6b4	; 0x6b4 <read16_LE>
     7b8:	9d 8b       	std	Y+21, r25	; 0x15
     7ba:	8c 8b       	std	Y+20, r24	; 0x14
     7bc:	8e e9       	ldi	r24, 0x9E	; 158
     7be:	0e 94 5a 03 	call	0x6b4	; 0x6b4 <read16_LE>
     7c2:	9f 8b       	std	Y+23, r25	; 0x17
     7c4:	8e 8b       	std	Y+22, r24	; 0x16
     7c6:	81 ea       	ldi	r24, 0xA1	; 161
     7c8:	0e 94 10 03 	call	0x620	; 0x620 <read8>
     7cc:	88 8f       	std	Y+24, r24	; 0x18
     7ce:	81 ee       	ldi	r24, 0xE1	; 225
     7d0:	0e 94 5a 03 	call	0x6b4	; 0x6b4 <read16_LE>
     7d4:	9a 8f       	std	Y+26, r25	; 0x1a
     7d6:	89 8f       	std	Y+25, r24	; 0x19
     7d8:	83 ee       	ldi	r24, 0xE3	; 227
     7da:	0e 94 10 03 	call	0x620	; 0x620 <read8>
     7de:	8b 8f       	std	Y+27, r24	; 0x1b
     7e0:	84 ee       	ldi	r24, 0xE4	; 228
     7e2:	0e 94 10 03 	call	0x620	; 0x620 <read8>
     7e6:	8c 01       	movw	r16, r24
     7e8:	85 ee       	ldi	r24, 0xE5	; 229
     7ea:	0e 94 10 03 	call	0x620	; 0x620 <read8>
     7ee:	02 95       	swap	r16
     7f0:	12 95       	swap	r17
     7f2:	10 7f       	andi	r17, 0xF0	; 240
     7f4:	10 27       	eor	r17, r16
     7f6:	00 7f       	andi	r16, 0xF0	; 240
     7f8:	10 27       	eor	r17, r16
     7fa:	8f 70       	andi	r24, 0x0F	; 15
     7fc:	99 27       	eor	r25, r25
     7fe:	80 2b       	or	r24, r16
     800:	91 2b       	or	r25, r17
     802:	9d 8f       	std	Y+29, r25	; 0x1d
     804:	8c 8f       	std	Y+28, r24	; 0x1c
     806:	86 ee       	ldi	r24, 0xE6	; 230
     808:	0e 94 10 03 	call	0x620	; 0x620 <read8>
     80c:	8c 01       	movw	r16, r24
     80e:	85 ee       	ldi	r24, 0xE5	; 229
     810:	0e 94 10 03 	call	0x620	; 0x620 <read8>
     814:	02 95       	swap	r16
     816:	12 95       	swap	r17
     818:	10 7f       	andi	r17, 0xF0	; 240
     81a:	10 27       	eor	r17, r16
     81c:	00 7f       	andi	r16, 0xF0	; 240
     81e:	10 27       	eor	r17, r16
     820:	92 95       	swap	r25
     822:	82 95       	swap	r24
     824:	8f 70       	andi	r24, 0x0F	; 15
     826:	89 27       	eor	r24, r25
     828:	9f 70       	andi	r25, 0x0F	; 15
     82a:	89 27       	eor	r24, r25
     82c:	80 2b       	or	r24, r16
     82e:	91 2b       	or	r25, r17
     830:	9f 8f       	std	Y+31, r25	; 0x1f
     832:	8e 8f       	std	Y+30, r24	; 0x1e
     834:	87 ee       	ldi	r24, 0xE7	; 231
     836:	0e 94 10 03 	call	0x620	; 0x620 <read8>
     83a:	88 a3       	std	Y+32, r24	; 0x20
     83c:	df 91       	pop	r29
     83e:	cf 91       	pop	r28
     840:	1f 91       	pop	r17
     842:	0f 91       	pop	r16
     844:	08 95       	ret

00000846 <init_BME280>:
     846:	8c ee       	ldi	r24, 0xEC	; 236
     848:	0e 94 2d 08 	call	0x105a	; 0x105a <i2c_start>
     84c:	81 11       	cpse	r24, r1
     84e:	1e c0       	rjmp	.+60     	; 0x88c <init_BME280+0x46>
     850:	82 ef       	ldi	r24, 0xF2	; 242
     852:	0e 94 52 08 	call	0x10a4	; 0x10a4 <i2c_write>
     856:	85 e0       	ldi	r24, 0x05	; 5
     858:	0e 94 52 08 	call	0x10a4	; 0x10a4 <i2c_write>
     85c:	84 ef       	ldi	r24, 0xF4	; 244
     85e:	0e 94 52 08 	call	0x10a4	; 0x10a4 <i2c_write>
     862:	87 eb       	ldi	r24, 0xB7	; 183
     864:	0e 94 52 08 	call	0x10a4	; 0x10a4 <i2c_write>
     868:	80 ed       	ldi	r24, 0xD0	; 208
     86a:	0e 94 52 08 	call	0x10a4	; 0x10a4 <i2c_write>
     86e:	0e 94 a1 03 	call	0x742	; 0x742 <bme280_readCoefficients>
     872:	0e 94 7a 08 	call	0x10f4	; 0x10f4 <i2c_stop>
     876:	8d ee       	ldi	r24, 0xED	; 237
     878:	0e 94 2d 08 	call	0x105a	; 0x105a <i2c_start>
     87c:	81 11       	cpse	r24, r1
     87e:	06 c0       	rjmp	.+12     	; 0x88c <init_BME280+0x46>
     880:	0e 94 6f 08 	call	0x10de	; 0x10de <i2c_read_nack>
     884:	0e 94 28 19 	call	0x3250	; 0x3250 <uart_putc>
     888:	0e 94 7a 08 	call	0x10f4	; 0x10f4 <i2c_stop>
     88c:	08 95       	ret

0000088e <bme280_readTemperature>:
     88e:	8f 92       	push	r8
     890:	9f 92       	push	r9
     892:	af 92       	push	r10
     894:	bf 92       	push	r11
     896:	cf 92       	push	r12
     898:	df 92       	push	r13
     89a:	ef 92       	push	r14
     89c:	ff 92       	push	r15
     89e:	0f 93       	push	r16
     8a0:	1f 93       	push	r17
     8a2:	8a ef       	ldi	r24, 0xFA	; 250
     8a4:	0e 94 60 03 	call	0x6c0	; 0x6c0 <read24>
     8a8:	ef ef       	ldi	r30, 0xFF	; 255
     8aa:	f4 e0       	ldi	r31, 0x04	; 4
     8ac:	00 81       	ld	r16, Z
     8ae:	11 81       	ldd	r17, Z+1	; 0x01
     8b0:	20 e0       	ldi	r18, 0x00	; 0
     8b2:	30 e0       	ldi	r19, 0x00	; 0
     8b4:	c7 2e       	mov	r12, r23
     8b6:	d8 2e       	mov	r13, r24
     8b8:	e9 2e       	mov	r14, r25
     8ba:	ff 24       	eor	r15, r15
     8bc:	e7 fc       	sbrc	r14, 7
     8be:	fa 94       	dec	r15
     8c0:	c0 1a       	sub	r12, r16
     8c2:	d1 0a       	sbc	r13, r17
     8c4:	e2 0a       	sbc	r14, r18
     8c6:	f3 0a       	sbc	r15, r19
     8c8:	dc 01       	movw	r26, r24
     8ca:	cb 01       	movw	r24, r22
     8cc:	68 94       	set
     8ce:	16 f8       	bld	r1, 6
     8d0:	b5 95       	asr	r27
     8d2:	a7 95       	ror	r26
     8d4:	97 95       	ror	r25
     8d6:	87 95       	ror	r24
     8d8:	16 94       	lsr	r1
     8da:	d1 f7       	brne	.-12     	; 0x8d0 <bme280_readTemperature+0x42>
     8dc:	00 0f       	add	r16, r16
     8de:	11 1f       	adc	r17, r17
     8e0:	22 1f       	adc	r18, r18
     8e2:	33 1f       	adc	r19, r19
     8e4:	4c 01       	movw	r8, r24
     8e6:	5d 01       	movw	r10, r26
     8e8:	80 1a       	sub	r8, r16
     8ea:	91 0a       	sbc	r9, r17
     8ec:	a2 0a       	sbc	r10, r18
     8ee:	b3 0a       	sbc	r11, r19
     8f0:	a5 01       	movw	r20, r10
     8f2:	94 01       	movw	r18, r8
     8f4:	a2 81       	ldd	r26, Z+2	; 0x02
     8f6:	b3 81       	ldd	r27, Z+3	; 0x03
     8f8:	0e 94 87 1c 	call	0x390e	; 0x390e <__mulshisi3>
     8fc:	4b 01       	movw	r8, r22
     8fe:	5c 01       	movw	r10, r24
     900:	07 2e       	mov	r0, r23
     902:	7b e0       	ldi	r23, 0x0B	; 11
     904:	b5 94       	asr	r11
     906:	a7 94       	ror	r10
     908:	97 94       	ror	r9
     90a:	87 94       	ror	r8
     90c:	7a 95       	dec	r23
     90e:	d1 f7       	brne	.-12     	; 0x904 <bme280_readTemperature+0x76>
     910:	70 2d       	mov	r23, r0
     912:	a7 01       	movw	r20, r14
     914:	96 01       	movw	r18, r12
     916:	c7 01       	movw	r24, r14
     918:	b6 01       	movw	r22, r12
     91a:	0e 94 66 1c 	call	0x38cc	; 0x38cc <__mulsi3>
     91e:	9b 01       	movw	r18, r22
     920:	ac 01       	movw	r20, r24
     922:	01 2e       	mov	r0, r17
     924:	1c e0       	ldi	r17, 0x0C	; 12
     926:	55 95       	asr	r21
     928:	47 95       	ror	r20
     92a:	37 95       	ror	r19
     92c:	27 95       	ror	r18
     92e:	1a 95       	dec	r17
     930:	d1 f7       	brne	.-12     	; 0x926 <bme280_readTemperature+0x98>
     932:	10 2d       	mov	r17, r0
     934:	a4 81       	ldd	r26, Z+4	; 0x04
     936:	b5 81       	ldd	r27, Z+5	; 0x05
     938:	0e 94 87 1c 	call	0x390e	; 0x390e <__mulshisi3>
     93c:	dc 01       	movw	r26, r24
     93e:	cb 01       	movw	r24, r22
     940:	07 2e       	mov	r0, r23
     942:	7e e0       	ldi	r23, 0x0E	; 14
     944:	b5 95       	asr	r27
     946:	a7 95       	ror	r26
     948:	97 95       	ror	r25
     94a:	87 95       	ror	r24
     94c:	7a 95       	dec	r23
     94e:	d1 f7       	brne	.-12     	; 0x944 <bme280_readTemperature+0xb6>
     950:	70 2d       	mov	r23, r0
     952:	88 0d       	add	r24, r8
     954:	99 1d       	adc	r25, r9
     956:	aa 1d       	adc	r26, r10
     958:	bb 1d       	adc	r27, r11
     95a:	80 93 20 05 	sts	0x0520, r24	; 0x800520 <t_fine>
     95e:	90 93 21 05 	sts	0x0521, r25	; 0x800521 <t_fine+0x1>
     962:	a0 93 22 05 	sts	0x0522, r26	; 0x800522 <t_fine+0x2>
     966:	b0 93 23 05 	sts	0x0523, r27	; 0x800523 <t_fine+0x3>
     96a:	8c 01       	movw	r16, r24
     96c:	9d 01       	movw	r18, r26
     96e:	00 0f       	add	r16, r16
     970:	11 1f       	adc	r17, r17
     972:	22 1f       	adc	r18, r18
     974:	33 1f       	adc	r19, r19
     976:	00 0f       	add	r16, r16
     978:	11 1f       	adc	r17, r17
     97a:	22 1f       	adc	r18, r18
     97c:	33 1f       	adc	r19, r19
     97e:	80 0f       	add	r24, r16
     980:	91 1f       	adc	r25, r17
     982:	a2 1f       	adc	r26, r18
     984:	b3 1f       	adc	r27, r19
     986:	80 58       	subi	r24, 0x80	; 128
     988:	9f 4f       	sbci	r25, 0xFF	; 255
     98a:	af 4f       	sbci	r26, 0xFF	; 255
     98c:	bf 4f       	sbci	r27, 0xFF	; 255
     98e:	69 2f       	mov	r22, r25
     990:	7a 2f       	mov	r23, r26
     992:	8b 2f       	mov	r24, r27
     994:	99 27       	eor	r25, r25
     996:	0e 94 6b 1b 	call	0x36d6	; 0x36d6 <__floatunsisf>
     99a:	20 e0       	ldi	r18, 0x00	; 0
     99c:	30 e0       	ldi	r19, 0x00	; 0
     99e:	48 ec       	ldi	r20, 0xC8	; 200
     9a0:	52 e4       	ldi	r21, 0x42	; 66
     9a2:	0e 94 c3 1a 	call	0x3586	; 0x3586 <__divsf3>
     9a6:	1f 91       	pop	r17
     9a8:	0f 91       	pop	r16
     9aa:	ff 90       	pop	r15
     9ac:	ef 90       	pop	r14
     9ae:	df 90       	pop	r13
     9b0:	cf 90       	pop	r12
     9b2:	bf 90       	pop	r11
     9b4:	af 90       	pop	r10
     9b6:	9f 90       	pop	r9
     9b8:	8f 90       	pop	r8
     9ba:	08 95       	ret

000009bc <bme280_readHumidity>:

float bme280_readHumidity(void)
{
     9bc:	4f 92       	push	r4
     9be:	5f 92       	push	r5
     9c0:	6f 92       	push	r6
     9c2:	7f 92       	push	r7
     9c4:	8f 92       	push	r8
     9c6:	9f 92       	push	r9
     9c8:	af 92       	push	r10
     9ca:	bf 92       	push	r11
     9cc:	cf 92       	push	r12
     9ce:	df 92       	push	r13
     9d0:	ef 92       	push	r14
     9d2:	ff 92       	push	r15
	
	bme280_readTemperature(); // must be done first to get t_fine
     9d4:	0e 94 47 04 	call	0x88e	; 0x88e <bme280_readTemperature>
	
	int32_t adc_H = read16(BME280_REGISTER_HUMIDDATA);
     9d8:	8d ef       	ldi	r24, 0xFD	; 253
     9da:	0e 94 32 03 	call	0x664	; 0x664 <read16>
	
	int32_t v_x1_u32r;
	
	v_x1_u32r = (t_fine - ((int32_t)76800));
     9de:	80 90 20 05 	lds	r8, 0x0520	; 0x800520 <t_fine>
     9e2:	90 90 21 05 	lds	r9, 0x0521	; 0x800521 <t_fine+0x1>
     9e6:	a0 90 22 05 	lds	r10, 0x0522	; 0x800522 <t_fine+0x2>
     9ea:	b0 90 23 05 	lds	r11, 0x0523	; 0x800523 <t_fine+0x3>
     9ee:	2c e2       	ldi	r18, 0x2C	; 44
     9f0:	92 1a       	sub	r9, r18
     9f2:	21 e0       	ldi	r18, 0x01	; 1
     9f4:	a2 0a       	sbc	r10, r18
     9f6:	b1 08       	sbc	r11, r1
	
	v_x1_u32r = (((((adc_H << 14) - (((int32_t)_bme280_calib.dig_H4) << 20) -
	(((int32_t)_bme280_calib.dig_H5) * v_x1_u32r)) + ((int32_t)16384)) >> 15) *
     9f8:	6c 01       	movw	r12, r24
     9fa:	e1 2c       	mov	r14, r1
     9fc:	f1 2c       	mov	r15, r1
     9fe:	0b 2e       	mov	r0, r27
     a00:	be e0       	ldi	r27, 0x0E	; 14
     a02:	cc 0c       	add	r12, r12
     a04:	dd 1c       	adc	r13, r13
     a06:	ee 1c       	adc	r14, r14
     a08:	ff 1c       	adc	r15, r15
     a0a:	ba 95       	dec	r27
     a0c:	d1 f7       	brne	.-12     	; 0xa02 <bme280_readHumidity+0x46>
     a0e:	b0 2d       	mov	r27, r0
	
	int32_t v_x1_u32r;
	
	v_x1_u32r = (t_fine - ((int32_t)76800));
	
	v_x1_u32r = (((((adc_H << 14) - (((int32_t)_bme280_calib.dig_H4) << 20) -
     a10:	ef ef       	ldi	r30, 0xFF	; 255
     a12:	f4 e0       	ldi	r31, 0x04	; 4
	(((int32_t)_bme280_calib.dig_H5) * v_x1_u32r)) + ((int32_t)16384)) >> 15) *
     a14:	84 8d       	ldd	r24, Z+28	; 0x1c
     a16:	95 8d       	ldd	r25, Z+29	; 0x1d
     a18:	09 2e       	mov	r0, r25
     a1a:	00 0c       	add	r0, r0
     a1c:	aa 0b       	sbc	r26, r26
     a1e:	bb 0b       	sbc	r27, r27
     a20:	07 2e       	mov	r0, r23
     a22:	74 e1       	ldi	r23, 0x14	; 20
     a24:	88 0f       	add	r24, r24
     a26:	99 1f       	adc	r25, r25
     a28:	aa 1f       	adc	r26, r26
     a2a:	bb 1f       	adc	r27, r27
     a2c:	7a 95       	dec	r23
     a2e:	d1 f7       	brne	.-12     	; 0xa24 <bme280_readHumidity+0x68>
     a30:	70 2d       	mov	r23, r0
     a32:	c8 1a       	sub	r12, r24
     a34:	d9 0a       	sbc	r13, r25
     a36:	ea 0a       	sbc	r14, r26
     a38:	fb 0a       	sbc	r15, r27
     a3a:	a6 8d       	ldd	r26, Z+30	; 0x1e
     a3c:	b7 8d       	ldd	r27, Z+31	; 0x1f
     a3e:	a5 01       	movw	r20, r10
     a40:	94 01       	movw	r18, r8
     a42:	0e 94 87 1c 	call	0x390e	; 0x390e <__mulshisi3>
     a46:	c6 1a       	sub	r12, r22
     a48:	d7 0a       	sbc	r13, r23
     a4a:	e8 0a       	sbc	r14, r24
     a4c:	f9 0a       	sbc	r15, r25
     a4e:	30 e4       	ldi	r19, 0x40	; 64
     a50:	d3 0e       	add	r13, r19
     a52:	e1 1c       	adc	r14, r1
     a54:	f1 1c       	adc	r15, r1
     a56:	0b 2e       	mov	r0, r27
     a58:	bf e0       	ldi	r27, 0x0F	; 15
     a5a:	f5 94       	asr	r15
     a5c:	e7 94       	ror	r14
     a5e:	d7 94       	ror	r13
     a60:	c7 94       	ror	r12
     a62:	ba 95       	dec	r27
     a64:	d1 f7       	brne	.-12     	; 0xa5a <bme280_readHumidity+0x9e>
     a66:	b0 2d       	mov	r27, r0
	(((((((v_x1_u32r * ((int32_t)_bme280_calib.dig_H6)) >> 10) *
	(((v_x1_u32r * ((int32_t)_bme280_calib.dig_H3)) >> 11) + ((int32_t)32768))) >> 10) +
	((int32_t)2097152)) * ((int32_t)_bme280_calib.dig_H2) + 8192) >> 14));
     a68:	a3 8d       	ldd	r26, Z+27	; 0x1b
     a6a:	b0 e0       	ldi	r27, 0x00	; 0
     a6c:	a5 01       	movw	r20, r10
     a6e:	94 01       	movw	r18, r8
     a70:	0e 94 7c 1c 	call	0x38f8	; 0x38f8 <__muluhisi3>
     a74:	2b 01       	movw	r4, r22
     a76:	3c 01       	movw	r6, r24
     a78:	03 2e       	mov	r0, r19
     a7a:	3b e0       	ldi	r19, 0x0B	; 11
     a7c:	75 94       	asr	r7
     a7e:	67 94       	ror	r6
     a80:	57 94       	ror	r5
     a82:	47 94       	ror	r4
     a84:	3a 95       	dec	r19
     a86:	d1 f7       	brne	.-12     	; 0xa7c <bme280_readHumidity+0xc0>
     a88:	30 2d       	mov	r19, r0
     a8a:	40 e8       	ldi	r20, 0x80	; 128
     a8c:	54 0e       	add	r5, r20
     a8e:	61 1c       	adc	r6, r1
     a90:	71 1c       	adc	r7, r1
     a92:	a0 a1       	ldd	r26, Z+32	; 0x20
     a94:	0a 2e       	mov	r0, r26
     a96:	00 0c       	add	r0, r0
     a98:	bb 0b       	sbc	r27, r27
     a9a:	a5 01       	movw	r20, r10
     a9c:	94 01       	movw	r18, r8
     a9e:	0e 94 87 1c 	call	0x390e	; 0x390e <__mulshisi3>
     aa2:	05 2e       	mov	r0, r21
     aa4:	5a e0       	ldi	r21, 0x0A	; 10
     aa6:	95 95       	asr	r25
     aa8:	87 95       	ror	r24
     aaa:	77 95       	ror	r23
     aac:	67 95       	ror	r22
     aae:	5a 95       	dec	r21
     ab0:	d1 f7       	brne	.-12     	; 0xaa6 <bme280_readHumidity+0xea>
     ab2:	50 2d       	mov	r21, r0
     ab4:	a3 01       	movw	r20, r6
     ab6:	92 01       	movw	r18, r4
     ab8:	0e 94 66 1c 	call	0x38cc	; 0x38cc <__mulsi3>
     abc:	dc 01       	movw	r26, r24
     abe:	cb 01       	movw	r24, r22
     ac0:	07 2e       	mov	r0, r23
     ac2:	7a e0       	ldi	r23, 0x0A	; 10
     ac4:	b5 95       	asr	r27
     ac6:	a7 95       	ror	r26
     ac8:	97 95       	ror	r25
     aca:	87 95       	ror	r24
     acc:	7a 95       	dec	r23
     ace:	d1 f7       	brne	.-12     	; 0xac4 <bme280_readHumidity+0x108>
     ad0:	70 2d       	mov	r23, r0
     ad2:	9c 01       	movw	r18, r24
     ad4:	ad 01       	movw	r20, r26
     ad6:	40 5e       	subi	r20, 0xE0	; 224
     ad8:	5f 4f       	sbci	r21, 0xFF	; 255
     ada:	a1 8d       	ldd	r26, Z+25	; 0x19
     adc:	b2 8d       	ldd	r27, Z+26	; 0x1a
     ade:	0e 94 87 1c 	call	0x390e	; 0x390e <__mulshisi3>
     ae2:	dc 01       	movw	r26, r24
     ae4:	cb 01       	movw	r24, r22
     ae6:	90 5e       	subi	r25, 0xE0	; 224
     ae8:	af 4f       	sbci	r26, 0xFF	; 255
     aea:	bf 4f       	sbci	r27, 0xFF	; 255
     aec:	bc 01       	movw	r22, r24
     aee:	cd 01       	movw	r24, r26
     af0:	05 2e       	mov	r0, r21
     af2:	5e e0       	ldi	r21, 0x0E	; 14
     af4:	95 95       	asr	r25
     af6:	87 95       	ror	r24
     af8:	77 95       	ror	r23
     afa:	67 95       	ror	r22
     afc:	5a 95       	dec	r21
     afe:	d1 f7       	brne	.-12     	; 0xaf4 <bme280_readHumidity+0x138>
     b00:	50 2d       	mov	r21, r0
	
	int32_t v_x1_u32r;
	
	v_x1_u32r = (t_fine - ((int32_t)76800));
	
	v_x1_u32r = (((((adc_H << 14) - (((int32_t)_bme280_calib.dig_H4) << 20) -
     b02:	a7 01       	movw	r20, r14
     b04:	96 01       	movw	r18, r12
     b06:	0e 94 66 1c 	call	0x38cc	; 0x38cc <__mulsi3>
     b0a:	6b 01       	movw	r12, r22
     b0c:	7c 01       	movw	r14, r24
	(((int32_t)_bme280_calib.dig_H5) * v_x1_u32r)) + ((int32_t)16384)) >> 15) *
	(((((((v_x1_u32r * ((int32_t)_bme280_calib.dig_H6)) >> 10) *
	(((v_x1_u32r * ((int32_t)_bme280_calib.dig_H3)) >> 11) + ((int32_t)32768))) >> 10) +
	((int32_t)2097152)) * ((int32_t)_bme280_calib.dig_H2) + 8192) >> 14));
	
	v_x1_u32r = (v_x1_u32r - (((((v_x1_u32r >> 15) * (v_x1_u32r >> 15)) >> 7) *
     b0e:	05 2e       	mov	r0, r21
     b10:	5f e0       	ldi	r21, 0x0F	; 15
     b12:	95 95       	asr	r25
     b14:	87 95       	ror	r24
     b16:	77 95       	ror	r23
     b18:	67 95       	ror	r22
     b1a:	5a 95       	dec	r21
     b1c:	d1 f7       	brne	.-12     	; 0xb12 <bme280_readHumidity+0x156>
     b1e:	50 2d       	mov	r21, r0
     b20:	9b 01       	movw	r18, r22
     b22:	ac 01       	movw	r20, r24
     b24:	0e 94 66 1c 	call	0x38cc	; 0x38cc <__mulsi3>
     b28:	9b 01       	movw	r18, r22
     b2a:	ac 01       	movw	r20, r24
     b2c:	68 94       	set
     b2e:	16 f8       	bld	r1, 6
     b30:	55 95       	asr	r21
     b32:	47 95       	ror	r20
     b34:	37 95       	ror	r19
     b36:	27 95       	ror	r18
     b38:	16 94       	lsr	r1
     b3a:	d1 f7       	brne	.-12     	; 0xb30 <bme280_readHumidity+0x174>
     b3c:	a0 8d       	ldd	r26, Z+24	; 0x18
     b3e:	b0 e0       	ldi	r27, 0x00	; 0
     b40:	0e 94 7c 1c 	call	0x38f8	; 0x38f8 <__muluhisi3>
     b44:	dc 01       	movw	r26, r24
     b46:	cb 01       	movw	r24, r22
     b48:	68 94       	set
     b4a:	13 f8       	bld	r1, 3
     b4c:	b5 95       	asr	r27
     b4e:	a7 95       	ror	r26
     b50:	97 95       	ror	r25
     b52:	87 95       	ror	r24
     b54:	16 94       	lsr	r1
     b56:	d1 f7       	brne	.-12     	; 0xb4c <bme280_readHumidity+0x190>
	((int32_t)_bme280_calib.dig_H1)) >> 4));
	
	v_x1_u32r = (v_x1_u32r < 0) ? 0 : v_x1_u32r;
     b58:	a7 01       	movw	r20, r14
     b5a:	96 01       	movw	r18, r12
     b5c:	28 1b       	sub	r18, r24
     b5e:	39 0b       	sbc	r19, r25
     b60:	4a 0b       	sbc	r20, r26
     b62:	5b 0b       	sbc	r21, r27
     b64:	da 01       	movw	r26, r20
     b66:	c9 01       	movw	r24, r18
     b68:	1a f4       	brpl	.+6      	; 0xb70 <bme280_readHumidity+0x1b4>
     b6a:	80 e0       	ldi	r24, 0x00	; 0
     b6c:	90 e0       	ldi	r25, 0x00	; 0
     b6e:	dc 01       	movw	r26, r24
	v_x1_u32r = (v_x1_u32r > 419430400) ? 419430400 : v_x1_u32r;
	float h = (v_x1_u32r>>12);
	return  h / 1024.0;
     b70:	81 30       	cpi	r24, 0x01	; 1
     b72:	91 05       	cpc	r25, r1
     b74:	a1 05       	cpc	r26, r1
     b76:	39 e1       	ldi	r19, 0x19	; 25
     b78:	b3 07       	cpc	r27, r19
     b7a:	24 f0       	brlt	.+8      	; 0xb84 <bme280_readHumidity+0x1c8>
     b7c:	80 e0       	ldi	r24, 0x00	; 0
     b7e:	90 e0       	ldi	r25, 0x00	; 0
     b80:	a0 e0       	ldi	r26, 0x00	; 0
     b82:	b9 e1       	ldi	r27, 0x19	; 25
     b84:	bc 01       	movw	r22, r24
     b86:	cd 01       	movw	r24, r26
     b88:	05 2e       	mov	r0, r21
     b8a:	5c e0       	ldi	r21, 0x0C	; 12
     b8c:	95 95       	asr	r25
     b8e:	87 95       	ror	r24
     b90:	77 95       	ror	r23
     b92:	67 95       	ror	r22
     b94:	5a 95       	dec	r21
     b96:	d1 f7       	brne	.-12     	; 0xb8c <bme280_readHumidity+0x1d0>
     b98:	50 2d       	mov	r21, r0
     b9a:	0e 94 6d 1b 	call	0x36da	; 0x36da <__floatsisf>
     b9e:	20 e0       	ldi	r18, 0x00	; 0
     ba0:	30 e0       	ldi	r19, 0x00	; 0
     ba2:	40 e8       	ldi	r20, 0x80	; 128
     ba4:	5a e3       	ldi	r21, 0x3A	; 58
     ba6:	0e 94 f9 1b 	call	0x37f2	; 0x37f2 <__mulsf3>
}
     baa:	ff 90       	pop	r15
     bac:	ef 90       	pop	r14
     bae:	df 90       	pop	r13
     bb0:	cf 90       	pop	r12
     bb2:	bf 90       	pop	r11
     bb4:	af 90       	pop	r10
     bb6:	9f 90       	pop	r9
     bb8:	8f 90       	pop	r8
     bba:	7f 90       	pop	r7
     bbc:	6f 90       	pop	r6
     bbe:	5f 90       	pop	r5
     bc0:	4f 90       	pop	r4
     bc2:	08 95       	ret

00000bc4 <crc8>:
	uint8_t  data;
	uint8_t  feedback_bit;
	
	crc = CRC8INIT;

	for (loop_count = 0; loop_count != number_of_bytes_to_read; loop_count++)
     bc4:	61 15       	cp	r22, r1
     bc6:	71 05       	cpc	r23, r1
     bc8:	a9 f0       	breq	.+42     	; 0xbf4 <crc8+0x30>
     bca:	fc 01       	movw	r30, r24
     bcc:	68 0f       	add	r22, r24
     bce:	79 1f       	adc	r23, r25
     bd0:	80 e0       	ldi	r24, 0x00	; 0
		bit_counter = 8;
		do {
			feedback_bit = (crc ^ data) & 0x01;
	
			if ( feedback_bit == 0x01 ) {
				crc = crc ^ CRC8POLY;
     bd2:	48 e1       	ldi	r20, 0x18	; 24
	
	crc = CRC8INIT;

	for (loop_count = 0; loop_count != number_of_bytes_to_read; loop_count++)
	{
		data = data_in[loop_count];
     bd4:	21 91       	ld	r18, Z+
     bd6:	98 e0       	ldi	r25, 0x08	; 8
		
		bit_counter = 8;
		do {
			feedback_bit = (crc ^ data) & 0x01;
	
			if ( feedback_bit == 0x01 ) {
     bd8:	38 2f       	mov	r19, r24
     bda:	32 27       	eor	r19, r18
     bdc:	30 ff       	sbrs	r19, 0
     bde:	0c c0       	rjmp	.+24     	; 0xbf8 <crc8+0x34>
				crc = crc ^ CRC8POLY;
     be0:	84 27       	eor	r24, r20
			}
			crc = (crc >> 1) & 0x7F;
     be2:	86 95       	lsr	r24
			if ( feedback_bit == 0x01 ) {
				crc = crc | 0x80;
     be4:	80 68       	ori	r24, 0x80	; 128
			}
		
			data = data >> 1;
     be6:	26 95       	lsr	r18
     be8:	91 50       	subi	r25, 0x01	; 1
			bit_counter--;
		
		} while (bit_counter > 0);
     bea:	b1 f7       	brne	.-20     	; 0xbd8 <crc8+0x14>
	uint8_t  data;
	uint8_t  feedback_bit;
	
	crc = CRC8INIT;

	for (loop_count = 0; loop_count != number_of_bytes_to_read; loop_count++)
     bec:	e6 17       	cp	r30, r22
     bee:	f7 07       	cpc	r31, r23
     bf0:	89 f7       	brne	.-30     	; 0xbd4 <crc8+0x10>
     bf2:	08 95       	ret
	uint16_t loop_count;
	uint8_t  bit_counter;
	uint8_t  data;
	uint8_t  feedback_bit;
	
	crc = CRC8INIT;
     bf4:	80 e0       	ldi	r24, 0x00	; 0
			bit_counter--;
		
		} while (bit_counter > 0);
	}
	
	return crc;
     bf6:	08 95       	ret
			feedback_bit = (crc ^ data) & 0x01;
	
			if ( feedback_bit == 0x01 ) {
				crc = crc ^ CRC8POLY;
			}
			crc = (crc >> 1) & 0x7F;
     bf8:	86 95       	lsr	r24
     bfa:	f5 cf       	rjmp	.-22     	; 0xbe6 <crc8+0x22>

00000bfc <DS18X20_meas_to_cel>:
    ow_reset();
    ow_command(DS18X20_READ_POWER_SUPPLY, id);
    pstat=ow_bit_io(1); // pstat 0=is parasite/ !=0 ext. powered
    ow_reset();
	return (pstat) ? DS18X20_POWER_EXTERN:DS18X20_POWER_PARASITE;
}
     bfc:	0f 93       	push	r16
     bfe:	1f 93       	push	r17
     c00:	cf 93       	push	r28
     c02:	df 93       	push	r29
     c04:	db 01       	movw	r26, r22
     c06:	ec 91       	ld	r30, X
     c08:	11 96       	adiw	r26, 0x01	; 1
     c0a:	9c 91       	ld	r25, X
     c0c:	11 97       	sbiw	r26, 0x01	; 1
     c0e:	f0 e0       	ldi	r31, 0x00	; 0
     c10:	f9 2b       	or	r31, r25
     c12:	80 31       	cpi	r24, 0x10	; 16
     c14:	81 f4       	brne	.+32     	; 0xc36 <DS18X20_meas_to_cel+0x3a>
     c16:	ee 7f       	andi	r30, 0xFE	; 254
     c18:	ee 0f       	add	r30, r30
     c1a:	ff 1f       	adc	r31, r31
     c1c:	ee 0f       	add	r30, r30
     c1e:	ff 1f       	adc	r31, r31
     c20:	ee 0f       	add	r30, r30
     c22:	ff 1f       	adc	r31, r31
     c24:	16 96       	adiw	r26, 0x06	; 6
     c26:	9c 91       	ld	r25, X
     c28:	16 97       	sbiw	r26, 0x06	; 6
     c2a:	6c e0       	ldi	r22, 0x0C	; 12
     c2c:	70 e0       	ldi	r23, 0x00	; 0
     c2e:	69 1b       	sub	r22, r25
     c30:	71 09       	sbc	r23, r1
     c32:	e6 0f       	add	r30, r22
     c34:	f7 1f       	adc	r31, r23
     c36:	ff 23       	and	r31, r31
     c38:	3c f4       	brge	.+14     	; 0xc48 <DS18X20_meas_to_cel+0x4c>
     c3a:	91 e0       	ldi	r25, 0x01	; 1
     c3c:	ea 01       	movw	r28, r20
     c3e:	98 83       	st	Y, r25
     c40:	f1 95       	neg	r31
     c42:	e1 95       	neg	r30
     c44:	f1 09       	sbc	r31, r1
     c46:	02 c0       	rjmp	.+4      	; 0xc4c <DS18X20_meas_to_cel+0x50>
     c48:	ea 01       	movw	r28, r20
     c4a:	18 82       	st	Y, r1
     c4c:	88 32       	cpi	r24, 0x28	; 40
     c4e:	79 f4       	brne	.+30     	; 0xc6e <DS18X20_meas_to_cel+0x72>
     c50:	14 96       	adiw	r26, 0x04	; 4
     c52:	8c 91       	ld	r24, X
     c54:	98 2f       	mov	r25, r24
     c56:	90 76       	andi	r25, 0x60	; 96
     c58:	90 36       	cpi	r25, 0x60	; 96
     c5a:	49 f0       	breq	.+18     	; 0xc6e <DS18X20_meas_to_cel+0x72>
     c5c:	86 ff       	sbrs	r24, 6
     c5e:	02 c0       	rjmp	.+4      	; 0xc64 <DS18X20_meas_to_cel+0x68>
     c60:	ee 7f       	andi	r30, 0xFE	; 254
     c62:	05 c0       	rjmp	.+10     	; 0xc6e <DS18X20_meas_to_cel+0x72>
     c64:	85 ff       	sbrs	r24, 5
     c66:	02 c0       	rjmp	.+4      	; 0xc6c <DS18X20_meas_to_cel+0x70>
     c68:	ec 7f       	andi	r30, 0xFC	; 252
     c6a:	01 c0       	rjmp	.+2      	; 0xc6e <DS18X20_meas_to_cel+0x72>
     c6c:	e8 7f       	andi	r30, 0xF8	; 248
     c6e:	cf 01       	movw	r24, r30
     c70:	92 95       	swap	r25
     c72:	82 95       	swap	r24
     c74:	8f 70       	andi	r24, 0x0F	; 15
     c76:	89 27       	eor	r24, r25
     c78:	9f 70       	andi	r25, 0x0F	; 15
     c7a:	89 27       	eor	r24, r25
     c7c:	d9 01       	movw	r26, r18
     c7e:	8c 93       	st	X, r24
     c80:	ef 70       	andi	r30, 0x0F	; 15
     c82:	e8 01       	movw	r28, r16
     c84:	e8 83       	st	Y, r30
     c86:	80 e0       	ldi	r24, 0x00	; 0
     c88:	df 91       	pop	r29
     c8a:	cf 91       	pop	r28
     c8c:	1f 91       	pop	r17
     c8e:	0f 91       	pop	r16
     c90:	08 95       	ret

00000c92 <DS18X20_find_sensor>:
     c92:	0f 93       	push	r16
     c94:	1f 93       	push	r17
     c96:	cf 93       	push	r28
     c98:	df 93       	push	r29
     c9a:	ec 01       	movw	r28, r24
     c9c:	8b 01       	movw	r16, r22
     c9e:	b8 01       	movw	r22, r16
     ca0:	88 81       	ld	r24, Y
     ca2:	0e 94 ab 07 	call	0xf56	; 0xf56 <ow_rom_search>
     ca6:	88 83       	st	Y, r24
     ca8:	81 50       	subi	r24, 0x01	; 1
     caa:	8d 3f       	cpi	r24, 0xFD	; 253
     cac:	30 f4       	brcc	.+12     	; 0xcba <DS18X20_find_sensor+0x28>
     cae:	f8 01       	movw	r30, r16
     cb0:	80 81       	ld	r24, Z
     cb2:	88 32       	cpi	r24, 0x28	; 40
     cb4:	11 f0       	breq	.+4      	; 0xcba <DS18X20_find_sensor+0x28>
     cb6:	80 31       	cpi	r24, 0x10	; 16
     cb8:	91 f7       	brne	.-28     	; 0xc9e <DS18X20_find_sensor+0xc>
     cba:	df 91       	pop	r29
     cbc:	cf 91       	pop	r28
     cbe:	1f 91       	pop	r17
     cc0:	0f 91       	pop	r16
     cc2:	08 95       	ret

00000cc4 <DS18X20_start_meas>:

/* start measurement (CONVERT_T) for all sensors if input id==NULL
   or for single sensor. then id is the rom-code */
uint8_t DS18X20_start_meas( uint8_t with_power_extern, uint8_t id[])
{
     cc4:	0f 93       	push	r16
     cc6:	1f 93       	push	r17
     cc8:	cf 93       	push	r28
     cca:	c8 2f       	mov	r28, r24
     ccc:	8b 01       	movw	r16, r22
	ow_reset(); //**
     cce:	0e 94 f7 06 	call	0xdee	; 0xdee <ow_reset>
	if( ow_input_pin_state() ) { // only send if bus is "idle" = high
     cd2:	0e 94 db 06 	call	0xdb6	; 0xdb6 <ow_input_pin_state>
     cd6:	88 23       	and	r24, r24
     cd8:	51 f0       	breq	.+20     	; 0xcee <DS18X20_start_meas+0x2a>
		ow_command( DS18X20_CONVERT_T, id );
     cda:	b8 01       	movw	r22, r16
     cdc:	84 e4       	ldi	r24, 0x44	; 68
     cde:	0e 94 05 08 	call	0x100a	; 0x100a <ow_command>
		if (with_power_extern != DS18X20_POWER_EXTERN)
     ce2:	c1 30       	cpi	r28, 0x01	; 1
     ce4:	31 f0       	breq	.+12     	; 0xcf2 <DS18X20_start_meas+0x2e>
			ow_parasite_enable();
     ce6:	0e 94 e4 06 	call	0xdc8	; 0xdc8 <ow_parasite_enable>
		return DS18X20_OK;
     cea:	80 e0       	ldi	r24, 0x00	; 0
     cec:	03 c0       	rjmp	.+6      	; 0xcf4 <DS18X20_start_meas+0x30>
	}
	else {
		#ifdef DS18X20_VERBOSE
		#endif
		return DS18X20_START_FAIL;
     cee:	82 e0       	ldi	r24, 0x02	; 2
     cf0:	01 c0       	rjmp	.+2      	; 0xcf4 <DS18X20_start_meas+0x30>
	ow_reset(); //**
	if( ow_input_pin_state() ) { // only send if bus is "idle" = high
		ow_command( DS18X20_CONVERT_T, id );
		if (with_power_extern != DS18X20_POWER_EXTERN)
			ow_parasite_enable();
		return DS18X20_OK;
     cf2:	80 e0       	ldi	r24, 0x00	; 0
	else {
		#ifdef DS18X20_VERBOSE
		#endif
		return DS18X20_START_FAIL;
	}
}
     cf4:	cf 91       	pop	r28
     cf6:	1f 91       	pop	r17
     cf8:	0f 91       	pop	r16
     cfa:	08 95       	ret

00000cfc <DS18X20_read_meas>:
   output: subzero==1 if temp.<0, cel: full celsius, mcel: frac
   in millicelsius*0.1
   i.e.: subzero=1, cel=18, millicel=5000 = -18,5000C */
uint8_t DS18X20_read_meas(uint8_t id[], uint8_t *subzero,
	uint8_t *cel, uint8_t *cel_frac_bits)
{
     cfc:	6f 92       	push	r6
     cfe:	7f 92       	push	r7
     d00:	8f 92       	push	r8
     d02:	9f 92       	push	r9
     d04:	af 92       	push	r10
     d06:	bf 92       	push	r11
     d08:	cf 92       	push	r12
     d0a:	df 92       	push	r13
     d0c:	ef 92       	push	r14
     d0e:	ff 92       	push	r15
     d10:	0f 93       	push	r16
     d12:	1f 93       	push	r17
     d14:	cf 93       	push	r28
     d16:	df 93       	push	r29
     d18:	cd b7       	in	r28, 0x3d	; 61
     d1a:	de b7       	in	r29, 0x3e	; 62
     d1c:	29 97       	sbiw	r28, 0x09	; 9
     d1e:	0f b6       	in	r0, 0x3f	; 63
     d20:	f8 94       	cli
     d22:	de bf       	out	0x3e, r29	; 62
     d24:	0f be       	out	0x3f, r0	; 63
     d26:	cd bf       	out	0x3d, r28	; 61
     d28:	6c 01       	movw	r12, r24
     d2a:	5b 01       	movw	r10, r22
     d2c:	3a 01       	movw	r6, r20
     d2e:	49 01       	movw	r8, r18
	uint8_t i;
	uint8_t sp[DS18X20_SP_SIZE];

	ow_reset(); //**
     d30:	0e 94 f7 06 	call	0xdee	; 0xdee <ow_reset>
	ow_command(DS18X20_READ, id);
     d34:	b6 01       	movw	r22, r12
     d36:	8e eb       	ldi	r24, 0xBE	; 190
     d38:	0e 94 05 08 	call	0x100a	; 0x100a <ow_command>
     d3c:	8e 01       	movw	r16, r28
     d3e:	0f 5f       	subi	r16, 0xFF	; 255
     d40:	1f 4f       	sbci	r17, 0xFF	; 255
     d42:	7e 01       	movw	r14, r28
     d44:	8a e0       	ldi	r24, 0x0A	; 10
     d46:	e8 0e       	add	r14, r24
     d48:	f1 1c       	adc	r15, r1
	for ( i=0 ; i< DS18X20_SP_SIZE; i++ ) sp[i]=ow_byte_rd();
     d4a:	0e 94 a7 07 	call	0xf4e	; 0xf4e <ow_byte_rd>
     d4e:	f8 01       	movw	r30, r16
     d50:	81 93       	st	Z+, r24
     d52:	8f 01       	movw	r16, r30
     d54:	ee 15       	cp	r30, r14
     d56:	ff 05       	cpc	r31, r15
     d58:	c1 f7       	brne	.-16     	; 0xd4a <DS18X20_read_meas+0x4e>
	if ( crc8( &sp[0], DS18X20_SP_SIZE ) )
     d5a:	69 e0       	ldi	r22, 0x09	; 9
     d5c:	70 e0       	ldi	r23, 0x00	; 0
     d5e:	ce 01       	movw	r24, r28
     d60:	01 96       	adiw	r24, 0x01	; 1
     d62:	0e 94 e2 05 	call	0xbc4	; 0xbc4 <crc8>
     d66:	f8 2e       	mov	r15, r24
     d68:	81 11       	cpse	r24, r1
     d6a:	0b c0       	rjmp	.+22     	; 0xd82 <DS18X20_read_meas+0x86>
		return DS18X20_ERROR_CRC;
	DS18X20_meas_to_cel(id[0], sp, subzero, cel, cel_frac_bits);
     d6c:	84 01       	movw	r16, r8
     d6e:	93 01       	movw	r18, r6
     d70:	a5 01       	movw	r20, r10
     d72:	be 01       	movw	r22, r28
     d74:	6f 5f       	subi	r22, 0xFF	; 255
     d76:	7f 4f       	sbci	r23, 0xFF	; 255
     d78:	f6 01       	movw	r30, r12
     d7a:	80 81       	ld	r24, Z
     d7c:	0e 94 fe 05 	call	0xbfc	; 0xbfc <DS18X20_meas_to_cel>
	return DS18X20_OK;
     d80:	04 c0       	rjmp	.+8      	; 0xd8a <DS18X20_read_meas+0x8e>

	ow_reset(); //**
	ow_command(DS18X20_READ, id);
	for ( i=0 ; i< DS18X20_SP_SIZE; i++ ) sp[i]=ow_byte_rd();
	if ( crc8( &sp[0], DS18X20_SP_SIZE ) )
		return DS18X20_ERROR_CRC;
     d82:	0f 2e       	mov	r0, r31
     d84:	f3 e0       	ldi	r31, 0x03	; 3
     d86:	ff 2e       	mov	r15, r31
     d88:	f0 2d       	mov	r31, r0
	DS18X20_meas_to_cel(id[0], sp, subzero, cel, cel_frac_bits);
	return DS18X20_OK;
}
     d8a:	8f 2d       	mov	r24, r15
     d8c:	29 96       	adiw	r28, 0x09	; 9
     d8e:	0f b6       	in	r0, 0x3f	; 63
     d90:	f8 94       	cli
     d92:	de bf       	out	0x3e, r29	; 62
     d94:	0f be       	out	0x3f, r0	; 63
     d96:	cd bf       	out	0x3d, r28	; 61
     d98:	df 91       	pop	r29
     d9a:	cf 91       	pop	r28
     d9c:	1f 91       	pop	r17
     d9e:	0f 91       	pop	r16
     da0:	ff 90       	pop	r15
     da2:	ef 90       	pop	r14
     da4:	df 90       	pop	r13
     da6:	cf 90       	pop	r12
     da8:	bf 90       	pop	r11
     daa:	af 90       	pop	r10
     dac:	9f 90       	pop	r9
     dae:	8f 90       	pop	r8
     db0:	7f 90       	pop	r7
     db2:	6f 90       	pop	r6
     db4:	08 95       	ret

00000db6 <ow_input_pin_state>:
}

void ow_parasite_disable(void)
{
    OW_OUT_LOW();
	OW_DIR_IN();
     db6:	e0 91 27 05 	lds	r30, 0x0527	; 0x800527 <OW_IN>
     dba:	f0 91 28 05 	lds	r31, 0x0528	; 0x800528 <OW_IN+0x1>
     dbe:	90 81       	ld	r25, Z
     dc0:	80 91 26 05 	lds	r24, 0x0526	; 0x800526 <OW_PIN_MASK>
     dc4:	89 23       	and	r24, r25
     dc6:	08 95       	ret

00000dc8 <ow_parasite_enable>:
     dc8:	e0 91 24 05 	lds	r30, 0x0524	; 0x800524 <OW_OUT>
     dcc:	f0 91 25 05 	lds	r31, 0x0525	; 0x800525 <OW_OUT+0x1>
     dd0:	90 81       	ld	r25, Z
     dd2:	80 91 26 05 	lds	r24, 0x0526	; 0x800526 <OW_PIN_MASK>
     dd6:	89 2b       	or	r24, r25
     dd8:	80 83       	st	Z, r24
     dda:	e0 91 29 05 	lds	r30, 0x0529	; 0x800529 <OW_DDR>
     dde:	f0 91 2a 05 	lds	r31, 0x052A	; 0x80052a <OW_DDR+0x1>
     de2:	90 81       	ld	r25, Z
     de4:	80 91 26 05 	lds	r24, 0x0526	; 0x800526 <OW_PIN_MASK>
     de8:	89 2b       	or	r24, r25
     dea:	80 83       	st	Z, r24
     dec:	08 95       	ret

00000dee <ow_reset>:
uint8_t ow_reset(void)
{
	uint8_t err;
	uint8_t sreg;
	
	OW_OUT_LOW(); // disable internal pull-up (maybe on from parasite)
     dee:	e0 91 24 05 	lds	r30, 0x0524	; 0x800524 <OW_OUT>
     df2:	f0 91 25 05 	lds	r31, 0x0525	; 0x800525 <OW_OUT+0x1>
     df6:	90 81       	ld	r25, Z
     df8:	80 91 26 05 	lds	r24, 0x0526	; 0x800526 <OW_PIN_MASK>
     dfc:	80 95       	com	r24
     dfe:	89 23       	and	r24, r25
     e00:	80 83       	st	Z, r24
	OW_DIR_OUT(); // pull OW-Pin low for 480us
     e02:	e0 91 29 05 	lds	r30, 0x0529	; 0x800529 <OW_DDR>
     e06:	f0 91 2a 05 	lds	r31, 0x052A	; 0x80052a <OW_DDR+0x1>
     e0a:	90 81       	ld	r25, Z
     e0c:	80 91 26 05 	lds	r24, 0x0526	; 0x800526 <OW_PIN_MASK>
     e10:	89 2b       	or	r24, r25
     e12:	80 83       	st	Z, r24
/* delay function for microsec
   4 cpu cycles per loop + 1 cycles(?) overhead 
   when a constant is passed. */
static inline void delayloop16(uint16_t count)
{
	asm volatile (  "cp  %A0,__zero_reg__ \n\t"  \
     e14:	8f e8       	ldi	r24, 0x8F	; 143
     e16:	97 e0       	ldi	r25, 0x07	; 7
     e18:	81 15       	cp	r24, r1
     e1a:	91 05       	cpc	r25, r1
     e1c:	11 f0       	breq	.+4      	; 0xe22 <L_Exit_69>

00000e1e <L_LOOP_69>:
     e1e:	01 97       	sbiw	r24, 0x01	; 1
     e20:	f1 f7       	brne	.-4      	; 0xe1e <L_LOOP_69>

00000e22 <L_Exit_69>:
	
	delay_us(480);
	
	sreg=SREG;
     e22:	2f b7       	in	r18, 0x3f	; 63
	cli();
     e24:	f8 94       	cli
	
	// set Pin as input - wait for clients to pull low
	OW_DIR_IN(); // input
     e26:	e0 91 29 05 	lds	r30, 0x0529	; 0x800529 <OW_DDR>
     e2a:	f0 91 2a 05 	lds	r31, 0x052A	; 0x80052a <OW_DDR+0x1>
     e2e:	90 81       	ld	r25, Z
     e30:	80 91 26 05 	lds	r24, 0x0526	; 0x800526 <OW_PIN_MASK>
     e34:	80 95       	com	r24
     e36:	89 23       	and	r24, r25
     e38:	80 83       	st	Z, r24
     e3a:	89 e0       	ldi	r24, 0x09	; 9
     e3c:	91 e0       	ldi	r25, 0x01	; 1
     e3e:	81 15       	cp	r24, r1
     e40:	91 05       	cpc	r25, r1
     e42:	11 f0       	breq	.+4      	; 0xe48 <L_Exit_86>

00000e44 <L_LOOP_86>:
     e44:	01 97       	sbiw	r24, 0x01	; 1
     e46:	f1 f7       	brne	.-4      	; 0xe44 <L_LOOP_86>

00000e48 <L_Exit_86>:
	
	delay_us(66);
	err = OW_GET_IN();		// no presence detect
     e48:	e0 91 27 05 	lds	r30, 0x0527	; 0x800527 <OW_IN>
     e4c:	f0 91 28 05 	lds	r31, 0x0528	; 0x800528 <OW_IN+0x1>
     e50:	30 81       	ld	r19, Z
     e52:	80 91 26 05 	lds	r24, 0x0526	; 0x800526 <OW_PIN_MASK>
	// nobody pulled to low, still high
	
	SREG=sreg; // sei()
     e56:	2f bf       	out	0x3f, r18	; 63
     e58:	e5 e8       	ldi	r30, 0x85	; 133
     e5a:	f6 e0       	ldi	r31, 0x06	; 6
     e5c:	e1 15       	cp	r30, r1
     e5e:	f1 05       	cpc	r31, r1
     e60:	11 f0       	breq	.+4      	; 0xe66 <L_Exit_99>

00000e62 <L_LOOP_99>:
     e62:	31 97       	sbiw	r30, 0x01	; 1
     e64:	f1 f7       	brne	.-4      	; 0xe62 <L_LOOP_99>

00000e66 <L_Exit_99>:
	
	// after a delay the clients should release the line
	// and input-pin gets back to high due to pull-up-resistor
	delay_us(480-66);
	if( OW_GET_IN() == 0 )		// short circuit
     e66:	e0 91 27 05 	lds	r30, 0x0527	; 0x800527 <OW_IN>
     e6a:	f0 91 28 05 	lds	r31, 0x0528	; 0x800528 <OW_IN+0x1>
     e6e:	20 81       	ld	r18, Z
     e70:	90 91 26 05 	lds	r25, 0x0526	; 0x800526 <OW_PIN_MASK>
     e74:	92 23       	and	r25, r18
     e76:	11 f0       	breq	.+4      	; 0xe7c <L_Exit_99+0x16>
	
	// set Pin as input - wait for clients to pull low
	OW_DIR_IN(); // input
	
	delay_us(66);
	err = OW_GET_IN();		// no presence detect
     e78:	83 23       	and	r24, r19
     e7a:	08 95       	ret
	
	// after a delay the clients should release the line
	// and input-pin gets back to high due to pull-up-resistor
	delay_us(480-66);
	if( OW_GET_IN() == 0 )		// short circuit
		err = 1;
     e7c:	81 e0       	ldi	r24, 0x01	; 1
	
	return err;
}
     e7e:	08 95       	ret

00000e80 <ow_set_bus>:
void ow_set_bus(volatile uint8_t* in,
	volatile uint8_t* out,
	volatile uint8_t* ddr,
	uint8_t pin)
{
	OW_DDR=ddr;
     e80:	50 93 2a 05 	sts	0x052A, r21	; 0x80052a <OW_DDR+0x1>
     e84:	40 93 29 05 	sts	0x0529, r20	; 0x800529 <OW_DDR>
	OW_OUT=out;
     e88:	70 93 25 05 	sts	0x0525, r23	; 0x800525 <OW_OUT+0x1>
     e8c:	60 93 24 05 	sts	0x0524, r22	; 0x800524 <OW_OUT>
	OW_IN=in;
     e90:	90 93 28 05 	sts	0x0528, r25	; 0x800528 <OW_IN+0x1>
     e94:	80 93 27 05 	sts	0x0527, r24	; 0x800527 <OW_IN>
	OW_PIN_MASK=(1<<pin);
     e98:	81 e0       	ldi	r24, 0x01	; 1
     e9a:	01 c0       	rjmp	.+2      	; 0xe9e <ow_set_bus+0x1e>
     e9c:	88 0f       	add	r24, r24
     e9e:	2a 95       	dec	r18
     ea0:	ea f7       	brpl	.-6      	; 0xe9c <ow_set_bus+0x1c>
     ea2:	80 93 26 05 	sts	0x0526, r24	; 0x800526 <OW_PIN_MASK>
	ow_reset();
     ea6:	0e 94 f7 06 	call	0xdee	; 0xdee <ow_reset>
     eaa:	08 95       	ret

00000eac <ow_bit_io>:
   but around 14 cyles in configureable bus (us-Delay is 4 cyles per uS) */
uint8_t ow_bit_io( uint8_t b )
{
	uint8_t sreg;
	
	sreg=SREG;
     eac:	3f b7       	in	r19, 0x3f	; 63
	cli();
     eae:	f8 94       	cli
	
	OW_DIR_OUT(); // drive bus low
     eb0:	e0 91 29 05 	lds	r30, 0x0529	; 0x800529 <OW_DDR>
     eb4:	f0 91 2a 05 	lds	r31, 0x052A	; 0x80052a <OW_DDR+0x1>
     eb8:	20 81       	ld	r18, Z
     eba:	90 91 26 05 	lds	r25, 0x0526	; 0x800526 <OW_PIN_MASK>
     ebe:	92 2b       	or	r25, r18
     ec0:	90 83       	st	Z, r25
     ec2:	e3 e0       	ldi	r30, 0x03	; 3
     ec4:	f0 e0       	ldi	r31, 0x00	; 0
     ec6:	e1 15       	cp	r30, r1
     ec8:	f1 05       	cpc	r31, r1
     eca:	11 f0       	breq	.+4      	; 0xed0 <L_Exit_169>

00000ecc <L_LOOP_169>:
     ecc:	31 97       	sbiw	r30, 0x01	; 1
     ece:	f1 f7       	brne	.-4      	; 0xecc <L_LOOP_169>

00000ed0 <L_Exit_169>:
	
	delay_us(1); // Recovery-Time wuffwuff was 1
	if ( b ) OW_DIR_IN(); // if bit is 1 set bus high (by ext. pull-up)
     ed0:	88 23       	and	r24, r24
     ed2:	51 f0       	breq	.+20     	; 0xee8 <L_Exit_169+0x18>
     ed4:	e0 91 29 05 	lds	r30, 0x0529	; 0x800529 <OW_DDR>
     ed8:	f0 91 2a 05 	lds	r31, 0x052A	; 0x80052a <OW_DDR+0x1>
     edc:	20 81       	ld	r18, Z
     ede:	90 91 26 05 	lds	r25, 0x0526	; 0x800526 <OW_PIN_MASK>
     ee2:	90 95       	com	r25
     ee4:	92 23       	and	r25, r18
     ee6:	90 83       	st	Z, r25
     ee8:	e8 e3       	ldi	r30, 0x38	; 56
     eea:	f0 e0       	ldi	r31, 0x00	; 0
     eec:	e1 15       	cp	r30, r1
     eee:	f1 05       	cpc	r31, r1
     ef0:	11 f0       	breq	.+4      	; 0xef6 <L_Exit_188>

00000ef2 <L_LOOP_188>:
     ef2:	31 97       	sbiw	r30, 0x01	; 1
     ef4:	f1 f7       	brne	.-4      	; 0xef2 <L_LOOP_188>

00000ef6 <L_Exit_188>:
		
	// wuffwuff delay was 15uS-1 see comment above
	delay_us(15-1-OW_CONF_DELAYOFFSET);
		
	if( OW_GET_IN() == 0 ) b = 0;  // sample at end of read-timeslot
     ef6:	e0 91 27 05 	lds	r30, 0x0527	; 0x800527 <OW_IN>
     efa:	f0 91 28 05 	lds	r31, 0x0528	; 0x800528 <OW_IN+0x1>
     efe:	20 81       	ld	r18, Z
     f00:	90 91 26 05 	lds	r25, 0x0526	; 0x800526 <OW_PIN_MASK>
     f04:	29 23       	and	r18, r25
     f06:	09 f4       	brne	.+2      	; 0xf0a <L_Exit_188+0x14>
     f08:	80 e0       	ldi	r24, 0x00	; 0
     f0a:	e5 eb       	ldi	r30, 0xB5	; 181
     f0c:	f0 e0       	ldi	r31, 0x00	; 0
     f0e:	e1 15       	cp	r30, r1
     f10:	f1 05       	cpc	r31, r1
     f12:	11 f0       	breq	.+4      	; 0xf18 <L_Exit_208>

00000f14 <L_LOOP_208>:
     f14:	31 97       	sbiw	r30, 0x01	; 1
     f16:	f1 f7       	brne	.-4      	; 0xf14 <L_LOOP_208>

00000f18 <L_Exit_208>:
	
	delay_us(60-15);
	OW_DIR_IN();
     f18:	e0 91 29 05 	lds	r30, 0x0529	; 0x800529 <OW_DDR>
     f1c:	f0 91 2a 05 	lds	r31, 0x052A	; 0x80052a <OW_DDR+0x1>
     f20:	20 81       	ld	r18, Z
     f22:	90 95       	com	r25
     f24:	92 23       	and	r25, r18
     f26:	90 83       	st	Z, r25
	
	SREG=sreg; // sei();
     f28:	3f bf       	out	0x3f, r19	; 63
	
	return b;
}
     f2a:	08 95       	ret

00000f2c <ow_byte_wr>:


uint8_t ow_byte_wr( uint8_t b )
{
     f2c:	cf 93       	push	r28
     f2e:	df 93       	push	r29
     f30:	c8 2f       	mov	r28, r24
     f32:	d8 e0       	ldi	r29, 0x08	; 8
	uint8_t i = 8, j;
	
	do {
		j = ow_bit_io( b & 1 );
     f34:	8c 2f       	mov	r24, r28
     f36:	81 70       	andi	r24, 0x01	; 1
     f38:	0e 94 56 07 	call	0xeac	; 0xeac <ow_bit_io>
		b >>= 1;
     f3c:	c6 95       	lsr	r28
		if( j ) b |= 0x80;
     f3e:	81 11       	cpse	r24, r1
     f40:	c0 68       	ori	r28, 0x80	; 128
     f42:	d1 50       	subi	r29, 0x01	; 1
	} while( --i );
     f44:	b9 f7       	brne	.-18     	; 0xf34 <ow_byte_wr+0x8>
	
	return b;
}
     f46:	8c 2f       	mov	r24, r28
     f48:	df 91       	pop	r29
     f4a:	cf 91       	pop	r28
     f4c:	08 95       	ret

00000f4e <ow_byte_rd>:


uint8_t ow_byte_rd( void )
{
  // read by sending 0xff (a dontcare?)
  return ow_byte_wr( 0xFF ); 
     f4e:	8f ef       	ldi	r24, 0xFF	; 255
     f50:	0e 94 96 07 	call	0xf2c	; 0xf2c <ow_byte_wr>
}
     f54:	08 95       	ret

00000f56 <ow_rom_search>:


uint8_t ow_rom_search( uint8_t diff, uint8_t *id )
{
     f56:	df 92       	push	r13
     f58:	ef 92       	push	r14
     f5a:	ff 92       	push	r15
     f5c:	0f 93       	push	r16
     f5e:	1f 93       	push	r17
     f60:	cf 93       	push	r28
     f62:	df 93       	push	r29
     f64:	d8 2e       	mov	r13, r24
     f66:	8b 01       	movw	r16, r22
	uint8_t i, j, next_diff;
	uint8_t b;
	
	if( ow_reset() ) return OW_PRESENCE_ERR;	// error, no device found
     f68:	0e 94 f7 06 	call	0xdee	; 0xdee <ow_reset>
     f6c:	81 11       	cpse	r24, r1
     f6e:	2b c0       	rjmp	.+86     	; 0xfc6 <ow_rom_search+0x70>
	
	ow_byte_wr( OW_SEARCH_ROM );			// ROM search command
     f70:	80 ef       	ldi	r24, 0xF0	; 240
     f72:	0e 94 96 07 	call	0xf2c	; 0xf2c <ow_byte_wr>
	next_diff = OW_LAST_DEVICE;			// unchanged on last device
     f76:	e1 2c       	mov	r14, r1
	
	i = OW_ROMCODE_SIZE * 8;					// 8 bytes
     f78:	c0 e4       	ldi	r28, 0x40	; 64
     f7a:	0f 2e       	mov	r0, r31
     f7c:	f8 ef       	ldi	r31, 0xF8	; 248
     f7e:	ff 2e       	mov	r15, r31
     f80:	f0 2d       	mov	r31, r0
     f82:	fc 0e       	add	r15, r28
	
	do {
		j = 8;					// 8 bits
		do {
			b = ow_bit_io( 1 );			// read bit
     f84:	81 e0       	ldi	r24, 0x01	; 1
     f86:	0e 94 56 07 	call	0xeac	; 0xeac <ow_bit_io>
     f8a:	d8 2f       	mov	r29, r24
			if( ow_bit_io( 1 ) ) {			// read complement bit
     f8c:	81 e0       	ldi	r24, 0x01	; 1
     f8e:	0e 94 56 07 	call	0xeac	; 0xeac <ow_bit_io>
     f92:	88 23       	and	r24, r24
     f94:	19 f0       	breq	.+6      	; 0xf9c <ow_rom_search+0x46>
				if( b )					// 11
     f96:	dd 23       	and	r29, r29
     f98:	d1 f0       	breq	.+52     	; 0xfce <ow_rom_search+0x78>
     f9a:	17 c0       	rjmp	.+46     	; 0xfca <ow_rom_search+0x74>
				return OW_DATA_ERR;			// data error
			}
			else {
				if( !b ) {				// 00 = 2 devices
     f9c:	d1 11       	cpse	r29, r1
     f9e:	24 c0       	rjmp	.+72     	; 0xfe8 <ow_rom_search+0x92>
					if( diff > i || ((*id & 1) && diff != i) ) {
     fa0:	cd 15       	cp	r28, r13
     fa2:	e8 f0       	brcs	.+58     	; 0xfde <ow_rom_search+0x88>
     fa4:	f8 01       	movw	r30, r16
     fa6:	80 81       	ld	r24, Z
     fa8:	80 ff       	sbrs	r24, 0
     faa:	11 c0       	rjmp	.+34     	; 0xfce <ow_rom_search+0x78>
     fac:	cd 11       	cpse	r28, r13
     fae:	1a c0       	rjmp	.+52     	; 0xfe4 <ow_rom_search+0x8e>
     fb0:	0e c0       	rjmp	.+28     	; 0xfce <ow_rom_search+0x78>
			}
			ow_bit_io( b );     			// write bit
			*id >>= 1;
			if( b ) *id |= 0x80;			// store bit
			
			i--;
     fb2:	c1 50       	subi	r28, 0x01	; 1
			
		} while( --j );
     fb4:	fc 12       	cpse	r15, r28
     fb6:	e6 cf       	rjmp	.-52     	; 0xf84 <ow_rom_search+0x2e>
		
		id++;					// next byte
     fb8:	0f 5f       	subi	r16, 0xFF	; 255
     fba:	1f 4f       	sbci	r17, 0xFF	; 255
			}
			ow_bit_io( b );     			// write bit
			*id >>= 1;
			if( b ) *id |= 0x80;			// store bit
			
			i--;
     fbc:	cf 2d       	mov	r28, r15
			
		} while( --j );
		
		id++;					// next byte
	
	} while( i );
     fbe:	f1 10       	cpse	r15, r1
     fc0:	dc cf       	rjmp	.-72     	; 0xf7a <ow_rom_search+0x24>
     fc2:	8e 2d       	mov	r24, r14
     fc4:	1a c0       	rjmp	.+52     	; 0xffa <ow_rom_search+0xa4>
uint8_t ow_rom_search( uint8_t diff, uint8_t *id )
{
	uint8_t i, j, next_diff;
	uint8_t b;
	
	if( ow_reset() ) return OW_PRESENCE_ERR;	// error, no device found
     fc6:	8f ef       	ldi	r24, 0xFF	; 255
     fc8:	18 c0       	rjmp	.+48     	; 0xffa <ow_rom_search+0xa4>
		j = 8;					// 8 bits
		do {
			b = ow_bit_io( 1 );			// read bit
			if( ow_bit_io( 1 ) ) {			// read complement bit
				if( b )					// 11
				return OW_DATA_ERR;			// data error
     fca:	8e ef       	ldi	r24, 0xFE	; 254
     fcc:	16 c0       	rjmp	.+44     	; 0xffa <ow_rom_search+0xa4>
					b = 1;				// now 1
					next_diff = i;			// next pass 0
					}
				}
			}
			ow_bit_io( b );     			// write bit
     fce:	80 e0       	ldi	r24, 0x00	; 0
     fd0:	0e 94 56 07 	call	0xeac	; 0xeac <ow_bit_io>
			*id >>= 1;
     fd4:	f8 01       	movw	r30, r16
     fd6:	90 81       	ld	r25, Z
     fd8:	96 95       	lsr	r25
     fda:	90 83       	st	Z, r25
     fdc:	ea cf       	rjmp	.-44     	; 0xfb2 <ow_rom_search+0x5c>
			}
			else {
				if( !b ) {				// 00 = 2 devices
					if( diff > i || ((*id & 1) && diff != i) ) {
					b = 1;				// now 1
					next_diff = i;			// next pass 0
     fde:	ec 2e       	mov	r14, r28
				return OW_DATA_ERR;			// data error
			}
			else {
				if( !b ) {				// 00 = 2 devices
					if( diff > i || ((*id & 1) && diff != i) ) {
					b = 1;				// now 1
     fe0:	d1 e0       	ldi	r29, 0x01	; 1
     fe2:	02 c0       	rjmp	.+4      	; 0xfe8 <ow_rom_search+0x92>
					next_diff = i;			// next pass 0
     fe4:	ec 2e       	mov	r14, r28
				return OW_DATA_ERR;			// data error
			}
			else {
				if( !b ) {				// 00 = 2 devices
					if( diff > i || ((*id & 1) && diff != i) ) {
					b = 1;				// now 1
     fe6:	d1 e0       	ldi	r29, 0x01	; 1
					next_diff = i;			// next pass 0
					}
				}
			}
			ow_bit_io( b );     			// write bit
     fe8:	8d 2f       	mov	r24, r29
     fea:	0e 94 56 07 	call	0xeac	; 0xeac <ow_bit_io>
			*id >>= 1;
			if( b ) *id |= 0x80;			// store bit
     fee:	f8 01       	movw	r30, r16
     ff0:	90 81       	ld	r25, Z
     ff2:	96 95       	lsr	r25
     ff4:	90 68       	ori	r25, 0x80	; 128
     ff6:	90 83       	st	Z, r25
     ff8:	dc cf       	rjmp	.-72     	; 0xfb2 <ow_rom_search+0x5c>
		id++;					// next byte
	
	} while( i );
	
	return next_diff;				// to continue search
}
     ffa:	df 91       	pop	r29
     ffc:	cf 91       	pop	r28
     ffe:	1f 91       	pop	r17
    1000:	0f 91       	pop	r16
    1002:	ff 90       	pop	r15
    1004:	ef 90       	pop	r14
    1006:	df 90       	pop	r13
    1008:	08 95       	ret

0000100a <ow_command>:


void ow_command( uint8_t command, uint8_t *id )
{
    100a:	ff 92       	push	r15
    100c:	0f 93       	push	r16
    100e:	1f 93       	push	r17
    1010:	cf 93       	push	r28
    1012:	df 93       	push	r29
    1014:	f8 2e       	mov	r15, r24
    1016:	eb 01       	movw	r28, r22
	uint8_t i;

	ow_reset();
    1018:	0e 94 f7 06 	call	0xdee	; 0xdee <ow_reset>

	if( id ) {
    101c:	20 97       	sbiw	r28, 0x00	; 0
    101e:	69 f0       	breq	.+26     	; 0x103a <ow_command+0x30>
		ow_byte_wr( OW_MATCH_ROM );			// to a single device
    1020:	85 e5       	ldi	r24, 0x55	; 85
    1022:	0e 94 96 07 	call	0xf2c	; 0xf2c <ow_byte_wr>
    1026:	8e 01       	movw	r16, r28
    1028:	08 5f       	subi	r16, 0xF8	; 248
    102a:	1f 4f       	sbci	r17, 0xFF	; 255
		i = OW_ROMCODE_SIZE;
		do {
			ow_byte_wr( *id );
    102c:	89 91       	ld	r24, Y+
    102e:	0e 94 96 07 	call	0xf2c	; 0xf2c <ow_byte_wr>
			id++;
		} while( --i );
    1032:	c0 17       	cp	r28, r16
    1034:	d1 07       	cpc	r29, r17
    1036:	d1 f7       	brne	.-12     	; 0x102c <ow_command+0x22>
    1038:	03 c0       	rjmp	.+6      	; 0x1040 <ow_command+0x36>
	} 
	else {
		ow_byte_wr( OW_SKIP_ROM );			// to all devices
    103a:	8c ec       	ldi	r24, 0xCC	; 204
    103c:	0e 94 96 07 	call	0xf2c	; 0xf2c <ow_byte_wr>
	}
	
	ow_byte_wr( command );
    1040:	8f 2d       	mov	r24, r15
    1042:	0e 94 96 07 	call	0xf2c	; 0xf2c <ow_byte_wr>
}
    1046:	df 91       	pop	r29
    1048:	cf 91       	pop	r28
    104a:	1f 91       	pop	r17
    104c:	0f 91       	pop	r16
    104e:	ff 90       	pop	r15
    1050:	08 95       	ret

00001052 <i2c_init>:
	data[(length-1)] = i2c_read_nack();

	i2c_stop();

	return 0;
}
    1052:	8e e2       	ldi	r24, 0x2E	; 46
    1054:	80 93 70 00 	sts	0x0070, r24	; 0x800070 <__TEXT_REGION_LENGTH__+0x7e0070>
    1058:	08 95       	ret

0000105a <i2c_start>:
    105a:	e4 e7       	ldi	r30, 0x74	; 116
    105c:	f0 e0       	ldi	r31, 0x00	; 0
    105e:	10 82       	st	Z, r1
    1060:	94 ea       	ldi	r25, 0xA4	; 164
    1062:	90 83       	st	Z, r25
    1064:	90 81       	ld	r25, Z
    1066:	99 23       	and	r25, r25
    1068:	ec f7       	brge	.-6      	; 0x1064 <i2c_start+0xa>
    106a:	90 91 71 00 	lds	r25, 0x0071	; 0x800071 <__TEXT_REGION_LENGTH__+0x7e0071>
    106e:	98 7f       	andi	r25, 0xF8	; 248
    1070:	98 30       	cpi	r25, 0x08	; 8
    1072:	a1 f4       	brne	.+40     	; 0x109c <i2c_start+0x42>
    1074:	80 93 73 00 	sts	0x0073, r24	; 0x800073 <__TEXT_REGION_LENGTH__+0x7e0073>
    1078:	84 e8       	ldi	r24, 0x84	; 132
    107a:	80 93 74 00 	sts	0x0074, r24	; 0x800074 <__TEXT_REGION_LENGTH__+0x7e0074>
    107e:	e4 e7       	ldi	r30, 0x74	; 116
    1080:	f0 e0       	ldi	r31, 0x00	; 0
    1082:	80 81       	ld	r24, Z
    1084:	88 23       	and	r24, r24
    1086:	ec f7       	brge	.-6      	; 0x1082 <i2c_start+0x28>
    1088:	90 91 71 00 	lds	r25, 0x0071	; 0x800071 <__TEXT_REGION_LENGTH__+0x7e0071>
    108c:	98 7f       	andi	r25, 0xF8	; 248
    108e:	98 31       	cpi	r25, 0x18	; 24
    1090:	39 f0       	breq	.+14     	; 0x10a0 <i2c_start+0x46>
    1092:	81 e0       	ldi	r24, 0x01	; 1
    1094:	90 34       	cpi	r25, 0x40	; 64
    1096:	29 f4       	brne	.+10     	; 0x10a2 <i2c_start+0x48>
    1098:	80 e0       	ldi	r24, 0x00	; 0
    109a:	08 95       	ret
    109c:	81 e0       	ldi	r24, 0x01	; 1
    109e:	08 95       	ret
    10a0:	80 e0       	ldi	r24, 0x00	; 0
    10a2:	08 95       	ret

000010a4 <i2c_write>:
    10a4:	80 93 73 00 	sts	0x0073, r24	; 0x800073 <__TEXT_REGION_LENGTH__+0x7e0073>
    10a8:	84 e8       	ldi	r24, 0x84	; 132
    10aa:	80 93 74 00 	sts	0x0074, r24	; 0x800074 <__TEXT_REGION_LENGTH__+0x7e0074>
    10ae:	e4 e7       	ldi	r30, 0x74	; 116
    10b0:	f0 e0       	ldi	r31, 0x00	; 0
    10b2:	80 81       	ld	r24, Z
    10b4:	88 23       	and	r24, r24
    10b6:	ec f7       	brge	.-6      	; 0x10b2 <i2c_write+0xe>
    10b8:	90 91 71 00 	lds	r25, 0x0071	; 0x800071 <__TEXT_REGION_LENGTH__+0x7e0071>
    10bc:	98 7f       	andi	r25, 0xF8	; 248
    10be:	81 e0       	ldi	r24, 0x01	; 1
    10c0:	98 32       	cpi	r25, 0x28	; 40
    10c2:	09 f4       	brne	.+2      	; 0x10c6 <i2c_write+0x22>
    10c4:	80 e0       	ldi	r24, 0x00	; 0
    10c6:	08 95       	ret

000010c8 <i2c_read_ack>:
    10c8:	84 ec       	ldi	r24, 0xC4	; 196
    10ca:	80 93 74 00 	sts	0x0074, r24	; 0x800074 <__TEXT_REGION_LENGTH__+0x7e0074>
    10ce:	e4 e7       	ldi	r30, 0x74	; 116
    10d0:	f0 e0       	ldi	r31, 0x00	; 0
    10d2:	80 81       	ld	r24, Z
    10d4:	88 23       	and	r24, r24
    10d6:	ec f7       	brge	.-6      	; 0x10d2 <i2c_read_ack+0xa>
    10d8:	80 91 73 00 	lds	r24, 0x0073	; 0x800073 <__TEXT_REGION_LENGTH__+0x7e0073>
    10dc:	08 95       	ret

000010de <i2c_read_nack>:
    10de:	84 e8       	ldi	r24, 0x84	; 132
    10e0:	80 93 74 00 	sts	0x0074, r24	; 0x800074 <__TEXT_REGION_LENGTH__+0x7e0074>
    10e4:	e4 e7       	ldi	r30, 0x74	; 116
    10e6:	f0 e0       	ldi	r31, 0x00	; 0
    10e8:	80 81       	ld	r24, Z
    10ea:	88 23       	and	r24, r24
    10ec:	ec f7       	brge	.-6      	; 0x10e8 <i2c_read_nack+0xa>
    10ee:	80 91 73 00 	lds	r24, 0x0073	; 0x800073 <__TEXT_REGION_LENGTH__+0x7e0073>
    10f2:	08 95       	ret

000010f4 <i2c_stop>:

void i2c_stop(void)
{
	// transmit STOP condition
	TWCR = (1<<TWINT) | (1<<TWEN) | (1<<TWSTO);
    10f4:	84 e9       	ldi	r24, 0x94	; 148
    10f6:	80 93 74 00 	sts	0x0074, r24	; 0x800074 <__TEXT_REGION_LENGTH__+0x7e0074>
    10fa:	08 95       	ret

000010fc <toggle_e>:

void lcd_putbyte_hex( unsigned char c)                       // 1 byte kiirasa hexadecimalisan
{
	lcd_putc_hex( c >> 4);
	lcd_putc_hex( c);
}
    10fc:	ad 9a       	sbi	0x15, 5	; 21
    10fe:	00 c0       	rjmp	.+0      	; 0x1100 <__stack+0x1>
    1100:	00 c0       	rjmp	.+0      	; 0x1102 <__stack+0x3>
    1102:	ad 98       	cbi	0x15, 5	; 21
    1104:	08 95       	ret

00001106 <lcd_write>:
    1106:	cf 93       	push	r28
    1108:	c8 2f       	mov	r28, r24
    110a:	66 23       	and	r22, r22
    110c:	11 f0       	breq	.+4      	; 0x1112 <lcd_write+0xc>
    110e:	af 9a       	sbi	0x15, 7	; 21
    1110:	01 c0       	rjmp	.+2      	; 0x1114 <lcd_write+0xe>
    1112:	af 98       	cbi	0x15, 7	; 21
    1114:	ae 98       	cbi	0x15, 6	; 21
    1116:	a4 9a       	sbi	0x14, 4	; 20
    1118:	a3 9a       	sbi	0x14, 3	; 20
    111a:	a2 9a       	sbi	0x14, 2	; 20
    111c:	a1 9a       	sbi	0x14, 1	; 20
    111e:	a9 98       	cbi	0x15, 1	; 21
    1120:	aa 98       	cbi	0x15, 2	; 21
    1122:	ab 98       	cbi	0x15, 3	; 21
    1124:	ac 98       	cbi	0x15, 4	; 21
    1126:	cc 23       	and	r28, r28
    1128:	0c f4       	brge	.+2      	; 0x112c <lcd_write+0x26>
    112a:	a9 9a       	sbi	0x15, 1	; 21
    112c:	c6 fd       	sbrc	r28, 6
    112e:	aa 9a       	sbi	0x15, 2	; 21
    1130:	c5 fd       	sbrc	r28, 5
    1132:	ab 9a       	sbi	0x15, 3	; 21
    1134:	c4 fd       	sbrc	r28, 4
    1136:	ac 9a       	sbi	0x15, 4	; 21
    1138:	0e 94 7e 08 	call	0x10fc	; 0x10fc <toggle_e>
    113c:	a9 98       	cbi	0x15, 1	; 21
    113e:	aa 98       	cbi	0x15, 2	; 21
    1140:	ab 98       	cbi	0x15, 3	; 21
    1142:	ac 98       	cbi	0x15, 4	; 21
    1144:	c3 fd       	sbrc	r28, 3
    1146:	a9 9a       	sbi	0x15, 1	; 21
    1148:	c2 fd       	sbrc	r28, 2
    114a:	aa 9a       	sbi	0x15, 2	; 21
    114c:	c1 fd       	sbrc	r28, 1
    114e:	ab 9a       	sbi	0x15, 3	; 21
    1150:	c0 fd       	sbrc	r28, 0
    1152:	ac 9a       	sbi	0x15, 4	; 21
    1154:	0e 94 7e 08 	call	0x10fc	; 0x10fc <toggle_e>
    1158:	ac 9a       	sbi	0x15, 4	; 21
    115a:	ab 9a       	sbi	0x15, 3	; 21
    115c:	aa 9a       	sbi	0x15, 2	; 21
    115e:	a9 9a       	sbi	0x15, 1	; 21
    1160:	cf 91       	pop	r28
    1162:	08 95       	ret

00001164 <lcd_read>:
    1164:	88 23       	and	r24, r24
    1166:	11 f0       	breq	.+4      	; 0x116c <lcd_read+0x8>
    1168:	af 9a       	sbi	0x15, 7	; 21
    116a:	01 c0       	rjmp	.+2      	; 0x116e <lcd_read+0xa>
    116c:	af 98       	cbi	0x15, 7	; 21
    116e:	ae 9a       	sbi	0x15, 6	; 21
    1170:	a4 98       	cbi	0x14, 4	; 20
    1172:	a3 98       	cbi	0x14, 3	; 20
    1174:	a2 98       	cbi	0x14, 2	; 20
    1176:	a1 98       	cbi	0x14, 1	; 20
    1178:	ad 9a       	sbi	0x15, 5	; 21
    117a:	00 c0       	rjmp	.+0      	; 0x117c <lcd_read+0x18>
    117c:	00 c0       	rjmp	.+0      	; 0x117e <lcd_read+0x1a>
    117e:	9c 9b       	sbis	0x13, 4	; 19
    1180:	02 c0       	rjmp	.+4      	; 0x1186 <lcd_read+0x22>
    1182:	80 e1       	ldi	r24, 0x10	; 16
    1184:	01 c0       	rjmp	.+2      	; 0x1188 <lcd_read+0x24>
    1186:	80 e0       	ldi	r24, 0x00	; 0
    1188:	9b 99       	sbic	0x13, 3	; 19
    118a:	80 62       	ori	r24, 0x20	; 32
    118c:	9a 99       	sbic	0x13, 2	; 19
    118e:	80 64       	ori	r24, 0x40	; 64
    1190:	99 99       	sbic	0x13, 1	; 19
    1192:	80 68       	ori	r24, 0x80	; 128
    1194:	ad 98       	cbi	0x15, 5	; 21
    1196:	00 c0       	rjmp	.+0      	; 0x1198 <lcd_read+0x34>
    1198:	00 c0       	rjmp	.+0      	; 0x119a <lcd_read+0x36>
    119a:	ad 9a       	sbi	0x15, 5	; 21
    119c:	00 c0       	rjmp	.+0      	; 0x119e <lcd_read+0x3a>
    119e:	00 c0       	rjmp	.+0      	; 0x11a0 <lcd_read+0x3c>
    11a0:	9c 99       	sbic	0x13, 4	; 19
    11a2:	81 60       	ori	r24, 0x01	; 1
    11a4:	9b 99       	sbic	0x13, 3	; 19
    11a6:	82 60       	ori	r24, 0x02	; 2
    11a8:	9a 99       	sbic	0x13, 2	; 19
    11aa:	84 60       	ori	r24, 0x04	; 4
    11ac:	99 99       	sbic	0x13, 1	; 19
    11ae:	88 60       	ori	r24, 0x08	; 8
    11b0:	ad 98       	cbi	0x15, 5	; 21
    11b2:	08 95       	ret

000011b4 <lcd_waitbusy>:
    11b4:	80 e0       	ldi	r24, 0x00	; 0
    11b6:	0e 94 b2 08 	call	0x1164	; 0x1164 <lcd_read>
    11ba:	88 23       	and	r24, r24
    11bc:	dc f3       	brlt	.-10     	; 0x11b4 <lcd_waitbusy>
    11be:	88 e0       	ldi	r24, 0x08	; 8
    11c0:	90 e0       	ldi	r25, 0x00	; 0
    11c2:	01 97       	sbiw	r24, 0x01	; 1
    11c4:	f1 f7       	brne	.-4      	; 0x11c2 <lcd_waitbusy+0xe>
    11c6:	80 e0       	ldi	r24, 0x00	; 0
    11c8:	0e 94 b2 08 	call	0x1164	; 0x1164 <lcd_read>
    11cc:	08 95       	ret

000011ce <lcd_command>:
    11ce:	cf 93       	push	r28
    11d0:	c8 2f       	mov	r28, r24
    11d2:	0e 94 da 08 	call	0x11b4	; 0x11b4 <lcd_waitbusy>
    11d6:	60 e0       	ldi	r22, 0x00	; 0
    11d8:	8c 2f       	mov	r24, r28
    11da:	0e 94 83 08 	call	0x1106	; 0x1106 <lcd_write>
    11de:	cf 91       	pop	r28
    11e0:	08 95       	ret

000011e2 <lcd_data>:
    11e2:	cf 93       	push	r28
    11e4:	c8 2f       	mov	r28, r24
    11e6:	0e 94 da 08 	call	0x11b4	; 0x11b4 <lcd_waitbusy>
    11ea:	61 e0       	ldi	r22, 0x01	; 1
    11ec:	8c 2f       	mov	r24, r28
    11ee:	0e 94 83 08 	call	0x1106	; 0x1106 <lcd_write>
    11f2:	cf 91       	pop	r28
    11f4:	08 95       	ret

000011f6 <lcd_gotoxy>:
    11f6:	61 11       	cpse	r22, r1
    11f8:	04 c0       	rjmp	.+8      	; 0x1202 <lcd_gotoxy+0xc>
    11fa:	80 58       	subi	r24, 0x80	; 128
    11fc:	0e 94 e7 08 	call	0x11ce	; 0x11ce <lcd_command>
    1200:	08 95       	ret
    1202:	61 30       	cpi	r22, 0x01	; 1
    1204:	21 f4       	brne	.+8      	; 0x120e <lcd_gotoxy+0x18>
    1206:	80 54       	subi	r24, 0x40	; 64
    1208:	0e 94 e7 08 	call	0x11ce	; 0x11ce <lcd_command>
    120c:	08 95       	ret
    120e:	62 30       	cpi	r22, 0x02	; 2
    1210:	21 f4       	brne	.+8      	; 0x121a <lcd_gotoxy+0x24>
    1212:	8c 56       	subi	r24, 0x6C	; 108
    1214:	0e 94 e7 08 	call	0x11ce	; 0x11ce <lcd_command>
    1218:	08 95       	ret
    121a:	8c 52       	subi	r24, 0x2C	; 44
    121c:	0e 94 e7 08 	call	0x11ce	; 0x11ce <lcd_command>
    1220:	08 95       	ret

00001222 <lcd_clrscr>:
    1222:	81 e0       	ldi	r24, 0x01	; 1
    1224:	0e 94 e7 08 	call	0x11ce	; 0x11ce <lcd_command>
    1228:	08 95       	ret

0000122a <lcd_putc>:
    122a:	cf 93       	push	r28
    122c:	c8 2f       	mov	r28, r24
    122e:	0e 94 da 08 	call	0x11b4	; 0x11b4 <lcd_waitbusy>
    1232:	ca 30       	cpi	r28, 0x0A	; 10
    1234:	a1 f4       	brne	.+40     	; 0x125e <lcd_putc+0x34>
    1236:	84 31       	cpi	r24, 0x14	; 20
    1238:	48 f0       	brcs	.+18     	; 0x124c <lcd_putc+0x22>
    123a:	90 ec       	ldi	r25, 0xC0	; 192
    123c:	98 0f       	add	r25, r24
    123e:	94 31       	cpi	r25, 0x14	; 20
    1240:	38 f0       	brcs	.+14     	; 0x1250 <lcd_putc+0x26>
    1242:	84 51       	subi	r24, 0x14	; 20
    1244:	8c 32       	cpi	r24, 0x2C	; 44
    1246:	30 f0       	brcs	.+12     	; 0x1254 <lcd_putc+0x2a>
    1248:	80 e0       	ldi	r24, 0x00	; 0
    124a:	05 c0       	rjmp	.+10     	; 0x1256 <lcd_putc+0x2c>
    124c:	80 e4       	ldi	r24, 0x40	; 64
    124e:	03 c0       	rjmp	.+6      	; 0x1256 <lcd_putc+0x2c>
    1250:	84 e1       	ldi	r24, 0x14	; 20
    1252:	01 c0       	rjmp	.+2      	; 0x1256 <lcd_putc+0x2c>
    1254:	84 e5       	ldi	r24, 0x54	; 84
    1256:	80 58       	subi	r24, 0x80	; 128
    1258:	0e 94 e7 08 	call	0x11ce	; 0x11ce <lcd_command>
    125c:	04 c0       	rjmp	.+8      	; 0x1266 <lcd_putc+0x3c>
    125e:	61 e0       	ldi	r22, 0x01	; 1
    1260:	8c 2f       	mov	r24, r28
    1262:	0e 94 83 08 	call	0x1106	; 0x1106 <lcd_write>
    1266:	cf 91       	pop	r28
    1268:	08 95       	ret

0000126a <lcd_puts_p>:
    126a:	cf 93       	push	r28
    126c:	df 93       	push	r29
    126e:	ec 01       	movw	r28, r24
    1270:	21 96       	adiw	r28, 0x01	; 1
    1272:	fc 01       	movw	r30, r24
    1274:	84 91       	lpm	r24, Z
    1276:	88 23       	and	r24, r24
    1278:	39 f0       	breq	.+14     	; 0x1288 <lcd_puts_p+0x1e>
    127a:	0e 94 15 09 	call	0x122a	; 0x122a <lcd_putc>
    127e:	fe 01       	movw	r30, r28
    1280:	84 91       	lpm	r24, Z
    1282:	21 96       	adiw	r28, 0x01	; 1
    1284:	81 11       	cpse	r24, r1
    1286:	f9 cf       	rjmp	.-14     	; 0x127a <lcd_puts_p+0x10>
    1288:	df 91       	pop	r29
    128a:	cf 91       	pop	r28
    128c:	08 95       	ret

0000128e <lcd_init>:
    128e:	1f 93       	push	r17
    1290:	cf 93       	push	r28
    1292:	df 93       	push	r29
    1294:	18 2f       	mov	r17, r24
    1296:	a7 9a       	sbi	0x14, 7	; 20
    1298:	a6 9a       	sbi	0x14, 6	; 20
    129a:	a5 9a       	sbi	0x14, 5	; 20
    129c:	a4 9a       	sbi	0x14, 4	; 20
    129e:	a3 9a       	sbi	0x14, 3	; 20
    12a0:	a2 9a       	sbi	0x14, 2	; 20
    12a2:	a1 9a       	sbi	0x14, 1	; 20
    12a4:	80 e0       	ldi	r24, 0x00	; 0
    12a6:	9a ef       	ldi	r25, 0xFA	; 250
    12a8:	01 97       	sbiw	r24, 0x01	; 1
    12aa:	f1 f7       	brne	.-4      	; 0x12a8 <lcd_init+0x1a>
    12ac:	ab 9a       	sbi	0x15, 3	; 21
    12ae:	ac 9a       	sbi	0x15, 4	; 21
    12b0:	0e 94 7e 08 	call	0x10fc	; 0x10fc <toggle_e>
    12b4:	80 e0       	ldi	r24, 0x00	; 0
    12b6:	9e e4       	ldi	r25, 0x4E	; 78
    12b8:	01 97       	sbiw	r24, 0x01	; 1
    12ba:	f1 f7       	brne	.-4      	; 0x12b8 <lcd_init+0x2a>
    12bc:	0e 94 7e 08 	call	0x10fc	; 0x10fc <toggle_e>
    12c0:	c0 e0       	ldi	r28, 0x00	; 0
    12c2:	d1 e0       	ldi	r29, 0x01	; 1
    12c4:	ce 01       	movw	r24, r28
    12c6:	01 97       	sbiw	r24, 0x01	; 1
    12c8:	f1 f7       	brne	.-4      	; 0x12c6 <lcd_init+0x38>
    12ca:	0e 94 7e 08 	call	0x10fc	; 0x10fc <toggle_e>
    12ce:	ce 01       	movw	r24, r28
    12d0:	01 97       	sbiw	r24, 0x01	; 1
    12d2:	f1 f7       	brne	.-4      	; 0x12d0 <lcd_init+0x42>
    12d4:	ac 98       	cbi	0x15, 4	; 21
    12d6:	0e 94 7e 08 	call	0x10fc	; 0x10fc <toggle_e>
    12da:	21 97       	sbiw	r28, 0x01	; 1
    12dc:	f1 f7       	brne	.-4      	; 0x12da <lcd_init+0x4c>
    12de:	88 e2       	ldi	r24, 0x28	; 40
    12e0:	0e 94 e7 08 	call	0x11ce	; 0x11ce <lcd_command>
    12e4:	88 e0       	ldi	r24, 0x08	; 8
    12e6:	0e 94 e7 08 	call	0x11ce	; 0x11ce <lcd_command>
    12ea:	0e 94 11 09 	call	0x1222	; 0x1222 <lcd_clrscr>
    12ee:	86 e0       	ldi	r24, 0x06	; 6
    12f0:	0e 94 e7 08 	call	0x11ce	; 0x11ce <lcd_command>
    12f4:	81 2f       	mov	r24, r17
    12f6:	0e 94 e7 08 	call	0x11ce	; 0x11ce <lcd_command>
    12fa:	df 91       	pop	r29
    12fc:	cf 91       	pop	r28
    12fe:	1f 91       	pop	r17
    1300:	08 95       	ret

00001302 <lcd_defc>:
    1302:	0f 93       	push	r16
    1304:	1f 93       	push	r17
    1306:	cf 93       	push	r28
    1308:	df 93       	push	r29
    130a:	80 e4       	ldi	r24, 0x40	; 64
    130c:	0e 94 e7 08 	call	0x11ce	; 0x11ce <lcd_command>
    1310:	c0 e2       	ldi	r28, 0x20	; 32
    1312:	d1 e0       	ldi	r29, 0x01	; 1
    1314:	09 e5       	ldi	r16, 0x59	; 89
    1316:	11 e0       	ldi	r17, 0x01	; 1
    1318:	fe 01       	movw	r30, r28
    131a:	84 91       	lpm	r24, Z
    131c:	0e 94 f1 08 	call	0x11e2	; 0x11e2 <lcd_data>
    1320:	21 96       	adiw	r28, 0x01	; 1
    1322:	c0 17       	cp	r28, r16
    1324:	d1 07       	cpc	r29, r17
    1326:	c1 f7       	brne	.-16     	; 0x1318 <lcd_defc+0x16>
    1328:	df 91       	pop	r29
    132a:	cf 91       	pop	r28
    132c:	1f 91       	pop	r17
    132e:	0f 91       	pop	r16
    1330:	08 95       	ret

00001332 <lcd_putbit>:

void lcd_putbit(unsigned char c, unsigned char bit)
{
	while (bit--)
    1332:	9f ef       	ldi	r25, 0xFF	; 255
    1334:	96 0f       	add	r25, r22
    1336:	66 23       	and	r22, r22
    1338:	19 f0       	breq	.+6      	; 0x1340 <lcd_putbit+0xe>
		c=c >> 1;
    133a:	86 95       	lsr	r24
	lcd_putc_hex( c);
}

void lcd_putbit(unsigned char c, unsigned char bit)
{
	while (bit--)
    133c:	91 50       	subi	r25, 0x01	; 1
    133e:	e8 f7       	brcc	.-6      	; 0x133a <lcd_putbit+0x8>
		c=c >> 1;
	if( c & 0x01) 
    1340:	80 ff       	sbrs	r24, 0
    1342:	04 c0       	rjmp	.+8      	; 0x134c <lcd_putbit+0x1a>
		lcd_putc( '1');
    1344:	81 e3       	ldi	r24, 0x31	; 49
    1346:	0e 94 15 09 	call	0x122a	; 0x122a <lcd_putc>
    134a:	08 95       	ret
	else
		lcd_putc( '0');
    134c:	80 e3       	ldi	r24, 0x30	; 48
    134e:	0e 94 15 09 	call	0x122a	; 0x122a <lcd_putc>
    1352:	08 95       	ret

00001354 <lcd_putc_hu>:
	lcd_puts(buf);
}

void lcd_putc_hu( unsigned char c)                          // magyar betu kiirasa LCD-re
{
	switch( c)
    1354:	48 2f       	mov	r20, r24
    1356:	50 e0       	ldi	r21, 0x00	; 0
    1358:	fa 01       	movw	r30, r20
    135a:	e1 5c       	subi	r30, 0xC1	; 193
    135c:	f1 09       	sbc	r31, r1
    135e:	ec 33       	cpi	r30, 0x3C	; 60
    1360:	f1 05       	cpc	r31, r1
    1362:	a8 f4       	brcc	.+42     	; 0x138e <lcd_putc_hu+0x3a>
    1364:	ea 5b       	subi	r30, 0xBA	; 186
    1366:	ff 4f       	sbci	r31, 0xFF	; 255
    1368:	0c 94 76 1c 	jmp	0x38ec	; 0x38ec <__tablejump2__>
	{
		case 0xD6:                                 // 
		case 0xF6:                                 // 
		c= 0xEF;
    136c:	8f ee       	ldi	r24, 0xEF	; 239
    136e:	0f c0       	rjmp	.+30     	; 0x138e <lcd_putc_hu+0x3a>
			break;

		case 0xDC:                                 // 
		case 0xFC:                                 // 
			c= 0xF5;
    1370:	85 ef       	ldi	r24, 0xF5	; 245
		break;
    1372:	0d c0       	rjmp	.+26     	; 0x138e <lcd_putc_hu+0x3a>

		case 0xC1:                                 // 
		case 0xE1:                                 // 
			c= 0;
    1374:	80 e0       	ldi	r24, 0x00	; 0
			break;
    1376:	0b c0       	rjmp	.+22     	; 0x138e <lcd_putc_hu+0x3a>

		case 0xC9:                                 // 
		case 0xE9:                                 // 
			c= 1;
    1378:	81 e0       	ldi	r24, 0x01	; 1
			break;
    137a:	09 c0       	rjmp	.+18     	; 0x138e <lcd_putc_hu+0x3a>

		case 0xCD:                                 // 
		case 0xED:                                 // 
			c= 2;
    137c:	82 e0       	ldi	r24, 0x02	; 2
			break;
    137e:	07 c0       	rjmp	.+14     	; 0x138e <lcd_putc_hu+0x3a>

		case 0xD3:                                 // 
		case 0xF3:                                 // 
			c= 3;
    1380:	83 e0       	ldi	r24, 0x03	; 3
			break;
    1382:	05 c0       	rjmp	.+10     	; 0x138e <lcd_putc_hu+0x3a>

		case 0xD5:                                 // 
		case 0xF5:                                 // 
			c= 4;
    1384:	84 e0       	ldi	r24, 0x04	; 4
			break;
    1386:	03 c0       	rjmp	.+6      	; 0x138e <lcd_putc_hu+0x3a>

		case 0xDA:                                 // 
		case 0xFA:                                 // 
			c= 5;
    1388:	85 e0       	ldi	r24, 0x05	; 5
			break;
    138a:	01 c0       	rjmp	.+2      	; 0x138e <lcd_putc_hu+0x3a>

		case 0xDB:                                 // 
		case 0xFB:                                 // 
			c= 6;
    138c:	86 e0       	ldi	r24, 0x06	; 6
			break;
		default:;
	}
	lcd_putc(c);
    138e:	0e 94 15 09 	call	0x122a	; 0x122a <lcd_putc>
    1392:	08 95       	ret

00001394 <lcd_puts>:
Input:    string to be displayed
Returns:  none
*************************************************************************/
void lcd_puts(const char *s)
/* print string on lcd (no auto linefeed) */
{
    1394:	cf 93       	push	r28
    1396:	df 93       	push	r29
    register char c;

    while ( (c = *s++) ) {
    1398:	ec 01       	movw	r28, r24
    139a:	21 96       	adiw	r28, 0x01	; 1
    139c:	fc 01       	movw	r30, r24
    139e:	80 81       	ld	r24, Z
    13a0:	88 23       	and	r24, r24
    13a2:	29 f0       	breq	.+10     	; 0x13ae <lcd_puts+0x1a>
        lcd_putc_hu(c);
    13a4:	0e 94 aa 09 	call	0x1354	; 0x1354 <lcd_putc_hu>
void lcd_puts(const char *s)
/* print string on lcd (no auto linefeed) */
{
    register char c;

    while ( (c = *s++) ) {
    13a8:	89 91       	ld	r24, Y+
    13aa:	81 11       	cpse	r24, r1
    13ac:	fb cf       	rjmp	.-10     	; 0x13a4 <lcd_puts+0x10>
        lcd_putc_hu(c);
    }

}/* lcd_puts */
    13ae:	df 91       	pop	r29
    13b0:	cf 91       	pop	r28
    13b2:	08 95       	ret

000013b4 <lcd_puti>:
	else
		lcd_putc( '0');
}

void lcd_puti(unsigned int i)
{
    13b4:	0f 93       	push	r16
    13b6:	1f 93       	push	r17
    13b8:	cf 93       	push	r28
    13ba:	df 93       	push	r29
    13bc:	00 d0       	rcall	.+0      	; 0x13be <lcd_puti+0xa>
    13be:	00 d0       	rcall	.+0      	; 0x13c0 <lcd_puti+0xc>
    13c0:	cd b7       	in	r28, 0x3d	; 61
    13c2:	de b7       	in	r29, 0x3e	; 62
    13c4:	8c 01       	movw	r16, r24
    } else if (__radix < 2 || __radix > 36) {
	*__s = 0;
	return __s;
    } else {
	extern char *__itoa_ncheck (int, char *, unsigned char);
	return __itoa_ncheck (__val, __s, __radix);
    13c6:	4a e0       	ldi	r20, 0x0A	; 10
    13c8:	be 01       	movw	r22, r28
    13ca:	6f 5f       	subi	r22, 0xFF	; 255
    13cc:	7f 4f       	sbci	r23, 0xFF	; 255
    13ce:	0e 94 9e 1c 	call	0x393c	; 0x393c <__itoa_ncheck>
	char buf[4];
	itoa(i, buf, 10);
	if (i < 10)
    13d2:	0a 30       	cpi	r16, 0x0A	; 10
    13d4:	11 05       	cpc	r17, r1
    13d6:	18 f4       	brcc	.+6      	; 0x13de <lcd_puti+0x2a>
		lcd_putc('0');
    13d8:	80 e3       	ldi	r24, 0x30	; 48
    13da:	0e 94 15 09 	call	0x122a	; 0x122a <lcd_putc>
	lcd_puts(buf);
    13de:	ce 01       	movw	r24, r28
    13e0:	01 96       	adiw	r24, 0x01	; 1
    13e2:	0e 94 ca 09 	call	0x1394	; 0x1394 <lcd_puts>
}
    13e6:	0f 90       	pop	r0
    13e8:	0f 90       	pop	r0
    13ea:	0f 90       	pop	r0
    13ec:	0f 90       	pop	r0
    13ee:	df 91       	pop	r29
    13f0:	cf 91       	pop	r28
    13f2:	1f 91       	pop	r17
    13f4:	0f 91       	pop	r16
    13f6:	08 95       	ret

000013f8 <lcd_puts_hu>:
	lcd_putc(c);
}


void lcd_puts_hu( const char *s)                 // string kiiras, magyar betuk is
{
    13f8:	cf 93       	push	r28
    13fa:	df 93       	push	r29
	register unsigned char c;
	while ( ( c= pgm_read_byte( s++))) lcd_putc_hu( c);
    13fc:	ec 01       	movw	r28, r24
    13fe:	21 96       	adiw	r28, 0x01	; 1
    1400:	fc 01       	movw	r30, r24
    1402:	84 91       	lpm	r24, Z
    1404:	88 23       	and	r24, r24
    1406:	39 f0       	breq	.+14     	; 0x1416 <lcd_puts_hu+0x1e>
    1408:	0e 94 aa 09 	call	0x1354	; 0x1354 <lcd_putc_hu>
    140c:	fe 01       	movw	r30, r28
    140e:	84 91       	lpm	r24, Z
    1410:	21 96       	adiw	r28, 0x01	; 1
    1412:	81 11       	cpse	r24, r1
    1414:	f9 cf       	rjmp	.-14     	; 0x1408 <lcd_puts_hu+0x10>
}
    1416:	df 91       	pop	r29
    1418:	cf 91       	pop	r28
    141a:	08 95       	ret

0000141c <__vector_21>:
//volatile uint8_t Hour = 0, Minute = 0, Seconds = 0;
uint8_t Hour = 0, Minute = 0, Seconds = 0;


ISR(ADC_vect) // LCD httrk vilgts PWM
{
    141c:	1f 92       	push	r1
    141e:	0f 92       	push	r0
    1420:	0f b6       	in	r0, 0x3f	; 63
    1422:	0f 92       	push	r0
    1424:	11 24       	eor	r1, r1
    1426:	8f 93       	push	r24
    1428:	9f 93       	push	r25
	if (ADC < 10)
    142a:	84 b1       	in	r24, 0x04	; 4
    142c:	95 b1       	in	r25, 0x05	; 5
    142e:	0a 97       	sbiw	r24, 0x0a	; 10
    1430:	38 f4       	brcc	.+14     	; 0x1440 <__vector_21+0x24>
		OCR3C = 10;
    1432:	8a e0       	ldi	r24, 0x0A	; 10
    1434:	90 e0       	ldi	r25, 0x00	; 0
    1436:	90 93 83 00 	sts	0x0083, r25	; 0x800083 <__TEXT_REGION_LENGTH__+0x7e0083>
    143a:	80 93 82 00 	sts	0x0082, r24	; 0x800082 <__TEXT_REGION_LENGTH__+0x7e0082>
    143e:	06 c0       	rjmp	.+12     	; 0x144c <__vector_21+0x30>
	else
		OCR3C = ADC;
    1440:	84 b1       	in	r24, 0x04	; 4
    1442:	95 b1       	in	r25, 0x05	; 5
    1444:	90 93 83 00 	sts	0x0083, r25	; 0x800083 <__TEXT_REGION_LENGTH__+0x7e0083>
    1448:	80 93 82 00 	sts	0x0082, r24	; 0x800082 <__TEXT_REGION_LENGTH__+0x7e0082>
}
    144c:	9f 91       	pop	r25
    144e:	8f 91       	pop	r24
    1450:	0f 90       	pop	r0
    1452:	0f be       	out	0x3f, r0	; 63
    1454:	0f 90       	pop	r0
    1456:	1f 90       	pop	r1
    1458:	18 95       	reti

0000145a <__vector_12>:

ISR(TIMER1_COMPA_vect) // 1 mp-es idzt
{
    145a:	1f 92       	push	r1
    145c:	0f 92       	push	r0
    145e:	0f b6       	in	r0, 0x3f	; 63
    1460:	0f 92       	push	r0
    1462:	11 24       	eor	r1, r1
    1464:	8f 93       	push	r24
	if (TimerElapsed == 0);
    1466:	80 91 74 04 	lds	r24, 0x0474	; 0x800474 <TimerElapsed>
		TimerElapsed++;
    146a:	80 91 74 04 	lds	r24, 0x0474	; 0x800474 <TimerElapsed>
    146e:	8f 5f       	subi	r24, 0xFF	; 255
    1470:	80 93 74 04 	sts	0x0474, r24	; 0x800474 <TimerElapsed>
}
    1474:	8f 91       	pop	r24
    1476:	0f 90       	pop	r0
    1478:	0f be       	out	0x3f, r0	; 63
    147a:	0f 90       	pop	r0
    147c:	1f 90       	pop	r1
    147e:	18 95       	reti

00001480 <SensorRead>:

void SensorRead()
{
    1480:	1f 93       	push	r17
    1482:	cf 93       	push	r28
    1484:	df 93       	push	r29
    1486:	00 d0       	rcall	.+0      	; 0x1488 <SensorRead+0x8>
    1488:	1f 92       	push	r1
    148a:	cd b7       	in	r28, 0x3d	; 61
    148c:	de b7       	in	r29, 0x3e	; 62
	uint8_t i;
	uint8_t subzero, cel, cel_frac_bits;
	static uint8_t display = 10;
	static uint8_t timerstate = 0;
	
	switch (timerstate)
    148e:	80 91 6c 04 	lds	r24, 0x046C	; 0x80046c <timerstate.2859>
    1492:	81 30       	cpi	r24, 0x01	; 1
    1494:	09 f4       	brne	.+2      	; 0x1498 <SensorRead+0x18>
    1496:	44 c0       	rjmp	.+136    	; 0x1520 <SensorRead+0xa0>
    1498:	38 f0       	brcs	.+14     	; 0x14a8 <SensorRead+0x28>
    149a:	82 30       	cpi	r24, 0x02	; 2
    149c:	09 f4       	brne	.+2      	; 0x14a0 <SensorRead+0x20>
    149e:	68 c0       	rjmp	.+208    	; 0x1570 <SensorRead+0xf0>
    14a0:	83 30       	cpi	r24, 0x03	; 3
    14a2:	09 f4       	brne	.+2      	; 0x14a6 <SensorRead+0x26>
    14a4:	8b c0       	rjmp	.+278    	; 0x15bc <SensorRead+0x13c>
    14a6:	10 c1       	rjmp	.+544    	; 0x16c8 <SensorRead+0x248>
	{
		case (BME280TempState):
			BME280Temp = bme280_readTemperature();
    14a8:	0e 94 47 04 	call	0x88e	; 0x88e <bme280_readTemperature>
    14ac:	ab 01       	movw	r20, r22
    14ae:	bc 01       	movw	r22, r24
    14b0:	40 93 2c 05 	sts	0x052C, r20	; 0x80052c <BME280Temp>
    14b4:	50 93 2d 05 	sts	0x052D, r21	; 0x80052d <BME280Temp+0x1>
    14b8:	60 93 2e 05 	sts	0x052E, r22	; 0x80052e <BME280Temp+0x2>
    14bc:	70 93 2f 05 	sts	0x052F, r23	; 0x80052f <BME280Temp+0x3>
			ftoa(BME280TempBuf, BME280Temp, 2);
    14c0:	22 e0       	ldi	r18, 0x02	; 2
    14c2:	30 e0       	ldi	r19, 0x00	; 0
    14c4:	87 e4       	ldi	r24, 0x47	; 71
    14c6:	95 e0       	ldi	r25, 0x05	; 5
    14c8:	0e 94 cd 19 	call	0x339a	; 0x339a <ftoa>
			BME280TempUint = (uint16_t)( BME280Temp * 100);
    14cc:	20 e0       	ldi	r18, 0x00	; 0
    14ce:	30 e0       	ldi	r19, 0x00	; 0
    14d0:	48 ec       	ldi	r20, 0xC8	; 200
    14d2:	52 e4       	ldi	r21, 0x42	; 66
    14d4:	60 91 2c 05 	lds	r22, 0x052C	; 0x80052c <BME280Temp>
    14d8:	70 91 2d 05 	lds	r23, 0x052D	; 0x80052d <BME280Temp+0x1>
    14dc:	80 91 2e 05 	lds	r24, 0x052E	; 0x80052e <BME280Temp+0x2>
    14e0:	90 91 2f 05 	lds	r25, 0x052F	; 0x80052f <BME280Temp+0x3>
    14e4:	0e 94 f9 1b 	call	0x37f2	; 0x37f2 <__mulsf3>
    14e8:	0e 94 3c 1b 	call	0x3678	; 0x3678 <__fixunssfsi>
    14ec:	70 93 8c 05 	sts	0x058C, r23	; 0x80058c <BME280TempUint+0x1>
    14f0:	60 93 8b 05 	sts	0x058B, r22	; 0x80058b <BME280TempUint>
			if (DebugMode > 0)
    14f4:	80 91 73 04 	lds	r24, 0x0473	; 0x800473 <DebugMode>
    14f8:	88 23       	and	r24, r24
    14fa:	61 f0       	breq	.+24     	; 0x1514 <SensorRead+0x94>
				{ uart_puts_p(PSTR("BME280 Temperature: ")); uart_puts(BME280TempBuf); uart_puts_p(PSTR("C \n")); }
    14fc:	88 ed       	ldi	r24, 0xD8	; 216
    14fe:	93 e0       	ldi	r25, 0x03	; 3
    1500:	0e 94 48 19 	call	0x3290	; 0x3290 <uart_puts_p>
    1504:	87 e4       	ldi	r24, 0x47	; 71
    1506:	95 e0       	ldi	r25, 0x05	; 5
    1508:	0e 94 39 19 	call	0x3272	; 0x3272 <uart_puts>
    150c:	84 ed       	ldi	r24, 0xD4	; 212
    150e:	93 e0       	ldi	r25, 0x03	; 3
    1510:	0e 94 48 19 	call	0x3290	; 0x3290 <uart_puts_p>
			timerstate++;
    1514:	80 91 6c 04 	lds	r24, 0x046C	; 0x80046c <timerstate.2859>
    1518:	8f 5f       	subi	r24, 0xFF	; 255
    151a:	80 93 6c 04 	sts	0x046C, r24	; 0x80046c <timerstate.2859>
		break;
    151e:	d6 c0       	rjmp	.+428    	; 0x16cc <SensorRead+0x24c>

		case (BME280HumidState):
			BME280Humid = bme280_readHumidity();
    1520:	0e 94 de 04 	call	0x9bc	; 0x9bc <bme280_readHumidity>
    1524:	ab 01       	movw	r20, r22
    1526:	bc 01       	movw	r22, r24
    1528:	40 93 30 05 	sts	0x0530, r20	; 0x800530 <BME280Humid>
    152c:	50 93 31 05 	sts	0x0531, r21	; 0x800531 <BME280Humid+0x1>
    1530:	60 93 32 05 	sts	0x0532, r22	; 0x800532 <BME280Humid+0x2>
    1534:	70 93 33 05 	sts	0x0533, r23	; 0x800533 <BME280Humid+0x3>
			ftoa(BME280HumidBuf, BME280Humid, 2);
    1538:	22 e0       	ldi	r18, 0x02	; 2
    153a:	30 e0       	ldi	r19, 0x00	; 0
    153c:	85 e5       	ldi	r24, 0x55	; 85
    153e:	95 e0       	ldi	r25, 0x05	; 5
    1540:	0e 94 cd 19 	call	0x339a	; 0x339a <ftoa>
			if (DebugMode > 0)
    1544:	80 91 73 04 	lds	r24, 0x0473	; 0x800473 <DebugMode>
    1548:	88 23       	and	r24, r24
    154a:	61 f0       	breq	.+24     	; 0x1564 <SensorRead+0xe4>
				{ uart_puts_p(PSTR("BME280 Humidity: "));	uart_puts(BME280HumidBuf);	uart_puts_p(PSTR("% \n")); }
    154c:	82 ec       	ldi	r24, 0xC2	; 194
    154e:	93 e0       	ldi	r25, 0x03	; 3
    1550:	0e 94 48 19 	call	0x3290	; 0x3290 <uart_puts_p>
    1554:	85 e5       	ldi	r24, 0x55	; 85
    1556:	95 e0       	ldi	r25, 0x05	; 5
    1558:	0e 94 39 19 	call	0x3272	; 0x3272 <uart_puts>
    155c:	8e eb       	ldi	r24, 0xBE	; 190
    155e:	93 e0       	ldi	r25, 0x03	; 3
    1560:	0e 94 48 19 	call	0x3290	; 0x3290 <uart_puts_p>
			timerstate++;
    1564:	80 91 6c 04 	lds	r24, 0x046C	; 0x80046c <timerstate.2859>
    1568:	8f 5f       	subi	r24, 0xFF	; 255
    156a:	80 93 6c 04 	sts	0x046C, r24	; 0x80046c <timerstate.2859>
		break;
    156e:	ae c0       	rjmp	.+348    	; 0x16cc <SensorRead+0x24c>

		case (DS18B20State1):
			ow_set_bus(&DS18B20_PIN,&DS18B20_PORT,&DS18B20_DDR,DS18B20_PINx);
    1570:	20 e0       	ldi	r18, 0x00	; 0
    1572:	47 e3       	ldi	r20, 0x37	; 55
    1574:	50 e0       	ldi	r21, 0x00	; 0
    1576:	68 e3       	ldi	r22, 0x38	; 56
    1578:	70 e0       	ldi	r23, 0x00	; 0
    157a:	86 e3       	ldi	r24, 0x36	; 54
    157c:	90 e0       	ldi	r25, 0x00	; 0
    157e:	0e 94 40 07 	call	0xe80	; 0xe80 <ow_set_bus>
			for ( i=0; i<nSensors; i++ )
    1582:	80 91 39 05 	lds	r24, 0x0539	; 0x800539 <nSensors>
    1586:	88 23       	and	r24, r24
    1588:	99 f0       	breq	.+38     	; 0x15b0 <SensorRead+0x130>
    158a:	10 e0       	ldi	r17, 0x00	; 0
			{
				DS18X20_start_meas(DS18X20_POWER_EXTERN,&gSensorIDs[i][0]);
    158c:	61 2f       	mov	r22, r17
    158e:	70 e0       	ldi	r23, 0x00	; 0
    1590:	66 0f       	add	r22, r22
    1592:	77 1f       	adc	r23, r23
    1594:	66 0f       	add	r22, r22
    1596:	77 1f       	adc	r23, r23
    1598:	66 0f       	add	r22, r22
    159a:	77 1f       	adc	r23, r23
    159c:	65 5a       	subi	r22, 0xA5	; 165
    159e:	7a 4f       	sbci	r23, 0xFA	; 250
    15a0:	81 e0       	ldi	r24, 0x01	; 1
    15a2:	0e 94 62 06 	call	0xcc4	; 0xcc4 <DS18X20_start_meas>
			timerstate++;
		break;

		case (DS18B20State1):
			ow_set_bus(&DS18B20_PIN,&DS18B20_PORT,&DS18B20_DDR,DS18B20_PINx);
			for ( i=0; i<nSensors; i++ )
    15a6:	1f 5f       	subi	r17, 0xFF	; 255
    15a8:	80 91 39 05 	lds	r24, 0x0539	; 0x800539 <nSensors>
    15ac:	18 17       	cp	r17, r24
    15ae:	70 f3       	brcs	.-36     	; 0x158c <SensorRead+0x10c>
			{
				DS18X20_start_meas(DS18X20_POWER_EXTERN,&gSensorIDs[i][0]);
			}
			timerstate++;
    15b0:	80 91 6c 04 	lds	r24, 0x046C	; 0x80046c <timerstate.2859>
    15b4:	8f 5f       	subi	r24, 0xFF	; 255
    15b6:	80 93 6c 04 	sts	0x046C, r24	; 0x80046c <timerstate.2859>
		break;
    15ba:	88 c0       	rjmp	.+272    	; 0x16cc <SensorRead+0x24c>

		case (DS18B20State2):

			ow_set_bus(&DS18B20_PIN,&DS18B20_PORT,&DS18B20_DDR,DS18B20_PINx);
    15bc:	20 e0       	ldi	r18, 0x00	; 0
    15be:	47 e3       	ldi	r20, 0x37	; 55
    15c0:	50 e0       	ldi	r21, 0x00	; 0
    15c2:	68 e3       	ldi	r22, 0x38	; 56
    15c4:	70 e0       	ldi	r23, 0x00	; 0
    15c6:	86 e3       	ldi	r24, 0x36	; 54
    15c8:	90 e0       	ldi	r25, 0x00	; 0
    15ca:	0e 94 40 07 	call	0xe80	; 0xe80 <ow_set_bus>
			i = 0;
			while (i < nSensors)
    15ce:	80 91 39 05 	lds	r24, 0x0539	; 0x800539 <nSensors>
    15d2:	88 23       	and	r24, r24
    15d4:	09 f4       	brne	.+2      	; 0x15d8 <SensorRead+0x158>
    15d6:	72 c0       	rjmp	.+228    	; 0x16bc <SensorRead+0x23c>
    15d8:	10 e0       	ldi	r17, 0x00	; 0
			//for ( i=0; i<nSensors; i++ )
			{
				if ( DS18X20_read_meas( &gSensorIDs[i][0], &subzero, &cel, &cel_frac_bits) == DS18X20_OK )
    15da:	81 2f       	mov	r24, r17
    15dc:	90 e0       	ldi	r25, 0x00	; 0
    15de:	88 0f       	add	r24, r24
    15e0:	99 1f       	adc	r25, r25
    15e2:	88 0f       	add	r24, r24
    15e4:	99 1f       	adc	r25, r25
    15e6:	88 0f       	add	r24, r24
    15e8:	99 1f       	adc	r25, r25
    15ea:	9e 01       	movw	r18, r28
    15ec:	2d 5f       	subi	r18, 0xFD	; 253
    15ee:	3f 4f       	sbci	r19, 0xFF	; 255
    15f0:	ae 01       	movw	r20, r28
    15f2:	4e 5f       	subi	r20, 0xFE	; 254
    15f4:	5f 4f       	sbci	r21, 0xFF	; 255
    15f6:	be 01       	movw	r22, r28
    15f8:	6f 5f       	subi	r22, 0xFF	; 255
    15fa:	7f 4f       	sbci	r23, 0xFF	; 255
    15fc:	85 5a       	subi	r24, 0xA5	; 165
    15fe:	9a 4f       	sbci	r25, 0xFA	; 250
    1600:	0e 94 7e 06 	call	0xcfc	; 0xcfc <DS18X20_read_meas>
    1604:	81 11       	cpse	r24, r1
    1606:	18 c0       	rjmp	.+48     	; 0x1638 <SensorRead+0x1b8>
				{
					if (DebugMode > 0)
    1608:	80 91 73 04 	lds	r24, 0x0473	; 0x800473 <DebugMode>
    160c:	88 23       	and	r24, r24
    160e:	a1 f0       	breq	.+40     	; 0x1638 <SensorRead+0x1b8>
						{ uart_puti(subzero); uart_puti(cel); uart_puts_P("."); uart_puti(cel_frac_bits); uart_puts_P("\n"); }
    1610:	89 81       	ldd	r24, Y+1	; 0x01
    1612:	90 e0       	ldi	r25, 0x00	; 0
    1614:	0e 94 b2 19 	call	0x3364	; 0x3364 <uart_puti>
    1618:	8a 81       	ldd	r24, Y+2	; 0x02
    161a:	90 e0       	ldi	r25, 0x00	; 0
    161c:	0e 94 b2 19 	call	0x3364	; 0x3364 <uart_puti>
    1620:	8c eb       	ldi	r24, 0xBC	; 188
    1622:	93 e0       	ldi	r25, 0x03	; 3
    1624:	0e 94 48 19 	call	0x3290	; 0x3290 <uart_puts_p>
    1628:	8b 81       	ldd	r24, Y+3	; 0x03
    162a:	90 e0       	ldi	r25, 0x00	; 0
    162c:	0e 94 b2 19 	call	0x3364	; 0x3364 <uart_puti>
    1630:	8a eb       	ldi	r24, 0xBA	; 186
    1632:	93 e0       	ldi	r25, 0x03	; 3
    1634:	0e 94 48 19 	call	0x3290	; 0x3290 <uart_puts_p>
				}
				if (i == DHWSensorID)
    1638:	80 91 70 04 	lds	r24, 0x0470	; 0x800470 <DHWSensorID>
    163c:	81 13       	cpse	r24, r17
    163e:	10 c0       	rjmp	.+32     	; 0x1660 <SensorRead+0x1e0>
				{
					DHWTempActual = cel;
    1640:	8a 81       	ldd	r24, Y+2	; 0x02
    1642:	80 93 41 05 	sts	0x0541, r24	; 0x800541 <DHWTempActual>
    1646:	4a e0       	ldi	r20, 0x0A	; 10
    1648:	6b e3       	ldi	r22, 0x3B	; 59
    164a:	75 e0       	ldi	r23, 0x05	; 5
    164c:	90 e0       	ldi	r25, 0x00	; 0
    164e:	0e 94 9e 1c 	call	0x393c	; 0x393c <__itoa_ncheck>
    1652:	8b 81       	ldd	r24, Y+3	; 0x03
    1654:	4a e0       	ldi	r20, 0x0A	; 10
    1656:	62 e5       	ldi	r22, 0x52	; 82
    1658:	75 e0       	ldi	r23, 0x05	; 5
    165a:	90 e0       	ldi	r25, 0x00	; 0
    165c:	0e 94 9e 1c 	call	0x393c	; 0x393c <__itoa_ncheck>
					itoa(DHWTempActual, DHWTempActualBuf, 10);
					itoa(cel_frac_bits, DHWTempActualFracBuf, 10);
				}
				if (i == BufferSensorID)
    1660:	80 91 02 01 	lds	r24, 0x0102	; 0x800102 <BufferSensorID>
    1664:	81 13       	cpse	r24, r17
    1666:	10 c0       	rjmp	.+32     	; 0x1688 <SensorRead+0x208>
				{
					BufferTempActual = cel;
    1668:	8a 81       	ldd	r24, Y+2	; 0x02
    166a:	80 93 8d 05 	sts	0x058D, r24	; 0x80058d <BufferTempActual>
    166e:	4a e0       	ldi	r20, 0x0A	; 10
    1670:	62 e4       	ldi	r22, 0x42	; 66
    1672:	75 e0       	ldi	r23, 0x05	; 5
    1674:	90 e0       	ldi	r25, 0x00	; 0
    1676:	0e 94 9e 1c 	call	0x393c	; 0x393c <__itoa_ncheck>
    167a:	8b 81       	ldd	r24, Y+3	; 0x03
    167c:	4a e0       	ldi	r20, 0x0A	; 10
    167e:	6d e4       	ldi	r22, 0x4D	; 77
    1680:	75 e0       	ldi	r23, 0x05	; 5
    1682:	90 e0       	ldi	r25, 0x00	; 0
    1684:	0e 94 9e 1c 	call	0x393c	; 0x393c <__itoa_ncheck>
					itoa(BufferTempActual, BufferTempActualBuf, 10);
					itoa(cel_frac_bits, BufferTempActualFracBuf, 10);
				}
				if (i == GarageSensorID)
    1688:	80 91 01 01 	lds	r24, 0x0101	; 0x800101 <GarageSensorID>
    168c:	81 13       	cpse	r24, r17
    168e:	10 c0       	rjmp	.+32     	; 0x16b0 <SensorRead+0x230>
				{
					GarageTempActual = cel;
    1690:	8a 81       	ldd	r24, Y+2	; 0x02
    1692:	80 93 3f 05 	sts	0x053F, r24	; 0x80053f <GarageTempActual>
    1696:	4a e0       	ldi	r20, 0x0A	; 10
    1698:	6e e8       	ldi	r22, 0x8E	; 142
    169a:	75 e0       	ldi	r23, 0x05	; 5
    169c:	90 e0       	ldi	r25, 0x00	; 0
    169e:	0e 94 9e 1c 	call	0x393c	; 0x393c <__itoa_ncheck>
    16a2:	8b 81       	ldd	r24, Y+3	; 0x03
    16a4:	4a e0       	ldi	r20, 0x0A	; 10
    16a6:	66 e3       	ldi	r22, 0x36	; 54
    16a8:	75 e0       	ldi	r23, 0x05	; 5
    16aa:	90 e0       	ldi	r25, 0x00	; 0
    16ac:	0e 94 9e 1c 	call	0x393c	; 0x393c <__itoa_ncheck>
					itoa(GarageTempActual, GarageTempActualBuf, 10);
					itoa(cel_frac_bits, GarageTempActualFracBuf, 10);
				}
				i++;
    16b0:	1f 5f       	subi	r17, 0xFF	; 255

		case (DS18B20State2):

			ow_set_bus(&DS18B20_PIN,&DS18B20_PORT,&DS18B20_DDR,DS18B20_PINx);
			i = 0;
			while (i < nSensors)
    16b2:	80 91 39 05 	lds	r24, 0x0539	; 0x800539 <nSensors>
    16b6:	18 17       	cp	r17, r24
    16b8:	08 f4       	brcc	.+2      	; 0x16bc <SensorRead+0x23c>
    16ba:	8f cf       	rjmp	.-226    	; 0x15da <SensorRead+0x15a>
					itoa(cel_frac_bits, GarageTempActualFracBuf, 10);
				}
				i++;
			}

			timerstate++;
    16bc:	80 91 6c 04 	lds	r24, 0x046C	; 0x80046c <timerstate.2859>
    16c0:	8f 5f       	subi	r24, 0xFF	; 255
    16c2:	80 93 6c 04 	sts	0x046C, r24	; 0x80046c <timerstate.2859>
		break;
    16c6:	02 c0       	rjmp	.+4      	; 0x16cc <SensorRead+0x24c>

		default:
			timerstate = 0;
    16c8:	10 92 6c 04 	sts	0x046C, r1	; 0x80046c <timerstate.2859>
		break;
	}	

	if (MenuTimer == 0)
    16cc:	80 91 06 01 	lds	r24, 0x0106	; 0x800106 <MenuTimer>
    16d0:	81 11       	cpse	r24, r1
    16d2:	c5 c0       	rjmp	.+394    	; 0x185e <SensorRead+0x3de>
	{
		lcd_clrscr();
    16d4:	0e 94 11 09 	call	0x1222	; 0x1222 <lcd_clrscr>
		if (display > 5)
    16d8:	80 91 00 01 	lds	r24, 0x0100	; 0x800100 <__data_start>
    16dc:	86 30       	cpi	r24, 0x06	; 6
    16de:	08 f4       	brcc	.+2      	; 0x16e2 <SensorRead+0x262>
    16e0:	67 c0       	rjmp	.+206    	; 0x17b0 <SensorRead+0x330>
		{
			lcd_puts_p(PSTR("HMV ")); lcd_puts(DHWTempActualBuf); lcd_puts_p(PSTR(".")), lcd_puts(DHWTempActualFracBuf); lcd_puts_p(PSTR(" C")); lcd_gotoxy(15,0); lcd_puti(Hour); lcd_puts_p(PSTR(":")); lcd_puti(Minute);
    16e2:	85 eb       	ldi	r24, 0xB5	; 181
    16e4:	93 e0       	ldi	r25, 0x03	; 3
    16e6:	0e 94 35 09 	call	0x126a	; 0x126a <lcd_puts_p>
    16ea:	8b e3       	ldi	r24, 0x3B	; 59
    16ec:	95 e0       	ldi	r25, 0x05	; 5
    16ee:	0e 94 ca 09 	call	0x1394	; 0x1394 <lcd_puts>
    16f2:	83 eb       	ldi	r24, 0xB3	; 179
    16f4:	93 e0       	ldi	r25, 0x03	; 3
    16f6:	0e 94 35 09 	call	0x126a	; 0x126a <lcd_puts_p>
    16fa:	82 e5       	ldi	r24, 0x52	; 82
    16fc:	95 e0       	ldi	r25, 0x05	; 5
    16fe:	0e 94 ca 09 	call	0x1394	; 0x1394 <lcd_puts>
    1702:	80 eb       	ldi	r24, 0xB0	; 176
    1704:	93 e0       	ldi	r25, 0x03	; 3
    1706:	0e 94 35 09 	call	0x126a	; 0x126a <lcd_puts_p>
    170a:	60 e0       	ldi	r22, 0x00	; 0
    170c:	8f e0       	ldi	r24, 0x0F	; 15
    170e:	0e 94 fb 08 	call	0x11f6	; 0x11f6 <lcd_gotoxy>
    1712:	80 91 6f 04 	lds	r24, 0x046F	; 0x80046f <Hour>
    1716:	90 e0       	ldi	r25, 0x00	; 0
    1718:	0e 94 da 09 	call	0x13b4	; 0x13b4 <lcd_puti>
    171c:	8e ea       	ldi	r24, 0xAE	; 174
    171e:	93 e0       	ldi	r25, 0x03	; 3
    1720:	0e 94 35 09 	call	0x126a	; 0x126a <lcd_puts_p>
    1724:	80 91 6e 04 	lds	r24, 0x046E	; 0x80046e <Minute>
    1728:	90 e0       	ldi	r25, 0x00	; 0
    172a:	0e 94 da 09 	call	0x13b4	; 0x13b4 <lcd_puti>
			lcd_gotoxy(0,1);
    172e:	61 e0       	ldi	r22, 0x01	; 1
    1730:	80 e0       	ldi	r24, 0x00	; 0
    1732:	0e 94 fb 08 	call	0x11f6	; 0x11f6 <lcd_gotoxy>
			lcd_puts_p(PSTR("Puffer ")); lcd_puts(BufferTempActualBuf); lcd_puts_p(PSTR(".")), lcd_puts(BufferTempActualFracBuf); lcd_puts_p(PSTR(" C"));
    1736:	86 ea       	ldi	r24, 0xA6	; 166
    1738:	93 e0       	ldi	r25, 0x03	; 3
    173a:	0e 94 35 09 	call	0x126a	; 0x126a <lcd_puts_p>
    173e:	82 e4       	ldi	r24, 0x42	; 66
    1740:	95 e0       	ldi	r25, 0x05	; 5
    1742:	0e 94 ca 09 	call	0x1394	; 0x1394 <lcd_puts>
    1746:	84 ea       	ldi	r24, 0xA4	; 164
    1748:	93 e0       	ldi	r25, 0x03	; 3
    174a:	0e 94 35 09 	call	0x126a	; 0x126a <lcd_puts_p>
    174e:	8d e4       	ldi	r24, 0x4D	; 77
    1750:	95 e0       	ldi	r25, 0x05	; 5
    1752:	0e 94 ca 09 	call	0x1394	; 0x1394 <lcd_puts>
    1756:	81 ea       	ldi	r24, 0xA1	; 161
    1758:	93 e0       	ldi	r25, 0x03	; 3
    175a:	0e 94 35 09 	call	0x126a	; 0x126a <lcd_puts_p>
			lcd_gotoxy(0,2);
    175e:	62 e0       	ldi	r22, 0x02	; 2
    1760:	80 e0       	ldi	r24, 0x00	; 0
    1762:	0e 94 fb 08 	call	0x11f6	; 0x11f6 <lcd_gotoxy>
			lcd_puts_hu(PSTR("Gphz ")); lcd_puts(GarageTempActualBuf); lcd_puts_p(PSTR(".")), lcd_puts(GarageTempActualFracBuf); lcd_puts_p(PSTR(" C"));
    1766:	89 e9       	ldi	r24, 0x99	; 153
    1768:	93 e0       	ldi	r25, 0x03	; 3
    176a:	0e 94 fc 09 	call	0x13f8	; 0x13f8 <lcd_puts_hu>
    176e:	8e e8       	ldi	r24, 0x8E	; 142
    1770:	95 e0       	ldi	r25, 0x05	; 5
    1772:	0e 94 ca 09 	call	0x1394	; 0x1394 <lcd_puts>
    1776:	87 e9       	ldi	r24, 0x97	; 151
    1778:	93 e0       	ldi	r25, 0x03	; 3
    177a:	0e 94 35 09 	call	0x126a	; 0x126a <lcd_puts_p>
    177e:	86 e3       	ldi	r24, 0x36	; 54
    1780:	95 e0       	ldi	r25, 0x05	; 5
    1782:	0e 94 ca 09 	call	0x1394	; 0x1394 <lcd_puts>
    1786:	84 e9       	ldi	r24, 0x94	; 148
    1788:	93 e0       	ldi	r25, 0x03	; 3
    178a:	0e 94 35 09 	call	0x126a	; 0x126a <lcd_puts_p>
			lcd_gotoxy(0,3);
    178e:	63 e0       	ldi	r22, 0x03	; 3
    1790:	80 e0       	ldi	r24, 0x00	; 0
    1792:	0e 94 fb 08 	call	0x11f6	; 0x11f6 <lcd_gotoxy>
			lcd_puts_hu(PSTR("Kls ")); lcd_puts(BME280TempBuf); lcd_puts_p(PSTR(" C"));
    1796:	8d e8       	ldi	r24, 0x8D	; 141
    1798:	93 e0       	ldi	r25, 0x03	; 3
    179a:	0e 94 fc 09 	call	0x13f8	; 0x13f8 <lcd_puts_hu>
    179e:	87 e4       	ldi	r24, 0x47	; 71
    17a0:	95 e0       	ldi	r25, 0x05	; 5
    17a2:	0e 94 ca 09 	call	0x1394	; 0x1394 <lcd_puts>
    17a6:	8a e8       	ldi	r24, 0x8A	; 138
    17a8:	93 e0       	ldi	r25, 0x03	; 3
    17aa:	0e 94 35 09 	call	0x126a	; 0x126a <lcd_puts_p>
    17ae:	4c c0       	rjmp	.+152    	; 0x1848 <SensorRead+0x3c8>
		}
		else if (display <= 5)
		{
			lcd_puts_p(PSTR("HMV szelep ")); lcd_putbit(Relays, DHW_VALVE_RELAY); lcd_gotoxy(15,0); lcd_puti(Hour); lcd_puts_p(PSTR(":")); lcd_puti(Minute);
    17b0:	8e e7       	ldi	r24, 0x7E	; 126
    17b2:	93 e0       	ldi	r25, 0x03	; 3
    17b4:	0e 94 35 09 	call	0x126a	; 0x126a <lcd_puts_p>
    17b8:	64 e0       	ldi	r22, 0x04	; 4
    17ba:	80 91 71 04 	lds	r24, 0x0471	; 0x800471 <Relays>
    17be:	0e 94 99 09 	call	0x1332	; 0x1332 <lcd_putbit>
    17c2:	60 e0       	ldi	r22, 0x00	; 0
    17c4:	8f e0       	ldi	r24, 0x0F	; 15
    17c6:	0e 94 fb 08 	call	0x11f6	; 0x11f6 <lcd_gotoxy>
    17ca:	80 91 6f 04 	lds	r24, 0x046F	; 0x80046f <Hour>
    17ce:	90 e0       	ldi	r25, 0x00	; 0
    17d0:	0e 94 da 09 	call	0x13b4	; 0x13b4 <lcd_puti>
    17d4:	8c e7       	ldi	r24, 0x7C	; 124
    17d6:	93 e0       	ldi	r25, 0x03	; 3
    17d8:	0e 94 35 09 	call	0x126a	; 0x126a <lcd_puts_p>
    17dc:	80 91 6e 04 	lds	r24, 0x046E	; 0x80046e <Minute>
    17e0:	90 e0       	ldi	r25, 0x00	; 0
    17e2:	0e 94 da 09 	call	0x13b4	; 0x13b4 <lcd_puti>
			lcd_gotoxy(0,1);
    17e6:	61 e0       	ldi	r22, 0x01	; 1
    17e8:	80 e0       	ldi	r24, 0x00	; 0
    17ea:	0e 94 fb 08 	call	0x11f6	; 0x11f6 <lcd_gotoxy>
			lcd_puts_hu(PSTR("Gz rel ")); lcd_putbit(Relays, GAS_RELAY);
    17ee:	82 e7       	ldi	r24, 0x72	; 114
    17f0:	93 e0       	ldi	r25, 0x03	; 3
    17f2:	0e 94 fc 09 	call	0x13f8	; 0x13f8 <lcd_puts_hu>
    17f6:	67 e0       	ldi	r22, 0x07	; 7
    17f8:	80 91 71 04 	lds	r24, 0x0471	; 0x800471 <Relays>
    17fc:	0e 94 99 09 	call	0x1332	; 0x1332 <lcd_putbit>
			lcd_gotoxy(0,2);
    1800:	62 e0       	ldi	r22, 0x02	; 2
    1802:	80 e0       	ldi	r24, 0x00	; 0
    1804:	0e 94 fb 08 	call	0x11f6	; 0x11f6 <lcd_gotoxy>
			lcd_puts_p(PSTR("Puffer sz/p ")); lcd_putbit(Relays, BUFFER_VALVE_RELAY); lcd_putbit(Relays, BUFFER_PUMP_RELAY);
    1808:	85 e6       	ldi	r24, 0x65	; 101
    180a:	93 e0       	ldi	r25, 0x03	; 3
    180c:	0e 94 35 09 	call	0x126a	; 0x126a <lcd_puts_p>
    1810:	65 e0       	ldi	r22, 0x05	; 5
    1812:	80 91 71 04 	lds	r24, 0x0471	; 0x800471 <Relays>
    1816:	0e 94 99 09 	call	0x1332	; 0x1332 <lcd_putbit>
    181a:	66 e0       	ldi	r22, 0x06	; 6
    181c:	80 91 71 04 	lds	r24, 0x0471	; 0x800471 <Relays>
    1820:	0e 94 99 09 	call	0x1332	; 0x1332 <lcd_putbit>
			lcd_gotoxy(0,3);
    1824:	63 e0       	ldi	r22, 0x03	; 3
    1826:	80 e0       	ldi	r24, 0x00	; 0
    1828:	0e 94 fb 08 	call	0x11f6	; 0x11f6 <lcd_gotoxy>
			lcd_puts_hu(PSTR("Fld/Emel ")); lcd_putbit(Relays, FIRST_FLOOR_VALVE); lcd_putbit(Relays, SECOND_FLOOR_VALVE);
    182c:	8a e5       	ldi	r24, 0x5A	; 90
    182e:	93 e0       	ldi	r25, 0x03	; 3
    1830:	0e 94 fc 09 	call	0x13f8	; 0x13f8 <lcd_puts_hu>
    1834:	62 e0       	ldi	r22, 0x02	; 2
    1836:	80 91 71 04 	lds	r24, 0x0471	; 0x800471 <Relays>
    183a:	0e 94 99 09 	call	0x1332	; 0x1332 <lcd_putbit>
    183e:	63 e0       	ldi	r22, 0x03	; 3
    1840:	80 91 71 04 	lds	r24, 0x0471	; 0x800471 <Relays>
    1844:	0e 94 99 09 	call	0x1332	; 0x1332 <lcd_putbit>
		}
		if (--display == 0)
    1848:	80 91 00 01 	lds	r24, 0x0100	; 0x800100 <__data_start>
    184c:	81 50       	subi	r24, 0x01	; 1
    184e:	19 f0       	breq	.+6      	; 0x1856 <SensorRead+0x3d6>
    1850:	80 93 00 01 	sts	0x0100, r24	; 0x800100 <__data_start>
    1854:	07 c0       	rjmp	.+14     	; 0x1864 <SensorRead+0x3e4>
			display = 10;
    1856:	8a e0       	ldi	r24, 0x0A	; 10
    1858:	80 93 00 01 	sts	0x0100, r24	; 0x800100 <__data_start>
    185c:	03 c0       	rjmp	.+6      	; 0x1864 <SensorRead+0x3e4>
		//display--;
		//lcd_puts_hu(PSTR("Relek: ")); lcd_putbyte_bin(Relays);
	}
	else
		MenuTimer--;
    185e:	81 50       	subi	r24, 0x01	; 1
    1860:	80 93 06 01 	sts	0x0106, r24	; 0x800106 <MenuTimer>

	if (LCDBackLight == 0)
    1864:	80 91 72 04 	lds	r24, 0x0472	; 0x800472 <LCDBackLight>
    1868:	81 11       	cpse	r24, r1
    186a:	01 c0       	rjmp	.+2      	; 0x186e <SensorRead+0x3ee>
		ADCSRA |= (1<<ADSC);
    186c:	36 9a       	sbi	0x06, 6	; 6

	return;
}
    186e:	0f 90       	pop	r0
    1870:	0f 90       	pop	r0
    1872:	0f 90       	pop	r0
    1874:	df 91       	pop	r29
    1876:	cf 91       	pop	r28
    1878:	1f 91       	pop	r17
    187a:	08 95       	ret

0000187c <search_sensors>:
	if (DebugMode < 2)
		SwitchRelays();
}

uint8_t search_sensors(void)
{
    187c:	df 92       	push	r13
    187e:	ef 92       	push	r14
    1880:	ff 92       	push	r15
    1882:	0f 93       	push	r16
    1884:	1f 93       	push	r17
    1886:	cf 93       	push	r28
    1888:	df 93       	push	r29
    188a:	cd b7       	in	r28, 0x3d	; 61
    188c:	de b7       	in	r29, 0x3e	; 62
    188e:	29 97       	sbiw	r28, 0x09	; 9
    1890:	0f b6       	in	r0, 0x3f	; 63
    1892:	f8 94       	cli
    1894:	de bf       	out	0x3e, r29	; 62
    1896:	0f be       	out	0x3f, r0	; 63
    1898:	cd bf       	out	0x3d, r28	; 61
	uint8_t i;
	uint8_t id[OW_ROMCODE_SIZE];
	uint8_t diff, nSensors;

	/* clear display and home cursor */
	if (DebugMode > 0)
    189a:	80 91 73 04 	lds	r24, 0x0473	; 0x800473 <DebugMode>
    189e:	88 23       	and	r24, r24
    18a0:	09 f4       	brne	.+2      	; 0x18a4 <search_sensors+0x28>
    18a2:	3f c0       	rjmp	.+126    	; 0x1922 <search_sensors+0xa6>
		uart_puts_P("Bus scanning ...\n");
    18a4:	81 ef       	ldi	r24, 0xF1	; 241
    18a6:	91 e0       	ldi	r25, 0x01	; 1
    18a8:	0e 94 48 19 	call	0x3290	; 0x3290 <uart_puts_p>

	nSensors = 0;

	for( diff = OW_SEARCH_FIRST; diff != OW_LAST_DEVICE && nSensors < DS18B20_MAX_NO;)
    18ac:	8f ef       	ldi	r24, 0xFF	; 255
    18ae:	89 87       	std	Y+9, r24	; 0x09
    18b0:	0f 2e       	mov	r0, r31
    18b2:	fb e5       	ldi	r31, 0x5B	; 91
    18b4:	ef 2e       	mov	r14, r31
    18b6:	f5 e0       	ldi	r31, 0x05	; 5
    18b8:	ff 2e       	mov	r15, r31
    18ba:	f0 2d       	mov	r31, r0
	if (DebugMode < 2)
		SwitchRelays();
}

uint8_t search_sensors(void)
{
    18bc:	d1 2c       	mov	r13, r1

	nSensors = 0;

	for( diff = OW_SEARCH_FIRST; diff != OW_LAST_DEVICE && nSensors < DS18B20_MAX_NO;)
	{
		DS18X20_find_sensor( &diff, &id[0] );
    18be:	8e 01       	movw	r16, r28
    18c0:	07 5f       	subi	r16, 0xF7	; 247
    18c2:	1f 4f       	sbci	r17, 0xFF	; 255
    18c4:	be 01       	movw	r22, r28
    18c6:	6f 5f       	subi	r22, 0xFF	; 255
    18c8:	7f 4f       	sbci	r23, 0xFF	; 255
    18ca:	c8 01       	movw	r24, r16
    18cc:	0e 94 49 06 	call	0xc92	; 0xc92 <DS18X20_find_sensor>

		if( diff == OW_PRESENCE_ERR ) {
    18d0:	99 85       	ldd	r25, Y+9	; 0x09
    18d2:	9f 3f       	cpi	r25, 0xFF	; 255
    18d4:	49 f4       	brne	.+18     	; 0x18e8 <search_sensors+0x6c>
			if (DebugMode > 0)
    18d6:	80 91 73 04 	lds	r24, 0x0473	; 0x800473 <DebugMode>
    18da:	88 23       	and	r24, r24
    18dc:	29 f1       	breq	.+74     	; 0x1928 <search_sensors+0xac>
				uart_puts_P("No sensor found\n");
    18de:	80 ee       	ldi	r24, 0xE0	; 224
    18e0:	91 e0       	ldi	r25, 0x01	; 1
    18e2:	0e 94 48 19 	call	0x3290	; 0x3290 <uart_puts_p>
    18e6:	20 c0       	rjmp	.+64     	; 0x1928 <search_sensors+0xac>
			break;
		}

		if( diff == OW_DATA_ERR ) {
    18e8:	9e 3f       	cpi	r25, 0xFE	; 254
    18ea:	49 f4       	brne	.+18     	; 0x18fe <search_sensors+0x82>
			if (DebugMode > 0)
    18ec:	80 91 73 04 	lds	r24, 0x0473	; 0x800473 <DebugMode>
    18f0:	88 23       	and	r24, r24
    18f2:	d1 f0       	breq	.+52     	; 0x1928 <search_sensors+0xac>
				uart_puts_P("Bus error\n");
    18f4:	85 ed       	ldi	r24, 0xD5	; 213
    18f6:	91 e0       	ldi	r25, 0x01	; 1
    18f8:	0e 94 48 19 	call	0x3290	; 0x3290 <uart_puts_p>
    18fc:	15 c0       	rjmp	.+42     	; 0x1928 <search_sensors+0xac>
    18fe:	fe 01       	movw	r30, r28
    1900:	31 96       	adiw	r30, 0x01	; 1
			if (DebugMode > 0)
				uart_puts_P("No sensor found\n");
			break;
		}

		if( diff == OW_DATA_ERR ) {
    1902:	d7 01       	movw	r26, r14
			break;
		}

		for (i=0;i<OW_ROMCODE_SIZE;i++)
		{
			gSensorIDs[nSensors][i]=id[i];
    1904:	81 91       	ld	r24, Z+
    1906:	8d 93       	st	X+, r24
			if (DebugMode > 0)
				uart_puts_P("Bus error\n");
			break;
		}

		for (i=0;i<OW_ROMCODE_SIZE;i++)
    1908:	e0 17       	cp	r30, r16
    190a:	f1 07       	cpc	r31, r17
    190c:	d9 f7       	brne	.-10     	; 0x1904 <search_sensors+0x88>
		{
			gSensorIDs[nSensors][i]=id[i];
			//uart_puts_P("ID: "); uart_puti(id[i]); uart_puts_P("\n");
		}

		nSensors++;
    190e:	d3 94       	inc	r13
	if (DebugMode > 0)
		uart_puts_P("Bus scanning ...\n");

	nSensors = 0;

	for( diff = OW_SEARCH_FIRST; diff != OW_LAST_DEVICE && nSensors < DS18B20_MAX_NO;)
    1910:	99 23       	and	r25, r25
    1912:	51 f0       	breq	.+20     	; 0x1928 <search_sensors+0xac>
    1914:	88 e0       	ldi	r24, 0x08	; 8
    1916:	e8 0e       	add	r14, r24
    1918:	f1 1c       	adc	r15, r1
    191a:	86 e0       	ldi	r24, 0x06	; 6
    191c:	d8 12       	cpse	r13, r24
    191e:	d2 cf       	rjmp	.-92     	; 0x18c4 <search_sensors+0x48>
    1920:	03 c0       	rjmp	.+6      	; 0x1928 <search_sensors+0xac>
    1922:	8f ef       	ldi	r24, 0xFF	; 255
    1924:	89 87       	std	Y+9, r24	; 0x09
    1926:	c4 cf       	rjmp	.-120    	; 0x18b0 <search_sensors+0x34>

		nSensors++;
	}

	return nSensors;
}
    1928:	8d 2d       	mov	r24, r13
    192a:	29 96       	adiw	r28, 0x09	; 9
    192c:	0f b6       	in	r0, 0x3f	; 63
    192e:	f8 94       	cli
    1930:	de bf       	out	0x3e, r29	; 62
    1932:	0f be       	out	0x3f, r0	; 63
    1934:	cd bf       	out	0x3d, r28	; 61
    1936:	df 91       	pop	r29
    1938:	cf 91       	pop	r28
    193a:	1f 91       	pop	r17
    193c:	0f 91       	pop	r16
    193e:	ff 90       	pop	r15
    1940:	ef 90       	pop	r14
    1942:	df 90       	pop	r13
    1944:	08 95       	ret

00001946 <SwitchRelays>:

void SwitchRelays()
{
	SPIInit();
    1946:	0e 94 97 18 	call	0x312e	; 0x312e <SPIInit>
	SPIWrite(RELAYS_CS_PIN, Relays);
    194a:	60 91 71 04 	lds	r22, 0x0471	; 0x800471 <Relays>
    194e:	81 e0       	ldi	r24, 0x01	; 1
    1950:	0e 94 ab 18 	call	0x3156	; 0x3156 <SPIWrite>
	SPIClose();
    1954:	0e 94 a6 18 	call	0x314c	; 0x314c <SPIClose>
    1958:	08 95       	ret

0000195a <CheckConditions>:
void CheckConditions()
{
	// DHW fels kr
	static uint16_t pumpplustime = 0;
	uint16_t currTime = Hour * 100 + Minute;
	if (DHWTempActual < DHWTempDesired && (DHWMaxTime >= currTime && DHWMinTime <= currTime )) // alacsony HMV hmrsklet
    195a:	20 91 41 05 	lds	r18, 0x0541	; 0x800541 <DHWTempActual>
    195e:	30 91 3e 05 	lds	r19, 0x053E	; 0x80053e <DHWTempDesired>
    1962:	23 17       	cp	r18, r19
    1964:	08 f0       	brcs	.+2      	; 0x1968 <CheckConditions+0xe>
    1966:	5b c0       	rjmp	.+182    	; 0x1a1e <CheckConditions+0xc4>

void CheckConditions()
{
	// DHW fels kr
	static uint16_t pumpplustime = 0;
	uint16_t currTime = Hour * 100 + Minute;
    1968:	40 91 6f 04 	lds	r20, 0x046F	; 0x80046f <Hour>
    196c:	80 91 6e 04 	lds	r24, 0x046E	; 0x80046e <Minute>
    1970:	90 e0       	ldi	r25, 0x00	; 0
    1972:	54 e6       	ldi	r21, 0x64	; 100
    1974:	45 9f       	mul	r20, r21
    1976:	80 0d       	add	r24, r0
    1978:	91 1d       	adc	r25, r1
    197a:	11 24       	eor	r1, r1
	if (DHWTempActual < DHWTempDesired && (DHWMaxTime >= currTime && DHWMinTime <= currTime )) // alacsony HMV hmrsklet
    197c:	40 91 50 05 	lds	r20, 0x0550	; 0x800550 <DHWMaxTime>
    1980:	50 91 51 05 	lds	r21, 0x0551	; 0x800551 <DHWMaxTime+0x1>
    1984:	48 17       	cp	r20, r24
    1986:	59 07       	cpc	r21, r25
    1988:	08 f4       	brcc	.+2      	; 0x198c <CheckConditions+0x32>
    198a:	49 c0       	rjmp	.+146    	; 0x1a1e <CheckConditions+0xc4>
    198c:	40 91 45 05 	lds	r20, 0x0545	; 0x800545 <DHWMinTime>
    1990:	50 91 46 05 	lds	r21, 0x0546	; 0x800546 <DHWMinTime+0x1>
    1994:	84 17       	cp	r24, r20
    1996:	95 07       	cpc	r25, r21
    1998:	08 f4       	brcc	.+2      	; 0x199c <CheckConditions+0x42>
    199a:	41 c0       	rjmp	.+130    	; 0x1a1e <CheckConditions+0xc4>
	{
		if (DHWTempMin >= DHWTempActual)
    199c:	80 91 3a 05 	lds	r24, 0x053A	; 0x80053a <DHWTempMin>
    19a0:	82 17       	cp	r24, r18
    19a2:	08 f4       	brcc	.+2      	; 0x19a6 <CheckConditions+0x4c>
    19a4:	4a c0       	rjmp	.+148    	; 0x1a3a <CheckConditions+0xe0>
		{
			if (BufferTempActual < DHWTempDesired) // Pufferben nincs elg energia
    19a6:	80 91 8d 05 	lds	r24, 0x058D	; 0x80058d <BufferTempActual>
    19aa:	83 17       	cp	r24, r19
    19ac:	c0 f4       	brcc	.+48     	; 0x19de <CheckConditions+0x84>
			{
				pumpplustime = PumpPlusTime;
    19ae:	80 91 04 01 	lds	r24, 0x0104	; 0x800104 <PumpPlusTime>
    19b2:	90 91 05 01 	lds	r25, 0x0105	; 0x800105 <PumpPlusTime+0x1>
    19b6:	90 93 6b 04 	sts	0x046B, r25	; 0x80046b <__data_end+0x1>
    19ba:	80 93 6a 04 	sts	0x046A, r24	; 0x80046a <__data_end>
				Relays |= (1 << DHW_VALVE_RELAY)|(1 << GAS_RELAY);
				Relays &= ~((1 << BUFFER_VALVE_RELAY) | (1 << BUFFER_PUMP_RELAY));
    19be:	80 91 71 04 	lds	r24, 0x0471	; 0x800471 <Relays>
    19c2:	8f 79       	andi	r24, 0x9F	; 159
    19c4:	80 69       	ori	r24, 0x90	; 144
    19c6:	80 93 71 04 	sts	0x0471, r24	; 0x800471 <Relays>
				if (DebugMode > 0)
    19ca:	80 91 73 04 	lds	r24, 0x0473	; 0x800473 <DebugMode>
    19ce:	88 23       	and	r24, r24
    19d0:	09 f4       	brne	.+2      	; 0x19d4 <CheckConditions+0x7a>
    19d2:	ef c0       	rjmp	.+478    	; 0x1bb2 <CheckConditions+0x258>
					uart_puts_P("DHW relay activated with gas\n");
    19d4:	8c e3       	ldi	r24, 0x3C	; 60
    19d6:	93 e0       	ldi	r25, 0x03	; 3
    19d8:	0e 94 48 19 	call	0x3290	; 0x3290 <uart_puts_p>
    19dc:	2e c0       	rjmp	.+92     	; 0x1a3a <CheckConditions+0xe0>
			}
			else // Pufferben van elg energia
			{
				if (!pumpplustime) // gz megy, de tkapcsol pufferre, gz mg utkeringetne
    19de:	80 91 6a 04 	lds	r24, 0x046A	; 0x80046a <__data_end>
    19e2:	90 91 6b 04 	lds	r25, 0x046B	; 0x80046b <__data_end+0x1>
    19e6:	00 97       	sbiw	r24, 0x00	; 0
    19e8:	31 f4       	brne	.+12     	; 0x19f6 <CheckConditions+0x9c>
					Relays |= ((1 << DHW_VALVE_RELAY) | (1 << BUFFER_VALVE_RELAY) | (1 << BUFFER_PUMP_RELAY));
    19ea:	80 91 71 04 	lds	r24, 0x0471	; 0x800471 <Relays>
    19ee:	80 67       	ori	r24, 0x70	; 112
    19f0:	80 93 71 04 	sts	0x0471, r24	; 0x800471 <Relays>
    19f4:	05 c0       	rjmp	.+10     	; 0x1a00 <CheckConditions+0xa6>
				else
				pumpplustime--;
    19f6:	01 97       	sbiw	r24, 0x01	; 1
    19f8:	90 93 6b 04 	sts	0x046B, r25	; 0x80046b <__data_end+0x1>
    19fc:	80 93 6a 04 	sts	0x046A, r24	; 0x80046a <__data_end>
				Relays &= ~(1 << GAS_RELAY);
    1a00:	80 91 71 04 	lds	r24, 0x0471	; 0x800471 <Relays>
    1a04:	8f 77       	andi	r24, 0x7F	; 127
    1a06:	80 93 71 04 	sts	0x0471, r24	; 0x800471 <Relays>
				if (DebugMode > 0)
    1a0a:	80 91 73 04 	lds	r24, 0x0473	; 0x800473 <DebugMode>
    1a0e:	88 23       	and	r24, r24
    1a10:	09 f4       	brne	.+2      	; 0x1a14 <CheckConditions+0xba>
    1a12:	cf c0       	rjmp	.+414    	; 0x1bb2 <CheckConditions+0x258>
					uart_puts_P("DHW relay activated with buffer\n");
    1a14:	8b e1       	ldi	r24, 0x1B	; 27
    1a16:	93 e0       	ldi	r25, 0x03	; 3
    1a18:	0e 94 48 19 	call	0x3290	; 0x3290 <uart_puts_p>
    1a1c:	0e c0       	rjmp	.+28     	; 0x1a3a <CheckConditions+0xe0>
			}
		}
	}
	else // megszn higny esetn az utkeringets a gphz raditort fti
	{
		Relays &= ~((1 << GAS_RELAY) | (1 << BUFFER_VALVE_RELAY) | (1 << BUFFER_PUMP_RELAY) | (1 << DHW_VALVE_RELAY));
    1a1e:	80 91 71 04 	lds	r24, 0x0471	; 0x800471 <Relays>
    1a22:	8f 70       	andi	r24, 0x0F	; 15
    1a24:	80 93 71 04 	sts	0x0471, r24	; 0x800471 <Relays>
		if (DebugMode > 0)
    1a28:	80 91 73 04 	lds	r24, 0x0473	; 0x800473 <DebugMode>
    1a2c:	88 23       	and	r24, r24
    1a2e:	09 f4       	brne	.+2      	; 0x1a32 <CheckConditions+0xd8>
    1a30:	c0 c0       	rjmp	.+384    	; 0x1bb2 <CheckConditions+0x258>
			uart_puts_P("DHW relay deactivated\n");
    1a32:	84 e0       	ldi	r24, 0x04	; 4
    1a34:	93 e0       	ldi	r25, 0x03	; 3
    1a36:	0e 94 48 19 	call	0x3290	; 0x3290 <uart_puts_p>
	}

	// ftsi kr
	if (!(Relays & (1 << DHW_VALVE_RELAY)))
    1a3a:	80 91 71 04 	lds	r24, 0x0471	; 0x800471 <Relays>
    1a3e:	84 fd       	sbrc	r24, 4
    1a40:	b1 c0       	rjmp	.+354    	; 0x1ba4 <CheckConditions+0x24a>
	{
		if ((!(THERMOSTAT_PIN & (1 << FIRST_THERMO_PIN)) || !(THERMOSTAT_PIN & (1 << SECOND_THERMO_PIN)) || (GarageTempActual < GarageTempDesired))  && (BME280TempUint <= SwitchOnOutdoorTempMin))		
    1a42:	0e 9b       	sbis	0x01, 6	; 1
    1a44:	09 c0       	rjmp	.+18     	; 0x1a58 <CheckConditions+0xfe>
    1a46:	0f 9b       	sbis	0x01, 7	; 1
    1a48:	07 c0       	rjmp	.+14     	; 0x1a58 <CheckConditions+0xfe>
    1a4a:	20 91 3f 05 	lds	r18, 0x053F	; 0x80053f <GarageTempActual>
    1a4e:	90 91 2b 05 	lds	r25, 0x052B	; 0x80052b <GarageTempDesired>
    1a52:	29 17       	cp	r18, r25
    1a54:	08 f0       	brcs	.+2      	; 0x1a58 <CheckConditions+0xfe>
    1a56:	88 c0       	rjmp	.+272    	; 0x1b68 <CheckConditions+0x20e>
    1a58:	40 91 8b 05 	lds	r20, 0x058B	; 0x80058b <BME280TempUint>
    1a5c:	50 91 8c 05 	lds	r21, 0x058C	; 0x80058c <BME280TempUint+0x1>
    1a60:	20 91 34 05 	lds	r18, 0x0534	; 0x800534 <SwitchOnOutdoorTempMin>
    1a64:	30 91 35 05 	lds	r19, 0x0535	; 0x800535 <SwitchOnOutdoorTempMin+0x1>
    1a68:	24 17       	cp	r18, r20
    1a6a:	35 07       	cpc	r19, r21
    1a6c:	08 f4       	brcc	.+2      	; 0x1a70 <CheckConditions+0x116>
    1a6e:	7c c0       	rjmp	.+248    	; 0x1b68 <CheckConditions+0x20e>
		{
			if (GarageTempActual < GarageTempMin || !(THERMOSTAT_PIN & (1 << FIRST_THERMO_PIN)) || !(THERMOSTAT_PIN & (1 << SECOND_THERMO_PIN)))
    1a70:	20 91 3f 05 	lds	r18, 0x053F	; 0x80053f <GarageTempActual>
    1a74:	90 91 40 05 	lds	r25, 0x0540	; 0x800540 <GarageTempMin>
    1a78:	29 17       	cp	r18, r25
    1a7a:	20 f0       	brcs	.+8      	; 0x1a84 <CheckConditions+0x12a>
    1a7c:	0e 9b       	sbis	0x01, 6	; 1
    1a7e:	02 c0       	rjmp	.+4      	; 0x1a84 <CheckConditions+0x12a>
    1a80:	0f 99       	sbic	0x01, 7	; 1
    1a82:	35 c0       	rjmp	.+106    	; 0x1aee <CheckConditions+0x194>
			{
				if (BufferTempActual < ForwardHeatTemp) // Pufferben nincs elg energia
    1a84:	20 91 8d 05 	lds	r18, 0x058D	; 0x80058d <BufferTempActual>
    1a88:	90 91 03 01 	lds	r25, 0x0103	; 0x800103 <ForwardHeatTemp>
    1a8c:	29 17       	cp	r18, r25
    1a8e:	a8 f4       	brcc	.+42     	; 0x1aba <CheckConditions+0x160>
				{
					pumpplustime = PumpPlusTime; // gz utkeringets
    1a90:	20 91 04 01 	lds	r18, 0x0104	; 0x800104 <PumpPlusTime>
    1a94:	30 91 05 01 	lds	r19, 0x0105	; 0x800105 <PumpPlusTime+0x1>
    1a98:	30 93 6b 04 	sts	0x046B, r19	; 0x80046b <__data_end+0x1>
    1a9c:	20 93 6a 04 	sts	0x046A, r18	; 0x80046a <__data_end>
					Relays |= (1 << GAS_RELAY);
					Relays &= ~((1 << BUFFER_VALVE_RELAY) | (1 << BUFFER_PUMP_RELAY) | (1 << DHW_VALVE_RELAY));
    1aa0:	8f 78       	andi	r24, 0x8F	; 143
    1aa2:	80 68       	ori	r24, 0x80	; 128
    1aa4:	80 93 71 04 	sts	0x0471, r24	; 0x800471 <Relays>
					if (DebugMode > 0)
    1aa8:	80 91 73 04 	lds	r24, 0x0473	; 0x800473 <DebugMode>
    1aac:	88 23       	and	r24, r24
    1aae:	f9 f0       	breq	.+62     	; 0x1aee <CheckConditions+0x194>
					uart_puts_P("GAS activated; BUFFER, DHW relay deactivated\n");
    1ab0:	86 ed       	ldi	r24, 0xD6	; 214
    1ab2:	92 e0       	ldi	r25, 0x02	; 2
    1ab4:	0e 94 48 19 	call	0x3290	; 0x3290 <uart_puts_p>
    1ab8:	1a c0       	rjmp	.+52     	; 0x1aee <CheckConditions+0x194>
				}
				else // Puffer elg meleg
				{
					if (!pumpplustime) // ha tkapcsol gzrl pufferre, a gz mg utkeringetne
    1aba:	20 91 6a 04 	lds	r18, 0x046A	; 0x80046a <__data_end>
    1abe:	30 91 6b 04 	lds	r19, 0x046B	; 0x80046b <__data_end+0x1>
    1ac2:	21 15       	cp	r18, r1
    1ac4:	31 05       	cpc	r19, r1
    1ac6:	29 f4       	brne	.+10     	; 0x1ad2 <CheckConditions+0x178>
					{
						Relays &= ~((1 << GAS_RELAY) | (1 << DHW_VALVE_RELAY));
						Relays |= ((1 << BUFFER_VALVE_RELAY) | (1 << BUFFER_PUMP_RELAY));
    1ac8:	8f 76       	andi	r24, 0x6F	; 111
    1aca:	80 66       	ori	r24, 0x60	; 96
    1acc:	80 93 71 04 	sts	0x0471, r24	; 0x800471 <Relays>
    1ad0:	06 c0       	rjmp	.+12     	; 0x1ade <CheckConditions+0x184>
					}
					else
					pumpplustime--;
    1ad2:	21 50       	subi	r18, 0x01	; 1
    1ad4:	31 09       	sbc	r19, r1
    1ad6:	30 93 6b 04 	sts	0x046B, r19	; 0x80046b <__data_end+0x1>
    1ada:	20 93 6a 04 	sts	0x046A, r18	; 0x80046a <__data_end>
					
					if (DebugMode > 0)
    1ade:	80 91 73 04 	lds	r24, 0x0473	; 0x800473 <DebugMode>
    1ae2:	88 23       	and	r24, r24
    1ae4:	21 f0       	breq	.+8      	; 0x1aee <CheckConditions+0x194>
					uart_puts_P("GAS, DHW deactivated; BUFFER relay deactivated\n");
    1ae6:	86 ea       	ldi	r24, 0xA6	; 166
    1ae8:	92 e0       	ldi	r25, 0x02	; 2
    1aea:	0e 94 48 19 	call	0x3290	; 0x3290 <uart_puts_p>
				}
			}
			
			
			if (!(THERMOSTAT_PIN & (1 << FIRST_THERMO_PIN)))
    1aee:	0e 99       	sbic	0x01, 6	; 1
    1af0:	0d c0       	rjmp	.+26     	; 0x1b0c <CheckConditions+0x1b2>
			{
				Relays |= (1 << FIRST_FLOOR_VALVE);
    1af2:	80 91 71 04 	lds	r24, 0x0471	; 0x800471 <Relays>
    1af6:	84 60       	ori	r24, 0x04	; 4
    1af8:	80 93 71 04 	sts	0x0471, r24	; 0x800471 <Relays>
				if (DebugMode > 0)
    1afc:	80 91 73 04 	lds	r24, 0x0473	; 0x800473 <DebugMode>
    1b00:	88 23       	and	r24, r24
    1b02:	21 f0       	breq	.+8      	; 0x1b0c <CheckConditions+0x1b2>
					uart_puts_P("FIRST FLOOR activated\n");
    1b04:	8f e8       	ldi	r24, 0x8F	; 143
    1b06:	92 e0       	ldi	r25, 0x02	; 2
    1b08:	0e 94 48 19 	call	0x3290	; 0x3290 <uart_puts_p>
			}
			if (THERMOSTAT_PIN & (1 << FIRST_THERMO_PIN))
    1b0c:	0e 9b       	sbis	0x01, 6	; 1
    1b0e:	0d c0       	rjmp	.+26     	; 0x1b2a <CheckConditions+0x1d0>
			{
				Relays &= ~(1 << FIRST_FLOOR_VALVE);
    1b10:	80 91 71 04 	lds	r24, 0x0471	; 0x800471 <Relays>
    1b14:	8b 7f       	andi	r24, 0xFB	; 251
    1b16:	80 93 71 04 	sts	0x0471, r24	; 0x800471 <Relays>
				if (DebugMode > 0)
    1b1a:	80 91 73 04 	lds	r24, 0x0473	; 0x800473 <DebugMode>
    1b1e:	88 23       	and	r24, r24
    1b20:	21 f0       	breq	.+8      	; 0x1b2a <CheckConditions+0x1d0>
					uart_puts_P("FIRST FLOOR deactivated\n");
    1b22:	86 e7       	ldi	r24, 0x76	; 118
    1b24:	92 e0       	ldi	r25, 0x02	; 2
    1b26:	0e 94 48 19 	call	0x3290	; 0x3290 <uart_puts_p>
			}
			if (!(THERMOSTAT_PIN & (1 << SECOND_THERMO_PIN)))
    1b2a:	0f 99       	sbic	0x01, 7	; 1
    1b2c:	0d c0       	rjmp	.+26     	; 0x1b48 <CheckConditions+0x1ee>
			{
				Relays |= (1 << SECOND_FLOOR_VALVE);
    1b2e:	80 91 71 04 	lds	r24, 0x0471	; 0x800471 <Relays>
    1b32:	88 60       	ori	r24, 0x08	; 8
    1b34:	80 93 71 04 	sts	0x0471, r24	; 0x800471 <Relays>
				if (DebugMode > 0)
    1b38:	80 91 73 04 	lds	r24, 0x0473	; 0x800473 <DebugMode>
    1b3c:	88 23       	and	r24, r24
    1b3e:	f1 f1       	breq	.+124    	; 0x1bbc <CheckConditions+0x262>
					uart_puts_P("SECOND FLOOR activated\n");
    1b40:	8e e5       	ldi	r24, 0x5E	; 94
    1b42:	92 e0       	ldi	r25, 0x02	; 2
    1b44:	0e 94 48 19 	call	0x3290	; 0x3290 <uart_puts_p>
			}
			if (THERMOSTAT_PIN & (1 << SECOND_THERMO_PIN))
    1b48:	0f 9b       	sbis	0x01, 7	; 1
    1b4a:	2c c0       	rjmp	.+88     	; 0x1ba4 <CheckConditions+0x24a>
			{
				Relays &= ~(1 << SECOND_FLOOR_VALVE);
    1b4c:	80 91 71 04 	lds	r24, 0x0471	; 0x800471 <Relays>
    1b50:	87 7f       	andi	r24, 0xF7	; 247
    1b52:	80 93 71 04 	sts	0x0471, r24	; 0x800471 <Relays>
				if (DebugMode > 0)
    1b56:	80 91 73 04 	lds	r24, 0x0473	; 0x800473 <DebugMode>
    1b5a:	88 23       	and	r24, r24
    1b5c:	39 f1       	breq	.+78     	; 0x1bac <CheckConditions+0x252>
					uart_puts_P("SECOND FLOOR deactivated\n");
    1b5e:	84 e4       	ldi	r24, 0x44	; 68
    1b60:	92 e0       	ldi	r25, 0x02	; 2
    1b62:	0e 94 48 19 	call	0x3290	; 0x3290 <uart_puts_p>
    1b66:	1e c0       	rjmp	.+60     	; 0x1ba4 <CheckConditions+0x24a>
			}
		}
		else
		{
			if (!pumpplustime)
    1b68:	20 91 6a 04 	lds	r18, 0x046A	; 0x80046a <__data_end>
    1b6c:	30 91 6b 04 	lds	r19, 0x046B	; 0x80046b <__data_end+0x1>
    1b70:	21 15       	cp	r18, r1
    1b72:	31 05       	cpc	r19, r1
    1b74:	21 f4       	brne	.+8      	; 0x1b7e <CheckConditions+0x224>
				Relays &= ~((1 << FIRST_FLOOR_VALVE) | (1 << SECOND_FLOOR_VALVE));
    1b76:	83 7f       	andi	r24, 0xF3	; 243
    1b78:	80 93 71 04 	sts	0x0471, r24	; 0x800471 <Relays>
    1b7c:	06 c0       	rjmp	.+12     	; 0x1b8a <CheckConditions+0x230>
			else
				pumpplustime--;
    1b7e:	21 50       	subi	r18, 0x01	; 1
    1b80:	31 09       	sbc	r19, r1
    1b82:	30 93 6b 04 	sts	0x046B, r19	; 0x80046b <__data_end+0x1>
    1b86:	20 93 6a 04 	sts	0x046A, r18	; 0x80046a <__data_end>
			
			Relays &= ~((1 << BUFFER_VALVE_RELAY) | (1 <<BUFFER_PUMP_RELAY) | (1 << GAS_RELAY));
    1b8a:	80 91 71 04 	lds	r24, 0x0471	; 0x800471 <Relays>
    1b8e:	8f 71       	andi	r24, 0x1F	; 31
    1b90:	80 93 71 04 	sts	0x0471, r24	; 0x800471 <Relays>
			if (DebugMode > 0)
    1b94:	80 91 73 04 	lds	r24, 0x0473	; 0x800473 <DebugMode>
    1b98:	88 23       	and	r24, r24
    1b9a:	41 f0       	breq	.+16     	; 0x1bac <CheckConditions+0x252>
				uart_puts_P("GAS and FIRST_FLOOR_VALVE, SECOND_FLOOR_VALVE relay deactivated\n");
    1b9c:	83 e0       	ldi	r24, 0x03	; 3
    1b9e:	92 e0       	ldi	r25, 0x02	; 2
    1ba0:	0e 94 48 19 	call	0x3290	; 0x3290 <uart_puts_p>
		}
	}

	if (DebugMode < 2)
    1ba4:	80 91 73 04 	lds	r24, 0x0473	; 0x800473 <DebugMode>
    1ba8:	82 30       	cpi	r24, 0x02	; 2
    1baa:	58 f4       	brcc	.+22     	; 0x1bc2 <CheckConditions+0x268>
		SwitchRelays();
    1bac:	0e 94 a3 0c 	call	0x1946	; 0x1946 <SwitchRelays>
}
    1bb0:	08 95       	ret
		if (DebugMode > 0)
			uart_puts_P("DHW relay deactivated\n");
	}

	// ftsi kr
	if (!(Relays & (1 << DHW_VALVE_RELAY)))
    1bb2:	80 91 71 04 	lds	r24, 0x0471	; 0x800471 <Relays>
    1bb6:	84 ff       	sbrs	r24, 4
    1bb8:	44 cf       	rjmp	.-376    	; 0x1a42 <CheckConditions+0xe8>
    1bba:	f8 cf       	rjmp	.-16     	; 0x1bac <CheckConditions+0x252>
			{
				Relays |= (1 << SECOND_FLOOR_VALVE);
				if (DebugMode > 0)
					uart_puts_P("SECOND FLOOR activated\n");
			}
			if (THERMOSTAT_PIN & (1 << SECOND_THERMO_PIN))
    1bbc:	0f 99       	sbic	0x01, 7	; 1
    1bbe:	c6 cf       	rjmp	.-116    	; 0x1b4c <CheckConditions+0x1f2>
    1bc0:	f5 cf       	rjmp	.-22     	; 0x1bac <CheckConditions+0x252>
    1bc2:	08 95       	ret

00001bc4 <read_from_eeprom>:
	SPIClose();
}

void read_from_eeprom()
{
	DHWSensorID = eeprom_read_byte(&eeDHWSensorID);
    1bc4:	82 e0       	ldi	r24, 0x02	; 2
    1bc6:	90 e0       	ldi	r25, 0x00	; 0
    1bc8:	0e 94 d3 1c 	call	0x39a6	; 0x39a6 <eeprom_read_byte>
    1bcc:	80 93 70 04 	sts	0x0470, r24	; 0x800470 <DHWSensorID>
	DHWTempDesired = eeprom_read_byte(&eeDHWTempDesired);
    1bd0:	8d e0       	ldi	r24, 0x0D	; 13
    1bd2:	90 e0       	ldi	r25, 0x00	; 0
    1bd4:	0e 94 d3 1c 	call	0x39a6	; 0x39a6 <eeprom_read_byte>
    1bd8:	80 93 3e 05 	sts	0x053E, r24	; 0x80053e <DHWTempDesired>
	DHWTempMin = eeprom_read_byte(&eeDHWTempMin);
    1bdc:	8c e0       	ldi	r24, 0x0C	; 12
    1bde:	90 e0       	ldi	r25, 0x00	; 0
    1be0:	0e 94 d3 1c 	call	0x39a6	; 0x39a6 <eeprom_read_byte>
    1be4:	80 93 3a 05 	sts	0x053A, r24	; 0x80053a <DHWTempMin>
	DHWMinTime = eeprom_read_word(&eeDHWMinTime);
    1be8:	8a e0       	ldi	r24, 0x0A	; 10
    1bea:	90 e0       	ldi	r25, 0x00	; 0
    1bec:	0e 94 db 1c 	call	0x39b6	; 0x39b6 <eeprom_read_word>
    1bf0:	90 93 46 05 	sts	0x0546, r25	; 0x800546 <DHWMinTime+0x1>
    1bf4:	80 93 45 05 	sts	0x0545, r24	; 0x800545 <DHWMinTime>
	DHWMaxTime = eeprom_read_word(&eeDHWMaxTime);
    1bf8:	88 e0       	ldi	r24, 0x08	; 8
    1bfa:	90 e0       	ldi	r25, 0x00	; 0
    1bfc:	0e 94 db 1c 	call	0x39b6	; 0x39b6 <eeprom_read_word>
    1c00:	90 93 51 05 	sts	0x0551, r25	; 0x800551 <DHWMaxTime+0x1>
    1c04:	80 93 50 05 	sts	0x0550, r24	; 0x800550 <DHWMaxTime>
	BufferSensorID = eeprom_read_byte(&eeBufferSensorID);
    1c08:	81 e0       	ldi	r24, 0x01	; 1
    1c0a:	90 e0       	ldi	r25, 0x00	; 0
    1c0c:	0e 94 d3 1c 	call	0x39a6	; 0x39a6 <eeprom_read_byte>
    1c10:	80 93 02 01 	sts	0x0102, r24	; 0x800102 <BufferSensorID>
	ForwardHeatTemp = eeprom_read_byte(&eeForwardHeatTemp);
    1c14:	87 e0       	ldi	r24, 0x07	; 7
    1c16:	90 e0       	ldi	r25, 0x00	; 0
    1c18:	0e 94 d3 1c 	call	0x39a6	; 0x39a6 <eeprom_read_byte>
    1c1c:	80 93 03 01 	sts	0x0103, r24	; 0x800103 <ForwardHeatTemp>
	GarageSensorID = eeprom_read_byte(&eeGarageSensorID);
    1c20:	80 e0       	ldi	r24, 0x00	; 0
    1c22:	90 e0       	ldi	r25, 0x00	; 0
    1c24:	0e 94 d3 1c 	call	0x39a6	; 0x39a6 <eeprom_read_byte>
    1c28:	80 93 01 01 	sts	0x0101, r24	; 0x800101 <GarageSensorID>
	GarageTempDesired = eeprom_read_byte(&eeGarageTempDesired);
    1c2c:	86 e0       	ldi	r24, 0x06	; 6
    1c2e:	90 e0       	ldi	r25, 0x00	; 0
    1c30:	0e 94 d3 1c 	call	0x39a6	; 0x39a6 <eeprom_read_byte>
    1c34:	80 93 2b 05 	sts	0x052B, r24	; 0x80052b <GarageTempDesired>
	GarageTempMin = eeprom_read_byte(&eeGarageTempMin);
    1c38:	85 e0       	ldi	r24, 0x05	; 5
    1c3a:	90 e0       	ldi	r25, 0x00	; 0
    1c3c:	0e 94 d3 1c 	call	0x39a6	; 0x39a6 <eeprom_read_byte>
    1c40:	80 93 40 05 	sts	0x0540, r24	; 0x800540 <GarageTempMin>
	SwitchOnOutdoorTempMin = eeprom_read_word(&eeSwitchOnOutdoorTempMin);
    1c44:	83 e0       	ldi	r24, 0x03	; 3
    1c46:	90 e0       	ldi	r25, 0x00	; 0
    1c48:	0e 94 db 1c 	call	0x39b6	; 0x39b6 <eeprom_read_word>
    1c4c:	90 93 35 05 	sts	0x0535, r25	; 0x800535 <SwitchOnOutdoorTempMin+0x1>
    1c50:	80 93 34 05 	sts	0x0534, r24	; 0x800534 <SwitchOnOutdoorTempMin>
	DebugMode = eeprom_read_byte(&eeDebugMode);
    1c54:	82 e1       	ldi	r24, 0x12	; 18
    1c56:	90 e0       	ldi	r25, 0x00	; 0
    1c58:	0e 94 d3 1c 	call	0x39a6	; 0x39a6 <eeprom_read_byte>
    1c5c:	80 93 73 04 	sts	0x0473, r24	; 0x800473 <DebugMode>
	MenuTimer = eeprom_read_byte(&eeMenuTimer);
    1c60:	81 e1       	ldi	r24, 0x11	; 17
    1c62:	90 e0       	ldi	r25, 0x00	; 0
    1c64:	0e 94 d3 1c 	call	0x39a6	; 0x39a6 <eeprom_read_byte>
    1c68:	80 93 06 01 	sts	0x0106, r24	; 0x800106 <MenuTimer>
	LCDBackLight = eeprom_read_byte(&eeLCDBackLight);
    1c6c:	80 e1       	ldi	r24, 0x10	; 16
    1c6e:	90 e0       	ldi	r25, 0x00	; 0
    1c70:	0e 94 d3 1c 	call	0x39a6	; 0x39a6 <eeprom_read_byte>
    1c74:	80 93 72 04 	sts	0x0472, r24	; 0x800472 <LCDBackLight>
	PumpPlusTime = eeprom_read_word(&eePumpPlusTime);
    1c78:	8e e0       	ldi	r24, 0x0E	; 14
    1c7a:	90 e0       	ldi	r25, 0x00	; 0
    1c7c:	0e 94 db 1c 	call	0x39b6	; 0x39b6 <eeprom_read_word>
    1c80:	90 93 05 01 	sts	0x0105, r25	; 0x800105 <PumpPlusTime+0x1>
    1c84:	80 93 04 01 	sts	0x0104, r24	; 0x800104 <PumpPlusTime>
    1c88:	08 95       	ret

00001c8a <main>:
}

int main(void)
{
	read_from_eeprom();
    1c8a:	0e 94 e2 0d 	call	0x1bc4	; 0x1bc4 <read_from_eeprom>

	lcd_init(LCD_DISP_ON);
    1c8e:	8c e0       	ldi	r24, 0x0C	; 12
    1c90:	0e 94 47 09 	call	0x128e	; 0x128e <lcd_init>
	lcd_defc(magyar_betuk);
    1c94:	8d ee       	ldi	r24, 0xED	; 237
    1c96:	93 e0       	ldi	r25, 0x03	; 3
    1c98:	0e 94 81 09 	call	0x1302	; 0x1302 <lcd_defc>

	TCCR3A |= (1 << WGM30)|(1<<COM3C1);
    1c9c:	eb e8       	ldi	r30, 0x8B	; 139
    1c9e:	f0 e0       	ldi	r31, 0x00	; 0
    1ca0:	80 81       	ld	r24, Z
    1ca2:	89 60       	ori	r24, 0x09	; 9
    1ca4:	80 83       	st	Z, r24
	TCCR3B |= (1 << WGM32)|(1 << CS30)|(1 << CS31);
    1ca6:	ea e8       	ldi	r30, 0x8A	; 138
    1ca8:	f0 e0       	ldi	r31, 0x00	; 0
    1caa:	80 81       	ld	r24, Z
    1cac:	8b 60       	ori	r24, 0x0B	; 11
    1cae:	80 83       	st	Z, r24
	OCR3C = 128;
    1cb0:	80 e8       	ldi	r24, 0x80	; 128
    1cb2:	90 e0       	ldi	r25, 0x00	; 0
    1cb4:	90 93 83 00 	sts	0x0083, r25	; 0x800083 <__TEXT_REGION_LENGTH__+0x7e0083>
    1cb8:	80 93 82 00 	sts	0x0082, r24	; 0x800082 <__TEXT_REGION_LENGTH__+0x7e0082>
	DDRE |= (1 << PINE5);	//LCD led PWM
    1cbc:	15 9a       	sbi	0x02, 5	; 2
	PORTE |= (1 << PINE5);	//LCD led PWM
    1cbe:	1d 9a       	sbi	0x03, 5	; 3

	lcd_clrscr();
    1cc0:	0e 94 11 09 	call	0x1222	; 0x1222 <lcd_clrscr>
	lcd_puts_hu(PSTR("Fts vezrls v0.8"));
    1cc4:	81 ec       	ldi	r24, 0xC1	; 193
    1cc6:	91 e0       	ldi	r25, 0x01	; 1
    1cc8:	0e 94 fc 09 	call	0x13f8	; 0x13f8 <lcd_puts_hu>

	uart_init( UART_BAUD_SELECT(UART_BAUD_RATE,F_CPU) );
    1ccc:	87 e6       	ldi	r24, 0x67	; 103
    1cce:	90 e0       	ldi	r25, 0x00	; 0
    1cd0:	0e 94 12 19 	call	0x3224	; 0x3224 <uart_init>

	DDRF &= ~(1 << PINF0); //ADC input
    1cd4:	e1 e6       	ldi	r30, 0x61	; 97
    1cd6:	f0 e0       	ldi	r31, 0x00	; 0
    1cd8:	80 81       	ld	r24, Z
    1cda:	8e 7f       	andi	r24, 0xFE	; 254
    1cdc:	80 83       	st	Z, r24
	PORTF &= ~(1 << PINF0);
    1cde:	e2 e6       	ldi	r30, 0x62	; 98
    1ce0:	f0 e0       	ldi	r31, 0x00	; 0
    1ce2:	80 81       	ld	r24, Z
    1ce4:	8e 7f       	andi	r24, 0xFE	; 254
    1ce6:	80 83       	st	Z, r24

	BUZZER_DDR |= (1 << BUZZER_PIN);
    1ce8:	a0 9a       	sbi	0x14, 0	; 20

	THERMOSTAT_DDR &= ~((1 << FIRST_THERMO_PIN)|(1 << SECOND_THERMO_PIN));
    1cea:	82 b1       	in	r24, 0x02	; 2
    1cec:	8f 73       	andi	r24, 0x3F	; 63
    1cee:	82 b9       	out	0x02, r24	; 2
	//THERMOSTAT_PORT |= (1 << FIRST_THERMO_PIN)|(1 << SECOND_THERMO_PIN);

	Relays = 0x00;
    1cf0:	10 92 71 04 	sts	0x0471, r1	; 0x800471 <Relays>
	SwitchRelays();
    1cf4:	0e 94 a3 0c 	call	0x1946	; 0x1946 <SwitchRelays>

	lcd_gotoxy(0,1);
    1cf8:	61 e0       	ldi	r22, 0x01	; 1
    1cfa:	80 e0       	ldi	r24, 0x00	; 0
    1cfc:	0e 94 fb 08 	call	0x11f6	; 0x11f6 <lcd_gotoxy>
	lcd_puts_hu(PSTR("Alapllapotba lls"));
    1d00:	8d ea       	ldi	r24, 0xAD	; 173
    1d02:	91 e0       	ldi	r25, 0x01	; 1
    1d04:	0e 94 fc 09 	call	0x13f8	; 0x13f8 <lcd_puts_hu>
	lcd_gotoxy(0,2);
    1d08:	62 e0       	ldi	r22, 0x02	; 2
    1d0a:	80 e0       	ldi	r24, 0x00	; 0
    1d0c:	0e 94 fb 08 	call	0x11f6	; 0x11f6 <lcd_gotoxy>
    1d10:	ca e0       	ldi	r28, 0x0A	; 10
	uint8_t init_counter = 0;
	while (init_counter < 10)
	{
		lcd_putc('x');
    1d12:	88 e7       	ldi	r24, 0x78	; 120
    1d14:	0e 94 15 09 	call	0x122a	; 0x122a <lcd_putc>
	#else
		//round up by default
		__ticks_dc = (uint32_t)(ceil(fabs(__tmp)));
	#endif

	__builtin_avr_delay_cycles(__ticks_dc);
    1d18:	2f ef       	ldi	r18, 0xFF	; 255
    1d1a:	83 ed       	ldi	r24, 0xD3	; 211
    1d1c:	90 e3       	ldi	r25, 0x30	; 48
    1d1e:	21 50       	subi	r18, 0x01	; 1
    1d20:	80 40       	sbci	r24, 0x00	; 0
    1d22:	90 40       	sbci	r25, 0x00	; 0
    1d24:	e1 f7       	brne	.-8      	; 0x1d1e <main+0x94>
    1d26:	00 c0       	rjmp	.+0      	; 0x1d28 <main+0x9e>
    1d28:	00 00       	nop
    1d2a:	c1 50       	subi	r28, 0x01	; 1

	lcd_gotoxy(0,1);
	lcd_puts_hu(PSTR("Alapllapotba lls"));
	lcd_gotoxy(0,2);
	uint8_t init_counter = 0;
	while (init_counter < 10)
    1d2c:	91 f7       	brne	.-28     	; 0x1d12 <main+0x88>
		lcd_putc('x');
		_delay_ms(1000);
		init_counter++;
	}

	lcd_clrscr();
    1d2e:	0e 94 11 09 	call	0x1222	; 0x1222 <lcd_clrscr>
	lcd_puts_hu(PSTR("I2C indts"));
    1d32:	81 ea       	ldi	r24, 0xA1	; 161
    1d34:	91 e0       	ldi	r25, 0x01	; 1
    1d36:	0e 94 fc 09 	call	0x13f8	; 0x13f8 <lcd_puts_hu>
	i2c_init();
    1d3a:	0e 94 29 08 	call	0x1052	; 0x1052 <i2c_init>
	lcd_gotoxy(0,1);
    1d3e:	61 e0       	ldi	r22, 0x01	; 1
    1d40:	80 e0       	ldi	r24, 0x00	; 0
    1d42:	0e 94 fb 08 	call	0x11f6	; 0x11f6 <lcd_gotoxy>
	lcd_puts_hu(PSTR("BME280 indts"));
    1d46:	82 e9       	ldi	r24, 0x92	; 146
    1d48:	91 e0       	ldi	r25, 0x01	; 1
    1d4a:	0e 94 fc 09 	call	0x13f8	; 0x13f8 <lcd_puts_hu>
	init_BME280();
    1d4e:	0e 94 23 04 	call	0x846	; 0x846 <init_BME280>
	
	
	
	sei();
    1d52:	78 94       	sei
	uart_puts_p(PSTR("Interrupt enabled\n"));
    1d54:	8f e7       	ldi	r24, 0x7F	; 127
    1d56:	91 e0       	ldi	r25, 0x01	; 1
    1d58:	0e 94 48 19 	call	0x3290	; 0x3290 <uart_puts_p>

	
	ow_set_bus(&PINB,&PORTB,&DDRB,PINB0);
    1d5c:	20 e0       	ldi	r18, 0x00	; 0
    1d5e:	47 e3       	ldi	r20, 0x37	; 55
    1d60:	50 e0       	ldi	r21, 0x00	; 0
    1d62:	68 e3       	ldi	r22, 0x38	; 56
    1d64:	70 e0       	ldi	r23, 0x00	; 0
    1d66:	86 e3       	ldi	r24, 0x36	; 54
    1d68:	90 e0       	ldi	r25, 0x00	; 0
    1d6a:	0e 94 40 07 	call	0xe80	; 0xe80 <ow_set_bus>
	nSensors = search_sensors();
    1d6e:	0e 94 3e 0c 	call	0x187c	; 0x187c <search_sensors>
    1d72:	80 93 39 05 	sts	0x0539, r24	; 0x800539 <nSensors>

	if (DebugMode > 0)
    1d76:	80 91 73 04 	lds	r24, 0x0473	; 0x800473 <DebugMode>
    1d7a:	88 23       	and	r24, r24
    1d7c:	69 f0       	breq	.+26     	; 0x1d98 <main+0x10e>
		{ uart_puts_P("Found "); uart_puti(nSensors); uart_puts_P(" DS18B20 sensors\n"); }
    1d7e:	88 e7       	ldi	r24, 0x78	; 120
    1d80:	91 e0       	ldi	r25, 0x01	; 1
    1d82:	0e 94 48 19 	call	0x3290	; 0x3290 <uart_puts_p>
    1d86:	80 91 39 05 	lds	r24, 0x0539	; 0x800539 <nSensors>
    1d8a:	90 e0       	ldi	r25, 0x00	; 0
    1d8c:	0e 94 b2 19 	call	0x3364	; 0x3364 <uart_puti>
    1d90:	86 e6       	ldi	r24, 0x66	; 102
    1d92:	91 e0       	ldi	r25, 0x01	; 1
    1d94:	0e 94 48 19 	call	0x3290	; 0x3290 <uart_puts_p>
	lcd_gotoxy(0,2);
    1d98:	62 e0       	ldi	r22, 0x02	; 2
    1d9a:	80 e0       	ldi	r24, 0x00	; 0
    1d9c:	0e 94 fb 08 	call	0x11f6	; 0x11f6 <lcd_gotoxy>
	lcd_puts_p(PSTR("DS18B20: ")); lcd_puti(nSensors); lcd_puts_p(PSTR(" db"));
    1da0:	8c e5       	ldi	r24, 0x5C	; 92
    1da2:	91 e0       	ldi	r25, 0x01	; 1
    1da4:	0e 94 35 09 	call	0x126a	; 0x126a <lcd_puts_p>
    1da8:	80 91 39 05 	lds	r24, 0x0539	; 0x800539 <nSensors>
    1dac:	90 e0       	ldi	r25, 0x00	; 0
    1dae:	0e 94 da 09 	call	0x13b4	; 0x13b4 <lcd_puti>
    1db2:	88 e5       	ldi	r24, 0x58	; 88
    1db4:	91 e0       	ldi	r25, 0x01	; 1
    1db6:	0e 94 35 09 	call	0x126a	; 0x126a <lcd_puts_p>
    1dba:	2f ef       	ldi	r18, 0xFF	; 255
    1dbc:	8b e7       	ldi	r24, 0x7B	; 123
    1dbe:	92 e9       	ldi	r25, 0x92	; 146
    1dc0:	21 50       	subi	r18, 0x01	; 1
    1dc2:	80 40       	sbci	r24, 0x00	; 0
    1dc4:	90 40       	sbci	r25, 0x00	; 0
    1dc6:	e1 f7       	brne	.-8      	; 0x1dc0 <main+0x136>
    1dc8:	00 c0       	rjmp	.+0      	; 0x1dca <main+0x140>
    1dca:	00 00       	nop

	_delay_ms(3000);

	TCCR1B |= (1 << CS12) | (1 << WGM12);
    1dcc:	8e b5       	in	r24, 0x2e	; 46
    1dce:	8c 60       	ori	r24, 0x0C	; 12
    1dd0:	8e bd       	out	0x2e, r24	; 46
	TCNT1 = 0;
    1dd2:	1d bc       	out	0x2d, r1	; 45
    1dd4:	1c bc       	out	0x2c, r1	; 44
	OCR1A = 62500;//14400; // 1000ms
    1dd6:	84 e2       	ldi	r24, 0x24	; 36
    1dd8:	94 ef       	ldi	r25, 0xF4	; 244
    1dda:	9b bd       	out	0x2b, r25	; 43
    1ddc:	8a bd       	out	0x2a, r24	; 42
	TIMSK |= (1 << OCIE1A);
    1dde:	87 b7       	in	r24, 0x37	; 55
    1de0:	80 61       	ori	r24, 0x10	; 16
    1de2:	87 bf       	out	0x37, r24	; 55

	//ADMUX |= (1<<REFS0) | (1<< REFS1);
	ADCSRA |= (1 << ADEN)|(1<<ADIE)|(1<<ADSC)|(1<<ADPS0)|(1<<ADPS1)|(1<<ADPS2);
    1de4:	86 b1       	in	r24, 0x06	; 6
    1de6:	8f 6c       	ori	r24, 0xCF	; 207
    1de8:	86 b9       	out	0x06, r24	; 6
	
	//reset watchdog
	wdt_reset();
    1dea:	a8 95       	wdr
	WDTCR |= (1<<WDE) | (1 << WDCE);
    1dec:	81 b5       	in	r24, 0x21	; 33
    1dee:	88 61       	ori	r24, 0x18	; 24
    1df0:	81 bd       	out	0x21, r24	; 33
	WDTCR |= (1<<WDP2)| (1<<WDP1) | (1<<WDP0);
    1df2:	81 b5       	in	r24, 0x21	; 33
    1df4:	87 60       	ori	r24, 0x07	; 7
    1df6:	81 bd       	out	0x21, r24	; 33


	menuInit();
    1df8:	0e 94 a8 0f 	call	0x1f50	; 0x1f50 <menuInit>

	while(1)
	{
		if (TimerElapsed == 1)
    1dfc:	80 91 74 04 	lds	r24, 0x0474	; 0x800474 <TimerElapsed>
    1e00:	81 30       	cpi	r24, 0x01	; 1
    1e02:	49 f5       	brne	.+82     	; 0x1e56 <main+0x1cc>
		{
			if (++Seconds == 60)
    1e04:	80 91 6d 04 	lds	r24, 0x046D	; 0x80046d <Seconds>
    1e08:	8f 5f       	subi	r24, 0xFF	; 255
    1e0a:	8c 33       	cpi	r24, 0x3C	; 60
    1e0c:	19 f0       	breq	.+6      	; 0x1e14 <main+0x18a>
    1e0e:	80 93 6d 04 	sts	0x046D, r24	; 0x80046d <Seconds>
    1e12:	16 c0       	rjmp	.+44     	; 0x1e40 <main+0x1b6>
			{
				Seconds = 0;
    1e14:	10 92 6d 04 	sts	0x046D, r1	; 0x80046d <Seconds>
				Minute++;
    1e18:	80 91 6e 04 	lds	r24, 0x046E	; 0x80046e <Minute>
    1e1c:	8f 5f       	subi	r24, 0xFF	; 255
				if (Minute == 60)
    1e1e:	8c 33       	cpi	r24, 0x3C	; 60
    1e20:	19 f0       	breq	.+6      	; 0x1e28 <main+0x19e>
		if (TimerElapsed == 1)
		{
			if (++Seconds == 60)
			{
				Seconds = 0;
				Minute++;
    1e22:	80 93 6e 04 	sts	0x046E, r24	; 0x80046e <Minute>
    1e26:	0c c0       	rjmp	.+24     	; 0x1e40 <main+0x1b6>
				if (Minute == 60)
				{
					Minute = 0;
    1e28:	10 92 6e 04 	sts	0x046E, r1	; 0x80046e <Minute>
					Hour++;
    1e2c:	80 91 6f 04 	lds	r24, 0x046F	; 0x80046f <Hour>
    1e30:	8f 5f       	subi	r24, 0xFF	; 255
					if (Hour == 24)
    1e32:	88 31       	cpi	r24, 0x18	; 24
    1e34:	19 f0       	breq	.+6      	; 0x1e3c <main+0x1b2>
				Seconds = 0;
				Minute++;
				if (Minute == 60)
				{
					Minute = 0;
					Hour++;
    1e36:	80 93 6f 04 	sts	0x046F, r24	; 0x80046f <Hour>
    1e3a:	02 c0       	rjmp	.+4      	; 0x1e40 <main+0x1b6>
					if (Hour == 24)
						Hour = 0;
    1e3c:	10 92 6f 04 	sts	0x046F, r1	; 0x80046f <Hour>
				}		
			}
	
			SensorRead();
    1e40:	0e 94 40 0a 	call	0x1480	; 0x1480 <SensorRead>
			if (DebugMode < 2)
    1e44:	80 91 73 04 	lds	r24, 0x0473	; 0x800473 <DebugMode>
    1e48:	82 30       	cpi	r24, 0x02	; 2
    1e4a:	10 f4       	brcc	.+4      	; 0x1e50 <main+0x1c6>
				CheckConditions();
    1e4c:	0e 94 ad 0c 	call	0x195a	; 0x195a <CheckConditions>
			wdt_reset();
    1e50:	a8 95       	wdr
			TimerElapsed = 0;
    1e52:	10 92 74 04 	sts	0x0474, r1	; 0x800474 <TimerElapsed>
		}
		menuPollButtons();
    1e56:	0e 94 ad 0f 	call	0x1f5a	; 0x1f5a <menuPollButtons>
	}
    1e5a:	d0 cf       	rjmp	.-96     	; 0x1dfc <main+0x172>

00001e5c <renderMenu>:
}

/*************************************************************************
 Basic render menu function, responsible for rendering the menu
*************************************************************************/
static void renderMenu(){
    1e5c:	ef 92       	push	r14
    1e5e:	ff 92       	push	r15
    1e60:	0f 93       	push	r16
    1e62:	1f 93       	push	r17
    1e64:	cf 93       	push	r28
    1e66:	df 93       	push	r29
	lcd_clrscr();
    1e68:	0e 94 11 09 	call	0x1222	; 0x1222 <lcd_clrscr>

	MENU_ITEM *items = menuItemsGetHomeMenu();
    1e6c:	0e 94 8b 18 	call	0x3116	; 0x3116 <menuItemsGetHomeMenu>
    1e70:	ec 01       	movw	r28, r24
	uint8_t max_options = menuItemsGetHomeMenuSize();
    1e72:	0e 94 8e 18 	call	0x311c	; 0x311c <menuItemsGetHomeMenuSize>

	if(current_state->level != MENU_LEVEL_1){
    1e76:	e0 91 1b 01 	lds	r30, 0x011B	; 0x80011b <current_state>
    1e7a:	f0 91 1c 01 	lds	r31, 0x011C	; 0x80011c <current_state+0x1>
    1e7e:	96 81       	ldd	r25, Z+6	; 0x06
    1e80:	99 23       	and	r25, r25
    1e82:	a1 f0       	breq	.+40     	; 0x1eac <renderMenu+0x50>
		MENU_ITEM *previous_item = menu_states[current_state->prev_state->level].current_item;
    1e84:	a0 81       	ld	r26, Z
    1e86:	b1 81       	ldd	r27, Z+1	; 0x01
    1e88:	16 96       	adiw	r26, 0x06	; 6
    1e8a:	ac 91       	ld	r26, X
    1e8c:	87 e0       	ldi	r24, 0x07	; 7
    1e8e:	a8 9f       	mul	r26, r24
    1e90:	d0 01       	movw	r26, r0
    1e92:	11 24       	eor	r1, r1
    1e94:	a3 5e       	subi	r26, 0xE3	; 227
    1e96:	be 4f       	sbci	r27, 0xFE	; 254
    1e98:	12 96       	adiw	r26, 0x02	; 2
    1e9a:	0d 90       	ld	r0, X+
    1e9c:	bc 91       	ld	r27, X
    1e9e:	a0 2d       	mov	r26, r0
		items = previous_item->submenu;
    1ea0:	17 96       	adiw	r26, 0x07	; 7
    1ea2:	cd 91       	ld	r28, X+
    1ea4:	dc 91       	ld	r29, X
    1ea6:	18 97       	sbiw	r26, 0x08	; 8
		max_options = previous_item->submenu_length;
    1ea8:	16 96       	adiw	r26, 0x06	; 6
    1eaa:	8c 91       	ld	r24, X
	}

	uint8_t first_item = current_state->current_item_idx - current_state->cursor_line;
    1eac:	24 81       	ldd	r18, Z+4	; 0x04
    1eae:	95 81       	ldd	r25, Z+5	; 0x05
    1eb0:	29 1b       	sub	r18, r25

	for(int i=0; i<max_options && i<LCD_LINES; i++){
    1eb2:	e8 2e       	mov	r14, r24
    1eb4:	f1 2c       	mov	r15, r1
    1eb6:	1e 14       	cp	r1, r14
    1eb8:	1f 04       	cpc	r1, r15
    1eba:	a4 f5       	brge	.+104    	; 0x1f24 <renderMenu+0xc8>
    1ebc:	30 e0       	ldi	r19, 0x00	; 0
    1ebe:	89 01       	movw	r16, r18
    1ec0:	00 0f       	add	r16, r16
    1ec2:	11 1f       	adc	r17, r17
    1ec4:	00 0f       	add	r16, r16
    1ec6:	11 1f       	adc	r17, r17
    1ec8:	00 0f       	add	r16, r16
    1eca:	11 1f       	adc	r17, r17
    1ecc:	20 0f       	add	r18, r16
    1ece:	31 1f       	adc	r19, r17
    1ed0:	8e 01       	movw	r16, r28
    1ed2:	02 0f       	add	r16, r18
    1ed4:	13 1f       	adc	r17, r19
    1ed6:	c0 e0       	ldi	r28, 0x00	; 0
    1ed8:	d0 e0       	ldi	r29, 0x00	; 0
		lcd_gotoxy(0, i);
    1eda:	6c 2f       	mov	r22, r28
    1edc:	80 e0       	ldi	r24, 0x00	; 0
    1ede:	0e 94 fb 08 	call	0x11f6	; 0x11f6 <lcd_gotoxy>
		if(i==current_state->cursor_line) lcd_putc('>');
    1ee2:	e0 91 1b 01 	lds	r30, 0x011B	; 0x80011b <current_state>
    1ee6:	f0 91 1c 01 	lds	r31, 0x011C	; 0x80011c <current_state+0x1>
    1eea:	85 81       	ldd	r24, Z+5	; 0x05
    1eec:	90 e0       	ldi	r25, 0x00	; 0
    1eee:	8c 17       	cp	r24, r28
    1ef0:	9d 07       	cpc	r25, r29
    1ef2:	21 f4       	brne	.+8      	; 0x1efc <renderMenu+0xa0>
    1ef4:	8e e3       	ldi	r24, 0x3E	; 62
    1ef6:	0e 94 15 09 	call	0x122a	; 0x122a <lcd_putc>
    1efa:	03 c0       	rjmp	.+6      	; 0x1f02 <renderMenu+0xa6>
		else lcd_putc(' ');
    1efc:	80 e2       	ldi	r24, 0x20	; 32
    1efe:	0e 94 15 09 	call	0x122a	; 0x122a <lcd_putc>
		lcd_putc(' ');
    1f02:	80 e2       	ldi	r24, 0x20	; 32
    1f04:	0e 94 15 09 	call	0x122a	; 0x122a <lcd_putc>
		lcd_puts(items[first_item+i].title);
    1f08:	f8 01       	movw	r30, r16
    1f0a:	80 81       	ld	r24, Z
    1f0c:	91 81       	ldd	r25, Z+1	; 0x01
    1f0e:	0e 94 ca 09 	call	0x1394	; 0x1394 <lcd_puts>
		max_options = previous_item->submenu_length;
	}

	uint8_t first_item = current_state->current_item_idx - current_state->cursor_line;

	for(int i=0; i<max_options && i<LCD_LINES; i++){
    1f12:	21 96       	adiw	r28, 0x01	; 1
    1f14:	ce 15       	cp	r28, r14
    1f16:	df 05       	cpc	r29, r15
    1f18:	29 f0       	breq	.+10     	; 0x1f24 <renderMenu+0xc8>
    1f1a:	07 5f       	subi	r16, 0xF7	; 247
    1f1c:	1f 4f       	sbci	r17, 0xFF	; 255
    1f1e:	c4 30       	cpi	r28, 0x04	; 4
    1f20:	d1 05       	cpc	r29, r1
    1f22:	d9 f6       	brne	.-74     	; 0x1eda <renderMenu+0x7e>
		if(i==current_state->cursor_line) lcd_putc('>');
		else lcd_putc(' ');
		lcd_putc(' ');
		lcd_puts(items[first_item+i].title);
	}
}
    1f24:	df 91       	pop	r29
    1f26:	cf 91       	pop	r28
    1f28:	1f 91       	pop	r17
    1f2a:	0f 91       	pop	r16
    1f2c:	ff 90       	pop	r15
    1f2e:	ef 90       	pop	r14
    1f30:	08 95       	ret

00001f32 <menuReset>:
/*
** Public functions accessible from .h file
*/

void menuReset(){
	current_state = &menu_states[MENU_LEVEL_1];
    1f32:	ed e1       	ldi	r30, 0x1D	; 29
    1f34:	f1 e0       	ldi	r31, 0x01	; 1
    1f36:	f0 93 1c 01 	sts	0x011C, r31	; 0x80011c <current_state+0x1>
    1f3a:	e0 93 1b 01 	sts	0x011B, r30	; 0x80011b <current_state>
*/
/*************************************************************************
 Helpers for setting the state properties
*************************************************************************/
static void setState(MENU_STATE *state, MENU_STATE *new_prev_state, MENU_ITEM *new_current_item, uint8_t new_current_item_idx, uint8_t new_cursor_line){
	state->prev_state = new_prev_state;
    1f3e:	11 82       	std	Z+1, r1	; 0x01
    1f40:	10 82       	st	Z, r1
	state->current_item = new_current_item;
    1f42:	13 82       	std	Z+3, r1	; 0x03
    1f44:	12 82       	std	Z+2, r1	; 0x02
	state->current_item_idx = new_current_item_idx;
    1f46:	14 82       	std	Z+4, r1	; 0x04
	state->cursor_line = new_cursor_line;
    1f48:	15 82       	std	Z+5, r1	; 0x05
*/

void menuReset(){
	current_state = &menu_states[MENU_LEVEL_1];
	resetState(current_state);
	renderMenu();
    1f4a:	0e 94 2e 0f 	call	0x1e5c	; 0x1e5c <renderMenu>
    1f4e:	08 95       	ret

00001f50 <menuInit>:
}

void menuInit(){
	menuPortsioInit();
    1f50:	0e 94 90 18 	call	0x3120	; 0x3120 <menuPortsioInit>
	menuReset();
    1f54:	0e 94 99 0f 	call	0x1f32	; 0x1f32 <menuReset>
    1f58:	08 95       	ret

00001f5a <menuPollButtons>:
}

void menuPollButtons(){
    1f5a:	5f 92       	push	r5
    1f5c:	6f 92       	push	r6
    1f5e:	7f 92       	push	r7
    1f60:	8f 92       	push	r8
    1f62:	9f 92       	push	r9
    1f64:	af 92       	push	r10
    1f66:	bf 92       	push	r11
    1f68:	cf 92       	push	r12
    1f6a:	df 92       	push	r13
    1f6c:	ef 92       	push	r14
    1f6e:	ff 92       	push	r15
    1f70:	0f 93       	push	r16
    1f72:	1f 93       	push	r17
    1f74:	cf 93       	push	r28
    1f76:	df 93       	push	r29
    1f78:	c7 e0       	ldi	r28, 0x07	; 7
    1f7a:	d1 e0       	ldi	r29, 0x01	; 1
    1f7c:	0f 2e       	mov	r0, r31
    1f7e:	fb e1       	ldi	r31, 0x1B	; 27
    1f80:	ef 2e       	mov	r14, r31
    1f82:	f1 e0       	ldi	r31, 0x01	; 1
    1f84:	ff 2e       	mov	r15, r31
    1f86:	f0 2d       	mov	r31, r0
	for(uint8_t i=0; i<MENU_BUTTON_ROLE_COUNT; i++){
		MENU_BUTTON *b = &menu_buttons[i];

		b->state = (b->state << 1) | !((MENU_PORTSIO_PIN) & (1<<(b->button_PIN))) | 0XE000;
    1f88:	88 24       	eor	r8, r8
    1f8a:	83 94       	inc	r8
    1f8c:	91 2c       	mov	r9, r1
    1f8e:	61 2c       	mov	r6, r1
    1f90:	71 2c       	mov	r7, r1

		if(b->state == 0xF000){
			b->pressed = true;
    1f92:	55 24       	eor	r5, r5
    1f94:	53 94       	inc	r5

			MENU_ITEM *item = &items[current_state->current_item_idx];
			MENU_STATE *prev_state = current_state;
			if(item->render_callback){
				prev_state->current_item = item;
				current_state = &menu_states[MENU_CALLBACK];
    1f96:	0f 2e       	mov	r0, r31
    1f98:	f9 e3       	ldi	r31, 0x39	; 57
    1f9a:	af 2e       	mov	r10, r31
    1f9c:	f1 e0       	ldi	r31, 0x01	; 1
    1f9e:	bf 2e       	mov	r11, r31
    1fa0:	f0 2d       	mov	r31, r0
*/
/*************************************************************************
 Helpers for setting the state properties
*************************************************************************/
static void setState(MENU_STATE *state, MENU_STATE *new_prev_state, MENU_ITEM *new_current_item, uint8_t new_current_item_idx, uint8_t new_cursor_line){
	state->prev_state = new_prev_state;
    1fa2:	0f 2e       	mov	r0, r31
    1fa4:	fd e1       	ldi	r31, 0x1D	; 29
    1fa6:	cf 2e       	mov	r12, r31
    1fa8:	f1 e0       	ldi	r31, 0x01	; 1
    1faa:	df 2e       	mov	r13, r31
    1fac:	f0 2d       	mov	r31, r0
    1fae:	8e 01       	movw	r16, r28

void menuPollButtons(){
	for(uint8_t i=0; i<MENU_BUTTON_ROLE_COUNT; i++){
		MENU_BUTTON *b = &menu_buttons[i];

		b->state = (b->state << 1) | !((MENU_PORTSIO_PIN) & (1<<(b->button_PIN))) | 0XE000;
    1fb0:	80 b3       	in	r24, 0x10	; 16
    1fb2:	90 e0       	ldi	r25, 0x00	; 0
    1fb4:	09 80       	ldd	r0, Y+1	; 0x01
    1fb6:	02 c0       	rjmp	.+4      	; 0x1fbc <menuPollButtons+0x62>
    1fb8:	95 95       	asr	r25
    1fba:	87 95       	ror	r24
    1fbc:	0a 94       	dec	r0
    1fbe:	e2 f7       	brpl	.-8      	; 0x1fb8 <menuPollButtons+0x5e>
    1fc0:	28 2d       	mov	r18, r8
    1fc2:	39 2d       	mov	r19, r9
    1fc4:	80 ff       	sbrs	r24, 0
    1fc6:	02 c0       	rjmp	.+4      	; 0x1fcc <menuPollButtons+0x72>
    1fc8:	26 2d       	mov	r18, r6
    1fca:	37 2d       	mov	r19, r7
    1fcc:	f8 01       	movw	r30, r16
    1fce:	82 81       	ldd	r24, Z+2	; 0x02
    1fd0:	93 81       	ldd	r25, Z+3	; 0x03
    1fd2:	88 0f       	add	r24, r24
    1fd4:	99 1f       	adc	r25, r25
    1fd6:	90 6e       	ori	r25, 0xE0	; 224
    1fd8:	82 2b       	or	r24, r18
    1fda:	93 2b       	or	r25, r19
    1fdc:	93 83       	std	Z+3, r25	; 0x03
    1fde:	82 83       	std	Z+2, r24	; 0x02

		if(b->state == 0xF000){
    1fe0:	81 15       	cp	r24, r1
    1fe2:	90 4f       	sbci	r25, 0xF0	; 240
    1fe4:	09 f0       	breq	.+2      	; 0x1fe8 <menuPollButtons+0x8e>
    1fe6:	11 c1       	rjmp	.+546    	; 0x220a <menuPollButtons+0x2b0>
			b->pressed = true;
    1fe8:	f8 01       	movw	r30, r16
    1fea:	54 82       	std	Z+4, r5	; 0x04
			MenuTimer = eeprom_read_byte(&eeMenuTimer);
    1fec:	81 e1       	ldi	r24, 0x11	; 17
    1fee:	90 e0       	ldi	r25, 0x00	; 0
    1ff0:	0e 94 d3 1c 	call	0x39a6	; 0x39a6 <eeprom_read_byte>
    1ff4:	80 93 06 01 	sts	0x0106, r24	; 0x800106 <MenuTimer>
			BUZZER_PORT |= (1 << BUZZER_PIN);
    1ff8:	a8 9a       	sbi	0x15, 0	; 21
			if(current_state->level != MENU_CALLBACK){
    1ffa:	a0 91 1b 01 	lds	r26, 0x011B	; 0x80011b <current_state>
    1ffe:	b0 91 1c 01 	lds	r27, 0x011C	; 0x80011c <current_state+0x1>
    2002:	16 96       	adiw	r26, 0x06	; 6
    2004:	9c 91       	ld	r25, X
    2006:	16 97       	sbiw	r26, 0x06	; 6
    2008:	94 30       	cpi	r25, 0x04	; 4
    200a:	09 f4       	brne	.+2      	; 0x200e <menuPollButtons+0xb4>
    200c:	da c0       	rjmp	.+436    	; 0x21c2 <menuPollButtons+0x268>

/***************************************************************************************
 Function to handle basic btn clicks (Executed when menu is not in CALLBACK state)
***************************************************************************************/
static void scrollMenu(MENU_BUTTON *button){
	switch(button->role){
    200e:	f8 01       	movw	r30, r16
    2010:	80 81       	ld	r24, Z
    2012:	81 30       	cpi	r24, 0x01	; 1
    2014:	f9 f0       	breq	.+62     	; 0x2054 <menuPollButtons+0xfa>
    2016:	38 f0       	brcs	.+14     	; 0x2026 <menuPollButtons+0xcc>
    2018:	82 30       	cpi	r24, 0x02	; 2
    201a:	09 f4       	brne	.+2      	; 0x201e <menuPollButtons+0xc4>
    201c:	49 c0       	rjmp	.+146    	; 0x20b0 <menuPollButtons+0x156>
    201e:	83 30       	cpi	r24, 0x03	; 3
    2020:	09 f4       	brne	.+2      	; 0x2024 <menuPollButtons+0xca>
    2022:	a7 c0       	rjmp	.+334    	; 0x2172 <menuPollButtons+0x218>
    2024:	b5 c0       	rjmp	.+362    	; 0x2190 <menuPollButtons+0x236>
		case MENU_UP:
			if(current_state->current_item_idx != 0){
    2026:	14 96       	adiw	r26, 0x04	; 4
    2028:	8c 91       	ld	r24, X
    202a:	14 97       	sbiw	r26, 0x04	; 4
    202c:	88 23       	and	r24, r24
    202e:	09 f4       	brne	.+2      	; 0x2032 <menuPollButtons+0xd8>
    2030:	b8 c0       	rjmp	.+368    	; 0x21a2 <menuPollButtons+0x248>
				if(current_state->cursor_line == 0){
    2032:	15 96       	adiw	r26, 0x05	; 5
    2034:	9c 91       	ld	r25, X
    2036:	15 97       	sbiw	r26, 0x05	; 5
    2038:	91 11       	cpse	r25, r1
    203a:	04 c0       	rjmp	.+8      	; 0x2044 <menuPollButtons+0xea>
					// Move screen
					current_state->current_item_idx -= 1;
    203c:	81 50       	subi	r24, 0x01	; 1
    203e:	14 96       	adiw	r26, 0x04	; 4
    2040:	8c 93       	st	X, r24
    2042:	af c0       	rjmp	.+350    	; 0x21a2 <menuPollButtons+0x248>
				}else{
					// Move cursor
					current_state->cursor_line -= 1;
    2044:	91 50       	subi	r25, 0x01	; 1
    2046:	15 96       	adiw	r26, 0x05	; 5
    2048:	9c 93       	st	X, r25
    204a:	15 97       	sbiw	r26, 0x05	; 5
					current_state->current_item_idx -= 1;
    204c:	81 50       	subi	r24, 0x01	; 1
    204e:	14 96       	adiw	r26, 0x04	; 4
    2050:	8c 93       	st	X, r24
    2052:	a7 c0       	rjmp	.+334    	; 0x21a2 <menuPollButtons+0x248>
				}
			}
			break;
		case MENU_DOWN: {
			uint8_t max_options = menuItemsGetHomeMenuSize();
    2054:	0e 94 8e 18 	call	0x311c	; 0x311c <menuItemsGetHomeMenuSize>
			if(current_state->level != MENU_LEVEL_1){
    2058:	e0 91 1b 01 	lds	r30, 0x011B	; 0x80011b <current_state>
    205c:	f0 91 1c 01 	lds	r31, 0x011C	; 0x80011c <current_state+0x1>
    2060:	96 81       	ldd	r25, Z+6	; 0x06
    2062:	99 23       	and	r25, r25
    2064:	09 f4       	brne	.+2      	; 0x2068 <menuPollButtons+0x10e>
    2066:	da c0       	rjmp	.+436    	; 0x221c <menuPollButtons+0x2c2>
				MENU_ITEM *previous_item = menu_states[current_state->prev_state->level].current_item;
				max_options = previous_item->submenu_length;
			}

			if(current_state->current_item_idx < max_options-1){
    2068:	44 81       	ldd	r20, Z+4	; 0x04
    206a:	24 2f       	mov	r18, r20
    206c:	30 e0       	ldi	r19, 0x00	; 0
			}
			break;
		case MENU_DOWN: {
			uint8_t max_options = menuItemsGetHomeMenuSize();
			if(current_state->level != MENU_LEVEL_1){
				MENU_ITEM *previous_item = menu_states[current_state->prev_state->level].current_item;
    206e:	a0 81       	ld	r26, Z
    2070:	b1 81       	ldd	r27, Z+1	; 0x01
    2072:	16 96       	adiw	r26, 0x06	; 6
    2074:	ac 91       	ld	r26, X
    2076:	87 e0       	ldi	r24, 0x07	; 7
    2078:	a8 9f       	mul	r26, r24
    207a:	d0 01       	movw	r26, r0
    207c:	11 24       	eor	r1, r1
    207e:	a3 5e       	subi	r26, 0xE3	; 227
    2080:	be 4f       	sbci	r27, 0xFE	; 254
				max_options = previous_item->submenu_length;
    2082:	12 96       	adiw	r26, 0x02	; 2
    2084:	0d 90       	ld	r0, X+
    2086:	bc 91       	ld	r27, X
    2088:	a0 2d       	mov	r26, r0
			}

			if(current_state->current_item_idx < max_options-1){
    208a:	16 96       	adiw	r26, 0x06	; 6
    208c:	8c 91       	ld	r24, X
    208e:	90 e0       	ldi	r25, 0x00	; 0
    2090:	01 97       	sbiw	r24, 0x01	; 1
    2092:	28 17       	cp	r18, r24
    2094:	39 07       	cpc	r19, r25
    2096:	0c f0       	brlt	.+2      	; 0x209a <menuPollButtons+0x140>
    2098:	7b c0       	rjmp	.+246    	; 0x2190 <menuPollButtons+0x236>
				if(current_state->cursor_line == LCD_LINES - 1){
    209a:	85 81       	ldd	r24, Z+5	; 0x05
    209c:	83 30       	cpi	r24, 0x03	; 3
    209e:	19 f4       	brne	.+6      	; 0x20a6 <menuPollButtons+0x14c>
					// Move screen
					current_state->current_item_idx += 1;
    20a0:	4f 5f       	subi	r20, 0xFF	; 255
    20a2:	44 83       	std	Z+4, r20	; 0x04
    20a4:	75 c0       	rjmp	.+234    	; 0x2190 <menuPollButtons+0x236>
				}else{
					// Move cursor
					current_state->cursor_line += 1;
    20a6:	8f 5f       	subi	r24, 0xFF	; 255
    20a8:	85 83       	std	Z+5, r24	; 0x05
					current_state->current_item_idx += 1;
    20aa:	4f 5f       	subi	r20, 0xFF	; 255
    20ac:	44 83       	std	Z+4, r20	; 0x04
    20ae:	70 c0       	rjmp	.+224    	; 0x2190 <menuPollButtons+0x236>
				}
			}
			break;
		}
		case MENU_CONFIRM:;
			MENU_ITEM *items = menuItemsGetHomeMenu();
    20b0:	0e 94 8b 18 	call	0x3116	; 0x3116 <menuItemsGetHomeMenu>
			if(current_state->level != MENU_LEVEL_1){
    20b4:	a0 91 1b 01 	lds	r26, 0x011B	; 0x80011b <current_state>
    20b8:	b0 91 1c 01 	lds	r27, 0x011C	; 0x80011c <current_state+0x1>
    20bc:	16 96       	adiw	r26, 0x06	; 6
    20be:	4c 91       	ld	r20, X
    20c0:	16 97       	sbiw	r26, 0x06	; 6
    20c2:	44 23       	and	r20, r20
    20c4:	79 f0       	breq	.+30     	; 0x20e4 <menuPollButtons+0x18a>
				MENU_ITEM *previous_item = menu_states[current_state->prev_state->level].current_item;
    20c6:	ed 91       	ld	r30, X+
    20c8:	fc 91       	ld	r31, X
    20ca:	11 97       	sbiw	r26, 0x01	; 1
    20cc:	e6 81       	ldd	r30, Z+6	; 0x06
    20ce:	27 e0       	ldi	r18, 0x07	; 7
    20d0:	e2 9f       	mul	r30, r18
    20d2:	f0 01       	movw	r30, r0
    20d4:	11 24       	eor	r1, r1
    20d6:	e3 5e       	subi	r30, 0xE3	; 227
    20d8:	fe 4f       	sbci	r31, 0xFE	; 254
				items = previous_item->submenu;
    20da:	02 80       	ldd	r0, Z+2	; 0x02
    20dc:	f3 81       	ldd	r31, Z+3	; 0x03
    20de:	e0 2d       	mov	r30, r0
    20e0:	87 81       	ldd	r24, Z+7	; 0x07
    20e2:	90 85       	ldd	r25, Z+8	; 0x08
			}

			MENU_ITEM *item = &items[current_state->current_item_idx];
    20e4:	14 96       	adiw	r26, 0x04	; 4
    20e6:	5c 91       	ld	r21, X
    20e8:	14 97       	sbiw	r26, 0x04	; 4
    20ea:	25 2f       	mov	r18, r21
    20ec:	30 e0       	ldi	r19, 0x00	; 0
    20ee:	f9 01       	movw	r30, r18
    20f0:	ee 0f       	add	r30, r30
    20f2:	ff 1f       	adc	r31, r31
    20f4:	ee 0f       	add	r30, r30
    20f6:	ff 1f       	adc	r31, r31
    20f8:	ee 0f       	add	r30, r30
    20fa:	ff 1f       	adc	r31, r31
    20fc:	2e 0f       	add	r18, r30
    20fe:	3f 1f       	adc	r19, r31
    2100:	28 0f       	add	r18, r24
    2102:	39 1f       	adc	r19, r25
			MENU_STATE *prev_state = current_state;
			if(item->render_callback){
    2104:	f9 01       	movw	r30, r18
    2106:	82 81       	ldd	r24, Z+2	; 0x02
    2108:	93 81       	ldd	r25, Z+3	; 0x03
    210a:	89 2b       	or	r24, r25
    210c:	81 f0       	breq	.+32     	; 0x212e <menuPollButtons+0x1d4>
				prev_state->current_item = item;
    210e:	13 96       	adiw	r26, 0x03	; 3
    2110:	3c 93       	st	X, r19
    2112:	2e 93       	st	-X, r18
    2114:	12 97       	sbiw	r26, 0x02	; 2
				current_state = &menu_states[MENU_CALLBACK];
    2116:	b0 92 1c 01 	sts	0x011C, r11	; 0x80011c <current_state+0x1>
    211a:	a0 92 1b 01 	sts	0x011B, r10	; 0x80011b <current_state>
*/
/*************************************************************************
 Helpers for setting the state properties
*************************************************************************/
static void setState(MENU_STATE *state, MENU_STATE *new_prev_state, MENU_ITEM *new_current_item, uint8_t new_current_item_idx, uint8_t new_cursor_line){
	state->prev_state = new_prev_state;
    211e:	f6 01       	movw	r30, r12
    2120:	b5 8f       	std	Z+29, r27	; 0x1d
    2122:	a4 8f       	std	Z+28, r26	; 0x1c
	state->current_item = new_current_item;
    2124:	37 8f       	std	Z+31, r19	; 0x1f
    2126:	26 8f       	std	Z+30, r18	; 0x1e
	state->current_item_idx = new_current_item_idx;
    2128:	50 a3       	std	Z+32, r21	; 0x20
	state->cursor_line = new_cursor_line;
    212a:	11 a2       	std	Z+33, r1	; 0x21
    212c:	31 c0       	rjmp	.+98     	; 0x2190 <menuPollButtons+0x236>
			MENU_STATE *prev_state = current_state;
			if(item->render_callback){
				prev_state->current_item = item;
				current_state = &menu_states[MENU_CALLBACK];
				setState(current_state, prev_state, prev_state->current_item, prev_state->current_item_idx, 0);
			}else if(item->submenu){
    212e:	f9 01       	movw	r30, r18
    2130:	87 81       	ldd	r24, Z+7	; 0x07
    2132:	90 85       	ldd	r25, Z+8	; 0x08
    2134:	89 2b       	or	r24, r25
    2136:	61 f1       	breq	.+88     	; 0x2190 <menuPollButtons+0x236>
				prev_state->current_item = item;
    2138:	13 96       	adiw	r26, 0x03	; 3
    213a:	3c 93       	st	X, r19
    213c:	2e 93       	st	-X, r18
    213e:	12 97       	sbiw	r26, 0x02	; 2
				current_state = &menu_states[current_state->level + 1];
    2140:	84 2f       	mov	r24, r20
    2142:	90 e0       	ldi	r25, 0x00	; 0
    2144:	01 96       	adiw	r24, 0x01	; 1
    2146:	fc 01       	movw	r30, r24
    2148:	ee 0f       	add	r30, r30
    214a:	ff 1f       	adc	r31, r31
    214c:	ee 0f       	add	r30, r30
    214e:	ff 1f       	adc	r31, r31
    2150:	ee 0f       	add	r30, r30
    2152:	ff 1f       	adc	r31, r31
    2154:	e8 1b       	sub	r30, r24
    2156:	f9 0b       	sbc	r31, r25
    2158:	e3 5e       	subi	r30, 0xE3	; 227
    215a:	fe 4f       	sbci	r31, 0xFE	; 254
    215c:	f0 93 1c 01 	sts	0x011C, r31	; 0x80011c <current_state+0x1>
    2160:	e0 93 1b 01 	sts	0x011B, r30	; 0x80011b <current_state>
*/
/*************************************************************************
 Helpers for setting the state properties
*************************************************************************/
static void setState(MENU_STATE *state, MENU_STATE *new_prev_state, MENU_ITEM *new_current_item, uint8_t new_current_item_idx, uint8_t new_cursor_line){
	state->prev_state = new_prev_state;
    2164:	b1 83       	std	Z+1, r27	; 0x01
    2166:	a0 83       	st	Z, r26
	state->current_item = new_current_item;
    2168:	13 82       	std	Z+3, r1	; 0x03
    216a:	12 82       	std	Z+2, r1	; 0x02
	state->current_item_idx = new_current_item_idx;
    216c:	14 82       	std	Z+4, r1	; 0x04
	state->cursor_line = new_cursor_line;
    216e:	15 82       	std	Z+5, r1	; 0x05
    2170:	0f c0       	rjmp	.+30     	; 0x2190 <menuPollButtons+0x236>
				current_state = &menu_states[current_state->level + 1];
				setState(current_state, prev_state, NULL, 0, 0);
			}
			break;
		case MENU_CANCEL:
			if(current_state->level != MENU_LEVEL_1){
    2172:	99 23       	and	r25, r25
    2174:	b1 f0       	breq	.+44     	; 0x21a2 <menuPollButtons+0x248>
				current_state = &menu_states[current_state->prev_state->level];
    2176:	ed 91       	ld	r30, X+
    2178:	fc 91       	ld	r31, X
    217a:	86 81       	ldd	r24, Z+6	; 0x06
    217c:	f7 e0       	ldi	r31, 0x07	; 7
    217e:	8f 9f       	mul	r24, r31
    2180:	c0 01       	movw	r24, r0
    2182:	11 24       	eor	r1, r1
    2184:	83 5e       	subi	r24, 0xE3	; 227
    2186:	9e 4f       	sbci	r25, 0xFE	; 254
    2188:	90 93 1c 01 	sts	0x011C, r25	; 0x80011c <current_state+0x1>
    218c:	80 93 1b 01 	sts	0x011B, r24	; 0x80011b <current_state>
			}
			break;
	}
	if(current_state->level != MENU_CALLBACK){
    2190:	a0 91 1b 01 	lds	r26, 0x011B	; 0x80011b <current_state>
    2194:	b0 91 1c 01 	lds	r27, 0x011C	; 0x80011c <current_state+0x1>
    2198:	16 96       	adiw	r26, 0x06	; 6
    219a:	8c 91       	ld	r24, X
    219c:	16 97       	sbiw	r26, 0x06	; 6
    219e:	84 30       	cpi	r24, 0x04	; 4
    21a0:	19 f0       	breq	.+6      	; 0x21a8 <menuPollButtons+0x24e>
		renderMenu();
    21a2:	0e 94 2e 0f 	call	0x1e5c	; 0x1e5c <renderMenu>
    21a6:	34 c0       	rjmp	.+104    	; 0x2210 <menuPollButtons+0x2b6>
	}else{
		current_state->prev_state->current_item->render_callback(current_state->current_item_idx);
    21a8:	ed 91       	ld	r30, X+
    21aa:	fc 91       	ld	r31, X
    21ac:	11 97       	sbiw	r26, 0x01	; 1
    21ae:	02 80       	ldd	r0, Z+2	; 0x02
    21b0:	f3 81       	ldd	r31, Z+3	; 0x03
    21b2:	e0 2d       	mov	r30, r0
    21b4:	02 80       	ldd	r0, Z+2	; 0x02
    21b6:	f3 81       	ldd	r31, Z+3	; 0x03
    21b8:	e0 2d       	mov	r30, r0
    21ba:	14 96       	adiw	r26, 0x04	; 4
    21bc:	8c 91       	ld	r24, X
    21be:	09 95       	icall
    21c0:	27 c0       	rjmp	.+78     	; 0x2210 <menuPollButtons+0x2b6>
			MenuTimer = eeprom_read_byte(&eeMenuTimer);
			BUZZER_PORT |= (1 << BUZZER_PIN);
			if(current_state->level != MENU_CALLBACK){
				scrollMenu(b);
			}else{
				bool exited = current_state->prev_state->current_item->btn_handle_callback(b, current_state->current_item_idx);
    21c2:	ed 91       	ld	r30, X+
    21c4:	fc 91       	ld	r31, X
    21c6:	11 97       	sbiw	r26, 0x01	; 1
    21c8:	02 80       	ldd	r0, Z+2	; 0x02
    21ca:	f3 81       	ldd	r31, Z+3	; 0x03
    21cc:	e0 2d       	mov	r30, r0
    21ce:	04 80       	ldd	r0, Z+4	; 0x04
    21d0:	f5 81       	ldd	r31, Z+5	; 0x05
    21d2:	e0 2d       	mov	r30, r0
    21d4:	14 96       	adiw	r26, 0x04	; 4
    21d6:	6c 91       	ld	r22, X
    21d8:	c8 01       	movw	r24, r16
    21da:	09 95       	icall
				if(exited){
    21dc:	88 23       	and	r24, r24
    21de:	c1 f0       	breq	.+48     	; 0x2210 <menuPollButtons+0x2b6>
					current_state = &menu_states[current_state->prev_state->level];
    21e0:	e0 91 1b 01 	lds	r30, 0x011B	; 0x80011b <current_state>
    21e4:	f0 91 1c 01 	lds	r31, 0x011C	; 0x80011c <current_state+0x1>
    21e8:	01 90       	ld	r0, Z+
    21ea:	f0 81       	ld	r31, Z
    21ec:	e0 2d       	mov	r30, r0
    21ee:	86 81       	ldd	r24, Z+6	; 0x06
    21f0:	27 e0       	ldi	r18, 0x07	; 7
    21f2:	82 9f       	mul	r24, r18
    21f4:	c0 01       	movw	r24, r0
    21f6:	11 24       	eor	r1, r1
    21f8:	83 5e       	subi	r24, 0xE3	; 227
    21fa:	9e 4f       	sbci	r25, 0xFE	; 254
    21fc:	90 93 1c 01 	sts	0x011C, r25	; 0x80011c <current_state+0x1>
    2200:	80 93 1b 01 	sts	0x011B, r24	; 0x80011b <current_state>
					renderMenu();
    2204:	0e 94 2e 0f 	call	0x1e5c	; 0x1e5c <renderMenu>
    2208:	03 c0       	rjmp	.+6      	; 0x2210 <menuPollButtons+0x2b6>
				}
			}
		}else{
			b->pressed = false;
    220a:	f8 01       	movw	r30, r16
    220c:	14 82       	std	Z+4, r1	; 0x04
			BUZZER_PORT &= ~(1 << BUZZER_PIN);
    220e:	a8 98       	cbi	0x15, 0	; 21
    2210:	25 96       	adiw	r28, 0x05	; 5
	menuPortsioInit();
	menuReset();
}

void menuPollButtons(){
	for(uint8_t i=0; i<MENU_BUTTON_ROLE_COUNT; i++){
    2212:	ce 15       	cp	r28, r14
    2214:	df 05       	cpc	r29, r15
    2216:	09 f0       	breq	.+2      	; 0x221a <menuPollButtons+0x2c0>
    2218:	ca ce       	rjmp	.-620    	; 0x1fae <menuPollButtons+0x54>
    221a:	0a c0       	rjmp	.+20     	; 0x2230 <menuPollButtons+0x2d6>
			if(current_state->level != MENU_LEVEL_1){
				MENU_ITEM *previous_item = menu_states[current_state->prev_state->level].current_item;
				max_options = previous_item->submenu_length;
			}

			if(current_state->current_item_idx < max_options-1){
    221c:	44 81       	ldd	r20, Z+4	; 0x04
    221e:	24 2f       	mov	r18, r20
    2220:	30 e0       	ldi	r19, 0x00	; 0
    2222:	90 e0       	ldi	r25, 0x00	; 0
    2224:	01 97       	sbiw	r24, 0x01	; 1
    2226:	28 17       	cp	r18, r24
    2228:	39 07       	cpc	r19, r25
    222a:	0c f4       	brge	.+2      	; 0x222e <menuPollButtons+0x2d4>
    222c:	36 cf       	rjmp	.-404    	; 0x209a <menuPollButtons+0x140>
    222e:	b9 cf       	rjmp	.-142    	; 0x21a2 <menuPollButtons+0x248>
		}else{
			b->pressed = false;
			BUZZER_PORT &= ~(1 << BUZZER_PIN);
		}
	}
}
    2230:	df 91       	pop	r29
    2232:	cf 91       	pop	r28
    2234:	1f 91       	pop	r17
    2236:	0f 91       	pop	r16
    2238:	ff 90       	pop	r15
    223a:	ef 90       	pop	r14
    223c:	df 90       	pop	r13
    223e:	cf 90       	pop	r12
    2240:	bf 90       	pop	r11
    2242:	af 90       	pop	r10
    2244:	9f 90       	pop	r9
    2246:	8f 90       	pop	r8
    2248:	7f 90       	pop	r7
    224a:	6f 90       	pop	r6
    224c:	5f 90       	pop	r5
    224e:	08 95       	ret

00002250 <BME280Temp_CallbackRender>:

/*************************************************************************
 BME 280, submenu definitions
*************************************************************************/
void BME280Temp_CallbackRender(uint8_t which){
	lcd_clrscr();
    2250:	0e 94 11 09 	call	0x1222	; 0x1222 <lcd_clrscr>
	lcd_puts_hu(PSTR("BME280 hm"));
    2254:	87 ed       	ldi	r24, 0xD7	; 215
    2256:	95 e0       	ldi	r25, 0x05	; 5
    2258:	0e 94 fc 09 	call	0x13f8	; 0x13f8 <lcd_puts_hu>
	lcd_gotoxy(0,1);
    225c:	61 e0       	ldi	r22, 0x01	; 1
    225e:	80 e0       	ldi	r24, 0x00	; 0
    2260:	0e 94 fb 08 	call	0x11f6	; 0x11f6 <lcd_gotoxy>
	lcd_puts(BME280TempBuf);
    2264:	87 e4       	ldi	r24, 0x47	; 71
    2266:	95 e0       	ldi	r25, 0x05	; 5
    2268:	0e 94 ca 09 	call	0x1394	; 0x1394 <lcd_puts>
    226c:	08 95       	ret

0000226e <BME280Temp_Callback>:

}

bool BME280Temp_Callback(MENU_BUTTON *button, uint8_t column){
	switch(button->role){
    226e:	fc 01       	movw	r30, r24
    2270:	80 81       	ld	r24, Z
    2272:	83 30       	cpi	r24, 0x03	; 3
    2274:	29 f0       	breq	.+10     	; 0x2280 <BME280Temp_Callback+0x12>
    2276:	86 2f       	mov	r24, r22
			break;
		case MENU_CANCEL:
			return true;
	}

	BME280Temp_CallbackRender(column);
    2278:	0e 94 28 11 	call	0x2250	; 0x2250 <BME280Temp_CallbackRender>
	return false;
    227c:	80 e0       	ldi	r24, 0x00	; 0
    227e:	08 95       	ret
		case MENU_DOWN:
			break;
		case MENU_CONFIRM:
			break;
		case MENU_CANCEL:
			return true;
    2280:	81 e0       	ldi	r24, 0x01	; 1
	}

	BME280Temp_CallbackRender(column);
	return false;
}
    2282:	08 95       	ret

00002284 <BME280Humidity_CallbackRender>:

void BME280Humidity_CallbackRender(uint8_t which){
	lcd_clrscr();
    2284:	0e 94 11 09 	call	0x1222	; 0x1222 <lcd_clrscr>
	lcd_puts_hu(PSTR("BME280 pra"));
    2288:	8b ec       	ldi	r24, 0xCB	; 203
    228a:	95 e0       	ldi	r25, 0x05	; 5
    228c:	0e 94 fc 09 	call	0x13f8	; 0x13f8 <lcd_puts_hu>
	lcd_gotoxy(0,1);
    2290:	61 e0       	ldi	r22, 0x01	; 1
    2292:	80 e0       	ldi	r24, 0x00	; 0
    2294:	0e 94 fb 08 	call	0x11f6	; 0x11f6 <lcd_gotoxy>
	lcd_puts(BME280HumidBuf);
    2298:	85 e5       	ldi	r24, 0x55	; 85
    229a:	95 e0       	ldi	r25, 0x05	; 5
    229c:	0e 94 ca 09 	call	0x1394	; 0x1394 <lcd_puts>
    22a0:	08 95       	ret

000022a2 <BME280Humidity_Callback>:
}

bool BME280Humidity_Callback(MENU_BUTTON *button, uint8_t column){
	switch(button->role){
    22a2:	fc 01       	movw	r30, r24
    22a4:	80 81       	ld	r24, Z
    22a6:	83 30       	cpi	r24, 0x03	; 3
    22a8:	29 f0       	breq	.+10     	; 0x22b4 <BME280Humidity_Callback+0x12>
    22aa:	86 2f       	mov	r24, r22
			break;
		case MENU_CANCEL:
			return true;
	}

	BME280Humidity_CallbackRender(column);
    22ac:	0e 94 42 11 	call	0x2284	; 0x2284 <BME280Humidity_CallbackRender>
	return false;
    22b0:	80 e0       	ldi	r24, 0x00	; 0
    22b2:	08 95       	ret
		case MENU_DOWN:
			break;
		case MENU_CONFIRM:
			break;
		case MENU_CANCEL:
			return true;
    22b4:	81 e0       	ldi	r24, 0x01	; 1
	}

	BME280Humidity_CallbackRender(column);
	return false;
}
    22b6:	08 95       	ret

000022b8 <SwitchOnOutdoorTempMin_CallbackRender>:

void SwitchOnOutdoorTempMin_CallbackRender(uint8_t which){
    22b8:	cf 93       	push	r28
    22ba:	df 93       	push	r29
    22bc:	00 d0       	rcall	.+0      	; 0x22be <SwitchOnOutdoorTempMin_CallbackRender+0x6>
    22be:	00 d0       	rcall	.+0      	; 0x22c0 <SwitchOnOutdoorTempMin_CallbackRender+0x8>
    22c0:	1f 92       	push	r1
    22c2:	cd b7       	in	r28, 0x3d	; 61
    22c4:	de b7       	in	r29, 0x3e	; 62
	lcd_clrscr();
    22c6:	0e 94 11 09 	call	0x1222	; 0x1222 <lcd_clrscr>
	lcd_puts_hu(PSTR("Kls min hm"));
    22ca:	8d eb       	ldi	r24, 0xBD	; 189
    22cc:	95 e0       	ldi	r25, 0x05	; 5
    22ce:	0e 94 fc 09 	call	0x13f8	; 0x13f8 <lcd_puts_hu>
	lcd_gotoxy(0,1);
    22d2:	61 e0       	ldi	r22, 0x01	; 1
    22d4:	80 e0       	ldi	r24, 0x00	; 0
    22d6:	0e 94 fb 08 	call	0x11f6	; 0x11f6 <lcd_gotoxy>
    22da:	4a e0       	ldi	r20, 0x0A	; 10
    22dc:	be 01       	movw	r22, r28
    22de:	6f 5f       	subi	r22, 0xFF	; 255
    22e0:	7f 4f       	sbci	r23, 0xFF	; 255
    22e2:	80 91 34 05 	lds	r24, 0x0534	; 0x800534 <SwitchOnOutdoorTempMin>
    22e6:	90 91 35 05 	lds	r25, 0x0535	; 0x800535 <SwitchOnOutdoorTempMin+0x1>
    22ea:	0e 94 9e 1c 	call	0x393c	; 0x393c <__itoa_ncheck>
	char buf[5];
	itoa(SwitchOnOutdoorTempMin, buf, 10);
	lcd_puts(buf); 
    22ee:	ce 01       	movw	r24, r28
    22f0:	01 96       	adiw	r24, 0x01	; 1
    22f2:	0e 94 ca 09 	call	0x1394	; 0x1394 <lcd_puts>
}
    22f6:	0f 90       	pop	r0
    22f8:	0f 90       	pop	r0
    22fa:	0f 90       	pop	r0
    22fc:	0f 90       	pop	r0
    22fe:	0f 90       	pop	r0
    2300:	df 91       	pop	r29
    2302:	cf 91       	pop	r28
    2304:	08 95       	ret

00002306 <DHWTempDesired_CallbackRender>:

	DHWTempActual_CallbackRender(column);
	return false;
}

void DHWTempDesired_CallbackRender(uint8_t which){
    2306:	cf 93       	push	r28
    2308:	df 93       	push	r29
    230a:	00 d0       	rcall	.+0      	; 0x230c <DHWTempDesired_CallbackRender+0x6>
    230c:	00 d0       	rcall	.+0      	; 0x230e <DHWTempDesired_CallbackRender+0x8>
    230e:	cd b7       	in	r28, 0x3d	; 61
    2310:	de b7       	in	r29, 0x3e	; 62
    2312:	80 91 3e 05 	lds	r24, 0x053E	; 0x80053e <DHWTempDesired>
    2316:	4a e0       	ldi	r20, 0x0A	; 10
    2318:	be 01       	movw	r22, r28
    231a:	6f 5f       	subi	r22, 0xFF	; 255
    231c:	7f 4f       	sbci	r23, 0xFF	; 255
    231e:	90 e0       	ldi	r25, 0x00	; 0
    2320:	0e 94 9e 1c 	call	0x393c	; 0x393c <__itoa_ncheck>
	char buf[4];
	itoa(DHWTempDesired, buf, 10);
	lcd_clrscr();
    2324:	0e 94 11 09 	call	0x1222	; 0x1222 <lcd_clrscr>
	lcd_puts_hu(PSTR("HMV kvnt hm"));
    2328:	8d e9       	ldi	r24, 0x9D	; 157
    232a:	95 e0       	ldi	r25, 0x05	; 5
    232c:	0e 94 fc 09 	call	0x13f8	; 0x13f8 <lcd_puts_hu>
	lcd_gotoxy(0,1);
    2330:	61 e0       	ldi	r22, 0x01	; 1
    2332:	80 e0       	ldi	r24, 0x00	; 0
    2334:	0e 94 fb 08 	call	0x11f6	; 0x11f6 <lcd_gotoxy>
	lcd_puts(buf);
    2338:	ce 01       	movw	r24, r28
    233a:	01 96       	adiw	r24, 0x01	; 1
    233c:	0e 94 ca 09 	call	0x1394	; 0x1394 <lcd_puts>
}
    2340:	0f 90       	pop	r0
    2342:	0f 90       	pop	r0
    2344:	0f 90       	pop	r0
    2346:	0f 90       	pop	r0
    2348:	df 91       	pop	r29
    234a:	cf 91       	pop	r28
    234c:	08 95       	ret

0000234e <DHWTempMin_CallbackRender>:
	}
	DHWTempDesired_CallbackRender(column);
	return false;
}

void DHWTempMin_CallbackRender(uint8_t which){
    234e:	cf 93       	push	r28
    2350:	df 93       	push	r29
    2352:	00 d0       	rcall	.+0      	; 0x2354 <DHWTempMin_CallbackRender+0x6>
    2354:	00 d0       	rcall	.+0      	; 0x2356 <DHWTempMin_CallbackRender+0x8>
    2356:	cd b7       	in	r28, 0x3d	; 61
    2358:	de b7       	in	r29, 0x3e	; 62
    235a:	80 91 3a 05 	lds	r24, 0x053A	; 0x80053a <DHWTempMin>
    235e:	4a e0       	ldi	r20, 0x0A	; 10
    2360:	be 01       	movw	r22, r28
    2362:	6f 5f       	subi	r22, 0xFF	; 255
    2364:	7f 4f       	sbci	r23, 0xFF	; 255
    2366:	90 e0       	ldi	r25, 0x00	; 0
    2368:	0e 94 9e 1c 	call	0x393c	; 0x393c <__itoa_ncheck>
	char buf[4];
	itoa(DHWTempMin, buf, 10);
	lcd_clrscr();
    236c:	0e 94 11 09 	call	0x1222	; 0x1222 <lcd_clrscr>
	lcd_puts_hu(PSTR("HMV min hm"));
    2370:	81 e9       	ldi	r24, 0x91	; 145
    2372:	95 e0       	ldi	r25, 0x05	; 5
    2374:	0e 94 fc 09 	call	0x13f8	; 0x13f8 <lcd_puts_hu>
	lcd_gotoxy(0,1);
    2378:	61 e0       	ldi	r22, 0x01	; 1
    237a:	80 e0       	ldi	r24, 0x00	; 0
    237c:	0e 94 fb 08 	call	0x11f6	; 0x11f6 <lcd_gotoxy>
	lcd_puts(buf);
    2380:	ce 01       	movw	r24, r28
    2382:	01 96       	adiw	r24, 0x01	; 1
    2384:	0e 94 ca 09 	call	0x1394	; 0x1394 <lcd_puts>
}
    2388:	0f 90       	pop	r0
    238a:	0f 90       	pop	r0
    238c:	0f 90       	pop	r0
    238e:	0f 90       	pop	r0
    2390:	df 91       	pop	r29
    2392:	cf 91       	pop	r28
    2394:	08 95       	ret

00002396 <DHWSensor_CallbackRender>:

	DHWTempMin_CallbackRender(column);
	return false;
}

void DHWSensor_CallbackRender(uint8_t which){
    2396:	cf 93       	push	r28
    2398:	df 93       	push	r29
    239a:	00 d0       	rcall	.+0      	; 0x239c <DHWSensor_CallbackRender+0x6>
    239c:	00 d0       	rcall	.+0      	; 0x239e <DHWSensor_CallbackRender+0x8>
    239e:	cd b7       	in	r28, 0x3d	; 61
    23a0:	de b7       	in	r29, 0x3e	; 62
	lcd_clrscr();
    23a2:	0e 94 11 09 	call	0x1222	; 0x1222 <lcd_clrscr>
	lcd_puts_hu(PSTR("HMV szenzor ID"));
    23a6:	82 e8       	ldi	r24, 0x82	; 130
    23a8:	95 e0       	ldi	r25, 0x05	; 5
    23aa:	0e 94 fc 09 	call	0x13f8	; 0x13f8 <lcd_puts_hu>
	lcd_gotoxy(0,1);
    23ae:	61 e0       	ldi	r22, 0x01	; 1
    23b0:	80 e0       	ldi	r24, 0x00	; 0
    23b2:	0e 94 fb 08 	call	0x11f6	; 0x11f6 <lcd_gotoxy>
    23b6:	80 91 70 04 	lds	r24, 0x0470	; 0x800470 <DHWSensorID>
    23ba:	4a e0       	ldi	r20, 0x0A	; 10
    23bc:	be 01       	movw	r22, r28
    23be:	6f 5f       	subi	r22, 0xFF	; 255
    23c0:	7f 4f       	sbci	r23, 0xFF	; 255
    23c2:	90 e0       	ldi	r25, 0x00	; 0
    23c4:	0e 94 9e 1c 	call	0x393c	; 0x393c <__itoa_ncheck>
	char buf[4];
	itoa(DHWSensorID, buf, 10);
	lcd_puts(buf);
    23c8:	ce 01       	movw	r24, r28
    23ca:	01 96       	adiw	r24, 0x01	; 1
    23cc:	0e 94 ca 09 	call	0x1394	; 0x1394 <lcd_puts>
}
    23d0:	0f 90       	pop	r0
    23d2:	0f 90       	pop	r0
    23d4:	0f 90       	pop	r0
    23d6:	0f 90       	pop	r0
    23d8:	df 91       	pop	r29
    23da:	cf 91       	pop	r28
    23dc:	08 95       	ret

000023de <DHWMinTime_CallbackRender>:

	DHWSensor_CallbackRender(column);
	return false;
}

void DHWMinTime_CallbackRender(uint8_t which){
    23de:	cf 93       	push	r28
    23e0:	df 93       	push	r29
    23e2:	00 d0       	rcall	.+0      	; 0x23e4 <DHWMinTime_CallbackRender+0x6>
    23e4:	00 d0       	rcall	.+0      	; 0x23e6 <DHWMinTime_CallbackRender+0x8>
    23e6:	1f 92       	push	r1
    23e8:	cd b7       	in	r28, 0x3d	; 61
    23ea:	de b7       	in	r29, 0x3e	; 62
	lcd_clrscr();
    23ec:	0e 94 11 09 	call	0x1222	; 0x1222 <lcd_clrscr>
	lcd_puts_hu(PSTR("Min id"));
    23f0:	8a e7       	ldi	r24, 0x7A	; 122
    23f2:	95 e0       	ldi	r25, 0x05	; 5
    23f4:	0e 94 fc 09 	call	0x13f8	; 0x13f8 <lcd_puts_hu>
	lcd_gotoxy(0,1);
    23f8:	61 e0       	ldi	r22, 0x01	; 1
    23fa:	80 e0       	ldi	r24, 0x00	; 0
    23fc:	0e 94 fb 08 	call	0x11f6	; 0x11f6 <lcd_gotoxy>
    2400:	4a e0       	ldi	r20, 0x0A	; 10
    2402:	be 01       	movw	r22, r28
    2404:	6f 5f       	subi	r22, 0xFF	; 255
    2406:	7f 4f       	sbci	r23, 0xFF	; 255
    2408:	80 91 45 05 	lds	r24, 0x0545	; 0x800545 <DHWMinTime>
    240c:	90 91 46 05 	lds	r25, 0x0546	; 0x800546 <DHWMinTime+0x1>
    2410:	0e 94 9e 1c 	call	0x393c	; 0x393c <__itoa_ncheck>
	char buf[5];
	itoa(DHWMinTime, buf, 10);
	lcd_puts(buf);
    2414:	ce 01       	movw	r24, r28
    2416:	01 96       	adiw	r24, 0x01	; 1
    2418:	0e 94 ca 09 	call	0x1394	; 0x1394 <lcd_puts>
}
    241c:	0f 90       	pop	r0
    241e:	0f 90       	pop	r0
    2420:	0f 90       	pop	r0
    2422:	0f 90       	pop	r0
    2424:	0f 90       	pop	r0
    2426:	df 91       	pop	r29
    2428:	cf 91       	pop	r28
    242a:	08 95       	ret

0000242c <DHWMaxTime_CallbackRender>:

	DHWMinTime_CallbackRender(column);
	return false;
}

void DHWMaxTime_CallbackRender(uint8_t which){
    242c:	cf 93       	push	r28
    242e:	df 93       	push	r29
    2430:	00 d0       	rcall	.+0      	; 0x2432 <DHWMaxTime_CallbackRender+0x6>
    2432:	00 d0       	rcall	.+0      	; 0x2434 <DHWMaxTime_CallbackRender+0x8>
    2434:	1f 92       	push	r1
    2436:	cd b7       	in	r28, 0x3d	; 61
    2438:	de b7       	in	r29, 0x3e	; 62
	lcd_clrscr();
    243a:	0e 94 11 09 	call	0x1222	; 0x1222 <lcd_clrscr>
	lcd_puts_hu(PSTR("Max id"));
    243e:	82 e7       	ldi	r24, 0x72	; 114
    2440:	95 e0       	ldi	r25, 0x05	; 5
    2442:	0e 94 fc 09 	call	0x13f8	; 0x13f8 <lcd_puts_hu>
	lcd_gotoxy(0,1);
    2446:	61 e0       	ldi	r22, 0x01	; 1
    2448:	80 e0       	ldi	r24, 0x00	; 0
    244a:	0e 94 fb 08 	call	0x11f6	; 0x11f6 <lcd_gotoxy>
    244e:	4a e0       	ldi	r20, 0x0A	; 10
    2450:	be 01       	movw	r22, r28
    2452:	6f 5f       	subi	r22, 0xFF	; 255
    2454:	7f 4f       	sbci	r23, 0xFF	; 255
    2456:	80 91 50 05 	lds	r24, 0x0550	; 0x800550 <DHWMaxTime>
    245a:	90 91 51 05 	lds	r25, 0x0551	; 0x800551 <DHWMaxTime+0x1>
    245e:	0e 94 9e 1c 	call	0x393c	; 0x393c <__itoa_ncheck>
	char buf[5];
	itoa(DHWMaxTime, buf, 10);
	lcd_puts(buf);
    2462:	ce 01       	movw	r24, r28
    2464:	01 96       	adiw	r24, 0x01	; 1
    2466:	0e 94 ca 09 	call	0x1394	; 0x1394 <lcd_puts>
}
    246a:	0f 90       	pop	r0
    246c:	0f 90       	pop	r0
    246e:	0f 90       	pop	r0
    2470:	0f 90       	pop	r0
    2472:	0f 90       	pop	r0
    2474:	df 91       	pop	r29
    2476:	cf 91       	pop	r28
    2478:	08 95       	ret

0000247a <ForwardHeatTemp_CallbackRender>:

	BufferTempActual_CallbackRender(column);
	return false;
}

void ForwardHeatTemp_CallbackRender(uint8_t which){
    247a:	cf 93       	push	r28
    247c:	df 93       	push	r29
    247e:	00 d0       	rcall	.+0      	; 0x2480 <ForwardHeatTemp_CallbackRender+0x6>
    2480:	00 d0       	rcall	.+0      	; 0x2482 <ForwardHeatTemp_CallbackRender+0x8>
    2482:	cd b7       	in	r28, 0x3d	; 61
    2484:	de b7       	in	r29, 0x3e	; 62
    2486:	80 91 03 01 	lds	r24, 0x0103	; 0x800103 <ForwardHeatTemp>
    248a:	4a e0       	ldi	r20, 0x0A	; 10
    248c:	be 01       	movw	r22, r28
    248e:	6f 5f       	subi	r22, 0xFF	; 255
    2490:	7f 4f       	sbci	r23, 0xFF	; 255
    2492:	90 e0       	ldi	r25, 0x00	; 0
    2494:	0e 94 9e 1c 	call	0x393c	; 0x393c <__itoa_ncheck>
	char buf[4];
	itoa(ForwardHeatTemp, buf, 10);
	lcd_clrscr();
    2498:	0e 94 11 09 	call	0x1222	; 0x1222 <lcd_clrscr>
	lcd_puts_hu(PSTR("Elremen hm"));
    249c:	80 e5       	ldi	r24, 0x50	; 80
    249e:	95 e0       	ldi	r25, 0x05	; 5
    24a0:	0e 94 fc 09 	call	0x13f8	; 0x13f8 <lcd_puts_hu>
	lcd_gotoxy(0,1);
    24a4:	61 e0       	ldi	r22, 0x01	; 1
    24a6:	80 e0       	ldi	r24, 0x00	; 0
    24a8:	0e 94 fb 08 	call	0x11f6	; 0x11f6 <lcd_gotoxy>
	lcd_puts(buf);
    24ac:	ce 01       	movw	r24, r28
    24ae:	01 96       	adiw	r24, 0x01	; 1
    24b0:	0e 94 ca 09 	call	0x1394	; 0x1394 <lcd_puts>
}
    24b4:	0f 90       	pop	r0
    24b6:	0f 90       	pop	r0
    24b8:	0f 90       	pop	r0
    24ba:	0f 90       	pop	r0
    24bc:	df 91       	pop	r29
    24be:	cf 91       	pop	r28
    24c0:	08 95       	ret

000024c2 <BufferSensor_CallbackRender>:

	ForwardHeatTemp_CallbackRender(column);
	return false;
}

void BufferSensor_CallbackRender(uint8_t which){
    24c2:	cf 93       	push	r28
    24c4:	df 93       	push	r29
    24c6:	00 d0       	rcall	.+0      	; 0x24c8 <BufferSensor_CallbackRender+0x6>
    24c8:	00 d0       	rcall	.+0      	; 0x24ca <BufferSensor_CallbackRender+0x8>
    24ca:	cd b7       	in	r28, 0x3d	; 61
    24cc:	de b7       	in	r29, 0x3e	; 62
	lcd_clrscr();
    24ce:	0e 94 11 09 	call	0x1222	; 0x1222 <lcd_clrscr>
	lcd_puts_hu(PSTR("Puffer szenzor ID"));
    24d2:	8e e3       	ldi	r24, 0x3E	; 62
    24d4:	95 e0       	ldi	r25, 0x05	; 5
    24d6:	0e 94 fc 09 	call	0x13f8	; 0x13f8 <lcd_puts_hu>
	lcd_gotoxy(0,1);
    24da:	61 e0       	ldi	r22, 0x01	; 1
    24dc:	80 e0       	ldi	r24, 0x00	; 0
    24de:	0e 94 fb 08 	call	0x11f6	; 0x11f6 <lcd_gotoxy>
    24e2:	80 91 02 01 	lds	r24, 0x0102	; 0x800102 <BufferSensorID>
    24e6:	4a e0       	ldi	r20, 0x0A	; 10
    24e8:	be 01       	movw	r22, r28
    24ea:	6f 5f       	subi	r22, 0xFF	; 255
    24ec:	7f 4f       	sbci	r23, 0xFF	; 255
    24ee:	90 e0       	ldi	r25, 0x00	; 0
    24f0:	0e 94 9e 1c 	call	0x393c	; 0x393c <__itoa_ncheck>
	char buf[4];
	itoa(BufferSensorID, buf, 10);
	lcd_puts(buf);
    24f4:	ce 01       	movw	r24, r28
    24f6:	01 96       	adiw	r24, 0x01	; 1
    24f8:	0e 94 ca 09 	call	0x1394	; 0x1394 <lcd_puts>
}
    24fc:	0f 90       	pop	r0
    24fe:	0f 90       	pop	r0
    2500:	0f 90       	pop	r0
    2502:	0f 90       	pop	r0
    2504:	df 91       	pop	r29
    2506:	cf 91       	pop	r28
    2508:	08 95       	ret

0000250a <GarageTempMin_CallbackRender>:

	GarageTempActual_CallbackRender(column);
	return false;
}

void GarageTempMin_CallbackRender(uint8_t which){
    250a:	cf 93       	push	r28
    250c:	df 93       	push	r29
    250e:	00 d0       	rcall	.+0      	; 0x2510 <GarageTempMin_CallbackRender+0x6>
    2510:	00 d0       	rcall	.+0      	; 0x2512 <GarageTempMin_CallbackRender+0x8>
    2512:	cd b7       	in	r28, 0x3d	; 61
    2514:	de b7       	in	r29, 0x3e	; 62
    2516:	80 91 40 05 	lds	r24, 0x0540	; 0x800540 <GarageTempMin>
    251a:	4a e0       	ldi	r20, 0x0A	; 10
    251c:	be 01       	movw	r22, r28
    251e:	6f 5f       	subi	r22, 0xFF	; 255
    2520:	7f 4f       	sbci	r23, 0xFF	; 255
    2522:	90 e0       	ldi	r25, 0x00	; 0
    2524:	0e 94 9e 1c 	call	0x393c	; 0x393c <__itoa_ncheck>
	char buf[4];
	itoa(GarageTempMin, buf, 10);
	lcd_clrscr();
    2528:	0e 94 11 09 	call	0x1222	; 0x1222 <lcd_clrscr>
	lcd_puts_hu(PSTR("Gphz min hm"));
    252c:	8b e1       	ldi	r24, 0x1B	; 27
    252e:	95 e0       	ldi	r25, 0x05	; 5
    2530:	0e 94 fc 09 	call	0x13f8	; 0x13f8 <lcd_puts_hu>
	lcd_gotoxy(0,1);
    2534:	61 e0       	ldi	r22, 0x01	; 1
    2536:	80 e0       	ldi	r24, 0x00	; 0
    2538:	0e 94 fb 08 	call	0x11f6	; 0x11f6 <lcd_gotoxy>
	lcd_puts(buf);
    253c:	ce 01       	movw	r24, r28
    253e:	01 96       	adiw	r24, 0x01	; 1
    2540:	0e 94 ca 09 	call	0x1394	; 0x1394 <lcd_puts>
}
    2544:	0f 90       	pop	r0
    2546:	0f 90       	pop	r0
    2548:	0f 90       	pop	r0
    254a:	0f 90       	pop	r0
    254c:	df 91       	pop	r29
    254e:	cf 91       	pop	r28
    2550:	08 95       	ret

00002552 <GarageTempDesired_CallbackRender>:

	GarageTempMin_CallbackRender(column);
	return false;
}

void GarageTempDesired_CallbackRender(uint8_t which){
    2552:	cf 93       	push	r28
    2554:	df 93       	push	r29
    2556:	cd b7       	in	r28, 0x3d	; 61
    2558:	de b7       	in	r29, 0x3e	; 62
    255a:	27 97       	sbiw	r28, 0x07	; 7
    255c:	0f b6       	in	r0, 0x3f	; 63
    255e:	f8 94       	cli
    2560:	de bf       	out	0x3e, r29	; 62
    2562:	0f be       	out	0x3f, r0	; 63
    2564:	cd bf       	out	0x3d, r28	; 61
    2566:	80 91 2b 05 	lds	r24, 0x052B	; 0x80052b <GarageTempDesired>
    256a:	4a e0       	ldi	r20, 0x0A	; 10
    256c:	be 01       	movw	r22, r28
    256e:	6f 5f       	subi	r22, 0xFF	; 255
    2570:	7f 4f       	sbci	r23, 0xFF	; 255
    2572:	90 e0       	ldi	r25, 0x00	; 0
    2574:	0e 94 9e 1c 	call	0x393c	; 0x393c <__itoa_ncheck>
	char buf[7];
	itoa(GarageTempDesired, buf, 10);
	lcd_clrscr();
    2578:	0e 94 11 09 	call	0x1222	; 0x1222 <lcd_clrscr>
	lcd_puts_hu(PSTR("Gphz kvnt hm"));
    257c:	89 e0       	ldi	r24, 0x09	; 9
    257e:	95 e0       	ldi	r25, 0x05	; 5
    2580:	0e 94 fc 09 	call	0x13f8	; 0x13f8 <lcd_puts_hu>
	lcd_gotoxy(0,1);
    2584:	61 e0       	ldi	r22, 0x01	; 1
    2586:	80 e0       	ldi	r24, 0x00	; 0
    2588:	0e 94 fb 08 	call	0x11f6	; 0x11f6 <lcd_gotoxy>
	lcd_puts(buf);
    258c:	ce 01       	movw	r24, r28
    258e:	01 96       	adiw	r24, 0x01	; 1
    2590:	0e 94 ca 09 	call	0x1394	; 0x1394 <lcd_puts>
}
    2594:	27 96       	adiw	r28, 0x07	; 7
    2596:	0f b6       	in	r0, 0x3f	; 63
    2598:	f8 94       	cli
    259a:	de bf       	out	0x3e, r29	; 62
    259c:	0f be       	out	0x3f, r0	; 63
    259e:	cd bf       	out	0x3d, r28	; 61
    25a0:	df 91       	pop	r29
    25a2:	cf 91       	pop	r28
    25a4:	08 95       	ret

000025a6 <GarageSensor_CallbackRender>:
	}
	GarageTempDesired_CallbackRender(column);
	return false;
}

void GarageSensor_CallbackRender(uint8_t which){
    25a6:	cf 93       	push	r28
    25a8:	df 93       	push	r29
    25aa:	00 d0       	rcall	.+0      	; 0x25ac <GarageSensor_CallbackRender+0x6>
    25ac:	00 d0       	rcall	.+0      	; 0x25ae <GarageSensor_CallbackRender+0x8>
    25ae:	cd b7       	in	r28, 0x3d	; 61
    25b0:	de b7       	in	r29, 0x3e	; 62
	lcd_clrscr();
    25b2:	0e 94 11 09 	call	0x1222	; 0x1222 <lcd_clrscr>
	lcd_puts_hu(PSTR("Gphz szenzor ID"));
    25b6:	87 ef       	ldi	r24, 0xF7	; 247
    25b8:	94 e0       	ldi	r25, 0x04	; 4
    25ba:	0e 94 fc 09 	call	0x13f8	; 0x13f8 <lcd_puts_hu>
	lcd_gotoxy(0,1);
    25be:	61 e0       	ldi	r22, 0x01	; 1
    25c0:	80 e0       	ldi	r24, 0x00	; 0
    25c2:	0e 94 fb 08 	call	0x11f6	; 0x11f6 <lcd_gotoxy>
    25c6:	80 91 01 01 	lds	r24, 0x0101	; 0x800101 <GarageSensorID>
    25ca:	4a e0       	ldi	r20, 0x0A	; 10
    25cc:	be 01       	movw	r22, r28
    25ce:	6f 5f       	subi	r22, 0xFF	; 255
    25d0:	7f 4f       	sbci	r23, 0xFF	; 255
    25d2:	90 e0       	ldi	r25, 0x00	; 0
    25d4:	0e 94 9e 1c 	call	0x393c	; 0x393c <__itoa_ncheck>
	char buf[4];
	itoa(GarageSensorID, buf, 10);
	lcd_puts(buf);
    25d8:	ce 01       	movw	r24, r28
    25da:	01 96       	adiw	r24, 0x01	; 1
    25dc:	0e 94 ca 09 	call	0x1394	; 0x1394 <lcd_puts>
}
    25e0:	0f 90       	pop	r0
    25e2:	0f 90       	pop	r0
    25e4:	0f 90       	pop	r0
    25e6:	0f 90       	pop	r0
    25e8:	df 91       	pop	r29
    25ea:	cf 91       	pop	r28
    25ec:	08 95       	ret

000025ee <DebugMode_CallbackRender>:
};

/*************************************************************************
 Menu Settings, submenu definition
*************************************************************************/
void DebugMode_CallbackRender(uint8_t which){
    25ee:	cf 93       	push	r28
    25f0:	df 93       	push	r29
    25f2:	00 d0       	rcall	.+0      	; 0x25f4 <DebugMode_CallbackRender+0x6>
    25f4:	00 d0       	rcall	.+0      	; 0x25f6 <DebugMode_CallbackRender+0x8>
    25f6:	cd b7       	in	r28, 0x3d	; 61
    25f8:	de b7       	in	r29, 0x3e	; 62
	lcd_clrscr();
    25fa:	0e 94 11 09 	call	0x1222	; 0x1222 <lcd_clrscr>
	lcd_puts_hu(PSTR("Tesztzem"));
    25fe:	8f e5       	ldi	r24, 0x5F	; 95
    2600:	94 e0       	ldi	r25, 0x04	; 4
    2602:	0e 94 fc 09 	call	0x13f8	; 0x13f8 <lcd_puts_hu>
	lcd_gotoxy(0,1);
    2606:	61 e0       	ldi	r22, 0x01	; 1
    2608:	80 e0       	ldi	r24, 0x00	; 0
    260a:	0e 94 fb 08 	call	0x11f6	; 0x11f6 <lcd_gotoxy>
    260e:	80 91 73 04 	lds	r24, 0x0473	; 0x800473 <DebugMode>
    2612:	4a e0       	ldi	r20, 0x0A	; 10
    2614:	be 01       	movw	r22, r28
    2616:	6f 5f       	subi	r22, 0xFF	; 255
    2618:	7f 4f       	sbci	r23, 0xFF	; 255
    261a:	90 e0       	ldi	r25, 0x00	; 0
    261c:	0e 94 9e 1c 	call	0x393c	; 0x393c <__itoa_ncheck>
	char buf[4];
	itoa(DebugMode, buf, 10);
	lcd_puts(buf);
    2620:	ce 01       	movw	r24, r28
    2622:	01 96       	adiw	r24, 0x01	; 1
    2624:	0e 94 ca 09 	call	0x1394	; 0x1394 <lcd_puts>
}
    2628:	0f 90       	pop	r0
    262a:	0f 90       	pop	r0
    262c:	0f 90       	pop	r0
    262e:	0f 90       	pop	r0
    2630:	df 91       	pop	r29
    2632:	cf 91       	pop	r28
    2634:	08 95       	ret

00002636 <MenuTimer_CallbackRender>:

	DebugMode_CallbackRender(column);
	return false;
}

void MenuTimer_CallbackRender(uint8_t which){
    2636:	cf 93       	push	r28
    2638:	df 93       	push	r29
    263a:	00 d0       	rcall	.+0      	; 0x263c <MenuTimer_CallbackRender+0x6>
    263c:	00 d0       	rcall	.+0      	; 0x263e <MenuTimer_CallbackRender+0x8>
    263e:	cd b7       	in	r28, 0x3d	; 61
    2640:	de b7       	in	r29, 0x3e	; 62
	lcd_clrscr();
    2642:	0e 94 11 09 	call	0x1222	; 0x1222 <lcd_clrscr>
	lcd_puts_hu(PSTR("Men idzt (mp)"));
    2646:	8d e4       	ldi	r24, 0x4D	; 77
    2648:	94 e0       	ldi	r25, 0x04	; 4
    264a:	0e 94 fc 09 	call	0x13f8	; 0x13f8 <lcd_puts_hu>
    264e:	80 91 06 01 	lds	r24, 0x0106	; 0x800106 <MenuTimer>
    2652:	4a e0       	ldi	r20, 0x0A	; 10
    2654:	be 01       	movw	r22, r28
    2656:	6f 5f       	subi	r22, 0xFF	; 255
    2658:	7f 4f       	sbci	r23, 0xFF	; 255
    265a:	90 e0       	ldi	r25, 0x00	; 0
    265c:	0e 94 9e 1c 	call	0x393c	; 0x393c <__itoa_ncheck>
	char buf[4];
	itoa(MenuTimer, buf, 10);
	lcd_puts(buf);
    2660:	ce 01       	movw	r24, r28
    2662:	01 96       	adiw	r24, 0x01	; 1
    2664:	0e 94 ca 09 	call	0x1394	; 0x1394 <lcd_puts>
}
    2668:	0f 90       	pop	r0
    266a:	0f 90       	pop	r0
    266c:	0f 90       	pop	r0
    266e:	0f 90       	pop	r0
    2670:	df 91       	pop	r29
    2672:	cf 91       	pop	r28
    2674:	08 95       	ret

00002676 <LCDBackLight_CallbackRender>:

	MenuTimer_CallbackRender(column);
	return false;
}

void LCDBackLight_CallbackRender(uint8_t which){
    2676:	cf 93       	push	r28
    2678:	df 93       	push	r29
    267a:	00 d0       	rcall	.+0      	; 0x267c <LCDBackLight_CallbackRender+0x6>
    267c:	00 d0       	rcall	.+0      	; 0x267e <LCDBackLight_CallbackRender+0x8>
    267e:	cd b7       	in	r28, 0x3d	; 61
    2680:	de b7       	in	r29, 0x3e	; 62
	lcd_clrscr();
    2682:	0e 94 11 09 	call	0x1222	; 0x1222 <lcd_clrscr>
	lcd_puts_hu(PSTR("LCD httr"));
    2686:	82 e4       	ldi	r24, 0x42	; 66
    2688:	94 e0       	ldi	r25, 0x04	; 4
    268a:	0e 94 fc 09 	call	0x13f8	; 0x13f8 <lcd_puts_hu>
	lcd_gotoxy(0,1);
    268e:	61 e0       	ldi	r22, 0x01	; 1
    2690:	80 e0       	ldi	r24, 0x00	; 0
    2692:	0e 94 fb 08 	call	0x11f6	; 0x11f6 <lcd_gotoxy>
    2696:	80 91 72 04 	lds	r24, 0x0472	; 0x800472 <LCDBackLight>
    269a:	4a e0       	ldi	r20, 0x0A	; 10
    269c:	be 01       	movw	r22, r28
    269e:	6f 5f       	subi	r22, 0xFF	; 255
    26a0:	7f 4f       	sbci	r23, 0xFF	; 255
    26a2:	90 e0       	ldi	r25, 0x00	; 0
    26a4:	0e 94 9e 1c 	call	0x393c	; 0x393c <__itoa_ncheck>
	char buf[4];
	itoa(LCDBackLight, buf, 10);
	lcd_puts(buf);
    26a8:	ce 01       	movw	r24, r28
    26aa:	01 96       	adiw	r24, 0x01	; 1
    26ac:	0e 94 ca 09 	call	0x1394	; 0x1394 <lcd_puts>
}
    26b0:	0f 90       	pop	r0
    26b2:	0f 90       	pop	r0
    26b4:	0f 90       	pop	r0
    26b6:	0f 90       	pop	r0
    26b8:	df 91       	pop	r29
    26ba:	cf 91       	pop	r28
    26bc:	08 95       	ret

000026be <PumpPlusTime_CallbackRender>:

	LCDBackLight_CallbackRender(column);
	return false;
}

void PumpPlusTime_CallbackRender(uint8_t which){
    26be:	cf 93       	push	r28
    26c0:	df 93       	push	r29
    26c2:	00 d0       	rcall	.+0      	; 0x26c4 <PumpPlusTime_CallbackRender+0x6>
    26c4:	00 d0       	rcall	.+0      	; 0x26c6 <PumpPlusTime_CallbackRender+0x8>
    26c6:	cd b7       	in	r28, 0x3d	; 61
    26c8:	de b7       	in	r29, 0x3e	; 62
	lcd_clrscr();
    26ca:	0e 94 11 09 	call	0x1222	; 0x1222 <lcd_clrscr>
	lcd_puts_hu(PSTR("Szivatty utnfuts"));
    26ce:	8e e2       	ldi	r24, 0x2E	; 46
    26d0:	94 e0       	ldi	r25, 0x04	; 4
    26d2:	0e 94 fc 09 	call	0x13f8	; 0x13f8 <lcd_puts_hu>
	lcd_gotoxy(0,1);
    26d6:	61 e0       	ldi	r22, 0x01	; 1
    26d8:	80 e0       	ldi	r24, 0x00	; 0
    26da:	0e 94 fb 08 	call	0x11f6	; 0x11f6 <lcd_gotoxy>
    26de:	4a e0       	ldi	r20, 0x0A	; 10
    26e0:	be 01       	movw	r22, r28
    26e2:	6f 5f       	subi	r22, 0xFF	; 255
    26e4:	7f 4f       	sbci	r23, 0xFF	; 255
    26e6:	80 91 04 01 	lds	r24, 0x0104	; 0x800104 <PumpPlusTime>
    26ea:	90 91 05 01 	lds	r25, 0x0105	; 0x800105 <PumpPlusTime+0x1>
    26ee:	0e 94 9e 1c 	call	0x393c	; 0x393c <__itoa_ncheck>
	char buf[4];
	itoa(PumpPlusTime, buf, 10);
	lcd_puts(buf);
    26f2:	ce 01       	movw	r24, r28
    26f4:	01 96       	adiw	r24, 0x01	; 1
    26f6:	0e 94 ca 09 	call	0x1394	; 0x1394 <lcd_puts>
}
    26fa:	0f 90       	pop	r0
    26fc:	0f 90       	pop	r0
    26fe:	0f 90       	pop	r0
    2700:	0f 90       	pop	r0
    2702:	df 91       	pop	r29
    2704:	cf 91       	pop	r28
    2706:	08 95       	ret

00002708 <ClockHour_CallbackRender>:

	PumpPlusTime_CallbackRender(column);
	return false;
}

void ClockHour_CallbackRender(uint8_t which){
    2708:	cf 93       	push	r28
    270a:	df 93       	push	r29
    270c:	00 d0       	rcall	.+0      	; 0x270e <ClockHour_CallbackRender+0x6>
    270e:	1f 92       	push	r1
    2710:	cd b7       	in	r28, 0x3d	; 61
    2712:	de b7       	in	r29, 0x3e	; 62
	lcd_clrscr();
    2714:	0e 94 11 09 	call	0x1222	; 0x1222 <lcd_clrscr>
	lcd_puts_hu(PSTR("ra"));
    2718:	8a e2       	ldi	r24, 0x2A	; 42
    271a:	94 e0       	ldi	r25, 0x04	; 4
    271c:	0e 94 fc 09 	call	0x13f8	; 0x13f8 <lcd_puts_hu>
	lcd_gotoxy(0,1);
    2720:	61 e0       	ldi	r22, 0x01	; 1
    2722:	80 e0       	ldi	r24, 0x00	; 0
    2724:	0e 94 fb 08 	call	0x11f6	; 0x11f6 <lcd_gotoxy>
    2728:	80 91 6f 04 	lds	r24, 0x046F	; 0x80046f <Hour>
    272c:	4a e0       	ldi	r20, 0x0A	; 10
    272e:	be 01       	movw	r22, r28
    2730:	6f 5f       	subi	r22, 0xFF	; 255
    2732:	7f 4f       	sbci	r23, 0xFF	; 255
    2734:	90 e0       	ldi	r25, 0x00	; 0
    2736:	0e 94 9e 1c 	call	0x393c	; 0x393c <__itoa_ncheck>
	char buf[3];
	itoa(Hour, buf, 10);
	lcd_puts(buf);
    273a:	ce 01       	movw	r24, r28
    273c:	01 96       	adiw	r24, 0x01	; 1
    273e:	0e 94 ca 09 	call	0x1394	; 0x1394 <lcd_puts>
}
    2742:	0f 90       	pop	r0
    2744:	0f 90       	pop	r0
    2746:	0f 90       	pop	r0
    2748:	df 91       	pop	r29
    274a:	cf 91       	pop	r28
    274c:	08 95       	ret

0000274e <ClockHour_ActionCallback>:

bool ClockHour_ActionCallback(MENU_BUTTON *button, uint8_t column){
	switch(button->role){
    274e:	fc 01       	movw	r30, r24
    2750:	80 81       	ld	r24, Z
    2752:	81 30       	cpi	r24, 0x01	; 1
    2754:	79 f0       	breq	.+30     	; 0x2774 <ClockHour_ActionCallback+0x26>
    2756:	18 f0       	brcs	.+6      	; 0x275e <ClockHour_ActionCallback+0x10>
    2758:	84 30       	cpi	r24, 0x04	; 4
    275a:	b0 f4       	brcc	.+44     	; 0x2788 <ClockHour_ActionCallback+0x3a>
    275c:	1a c0       	rjmp	.+52     	; 0x2792 <ClockHour_ActionCallback+0x44>
		case MENU_UP:
			if (++Hour == 24)
    275e:	80 91 6f 04 	lds	r24, 0x046F	; 0x80046f <Hour>
    2762:	8f 5f       	subi	r24, 0xFF	; 255
    2764:	88 31       	cpi	r24, 0x18	; 24
    2766:	19 f0       	breq	.+6      	; 0x276e <ClockHour_ActionCallback+0x20>
    2768:	80 93 6f 04 	sts	0x046F, r24	; 0x80046f <Hour>
    276c:	0d c0       	rjmp	.+26     	; 0x2788 <ClockHour_ActionCallback+0x3a>
				Hour = 0;
    276e:	10 92 6f 04 	sts	0x046F, r1	; 0x80046f <Hour>
    2772:	0a c0       	rjmp	.+20     	; 0x2788 <ClockHour_ActionCallback+0x3a>
			break;
		case MENU_DOWN:
			if (--Hour == 255)
    2774:	80 91 6f 04 	lds	r24, 0x046F	; 0x80046f <Hour>
    2778:	81 50       	subi	r24, 0x01	; 1
    277a:	18 f0       	brcs	.+6      	; 0x2782 <ClockHour_ActionCallback+0x34>
    277c:	80 93 6f 04 	sts	0x046F, r24	; 0x80046f <Hour>
    2780:	03 c0       	rjmp	.+6      	; 0x2788 <ClockHour_ActionCallback+0x3a>
				Hour = 23;
    2782:	87 e1       	ldi	r24, 0x17	; 23
    2784:	80 93 6f 04 	sts	0x046F, r24	; 0x80046f <Hour>
    2788:	86 2f       	mov	r24, r22
		case MENU_CONFIRM:
		case MENU_CANCEL:
			return true;
	}

	ClockHour_CallbackRender(column);
    278a:	0e 94 84 13 	call	0x2708	; 0x2708 <ClockHour_CallbackRender>
	return false;
    278e:	80 e0       	ldi	r24, 0x00	; 0
    2790:	08 95       	ret
			if (--Hour == 255)
				Hour = 23;
			break;
		case MENU_CONFIRM:
		case MENU_CANCEL:
			return true;
    2792:	81 e0       	ldi	r24, 0x01	; 1
	}

	ClockHour_CallbackRender(column);
	return false;
}
    2794:	08 95       	ret

00002796 <SwitchOnOutdoorTempMin_ActionCallback>:
	itoa(SwitchOnOutdoorTempMin, buf, 10);
	lcd_puts(buf); 
}

bool SwitchOnOutdoorTempMin_ActionCallback(MENU_BUTTON *button, uint8_t column){
	switch(button->role){
    2796:	fc 01       	movw	r30, r24
    2798:	90 81       	ld	r25, Z
    279a:	91 30       	cpi	r25, 0x01	; 1
    279c:	d9 f0       	breq	.+54     	; 0x27d4 <SwitchOnOutdoorTempMin_ActionCallback+0x3e>
    279e:	28 f0       	brcs	.+10     	; 0x27aa <SwitchOnOutdoorTempMin_ActionCallback+0x14>
    27a0:	92 30       	cpi	r25, 0x02	; 2
    27a2:	69 f1       	breq	.+90     	; 0x27fe <SwitchOnOutdoorTempMin_ActionCallback+0x68>
    27a4:	93 30       	cpi	r25, 0x03	; 3
    27a6:	d1 f1       	breq	.+116    	; 0x281c <SwitchOnOutdoorTempMin_ActionCallback+0x86>
    27a8:	34 c0       	rjmp	.+104    	; 0x2812 <SwitchOnOutdoorTempMin_ActionCallback+0x7c>
		case MENU_UP:
			if (SwitchOnOutdoorTempMin > 3490)
    27aa:	80 91 34 05 	lds	r24, 0x0534	; 0x800534 <SwitchOnOutdoorTempMin>
    27ae:	90 91 35 05 	lds	r25, 0x0535	; 0x800535 <SwitchOnOutdoorTempMin+0x1>
    27b2:	83 3a       	cpi	r24, 0xA3	; 163
    27b4:	fd e0       	ldi	r31, 0x0D	; 13
    27b6:	9f 07       	cpc	r25, r31
    27b8:	38 f0       	brcs	.+14     	; 0x27c8 <SwitchOnOutdoorTempMin_ActionCallback+0x32>
				SwitchOnOutdoorTempMin = 310;
    27ba:	86 e3       	ldi	r24, 0x36	; 54
    27bc:	91 e0       	ldi	r25, 0x01	; 1
    27be:	90 93 35 05 	sts	0x0535, r25	; 0x800535 <SwitchOnOutdoorTempMin+0x1>
    27c2:	80 93 34 05 	sts	0x0534, r24	; 0x800534 <SwitchOnOutdoorTempMin>
    27c6:	25 c0       	rjmp	.+74     	; 0x2812 <SwitchOnOutdoorTempMin_ActionCallback+0x7c>
			else
				SwitchOnOutdoorTempMin += 10;
    27c8:	0a 96       	adiw	r24, 0x0a	; 10
    27ca:	90 93 35 05 	sts	0x0535, r25	; 0x800535 <SwitchOnOutdoorTempMin+0x1>
    27ce:	80 93 34 05 	sts	0x0534, r24	; 0x800534 <SwitchOnOutdoorTempMin>
    27d2:	1f c0       	rjmp	.+62     	; 0x2812 <SwitchOnOutdoorTempMin_ActionCallback+0x7c>
			break;
		case MENU_DOWN:
			if (SwitchOnOutdoorTempMin > 310)
    27d4:	80 91 34 05 	lds	r24, 0x0534	; 0x800534 <SwitchOnOutdoorTempMin>
    27d8:	90 91 35 05 	lds	r25, 0x0535	; 0x800535 <SwitchOnOutdoorTempMin+0x1>
    27dc:	87 33       	cpi	r24, 0x37	; 55
    27de:	21 e0       	ldi	r18, 0x01	; 1
    27e0:	92 07       	cpc	r25, r18
    27e2:	30 f0       	brcs	.+12     	; 0x27f0 <SwitchOnOutdoorTempMin_ActionCallback+0x5a>
				SwitchOnOutdoorTempMin -= 10;
    27e4:	0a 97       	sbiw	r24, 0x0a	; 10
    27e6:	90 93 35 05 	sts	0x0535, r25	; 0x800535 <SwitchOnOutdoorTempMin+0x1>
    27ea:	80 93 34 05 	sts	0x0534, r24	; 0x800534 <SwitchOnOutdoorTempMin>
    27ee:	11 c0       	rjmp	.+34     	; 0x2812 <SwitchOnOutdoorTempMin_ActionCallback+0x7c>
			else
				SwitchOnOutdoorTempMin = 3500;
    27f0:	8c ea       	ldi	r24, 0xAC	; 172
    27f2:	9d e0       	ldi	r25, 0x0D	; 13
    27f4:	90 93 35 05 	sts	0x0535, r25	; 0x800535 <SwitchOnOutdoorTempMin+0x1>
    27f8:	80 93 34 05 	sts	0x0534, r24	; 0x800534 <SwitchOnOutdoorTempMin>
    27fc:	0a c0       	rjmp	.+20     	; 0x2812 <SwitchOnOutdoorTempMin_ActionCallback+0x7c>
			break;
		case MENU_CONFIRM:
			eeprom_update_word(&eeSwitchOnOutdoorTempMin, SwitchOnOutdoorTempMin);
    27fe:	60 91 34 05 	lds	r22, 0x0534	; 0x800534 <SwitchOnOutdoorTempMin>
    2802:	70 91 35 05 	lds	r23, 0x0535	; 0x800535 <SwitchOnOutdoorTempMin+0x1>
    2806:	83 e0       	ldi	r24, 0x03	; 3
    2808:	90 e0       	ldi	r25, 0x00	; 0
    280a:	0e 94 f2 1c 	call	0x39e4	; 0x39e4 <eeprom_update_word>
			return true;
    280e:	81 e0       	ldi	r24, 0x01	; 1
    2810:	08 95       	ret
		case MENU_CANCEL:
			return true;
	}

	SwitchOnOutdoorTempMin_CallbackRender(column);
    2812:	86 2f       	mov	r24, r22
    2814:	0e 94 5c 11 	call	0x22b8	; 0x22b8 <SwitchOnOutdoorTempMin_CallbackRender>
	return false;
    2818:	80 e0       	ldi	r24, 0x00	; 0
    281a:	08 95       	ret
			break;
		case MENU_CONFIRM:
			eeprom_update_word(&eeSwitchOnOutdoorTempMin, SwitchOnOutdoorTempMin);
			return true;
		case MENU_CANCEL:
			return true;
    281c:	81 e0       	ldi	r24, 0x01	; 1
	}

	SwitchOnOutdoorTempMin_CallbackRender(column);
	return false;
}
    281e:	08 95       	ret

00002820 <DHWMinTime_ActionCallback>:
	itoa(DHWMinTime, buf, 10);
	lcd_puts(buf);
}

bool DHWMinTime_ActionCallback(MENU_BUTTON *button, uint8_t column){
	switch(button->role){
    2820:	fc 01       	movw	r30, r24
    2822:	90 81       	ld	r25, Z
    2824:	91 30       	cpi	r25, 0x01	; 1
    2826:	c9 f0       	breq	.+50     	; 0x285a <DHWMinTime_ActionCallback+0x3a>
    2828:	28 f0       	brcs	.+10     	; 0x2834 <DHWMinTime_ActionCallback+0x14>
    282a:	92 30       	cpi	r25, 0x02	; 2
    282c:	59 f1       	breq	.+86     	; 0x2884 <DHWMinTime_ActionCallback+0x64>
    282e:	93 30       	cpi	r25, 0x03	; 3
    2830:	c1 f1       	breq	.+112    	; 0x28a2 <DHWMinTime_ActionCallback+0x82>
    2832:	32 c0       	rjmp	.+100    	; 0x2898 <DHWMinTime_ActionCallback+0x78>
		case MENU_UP:
			if (DHWMinTime < 2340)
    2834:	80 91 45 05 	lds	r24, 0x0545	; 0x800545 <DHWMinTime>
    2838:	90 91 46 05 	lds	r25, 0x0546	; 0x800546 <DHWMinTime+0x1>
    283c:	84 32       	cpi	r24, 0x24	; 36
    283e:	f9 e0       	ldi	r31, 0x09	; 9
    2840:	9f 07       	cpc	r25, r31
    2842:	30 f4       	brcc	.+12     	; 0x2850 <DHWMinTime_ActionCallback+0x30>
				DHWMinTime += 10;
    2844:	0a 96       	adiw	r24, 0x0a	; 10
    2846:	90 93 46 05 	sts	0x0546, r25	; 0x800546 <DHWMinTime+0x1>
    284a:	80 93 45 05 	sts	0x0545, r24	; 0x800545 <DHWMinTime>
    284e:	24 c0       	rjmp	.+72     	; 0x2898 <DHWMinTime_ActionCallback+0x78>
			else
				DHWMinTime = 0;
    2850:	10 92 46 05 	sts	0x0546, r1	; 0x800546 <DHWMinTime+0x1>
    2854:	10 92 45 05 	sts	0x0545, r1	; 0x800545 <DHWMinTime>
    2858:	1f c0       	rjmp	.+62     	; 0x2898 <DHWMinTime_ActionCallback+0x78>
			break;
		case MENU_DOWN:
			if (DHWMinTime > 65525)
    285a:	80 91 45 05 	lds	r24, 0x0545	; 0x800545 <DHWMinTime>
    285e:	90 91 46 05 	lds	r25, 0x0546	; 0x800546 <DHWMinTime+0x1>
    2862:	86 3f       	cpi	r24, 0xF6	; 246
    2864:	2f ef       	ldi	r18, 0xFF	; 255
    2866:	92 07       	cpc	r25, r18
    2868:	38 f0       	brcs	.+14     	; 0x2878 <DHWMinTime_ActionCallback+0x58>
				DHWMinTime = 2350;
    286a:	8e e2       	ldi	r24, 0x2E	; 46
    286c:	99 e0       	ldi	r25, 0x09	; 9
    286e:	90 93 46 05 	sts	0x0546, r25	; 0x800546 <DHWMinTime+0x1>
    2872:	80 93 45 05 	sts	0x0545, r24	; 0x800545 <DHWMinTime>
    2876:	10 c0       	rjmp	.+32     	; 0x2898 <DHWMinTime_ActionCallback+0x78>
			else
				DHWMinTime -= 10;
    2878:	0a 97       	sbiw	r24, 0x0a	; 10
    287a:	90 93 46 05 	sts	0x0546, r25	; 0x800546 <DHWMinTime+0x1>
    287e:	80 93 45 05 	sts	0x0545, r24	; 0x800545 <DHWMinTime>
    2882:	0a c0       	rjmp	.+20     	; 0x2898 <DHWMinTime_ActionCallback+0x78>
			break;
		case MENU_CONFIRM:
		eeprom_update_word(&eeDHWMinTime, DHWMinTime);
    2884:	60 91 45 05 	lds	r22, 0x0545	; 0x800545 <DHWMinTime>
    2888:	70 91 46 05 	lds	r23, 0x0546	; 0x800546 <DHWMinTime+0x1>
    288c:	8a e0       	ldi	r24, 0x0A	; 10
    288e:	90 e0       	ldi	r25, 0x00	; 0
    2890:	0e 94 f2 1c 	call	0x39e4	; 0x39e4 <eeprom_update_word>
		case MENU_CANCEL:
		return true;
    2894:	81 e0       	ldi	r24, 0x01	; 1
    2896:	08 95       	ret
	}

	DHWMinTime_CallbackRender(column);
    2898:	86 2f       	mov	r24, r22
    289a:	0e 94 ef 11 	call	0x23de	; 0x23de <DHWMinTime_CallbackRender>
	return false;
    289e:	80 e0       	ldi	r24, 0x00	; 0
    28a0:	08 95       	ret
				DHWMinTime -= 10;
			break;
		case MENU_CONFIRM:
		eeprom_update_word(&eeDHWMinTime, DHWMinTime);
		case MENU_CANCEL:
		return true;
    28a2:	81 e0       	ldi	r24, 0x01	; 1
	}

	DHWMinTime_CallbackRender(column);
	return false;
}
    28a4:	08 95       	ret

000028a6 <DHWMaxTime_ActionCallback>:
	itoa(DHWMaxTime, buf, 10);
	lcd_puts(buf);
}

bool DHWMaxTime_ActionCallback(MENU_BUTTON *button, uint8_t column){
	switch(button->role){
    28a6:	fc 01       	movw	r30, r24
    28a8:	90 81       	ld	r25, Z
    28aa:	91 30       	cpi	r25, 0x01	; 1
    28ac:	c9 f0       	breq	.+50     	; 0x28e0 <DHWMaxTime_ActionCallback+0x3a>
    28ae:	28 f0       	brcs	.+10     	; 0x28ba <DHWMaxTime_ActionCallback+0x14>
    28b0:	92 30       	cpi	r25, 0x02	; 2
    28b2:	59 f1       	breq	.+86     	; 0x290a <DHWMaxTime_ActionCallback+0x64>
    28b4:	93 30       	cpi	r25, 0x03	; 3
    28b6:	c1 f1       	breq	.+112    	; 0x2928 <DHWMaxTime_ActionCallback+0x82>
    28b8:	32 c0       	rjmp	.+100    	; 0x291e <DHWMaxTime_ActionCallback+0x78>
		case MENU_UP:
			if (DHWMaxTime < 2340)
    28ba:	80 91 50 05 	lds	r24, 0x0550	; 0x800550 <DHWMaxTime>
    28be:	90 91 51 05 	lds	r25, 0x0551	; 0x800551 <DHWMaxTime+0x1>
    28c2:	84 32       	cpi	r24, 0x24	; 36
    28c4:	f9 e0       	ldi	r31, 0x09	; 9
    28c6:	9f 07       	cpc	r25, r31
    28c8:	30 f4       	brcc	.+12     	; 0x28d6 <DHWMaxTime_ActionCallback+0x30>
				DHWMaxTime += 10;
    28ca:	0a 96       	adiw	r24, 0x0a	; 10
    28cc:	90 93 51 05 	sts	0x0551, r25	; 0x800551 <DHWMaxTime+0x1>
    28d0:	80 93 50 05 	sts	0x0550, r24	; 0x800550 <DHWMaxTime>
    28d4:	24 c0       	rjmp	.+72     	; 0x291e <DHWMaxTime_ActionCallback+0x78>
			else
				DHWMaxTime = 0;
    28d6:	10 92 51 05 	sts	0x0551, r1	; 0x800551 <DHWMaxTime+0x1>
    28da:	10 92 50 05 	sts	0x0550, r1	; 0x800550 <DHWMaxTime>
    28de:	1f c0       	rjmp	.+62     	; 0x291e <DHWMaxTime_ActionCallback+0x78>
			break;
		case MENU_DOWN:
			if (DHWMaxTime > 65525)
    28e0:	80 91 50 05 	lds	r24, 0x0550	; 0x800550 <DHWMaxTime>
    28e4:	90 91 51 05 	lds	r25, 0x0551	; 0x800551 <DHWMaxTime+0x1>
    28e8:	86 3f       	cpi	r24, 0xF6	; 246
    28ea:	2f ef       	ldi	r18, 0xFF	; 255
    28ec:	92 07       	cpc	r25, r18
    28ee:	38 f0       	brcs	.+14     	; 0x28fe <DHWMaxTime_ActionCallback+0x58>
				DHWMaxTime = 2350;
    28f0:	8e e2       	ldi	r24, 0x2E	; 46
    28f2:	99 e0       	ldi	r25, 0x09	; 9
    28f4:	90 93 51 05 	sts	0x0551, r25	; 0x800551 <DHWMaxTime+0x1>
    28f8:	80 93 50 05 	sts	0x0550, r24	; 0x800550 <DHWMaxTime>
    28fc:	10 c0       	rjmp	.+32     	; 0x291e <DHWMaxTime_ActionCallback+0x78>
			else
				DHWMaxTime -= 10;
    28fe:	0a 97       	sbiw	r24, 0x0a	; 10
    2900:	90 93 51 05 	sts	0x0551, r25	; 0x800551 <DHWMaxTime+0x1>
    2904:	80 93 50 05 	sts	0x0550, r24	; 0x800550 <DHWMaxTime>
    2908:	0a c0       	rjmp	.+20     	; 0x291e <DHWMaxTime_ActionCallback+0x78>
			break;
		case MENU_CONFIRM:
		eeprom_update_word(&eeDHWMaxTime, DHWMaxTime);
    290a:	60 91 50 05 	lds	r22, 0x0550	; 0x800550 <DHWMaxTime>
    290e:	70 91 51 05 	lds	r23, 0x0551	; 0x800551 <DHWMaxTime+0x1>
    2912:	88 e0       	ldi	r24, 0x08	; 8
    2914:	90 e0       	ldi	r25, 0x00	; 0
    2916:	0e 94 f2 1c 	call	0x39e4	; 0x39e4 <eeprom_update_word>
		case MENU_CANCEL:
		return true;
    291a:	81 e0       	ldi	r24, 0x01	; 1
    291c:	08 95       	ret
	}

	DHWMaxTime_CallbackRender(column);
    291e:	86 2f       	mov	r24, r22
    2920:	0e 94 16 12 	call	0x242c	; 0x242c <DHWMaxTime_CallbackRender>
	return false;
    2924:	80 e0       	ldi	r24, 0x00	; 0
    2926:	08 95       	ret
				DHWMaxTime -= 10;
			break;
		case MENU_CONFIRM:
		eeprom_update_word(&eeDHWMaxTime, DHWMaxTime);
		case MENU_CANCEL:
		return true;
    2928:	81 e0       	ldi	r24, 0x01	; 1
	}

	DHWMaxTime_CallbackRender(column);
	return false;
}
    292a:	08 95       	ret

0000292c <PumpPlusTime_ActionCallback>:
	itoa(PumpPlusTime, buf, 10);
	lcd_puts(buf);
}

bool PumpPlusTime_ActionCallback(MENU_BUTTON *button, uint8_t column){
	switch(button->role){
    292c:	fc 01       	movw	r30, r24
    292e:	90 81       	ld	r25, Z
    2930:	91 30       	cpi	r25, 0x01	; 1
    2932:	81 f0       	breq	.+32     	; 0x2954 <PumpPlusTime_ActionCallback+0x28>
    2934:	28 f0       	brcs	.+10     	; 0x2940 <PumpPlusTime_ActionCallback+0x14>
    2936:	92 30       	cpi	r25, 0x02	; 2
    2938:	b9 f0       	breq	.+46     	; 0x2968 <PumpPlusTime_ActionCallback+0x3c>
    293a:	93 30       	cpi	r25, 0x03	; 3
    293c:	21 f1       	breq	.+72     	; 0x2986 <PumpPlusTime_ActionCallback+0x5a>
    293e:	1e c0       	rjmp	.+60     	; 0x297c <PumpPlusTime_ActionCallback+0x50>
		case MENU_UP:
			++PumpPlusTime;
    2940:	80 91 04 01 	lds	r24, 0x0104	; 0x800104 <PumpPlusTime>
    2944:	90 91 05 01 	lds	r25, 0x0105	; 0x800105 <PumpPlusTime+0x1>
    2948:	01 96       	adiw	r24, 0x01	; 1
    294a:	90 93 05 01 	sts	0x0105, r25	; 0x800105 <PumpPlusTime+0x1>
    294e:	80 93 04 01 	sts	0x0104, r24	; 0x800104 <PumpPlusTime>
			break;
    2952:	14 c0       	rjmp	.+40     	; 0x297c <PumpPlusTime_ActionCallback+0x50>
		case MENU_DOWN:
			--PumpPlusTime;
    2954:	80 91 04 01 	lds	r24, 0x0104	; 0x800104 <PumpPlusTime>
    2958:	90 91 05 01 	lds	r25, 0x0105	; 0x800105 <PumpPlusTime+0x1>
    295c:	01 97       	sbiw	r24, 0x01	; 1
    295e:	90 93 05 01 	sts	0x0105, r25	; 0x800105 <PumpPlusTime+0x1>
    2962:	80 93 04 01 	sts	0x0104, r24	; 0x800104 <PumpPlusTime>
			break;
    2966:	0a c0       	rjmp	.+20     	; 0x297c <PumpPlusTime_ActionCallback+0x50>
		case MENU_CONFIRM:
			eeprom_update_word(&eePumpPlusTime, PumpPlusTime);
    2968:	60 91 04 01 	lds	r22, 0x0104	; 0x800104 <PumpPlusTime>
    296c:	70 91 05 01 	lds	r23, 0x0105	; 0x800105 <PumpPlusTime+0x1>
    2970:	8e e0       	ldi	r24, 0x0E	; 14
    2972:	90 e0       	ldi	r25, 0x00	; 0
    2974:	0e 94 f2 1c 	call	0x39e4	; 0x39e4 <eeprom_update_word>
			return true;
    2978:	81 e0       	ldi	r24, 0x01	; 1
    297a:	08 95       	ret
		case MENU_CANCEL:
			return true;
	}

	PumpPlusTime_CallbackRender(column);
    297c:	86 2f       	mov	r24, r22
    297e:	0e 94 5f 13 	call	0x26be	; 0x26be <PumpPlusTime_CallbackRender>
	return false;
    2982:	80 e0       	ldi	r24, 0x00	; 0
    2984:	08 95       	ret
			break;
		case MENU_CONFIRM:
			eeprom_update_word(&eePumpPlusTime, PumpPlusTime);
			return true;
		case MENU_CANCEL:
			return true;
    2986:	81 e0       	ldi	r24, 0x01	; 1
	}

	PumpPlusTime_CallbackRender(column);
	return false;
}
    2988:	08 95       	ret

0000298a <DHWTempActual_CallbackRender>:

/*************************************************************************
 Menu DHW, submenu definitions
*************************************************************************/
void DHWTempActual_CallbackRender(uint8_t which){
	lcd_clrscr();
    298a:	0e 94 11 09 	call	0x1222	; 0x1222 <lcd_clrscr>
	lcd_puts_hu(PSTR("HMV akt hm"));
    298e:	81 eb       	ldi	r24, 0xB1	; 177
    2990:	95 e0       	ldi	r25, 0x05	; 5
    2992:	0e 94 fc 09 	call	0x13f8	; 0x13f8 <lcd_puts_hu>
	lcd_gotoxy(0,1);
    2996:	61 e0       	ldi	r22, 0x01	; 1
    2998:	80 e0       	ldi	r24, 0x00	; 0
    299a:	0e 94 fb 08 	call	0x11f6	; 0x11f6 <lcd_gotoxy>
	lcd_puts(DHWTempActualBuf); lcd_puts_p(PSTR(".")), lcd_puts(DHWTempActualFracBuf); lcd_puts_p(PSTR(" C"));
    299e:	8b e3       	ldi	r24, 0x3B	; 59
    29a0:	95 e0       	ldi	r25, 0x05	; 5
    29a2:	0e 94 ca 09 	call	0x1394	; 0x1394 <lcd_puts>
    29a6:	8f ea       	ldi	r24, 0xAF	; 175
    29a8:	95 e0       	ldi	r25, 0x05	; 5
    29aa:	0e 94 35 09 	call	0x126a	; 0x126a <lcd_puts_p>
    29ae:	82 e5       	ldi	r24, 0x52	; 82
    29b0:	95 e0       	ldi	r25, 0x05	; 5
    29b2:	0e 94 ca 09 	call	0x1394	; 0x1394 <lcd_puts>
    29b6:	8c ea       	ldi	r24, 0xAC	; 172
    29b8:	95 e0       	ldi	r25, 0x05	; 5
    29ba:	0e 94 35 09 	call	0x126a	; 0x126a <lcd_puts_p>
    29be:	08 95       	ret

000029c0 <DHWTempActual_Callback>:
}

bool DHWTempActual_Callback(MENU_BUTTON *button, uint8_t column){
	switch(button->role){
    29c0:	fc 01       	movw	r30, r24
    29c2:	80 81       	ld	r24, Z
    29c4:	83 30       	cpi	r24, 0x03	; 3
    29c6:	29 f0       	breq	.+10     	; 0x29d2 <DHWTempActual_Callback+0x12>
    29c8:	86 2f       	mov	r24, r22
			break;
		case MENU_CANCEL:
			return true;
	}

	DHWTempActual_CallbackRender(column);
    29ca:	0e 94 c5 14 	call	0x298a	; 0x298a <DHWTempActual_CallbackRender>
	return false;
    29ce:	80 e0       	ldi	r24, 0x00	; 0
    29d0:	08 95       	ret
		case MENU_DOWN:
			break;
		case MENU_CONFIRM:
			break;
		case MENU_CANCEL:
			return true;
    29d2:	81 e0       	ldi	r24, 0x01	; 1
	}

	DHWTempActual_CallbackRender(column);
	return false;
}
    29d4:	08 95       	ret

000029d6 <BufferTempActual_CallbackRender>:

/*************************************************************************
 Menu Buffer, submenu definitions
*************************************************************************/
void BufferTempActual_CallbackRender(uint8_t which){
	lcd_clrscr();
    29d6:	0e 94 11 09 	call	0x1222	; 0x1222 <lcd_clrscr>
	lcd_puts_hu(PSTR("Puffer akt hm"));
    29da:	83 e6       	ldi	r24, 0x63	; 99
    29dc:	95 e0       	ldi	r25, 0x05	; 5
    29de:	0e 94 fc 09 	call	0x13f8	; 0x13f8 <lcd_puts_hu>
	lcd_gotoxy(0,1);
    29e2:	61 e0       	ldi	r22, 0x01	; 1
    29e4:	80 e0       	ldi	r24, 0x00	; 0
    29e6:	0e 94 fb 08 	call	0x11f6	; 0x11f6 <lcd_gotoxy>
	lcd_puts(BufferTempActualBuf); lcd_puts_p(PSTR(".")), lcd_puts(BufferTempActualFracBuf); lcd_puts_p(PSTR(" C"));
    29ea:	82 e4       	ldi	r24, 0x42	; 66
    29ec:	95 e0       	ldi	r25, 0x05	; 5
    29ee:	0e 94 ca 09 	call	0x1394	; 0x1394 <lcd_puts>
    29f2:	81 e6       	ldi	r24, 0x61	; 97
    29f4:	95 e0       	ldi	r25, 0x05	; 5
    29f6:	0e 94 35 09 	call	0x126a	; 0x126a <lcd_puts_p>
    29fa:	8d e4       	ldi	r24, 0x4D	; 77
    29fc:	95 e0       	ldi	r25, 0x05	; 5
    29fe:	0e 94 ca 09 	call	0x1394	; 0x1394 <lcd_puts>
    2a02:	8e e5       	ldi	r24, 0x5E	; 94
    2a04:	95 e0       	ldi	r25, 0x05	; 5
    2a06:	0e 94 35 09 	call	0x126a	; 0x126a <lcd_puts_p>
    2a0a:	08 95       	ret

00002a0c <BufferTempActual_Callback>:
}

bool BufferTempActual_Callback(MENU_BUTTON *button, uint8_t column){
	switch(button->role){
    2a0c:	fc 01       	movw	r30, r24
    2a0e:	80 81       	ld	r24, Z
    2a10:	83 30       	cpi	r24, 0x03	; 3
    2a12:	29 f0       	breq	.+10     	; 0x2a1e <BufferTempActual_Callback+0x12>
    2a14:	86 2f       	mov	r24, r22
			break;
		case MENU_CANCEL:
			return true;
	}

	BufferTempActual_CallbackRender(column);
    2a16:	0e 94 eb 14 	call	0x29d6	; 0x29d6 <BufferTempActual_CallbackRender>
	return false;
    2a1a:	80 e0       	ldi	r24, 0x00	; 0
    2a1c:	08 95       	ret
		case MENU_DOWN:
			break;
		case MENU_CONFIRM:
			break;
		case MENU_CANCEL:
			return true;
    2a1e:	81 e0       	ldi	r24, 0x01	; 1
	}

	BufferTempActual_CallbackRender(column);
	return false;
}
    2a20:	08 95       	ret

00002a22 <GarageTempActual_CallbackRender>:

/*************************************************************************
 Menu Garage, submenu definitions
*************************************************************************/
void GarageTempActual_CallbackRender(uint8_t which){
	lcd_clrscr();
    2a22:	0e 94 11 09 	call	0x1222	; 0x1222 <lcd_clrscr>
	lcd_puts_hu(PSTR("Gphz akt hm"));
    2a26:	8f e2       	ldi	r24, 0x2F	; 47
    2a28:	95 e0       	ldi	r25, 0x05	; 5
    2a2a:	0e 94 fc 09 	call	0x13f8	; 0x13f8 <lcd_puts_hu>
	lcd_gotoxy(0,1);
    2a2e:	61 e0       	ldi	r22, 0x01	; 1
    2a30:	80 e0       	ldi	r24, 0x00	; 0
    2a32:	0e 94 fb 08 	call	0x11f6	; 0x11f6 <lcd_gotoxy>
	lcd_puts(GarageTempActualBuf); lcd_puts_p(PSTR(".")), lcd_puts(GarageTempActualFracBuf); lcd_puts_p(PSTR(" C"));
    2a36:	8e e8       	ldi	r24, 0x8E	; 142
    2a38:	95 e0       	ldi	r25, 0x05	; 5
    2a3a:	0e 94 ca 09 	call	0x1394	; 0x1394 <lcd_puts>
    2a3e:	8d e2       	ldi	r24, 0x2D	; 45
    2a40:	95 e0       	ldi	r25, 0x05	; 5
    2a42:	0e 94 35 09 	call	0x126a	; 0x126a <lcd_puts_p>
    2a46:	86 e3       	ldi	r24, 0x36	; 54
    2a48:	95 e0       	ldi	r25, 0x05	; 5
    2a4a:	0e 94 ca 09 	call	0x1394	; 0x1394 <lcd_puts>
    2a4e:	8a e2       	ldi	r24, 0x2A	; 42
    2a50:	95 e0       	ldi	r25, 0x05	; 5
    2a52:	0e 94 35 09 	call	0x126a	; 0x126a <lcd_puts_p>
    2a56:	08 95       	ret

00002a58 <GarageTempActual_Callback>:
}

bool GarageTempActual_Callback(MENU_BUTTON *button, uint8_t column){
	switch(button->role){
    2a58:	fc 01       	movw	r30, r24
    2a5a:	80 81       	ld	r24, Z
    2a5c:	83 30       	cpi	r24, 0x03	; 3
    2a5e:	29 f0       	breq	.+10     	; 0x2a6a <GarageTempActual_Callback+0x12>
    2a60:	86 2f       	mov	r24, r22
			break;
		case MENU_CANCEL:
			return true;
	}

	GarageTempActual_CallbackRender(column);
    2a62:	0e 94 11 15 	call	0x2a22	; 0x2a22 <GarageTempActual_CallbackRender>
	return false;
    2a66:	80 e0       	ldi	r24, 0x00	; 0
    2a68:	08 95       	ret
		case MENU_DOWN:
			break;
		case MENU_CONFIRM:
			break;
		case MENU_CANCEL:
			return true;
    2a6a:	81 e0       	ldi	r24, 0x01	; 1
	}

	GarageTempActual_CallbackRender(column);
	return false;
}
    2a6c:	08 95       	ret

00002a6e <DHWRelay_CallbackRender>:
/*************************************************************************
 Menu Relays, submenu definitions
*************************************************************************/

void DHWRelay_CallbackRender(uint8_t which){
	lcd_clrscr();
    2a6e:	0e 94 11 09 	call	0x1222	; 0x1222 <lcd_clrscr>
	lcd_puts_hu(PSTR("HMV szelep llapot"));
    2a72:	84 ee       	ldi	r24, 0xE4	; 228
    2a74:	94 e0       	ldi	r25, 0x04	; 4
    2a76:	0e 94 fc 09 	call	0x13f8	; 0x13f8 <lcd_puts_hu>
	lcd_gotoxy(0,1);
    2a7a:	61 e0       	ldi	r22, 0x01	; 1
    2a7c:	80 e0       	ldi	r24, 0x00	; 0
    2a7e:	0e 94 fb 08 	call	0x11f6	; 0x11f6 <lcd_gotoxy>
	if (Relays & (1 << DHW_VALVE_RELAY))
    2a82:	80 91 71 04 	lds	r24, 0x0471	; 0x800471 <Relays>
    2a86:	84 ff       	sbrs	r24, 4
    2a88:	05 c0       	rjmp	.+10     	; 0x2a94 <DHWRelay_CallbackRender+0x26>
		lcd_puts_p(PSTR("Be"));
    2a8a:	81 ee       	ldi	r24, 0xE1	; 225
    2a8c:	94 e0       	ldi	r25, 0x04	; 4
    2a8e:	0e 94 35 09 	call	0x126a	; 0x126a <lcd_puts_p>
    2a92:	08 95       	ret
	else
		lcd_puts_p(PSTR("Ki"));
    2a94:	8e ed       	ldi	r24, 0xDE	; 222
    2a96:	94 e0       	ldi	r25, 0x04	; 4
    2a98:	0e 94 35 09 	call	0x126a	; 0x126a <lcd_puts_p>
    2a9c:	08 95       	ret

00002a9e <ZoneValve1_CallbackRender>:
	DHWRelay_CallbackRender(column);
	return false;
}

void ZoneValve1_CallbackRender(uint8_t which){
	lcd_clrscr();
    2a9e:	0e 94 11 09 	call	0x1222	; 0x1222 <lcd_clrscr>
	lcd_puts_hu(PSTR("Fldszinti szelep"));
    2aa2:	8c ec       	ldi	r24, 0xCC	; 204
    2aa4:	94 e0       	ldi	r25, 0x04	; 4
    2aa6:	0e 94 fc 09 	call	0x13f8	; 0x13f8 <lcd_puts_hu>
	lcd_gotoxy(0,1);
    2aaa:	61 e0       	ldi	r22, 0x01	; 1
    2aac:	80 e0       	ldi	r24, 0x00	; 0
    2aae:	0e 94 fb 08 	call	0x11f6	; 0x11f6 <lcd_gotoxy>
	if (Relays & (1 << FIRST_FLOOR_VALVE))
    2ab2:	80 91 71 04 	lds	r24, 0x0471	; 0x800471 <Relays>
    2ab6:	82 ff       	sbrs	r24, 2
    2ab8:	05 c0       	rjmp	.+10     	; 0x2ac4 <ZoneValve1_CallbackRender+0x26>
		lcd_puts_p(PSTR("Be"));
    2aba:	89 ec       	ldi	r24, 0xC9	; 201
    2abc:	94 e0       	ldi	r25, 0x04	; 4
    2abe:	0e 94 35 09 	call	0x126a	; 0x126a <lcd_puts_p>
    2ac2:	08 95       	ret
	else
		lcd_puts_p(PSTR("Ki"));
    2ac4:	86 ec       	ldi	r24, 0xC6	; 198
    2ac6:	94 e0       	ldi	r25, 0x04	; 4
    2ac8:	0e 94 35 09 	call	0x126a	; 0x126a <lcd_puts_p>
    2acc:	08 95       	ret

00002ace <ZoneValve2_CallbackRender>:
	ZoneValve1_CallbackRender(column);
	return false;
}

void ZoneValve2_CallbackRender(uint8_t which){
	lcd_clrscr();
    2ace:	0e 94 11 09 	call	0x1222	; 0x1222 <lcd_clrscr>
	lcd_puts_p(PSTR("Emeleti szelep"));
    2ad2:	87 eb       	ldi	r24, 0xB7	; 183
    2ad4:	94 e0       	ldi	r25, 0x04	; 4
    2ad6:	0e 94 35 09 	call	0x126a	; 0x126a <lcd_puts_p>
	lcd_gotoxy(0,1);
    2ada:	61 e0       	ldi	r22, 0x01	; 1
    2adc:	80 e0       	ldi	r24, 0x00	; 0
    2ade:	0e 94 fb 08 	call	0x11f6	; 0x11f6 <lcd_gotoxy>
	if (Relays & (1 << SECOND_FLOOR_VALVE))
    2ae2:	80 91 71 04 	lds	r24, 0x0471	; 0x800471 <Relays>
    2ae6:	83 ff       	sbrs	r24, 3
    2ae8:	05 c0       	rjmp	.+10     	; 0x2af4 <ZoneValve2_CallbackRender+0x26>
			lcd_puts_p(PSTR("Be"));
    2aea:	84 eb       	ldi	r24, 0xB4	; 180
    2aec:	94 e0       	ldi	r25, 0x04	; 4
    2aee:	0e 94 35 09 	call	0x126a	; 0x126a <lcd_puts_p>
    2af2:	08 95       	ret
		else
			lcd_puts_p(PSTR("Ki"));
    2af4:	81 eb       	ldi	r24, 0xB1	; 177
    2af6:	94 e0       	ldi	r25, 0x04	; 4
    2af8:	0e 94 35 09 	call	0x126a	; 0x126a <lcd_puts_p>
    2afc:	08 95       	ret

00002afe <BufferValve_CallbackRender>:
	ZoneValve2_CallbackRender(column);
	return false;
}

void BufferValve_CallbackRender(uint8_t which){
	lcd_clrscr();
    2afe:	0e 94 11 09 	call	0x1222	; 0x1222 <lcd_clrscr>
	lcd_puts_hu(PSTR("Puffer / gz szelep"));
    2b02:	8d e9       	ldi	r24, 0x9D	; 157
    2b04:	94 e0       	ldi	r25, 0x04	; 4
    2b06:	0e 94 fc 09 	call	0x13f8	; 0x13f8 <lcd_puts_hu>
	lcd_gotoxy(0,1);
    2b0a:	61 e0       	ldi	r22, 0x01	; 1
    2b0c:	80 e0       	ldi	r24, 0x00	; 0
    2b0e:	0e 94 fb 08 	call	0x11f6	; 0x11f6 <lcd_gotoxy>
	if (Relays & (1 << BUFFER_VALVE_RELAY))
    2b12:	80 91 71 04 	lds	r24, 0x0471	; 0x800471 <Relays>
    2b16:	85 ff       	sbrs	r24, 5
    2b18:	05 c0       	rjmp	.+10     	; 0x2b24 <BufferValve_CallbackRender+0x26>
		lcd_puts_p(PSTR("Puffer"));
    2b1a:	86 e9       	ldi	r24, 0x96	; 150
    2b1c:	94 e0       	ldi	r25, 0x04	; 4
    2b1e:	0e 94 35 09 	call	0x126a	; 0x126a <lcd_puts_p>
    2b22:	08 95       	ret
	else
		lcd_puts_hu(PSTR("Gz"));
    2b24:	82 e9       	ldi	r24, 0x92	; 146
    2b26:	94 e0       	ldi	r25, 0x04	; 4
    2b28:	0e 94 fc 09 	call	0x13f8	; 0x13f8 <lcd_puts_hu>
    2b2c:	08 95       	ret

00002b2e <BufferPump_CallbackRender>:
	BufferValve_CallbackRender(column);
	return false;
}

void BufferPump_CallbackRender(uint8_t which){
	lcd_clrscr();
    2b2e:	0e 94 11 09 	call	0x1222	; 0x1222 <lcd_clrscr>
	lcd_puts_hu(PSTR("Puffer szivatty"));
    2b32:	81 e8       	ldi	r24, 0x81	; 129
    2b34:	94 e0       	ldi	r25, 0x04	; 4
    2b36:	0e 94 fc 09 	call	0x13f8	; 0x13f8 <lcd_puts_hu>
	lcd_gotoxy(0,1);
    2b3a:	61 e0       	ldi	r22, 0x01	; 1
    2b3c:	80 e0       	ldi	r24, 0x00	; 0
    2b3e:	0e 94 fb 08 	call	0x11f6	; 0x11f6 <lcd_gotoxy>
	if (Relays & (1 << BUFFER_PUMP_RELAY))
    2b42:	80 91 71 04 	lds	r24, 0x0471	; 0x800471 <Relays>
    2b46:	86 ff       	sbrs	r24, 6
    2b48:	05 c0       	rjmp	.+10     	; 0x2b54 <BufferPump_CallbackRender+0x26>
		lcd_puts_p(PSTR("Be"));
    2b4a:	8e e7       	ldi	r24, 0x7E	; 126
    2b4c:	94 e0       	ldi	r25, 0x04	; 4
    2b4e:	0e 94 35 09 	call	0x126a	; 0x126a <lcd_puts_p>
    2b52:	08 95       	ret
	else
		lcd_puts_p(PSTR("Ki"));
    2b54:	8b e7       	ldi	r24, 0x7B	; 123
    2b56:	94 e0       	ldi	r25, 0x04	; 4
    2b58:	0e 94 35 09 	call	0x126a	; 0x126a <lcd_puts_p>
    2b5c:	08 95       	ret

00002b5e <GasRelay_CallbackRender>:
	BufferPump_CallbackRender(column);
	return false;
}

void GasRelay_CallbackRender(uint8_t which){
	lcd_clrscr();
    2b5e:	0e 94 11 09 	call	0x1222	; 0x1222 <lcd_clrscr>
	lcd_puts_hu(PSTR("Gz llapot"));
    2b62:	8f e6       	ldi	r24, 0x6F	; 111
    2b64:	94 e0       	ldi	r25, 0x04	; 4
    2b66:	0e 94 fc 09 	call	0x13f8	; 0x13f8 <lcd_puts_hu>
	lcd_gotoxy(0,1);
    2b6a:	61 e0       	ldi	r22, 0x01	; 1
    2b6c:	80 e0       	ldi	r24, 0x00	; 0
    2b6e:	0e 94 fb 08 	call	0x11f6	; 0x11f6 <lcd_gotoxy>
	if (Relays & (1 << GAS_RELAY))
    2b72:	80 91 71 04 	lds	r24, 0x0471	; 0x800471 <Relays>
    2b76:	88 23       	and	r24, r24
    2b78:	2c f4       	brge	.+10     	; 0x2b84 <GasRelay_CallbackRender+0x26>
		lcd_puts_p(PSTR("Be"));
    2b7a:	8c e6       	ldi	r24, 0x6C	; 108
    2b7c:	94 e0       	ldi	r25, 0x04	; 4
    2b7e:	0e 94 35 09 	call	0x126a	; 0x126a <lcd_puts_p>
    2b82:	08 95       	ret
	else
		lcd_puts_p(PSTR("Ki"));
    2b84:	89 e6       	ldi	r24, 0x69	; 105
    2b86:	94 e0       	ldi	r25, 0x04	; 4
    2b88:	0e 94 35 09 	call	0x126a	; 0x126a <lcd_puts_p>
    2b8c:	08 95       	ret

00002b8e <ClockMinute_CallbackRender>:

	ClockHour_CallbackRender(column);
	return false;
}

void ClockMinute_CallbackRender(uint8_t which){
    2b8e:	cf 93       	push	r28
    2b90:	df 93       	push	r29
    2b92:	00 d0       	rcall	.+0      	; 0x2b94 <ClockMinute_CallbackRender+0x6>
    2b94:	1f 92       	push	r1
    2b96:	cd b7       	in	r28, 0x3d	; 61
    2b98:	de b7       	in	r29, 0x3e	; 62
	lcd_clrscr();
    2b9a:	0e 94 11 09 	call	0x1222	; 0x1222 <lcd_clrscr>
	lcd_puts_p(PSTR("perc"));
    2b9e:	85 e2       	ldi	r24, 0x25	; 37
    2ba0:	94 e0       	ldi	r25, 0x04	; 4
    2ba2:	0e 94 35 09 	call	0x126a	; 0x126a <lcd_puts_p>
	lcd_gotoxy(0,1);
    2ba6:	61 e0       	ldi	r22, 0x01	; 1
    2ba8:	80 e0       	ldi	r24, 0x00	; 0
    2baa:	0e 94 fb 08 	call	0x11f6	; 0x11f6 <lcd_gotoxy>
    2bae:	80 91 6e 04 	lds	r24, 0x046E	; 0x80046e <Minute>
    2bb2:	4a e0       	ldi	r20, 0x0A	; 10
    2bb4:	be 01       	movw	r22, r28
    2bb6:	6f 5f       	subi	r22, 0xFF	; 255
    2bb8:	7f 4f       	sbci	r23, 0xFF	; 255
    2bba:	90 e0       	ldi	r25, 0x00	; 0
    2bbc:	0e 94 9e 1c 	call	0x393c	; 0x393c <__itoa_ncheck>
	char buf[3];
	itoa(Minute, buf, 10);
	lcd_puts(buf);
    2bc0:	ce 01       	movw	r24, r28
    2bc2:	01 96       	adiw	r24, 0x01	; 1
    2bc4:	0e 94 ca 09 	call	0x1394	; 0x1394 <lcd_puts>
}
    2bc8:	0f 90       	pop	r0
    2bca:	0f 90       	pop	r0
    2bcc:	0f 90       	pop	r0
    2bce:	df 91       	pop	r29
    2bd0:	cf 91       	pop	r28
    2bd2:	08 95       	ret

00002bd4 <ClockMinute_ActionCallback>:

bool ClockMinute_ActionCallback(MENU_BUTTON *button, uint8_t column){
	switch(button->role){
    2bd4:	fc 01       	movw	r30, r24
    2bd6:	80 81       	ld	r24, Z
    2bd8:	81 30       	cpi	r24, 0x01	; 1
    2bda:	79 f0       	breq	.+30     	; 0x2bfa <ClockMinute_ActionCallback+0x26>
    2bdc:	18 f0       	brcs	.+6      	; 0x2be4 <ClockMinute_ActionCallback+0x10>
    2bde:	84 30       	cpi	r24, 0x04	; 4
    2be0:	b0 f4       	brcc	.+44     	; 0x2c0e <ClockMinute_ActionCallback+0x3a>
    2be2:	1a c0       	rjmp	.+52     	; 0x2c18 <ClockMinute_ActionCallback+0x44>
		case MENU_UP:
			if (++Minute == 60)
    2be4:	80 91 6e 04 	lds	r24, 0x046E	; 0x80046e <Minute>
    2be8:	8f 5f       	subi	r24, 0xFF	; 255
    2bea:	8c 33       	cpi	r24, 0x3C	; 60
    2bec:	19 f0       	breq	.+6      	; 0x2bf4 <ClockMinute_ActionCallback+0x20>
    2bee:	80 93 6e 04 	sts	0x046E, r24	; 0x80046e <Minute>
    2bf2:	0d c0       	rjmp	.+26     	; 0x2c0e <ClockMinute_ActionCallback+0x3a>
				Minute = 0;
    2bf4:	10 92 6e 04 	sts	0x046E, r1	; 0x80046e <Minute>
    2bf8:	0a c0       	rjmp	.+20     	; 0x2c0e <ClockMinute_ActionCallback+0x3a>
			break;
		case MENU_DOWN:
			if (--Minute == 255)
    2bfa:	80 91 6e 04 	lds	r24, 0x046E	; 0x80046e <Minute>
    2bfe:	81 50       	subi	r24, 0x01	; 1
    2c00:	18 f0       	brcs	.+6      	; 0x2c08 <ClockMinute_ActionCallback+0x34>
    2c02:	80 93 6e 04 	sts	0x046E, r24	; 0x80046e <Minute>
    2c06:	03 c0       	rjmp	.+6      	; 0x2c0e <ClockMinute_ActionCallback+0x3a>
			Minute = 59;
    2c08:	8b e3       	ldi	r24, 0x3B	; 59
    2c0a:	80 93 6e 04 	sts	0x046E, r24	; 0x80046e <Minute>
    2c0e:	86 2f       	mov	r24, r22
		case MENU_CONFIRM:
		case MENU_CANCEL:
			return true;
	}

	ClockMinute_CallbackRender(column);
    2c10:	0e 94 c7 15 	call	0x2b8e	; 0x2b8e <ClockMinute_CallbackRender>
	return false;
    2c14:	80 e0       	ldi	r24, 0x00	; 0
    2c16:	08 95       	ret
			if (--Minute == 255)
			Minute = 59;
			break;
		case MENU_CONFIRM:
		case MENU_CANCEL:
			return true;
    2c18:	81 e0       	ldi	r24, 0x01	; 1
	}

	ClockMinute_CallbackRender(column);
	return false;
}
    2c1a:	08 95       	ret

00002c1c <DHWTempDesired_ActionCallback>:
	lcd_gotoxy(0,1);
	lcd_puts(buf);
}

bool DHWTempDesired_ActionCallback(MENU_BUTTON *button, uint8_t column){
	switch(button->role){
    2c1c:	fc 01       	movw	r30, r24
    2c1e:	90 81       	ld	r25, Z
    2c20:	91 30       	cpi	r25, 0x01	; 1
    2c22:	71 f0       	breq	.+28     	; 0x2c40 <DHWTempDesired_ActionCallback+0x24>
    2c24:	28 f0       	brcs	.+10     	; 0x2c30 <DHWTempDesired_ActionCallback+0x14>
    2c26:	92 30       	cpi	r25, 0x02	; 2
    2c28:	a9 f0       	breq	.+42     	; 0x2c54 <DHWTempDesired_ActionCallback+0x38>
    2c2a:	93 30       	cpi	r25, 0x03	; 3
    2c2c:	01 f1       	breq	.+64     	; 0x2c6e <DHWTempDesired_ActionCallback+0x52>
    2c2e:	1a c0       	rjmp	.+52     	; 0x2c64 <DHWTempDesired_ActionCallback+0x48>
		case MENU_UP:
			if (DHWTempDesired != 90)
    2c30:	80 91 3e 05 	lds	r24, 0x053E	; 0x80053e <DHWTempDesired>
    2c34:	8a 35       	cpi	r24, 0x5A	; 90
    2c36:	b1 f0       	breq	.+44     	; 0x2c64 <DHWTempDesired_ActionCallback+0x48>
				++DHWTempDesired;
    2c38:	8f 5f       	subi	r24, 0xFF	; 255
    2c3a:	80 93 3e 05 	sts	0x053E, r24	; 0x80053e <DHWTempDesired>
    2c3e:	12 c0       	rjmp	.+36     	; 0x2c64 <DHWTempDesired_ActionCallback+0x48>
			break;
		case MENU_DOWN:
			if (DHWTempDesired > DHWTempMin)
    2c40:	80 91 3e 05 	lds	r24, 0x053E	; 0x80053e <DHWTempDesired>
    2c44:	90 91 3a 05 	lds	r25, 0x053A	; 0x80053a <DHWTempMin>
    2c48:	98 17       	cp	r25, r24
    2c4a:	60 f4       	brcc	.+24     	; 0x2c64 <DHWTempDesired_ActionCallback+0x48>
				--DHWTempDesired;
    2c4c:	81 50       	subi	r24, 0x01	; 1
    2c4e:	80 93 3e 05 	sts	0x053E, r24	; 0x80053e <DHWTempDesired>
    2c52:	08 c0       	rjmp	.+16     	; 0x2c64 <DHWTempDesired_ActionCallback+0x48>
			break;
		case MENU_CONFIRM:
			eeprom_update_byte(&eeDHWTempDesired, DHWTempDesired);
    2c54:	60 91 3e 05 	lds	r22, 0x053E	; 0x80053e <DHWTempDesired>
    2c58:	8d e0       	ldi	r24, 0x0D	; 13
    2c5a:	90 e0       	ldi	r25, 0x00	; 0
    2c5c:	0e 94 e1 1c 	call	0x39c2	; 0x39c2 <eeprom_update_byte>
			return true;
    2c60:	81 e0       	ldi	r24, 0x01	; 1
    2c62:	08 95       	ret
		case MENU_CANCEL:
			return true;
	}
	DHWTempDesired_CallbackRender(column);
    2c64:	86 2f       	mov	r24, r22
    2c66:	0e 94 83 11 	call	0x2306	; 0x2306 <DHWTempDesired_CallbackRender>
	return false;
    2c6a:	80 e0       	ldi	r24, 0x00	; 0
    2c6c:	08 95       	ret
			break;
		case MENU_CONFIRM:
			eeprom_update_byte(&eeDHWTempDesired, DHWTempDesired);
			return true;
		case MENU_CANCEL:
			return true;
    2c6e:	81 e0       	ldi	r24, 0x01	; 1
	}
	DHWTempDesired_CallbackRender(column);
	return false;
}
    2c70:	08 95       	ret

00002c72 <DHWTempMin_ActionCallback>:
	lcd_gotoxy(0,1);
	lcd_puts(buf);
}

bool DHWTempMin_ActionCallback(MENU_BUTTON *button, uint8_t column){
	switch(button->role){
    2c72:	fc 01       	movw	r30, r24
    2c74:	90 81       	ld	r25, Z
    2c76:	91 30       	cpi	r25, 0x01	; 1
    2c78:	81 f0       	breq	.+32     	; 0x2c9a <DHWTempMin_ActionCallback+0x28>
    2c7a:	28 f0       	brcs	.+10     	; 0x2c86 <DHWTempMin_ActionCallback+0x14>
    2c7c:	92 30       	cpi	r25, 0x02	; 2
    2c7e:	a9 f0       	breq	.+42     	; 0x2caa <DHWTempMin_ActionCallback+0x38>
    2c80:	93 30       	cpi	r25, 0x03	; 3
    2c82:	01 f1       	breq	.+64     	; 0x2cc4 <DHWTempMin_ActionCallback+0x52>
    2c84:	1a c0       	rjmp	.+52     	; 0x2cba <DHWTempMin_ActionCallback+0x48>
		case MENU_UP:
			if (DHWTempMin < DHWTempDesired)
    2c86:	80 91 3a 05 	lds	r24, 0x053A	; 0x80053a <DHWTempMin>
    2c8a:	90 91 3e 05 	lds	r25, 0x053E	; 0x80053e <DHWTempDesired>
    2c8e:	89 17       	cp	r24, r25
    2c90:	a0 f4       	brcc	.+40     	; 0x2cba <DHWTempMin_ActionCallback+0x48>
				++DHWTempMin;
    2c92:	8f 5f       	subi	r24, 0xFF	; 255
    2c94:	80 93 3a 05 	sts	0x053A, r24	; 0x80053a <DHWTempMin>
    2c98:	10 c0       	rjmp	.+32     	; 0x2cba <DHWTempMin_ActionCallback+0x48>
			break;
		case MENU_DOWN:
			if (DHWTempMin > 5) 
    2c9a:	80 91 3a 05 	lds	r24, 0x053A	; 0x80053a <DHWTempMin>
    2c9e:	86 30       	cpi	r24, 0x06	; 6
    2ca0:	60 f0       	brcs	.+24     	; 0x2cba <DHWTempMin_ActionCallback+0x48>
				--DHWTempMin;
    2ca2:	81 50       	subi	r24, 0x01	; 1
    2ca4:	80 93 3a 05 	sts	0x053A, r24	; 0x80053a <DHWTempMin>
    2ca8:	08 c0       	rjmp	.+16     	; 0x2cba <DHWTempMin_ActionCallback+0x48>
			break;
		case MENU_CONFIRM:
			eeprom_update_byte(&eeDHWTempMin, DHWTempMin);
    2caa:	60 91 3a 05 	lds	r22, 0x053A	; 0x80053a <DHWTempMin>
    2cae:	8c e0       	ldi	r24, 0x0C	; 12
    2cb0:	90 e0       	ldi	r25, 0x00	; 0
    2cb2:	0e 94 e1 1c 	call	0x39c2	; 0x39c2 <eeprom_update_byte>
			return true;
    2cb6:	81 e0       	ldi	r24, 0x01	; 1
    2cb8:	08 95       	ret
		case MENU_CANCEL:
			return true;
	}

	DHWTempMin_CallbackRender(column);
    2cba:	86 2f       	mov	r24, r22
    2cbc:	0e 94 a7 11 	call	0x234e	; 0x234e <DHWTempMin_CallbackRender>
	return false;
    2cc0:	80 e0       	ldi	r24, 0x00	; 0
    2cc2:	08 95       	ret
			break;
		case MENU_CONFIRM:
			eeprom_update_byte(&eeDHWTempMin, DHWTempMin);
			return true;
		case MENU_CANCEL:
			return true;
    2cc4:	81 e0       	ldi	r24, 0x01	; 1
	}

	DHWTempMin_CallbackRender(column);
	return false;
}
    2cc6:	08 95       	ret

00002cc8 <DHWSensor_ActionCallback>:
	itoa(DHWSensorID, buf, 10);
	lcd_puts(buf);
}

bool DHWSensor_ActionCallback(MENU_BUTTON *button, uint8_t column){
	switch(button->role){
    2cc8:	fc 01       	movw	r30, r24
    2cca:	90 81       	ld	r25, Z
    2ccc:	91 30       	cpi	r25, 0x01	; 1
    2cce:	91 f0       	breq	.+36     	; 0x2cf4 <DHWSensor_ActionCallback+0x2c>
    2cd0:	28 f0       	brcs	.+10     	; 0x2cdc <DHWSensor_ActionCallback+0x14>
    2cd2:	92 30       	cpi	r25, 0x02	; 2
    2cd4:	e1 f0       	breq	.+56     	; 0x2d0e <DHWSensor_ActionCallback+0x46>
    2cd6:	93 30       	cpi	r25, 0x03	; 3
    2cd8:	39 f1       	breq	.+78     	; 0x2d28 <DHWSensor_ActionCallback+0x60>
    2cda:	21 c0       	rjmp	.+66     	; 0x2d1e <DHWSensor_ActionCallback+0x56>
		case MENU_UP:
			DHWSensorID++;
    2cdc:	80 91 70 04 	lds	r24, 0x0470	; 0x800470 <DHWSensorID>
    2ce0:	8f 5f       	subi	r24, 0xFF	; 255
    2ce2:	80 93 70 04 	sts	0x0470, r24	; 0x800470 <DHWSensorID>
			if (DHWSensorID == nSensors)
    2ce6:	90 91 39 05 	lds	r25, 0x0539	; 0x800539 <nSensors>
    2cea:	89 13       	cpse	r24, r25
    2cec:	18 c0       	rjmp	.+48     	; 0x2d1e <DHWSensor_ActionCallback+0x56>
				DHWSensorID = 0;
    2cee:	10 92 70 04 	sts	0x0470, r1	; 0x800470 <DHWSensorID>
    2cf2:	15 c0       	rjmp	.+42     	; 0x2d1e <DHWSensor_ActionCallback+0x56>
			break;
		case MENU_DOWN:
			DHWSensorID--;
    2cf4:	80 91 70 04 	lds	r24, 0x0470	; 0x800470 <DHWSensorID>
    2cf8:	81 50       	subi	r24, 0x01	; 1
    2cfa:	80 93 70 04 	sts	0x0470, r24	; 0x800470 <DHWSensorID>
			if (DHWSensorID == 255)
    2cfe:	8f 3f       	cpi	r24, 0xFF	; 255
    2d00:	71 f4       	brne	.+28     	; 0x2d1e <DHWSensor_ActionCallback+0x56>
				DHWSensorID = nSensors - 1;
    2d02:	80 91 39 05 	lds	r24, 0x0539	; 0x800539 <nSensors>
    2d06:	81 50       	subi	r24, 0x01	; 1
    2d08:	80 93 70 04 	sts	0x0470, r24	; 0x800470 <DHWSensorID>
    2d0c:	08 c0       	rjmp	.+16     	; 0x2d1e <DHWSensor_ActionCallback+0x56>
			break;
		case MENU_CONFIRM:
			eeprom_update_byte(&eeDHWSensorID, DHWSensorID);
    2d0e:	60 91 70 04 	lds	r22, 0x0470	; 0x800470 <DHWSensorID>
    2d12:	82 e0       	ldi	r24, 0x02	; 2
    2d14:	90 e0       	ldi	r25, 0x00	; 0
    2d16:	0e 94 e1 1c 	call	0x39c2	; 0x39c2 <eeprom_update_byte>
			return true;
    2d1a:	81 e0       	ldi	r24, 0x01	; 1
    2d1c:	08 95       	ret
		case MENU_CANCEL:
			return true;
	}

	DHWSensor_CallbackRender(column);
    2d1e:	86 2f       	mov	r24, r22
    2d20:	0e 94 cb 11 	call	0x2396	; 0x2396 <DHWSensor_CallbackRender>
	return false;
    2d24:	80 e0       	ldi	r24, 0x00	; 0
    2d26:	08 95       	ret
			break;
		case MENU_CONFIRM:
			eeprom_update_byte(&eeDHWSensorID, DHWSensorID);
			return true;
		case MENU_CANCEL:
			return true;
    2d28:	81 e0       	ldi	r24, 0x01	; 1
	}

	DHWSensor_CallbackRender(column);
	return false;
}
    2d2a:	08 95       	ret

00002d2c <ForwardHeatTemp_ActionCallback>:
	lcd_gotoxy(0,1);
	lcd_puts(buf);
}

bool ForwardHeatTemp_ActionCallback(MENU_BUTTON *button, uint8_t column){
	switch(button->role){
    2d2c:	fc 01       	movw	r30, r24
    2d2e:	90 81       	ld	r25, Z
    2d30:	91 30       	cpi	r25, 0x01	; 1
    2d32:	71 f0       	breq	.+28     	; 0x2d50 <ForwardHeatTemp_ActionCallback+0x24>
    2d34:	28 f0       	brcs	.+10     	; 0x2d40 <ForwardHeatTemp_ActionCallback+0x14>
    2d36:	92 30       	cpi	r25, 0x02	; 2
    2d38:	99 f0       	breq	.+38     	; 0x2d60 <ForwardHeatTemp_ActionCallback+0x34>
    2d3a:	93 30       	cpi	r25, 0x03	; 3
    2d3c:	f1 f0       	breq	.+60     	; 0x2d7a <ForwardHeatTemp_ActionCallback+0x4e>
    2d3e:	18 c0       	rjmp	.+48     	; 0x2d70 <ForwardHeatTemp_ActionCallback+0x44>
		case MENU_UP:
			if (ForwardHeatTemp != 90)
    2d40:	80 91 03 01 	lds	r24, 0x0103	; 0x800103 <ForwardHeatTemp>
    2d44:	8a 35       	cpi	r24, 0x5A	; 90
    2d46:	a1 f0       	breq	.+40     	; 0x2d70 <ForwardHeatTemp_ActionCallback+0x44>
				++ForwardHeatTemp;
    2d48:	8f 5f       	subi	r24, 0xFF	; 255
    2d4a:	80 93 03 01 	sts	0x0103, r24	; 0x800103 <ForwardHeatTemp>
    2d4e:	10 c0       	rjmp	.+32     	; 0x2d70 <ForwardHeatTemp_ActionCallback+0x44>
			break;
		case MENU_DOWN:
			if (ForwardHeatTemp > 20)
    2d50:	80 91 03 01 	lds	r24, 0x0103	; 0x800103 <ForwardHeatTemp>
    2d54:	85 31       	cpi	r24, 0x15	; 21
    2d56:	60 f0       	brcs	.+24     	; 0x2d70 <ForwardHeatTemp_ActionCallback+0x44>
				--ForwardHeatTemp;
    2d58:	81 50       	subi	r24, 0x01	; 1
    2d5a:	80 93 03 01 	sts	0x0103, r24	; 0x800103 <ForwardHeatTemp>
    2d5e:	08 c0       	rjmp	.+16     	; 0x2d70 <ForwardHeatTemp_ActionCallback+0x44>
			break;
		case MENU_CONFIRM:
			eeprom_update_byte(&eeForwardHeatTemp, ForwardHeatTemp);
    2d60:	60 91 03 01 	lds	r22, 0x0103	; 0x800103 <ForwardHeatTemp>
    2d64:	87 e0       	ldi	r24, 0x07	; 7
    2d66:	90 e0       	ldi	r25, 0x00	; 0
    2d68:	0e 94 e1 1c 	call	0x39c2	; 0x39c2 <eeprom_update_byte>
			return true;
    2d6c:	81 e0       	ldi	r24, 0x01	; 1
    2d6e:	08 95       	ret
		case MENU_CANCEL:
			return true;
	}

	ForwardHeatTemp_CallbackRender(column);
    2d70:	86 2f       	mov	r24, r22
    2d72:	0e 94 3d 12 	call	0x247a	; 0x247a <ForwardHeatTemp_CallbackRender>
	return false;
    2d76:	80 e0       	ldi	r24, 0x00	; 0
    2d78:	08 95       	ret
			break;
		case MENU_CONFIRM:
			eeprom_update_byte(&eeForwardHeatTemp, ForwardHeatTemp);
			return true;
		case MENU_CANCEL:
			return true;
    2d7a:	81 e0       	ldi	r24, 0x01	; 1
	}

	ForwardHeatTemp_CallbackRender(column);
	return false;
}
    2d7c:	08 95       	ret

00002d7e <BufferSensor_ActionCallback>:
	itoa(BufferSensorID, buf, 10);
	lcd_puts(buf);
}

bool BufferSensor_ActionCallback(MENU_BUTTON *button, uint8_t column){
	switch(button->role){
    2d7e:	fc 01       	movw	r30, r24
    2d80:	90 81       	ld	r25, Z
    2d82:	91 30       	cpi	r25, 0x01	; 1
    2d84:	91 f0       	breq	.+36     	; 0x2daa <BufferSensor_ActionCallback+0x2c>
    2d86:	28 f0       	brcs	.+10     	; 0x2d92 <BufferSensor_ActionCallback+0x14>
    2d88:	92 30       	cpi	r25, 0x02	; 2
    2d8a:	e1 f0       	breq	.+56     	; 0x2dc4 <BufferSensor_ActionCallback+0x46>
    2d8c:	93 30       	cpi	r25, 0x03	; 3
    2d8e:	39 f1       	breq	.+78     	; 0x2dde <BufferSensor_ActionCallback+0x60>
    2d90:	21 c0       	rjmp	.+66     	; 0x2dd4 <BufferSensor_ActionCallback+0x56>
		case MENU_UP:
			BufferSensorID++;
    2d92:	80 91 02 01 	lds	r24, 0x0102	; 0x800102 <BufferSensorID>
    2d96:	8f 5f       	subi	r24, 0xFF	; 255
    2d98:	80 93 02 01 	sts	0x0102, r24	; 0x800102 <BufferSensorID>
			if (BufferSensorID == nSensors)
    2d9c:	90 91 39 05 	lds	r25, 0x0539	; 0x800539 <nSensors>
    2da0:	89 13       	cpse	r24, r25
    2da2:	18 c0       	rjmp	.+48     	; 0x2dd4 <BufferSensor_ActionCallback+0x56>
				BufferSensorID = 0;
    2da4:	10 92 02 01 	sts	0x0102, r1	; 0x800102 <BufferSensorID>
    2da8:	15 c0       	rjmp	.+42     	; 0x2dd4 <BufferSensor_ActionCallback+0x56>
			break;
		case MENU_DOWN:
			BufferSensorID--;
    2daa:	80 91 02 01 	lds	r24, 0x0102	; 0x800102 <BufferSensorID>
    2dae:	81 50       	subi	r24, 0x01	; 1
    2db0:	80 93 02 01 	sts	0x0102, r24	; 0x800102 <BufferSensorID>
			if (BufferSensorID == 255)
    2db4:	8f 3f       	cpi	r24, 0xFF	; 255
    2db6:	71 f4       	brne	.+28     	; 0x2dd4 <BufferSensor_ActionCallback+0x56>
				BufferSensorID = nSensors - 1;
    2db8:	80 91 39 05 	lds	r24, 0x0539	; 0x800539 <nSensors>
    2dbc:	81 50       	subi	r24, 0x01	; 1
    2dbe:	80 93 02 01 	sts	0x0102, r24	; 0x800102 <BufferSensorID>
    2dc2:	08 c0       	rjmp	.+16     	; 0x2dd4 <BufferSensor_ActionCallback+0x56>
			break;
		case MENU_CONFIRM:
			eeprom_update_byte(&eeBufferSensorID, BufferSensorID);
    2dc4:	60 91 02 01 	lds	r22, 0x0102	; 0x800102 <BufferSensorID>
    2dc8:	81 e0       	ldi	r24, 0x01	; 1
    2dca:	90 e0       	ldi	r25, 0x00	; 0
    2dcc:	0e 94 e1 1c 	call	0x39c2	; 0x39c2 <eeprom_update_byte>
			return true;
    2dd0:	81 e0       	ldi	r24, 0x01	; 1
    2dd2:	08 95       	ret
		case MENU_CANCEL:
			return true;
	}

	BufferSensor_CallbackRender(column);
    2dd4:	86 2f       	mov	r24, r22
    2dd6:	0e 94 61 12 	call	0x24c2	; 0x24c2 <BufferSensor_CallbackRender>
	return false;
    2dda:	80 e0       	ldi	r24, 0x00	; 0
    2ddc:	08 95       	ret
			break;
		case MENU_CONFIRM:
			eeprom_update_byte(&eeBufferSensorID, BufferSensorID);
			return true;
		case MENU_CANCEL:
			return true;
    2dde:	81 e0       	ldi	r24, 0x01	; 1
	}

	BufferSensor_CallbackRender(column);
	return false;
}
    2de0:	08 95       	ret

00002de2 <GarageTempMin_ActionCallback>:
	lcd_gotoxy(0,1);
	lcd_puts(buf);
}

bool GarageTempMin_ActionCallback(MENU_BUTTON *button, uint8_t column){
	switch(button->role){
    2de2:	fc 01       	movw	r30, r24
    2de4:	90 81       	ld	r25, Z
    2de6:	91 30       	cpi	r25, 0x01	; 1
    2de8:	81 f0       	breq	.+32     	; 0x2e0a <GarageTempMin_ActionCallback+0x28>
    2dea:	28 f0       	brcs	.+10     	; 0x2df6 <GarageTempMin_ActionCallback+0x14>
    2dec:	92 30       	cpi	r25, 0x02	; 2
    2dee:	a9 f0       	breq	.+42     	; 0x2e1a <GarageTempMin_ActionCallback+0x38>
    2df0:	93 30       	cpi	r25, 0x03	; 3
    2df2:	01 f1       	breq	.+64     	; 0x2e34 <GarageTempMin_ActionCallback+0x52>
    2df4:	1a c0       	rjmp	.+52     	; 0x2e2a <GarageTempMin_ActionCallback+0x48>
		case MENU_UP:
			if (GarageTempMin < GarageTempDesired)
    2df6:	80 91 40 05 	lds	r24, 0x0540	; 0x800540 <GarageTempMin>
    2dfa:	90 91 2b 05 	lds	r25, 0x052B	; 0x80052b <GarageTempDesired>
    2dfe:	89 17       	cp	r24, r25
    2e00:	a0 f4       	brcc	.+40     	; 0x2e2a <GarageTempMin_ActionCallback+0x48>
				++GarageTempMin;
    2e02:	8f 5f       	subi	r24, 0xFF	; 255
    2e04:	80 93 40 05 	sts	0x0540, r24	; 0x800540 <GarageTempMin>
    2e08:	10 c0       	rjmp	.+32     	; 0x2e2a <GarageTempMin_ActionCallback+0x48>
			break;
		case MENU_DOWN:
			if (GarageTempMin > 5)
    2e0a:	80 91 40 05 	lds	r24, 0x0540	; 0x800540 <GarageTempMin>
    2e0e:	86 30       	cpi	r24, 0x06	; 6
    2e10:	60 f0       	brcs	.+24     	; 0x2e2a <GarageTempMin_ActionCallback+0x48>
				--GarageTempMin;
    2e12:	81 50       	subi	r24, 0x01	; 1
    2e14:	80 93 40 05 	sts	0x0540, r24	; 0x800540 <GarageTempMin>
    2e18:	08 c0       	rjmp	.+16     	; 0x2e2a <GarageTempMin_ActionCallback+0x48>
			break;
		case MENU_CONFIRM:
			eeprom_update_byte(&eeGarageTempMin, GarageTempMin);
    2e1a:	60 91 40 05 	lds	r22, 0x0540	; 0x800540 <GarageTempMin>
    2e1e:	85 e0       	ldi	r24, 0x05	; 5
    2e20:	90 e0       	ldi	r25, 0x00	; 0
    2e22:	0e 94 e1 1c 	call	0x39c2	; 0x39c2 <eeprom_update_byte>
			return true;
    2e26:	81 e0       	ldi	r24, 0x01	; 1
    2e28:	08 95       	ret
		case MENU_CANCEL:
			return true;
	}

	GarageTempMin_CallbackRender(column);
    2e2a:	86 2f       	mov	r24, r22
    2e2c:	0e 94 85 12 	call	0x250a	; 0x250a <GarageTempMin_CallbackRender>
	return false;
    2e30:	80 e0       	ldi	r24, 0x00	; 0
    2e32:	08 95       	ret
			break;
		case MENU_CONFIRM:
			eeprom_update_byte(&eeGarageTempMin, GarageTempMin);
			return true;
		case MENU_CANCEL:
			return true;
    2e34:	81 e0       	ldi	r24, 0x01	; 1
	}

	GarageTempMin_CallbackRender(column);
	return false;
}
    2e36:	08 95       	ret

00002e38 <GarageTempDesired_ActionCallback>:
	lcd_gotoxy(0,1);
	lcd_puts(buf);
}

bool GarageTempDesired_ActionCallback(MENU_BUTTON *button, uint8_t column){
	switch(button->role){
    2e38:	fc 01       	movw	r30, r24
    2e3a:	90 81       	ld	r25, Z
    2e3c:	91 30       	cpi	r25, 0x01	; 1
    2e3e:	71 f0       	breq	.+28     	; 0x2e5c <GarageTempDesired_ActionCallback+0x24>
    2e40:	28 f0       	brcs	.+10     	; 0x2e4c <GarageTempDesired_ActionCallback+0x14>
    2e42:	92 30       	cpi	r25, 0x02	; 2
    2e44:	a9 f0       	breq	.+42     	; 0x2e70 <GarageTempDesired_ActionCallback+0x38>
    2e46:	93 30       	cpi	r25, 0x03	; 3
    2e48:	01 f1       	breq	.+64     	; 0x2e8a <GarageTempDesired_ActionCallback+0x52>
    2e4a:	1a c0       	rjmp	.+52     	; 0x2e80 <GarageTempDesired_ActionCallback+0x48>
		case MENU_UP:
			if (GarageTempDesired < 35)
    2e4c:	80 91 2b 05 	lds	r24, 0x052B	; 0x80052b <GarageTempDesired>
    2e50:	83 32       	cpi	r24, 0x23	; 35
    2e52:	b0 f4       	brcc	.+44     	; 0x2e80 <GarageTempDesired_ActionCallback+0x48>
				++GarageTempDesired;
    2e54:	8f 5f       	subi	r24, 0xFF	; 255
    2e56:	80 93 2b 05 	sts	0x052B, r24	; 0x80052b <GarageTempDesired>
    2e5a:	12 c0       	rjmp	.+36     	; 0x2e80 <GarageTempDesired_ActionCallback+0x48>
			break;
		case MENU_DOWN:
			if (GarageTempDesired > GarageTempMin)
    2e5c:	80 91 2b 05 	lds	r24, 0x052B	; 0x80052b <GarageTempDesired>
    2e60:	90 91 40 05 	lds	r25, 0x0540	; 0x800540 <GarageTempMin>
    2e64:	98 17       	cp	r25, r24
    2e66:	60 f4       	brcc	.+24     	; 0x2e80 <GarageTempDesired_ActionCallback+0x48>
				--GarageTempDesired;
    2e68:	81 50       	subi	r24, 0x01	; 1
    2e6a:	80 93 2b 05 	sts	0x052B, r24	; 0x80052b <GarageTempDesired>
    2e6e:	08 c0       	rjmp	.+16     	; 0x2e80 <GarageTempDesired_ActionCallback+0x48>
			break;
		case MENU_CONFIRM:
			eeprom_update_byte(&eeGarageTempDesired, GarageTempDesired);
    2e70:	60 91 2b 05 	lds	r22, 0x052B	; 0x80052b <GarageTempDesired>
    2e74:	86 e0       	ldi	r24, 0x06	; 6
    2e76:	90 e0       	ldi	r25, 0x00	; 0
    2e78:	0e 94 e1 1c 	call	0x39c2	; 0x39c2 <eeprom_update_byte>
			return true;
    2e7c:	81 e0       	ldi	r24, 0x01	; 1
    2e7e:	08 95       	ret
		case MENU_CANCEL:
			return true;
	}
	GarageTempDesired_CallbackRender(column);
    2e80:	86 2f       	mov	r24, r22
    2e82:	0e 94 a9 12 	call	0x2552	; 0x2552 <GarageTempDesired_CallbackRender>
	return false;
    2e86:	80 e0       	ldi	r24, 0x00	; 0
    2e88:	08 95       	ret
			break;
		case MENU_CONFIRM:
			eeprom_update_byte(&eeGarageTempDesired, GarageTempDesired);
			return true;
		case MENU_CANCEL:
			return true;
    2e8a:	81 e0       	ldi	r24, 0x01	; 1
	}
	GarageTempDesired_CallbackRender(column);
	return false;
}
    2e8c:	08 95       	ret

00002e8e <GarageSensor_ActionCallback>:
	itoa(GarageSensorID, buf, 10);
	lcd_puts(buf);
}

bool GarageSensor_ActionCallback(MENU_BUTTON *button, uint8_t column){
	switch(button->role){
    2e8e:	fc 01       	movw	r30, r24
    2e90:	90 81       	ld	r25, Z
    2e92:	91 30       	cpi	r25, 0x01	; 1
    2e94:	91 f0       	breq	.+36     	; 0x2eba <GarageSensor_ActionCallback+0x2c>
    2e96:	28 f0       	brcs	.+10     	; 0x2ea2 <GarageSensor_ActionCallback+0x14>
    2e98:	92 30       	cpi	r25, 0x02	; 2
    2e9a:	e1 f0       	breq	.+56     	; 0x2ed4 <GarageSensor_ActionCallback+0x46>
    2e9c:	93 30       	cpi	r25, 0x03	; 3
    2e9e:	39 f1       	breq	.+78     	; 0x2eee <GarageSensor_ActionCallback+0x60>
    2ea0:	21 c0       	rjmp	.+66     	; 0x2ee4 <GarageSensor_ActionCallback+0x56>
		case MENU_UP:
			GarageSensorID++;
    2ea2:	80 91 01 01 	lds	r24, 0x0101	; 0x800101 <GarageSensorID>
    2ea6:	8f 5f       	subi	r24, 0xFF	; 255
    2ea8:	80 93 01 01 	sts	0x0101, r24	; 0x800101 <GarageSensorID>
			if (GarageSensorID == nSensors)
    2eac:	90 91 39 05 	lds	r25, 0x0539	; 0x800539 <nSensors>
    2eb0:	89 13       	cpse	r24, r25
    2eb2:	18 c0       	rjmp	.+48     	; 0x2ee4 <GarageSensor_ActionCallback+0x56>
				GarageSensorID = 0;
    2eb4:	10 92 01 01 	sts	0x0101, r1	; 0x800101 <GarageSensorID>
    2eb8:	15 c0       	rjmp	.+42     	; 0x2ee4 <GarageSensor_ActionCallback+0x56>
			break;
		case MENU_DOWN:
			GarageSensorID--;
    2eba:	80 91 01 01 	lds	r24, 0x0101	; 0x800101 <GarageSensorID>
    2ebe:	81 50       	subi	r24, 0x01	; 1
    2ec0:	80 93 01 01 	sts	0x0101, r24	; 0x800101 <GarageSensorID>
			if (GarageSensorID == 255)
    2ec4:	8f 3f       	cpi	r24, 0xFF	; 255
    2ec6:	71 f4       	brne	.+28     	; 0x2ee4 <GarageSensor_ActionCallback+0x56>
				GarageSensorID = nSensors - 1;
    2ec8:	80 91 39 05 	lds	r24, 0x0539	; 0x800539 <nSensors>
    2ecc:	81 50       	subi	r24, 0x01	; 1
    2ece:	80 93 01 01 	sts	0x0101, r24	; 0x800101 <GarageSensorID>
    2ed2:	08 c0       	rjmp	.+16     	; 0x2ee4 <GarageSensor_ActionCallback+0x56>
			break;
		case MENU_CONFIRM:
			eeprom_update_byte(&eeGarageSensorID, GarageSensorID);
    2ed4:	60 91 01 01 	lds	r22, 0x0101	; 0x800101 <GarageSensorID>
    2ed8:	80 e0       	ldi	r24, 0x00	; 0
    2eda:	90 e0       	ldi	r25, 0x00	; 0
    2edc:	0e 94 e1 1c 	call	0x39c2	; 0x39c2 <eeprom_update_byte>
			return true;
    2ee0:	81 e0       	ldi	r24, 0x01	; 1
    2ee2:	08 95       	ret
		case MENU_CANCEL:
			return true;
	}

	GarageSensor_CallbackRender(column);
    2ee4:	86 2f       	mov	r24, r22
    2ee6:	0e 94 d3 12 	call	0x25a6	; 0x25a6 <GarageSensor_CallbackRender>
	return false;
    2eea:	80 e0       	ldi	r24, 0x00	; 0
    2eec:	08 95       	ret
			break;
		case MENU_CONFIRM:
			eeprom_update_byte(&eeGarageSensorID, GarageSensorID);
			return true;
		case MENU_CANCEL:
			return true;
    2eee:	81 e0       	ldi	r24, 0x01	; 1
	}

	GarageSensor_CallbackRender(column);
	return false;
}
    2ef0:	08 95       	ret

00002ef2 <DebugMode_ActionCallback>:
	itoa(DebugMode, buf, 10);
	lcd_puts(buf);
}

bool DebugMode_ActionCallback(MENU_BUTTON *button, uint8_t column){
	switch(button->role){
    2ef2:	fc 01       	movw	r30, r24
    2ef4:	90 81       	ld	r25, Z
    2ef6:	91 30       	cpi	r25, 0x01	; 1
    2ef8:	61 f0       	breq	.+24     	; 0x2f12 <DebugMode_ActionCallback+0x20>
    2efa:	28 f0       	brcs	.+10     	; 0x2f06 <DebugMode_ActionCallback+0x14>
    2efc:	92 30       	cpi	r25, 0x02	; 2
    2efe:	79 f0       	breq	.+30     	; 0x2f1e <DebugMode_ActionCallback+0x2c>
    2f00:	93 30       	cpi	r25, 0x03	; 3
    2f02:	d1 f0       	breq	.+52     	; 0x2f38 <DebugMode_ActionCallback+0x46>
    2f04:	14 c0       	rjmp	.+40     	; 0x2f2e <DebugMode_ActionCallback+0x3c>
		case MENU_UP:
			++DebugMode;
    2f06:	80 91 73 04 	lds	r24, 0x0473	; 0x800473 <DebugMode>
    2f0a:	8f 5f       	subi	r24, 0xFF	; 255
    2f0c:	80 93 73 04 	sts	0x0473, r24	; 0x800473 <DebugMode>
			break;
    2f10:	0e c0       	rjmp	.+28     	; 0x2f2e <DebugMode_ActionCallback+0x3c>
		case MENU_DOWN:
			--DebugMode;
    2f12:	80 91 73 04 	lds	r24, 0x0473	; 0x800473 <DebugMode>
    2f16:	81 50       	subi	r24, 0x01	; 1
    2f18:	80 93 73 04 	sts	0x0473, r24	; 0x800473 <DebugMode>
			break;
    2f1c:	08 c0       	rjmp	.+16     	; 0x2f2e <DebugMode_ActionCallback+0x3c>
		case MENU_CONFIRM:
			eeprom_update_byte(&eeDebugMode, DebugMode);
    2f1e:	60 91 73 04 	lds	r22, 0x0473	; 0x800473 <DebugMode>
    2f22:	82 e1       	ldi	r24, 0x12	; 18
    2f24:	90 e0       	ldi	r25, 0x00	; 0
    2f26:	0e 94 e1 1c 	call	0x39c2	; 0x39c2 <eeprom_update_byte>
			return true;
    2f2a:	81 e0       	ldi	r24, 0x01	; 1
    2f2c:	08 95       	ret
		case MENU_CANCEL:
			return true;
	}

	DebugMode_CallbackRender(column);
    2f2e:	86 2f       	mov	r24, r22
    2f30:	0e 94 f7 12 	call	0x25ee	; 0x25ee <DebugMode_CallbackRender>
	return false;
    2f34:	80 e0       	ldi	r24, 0x00	; 0
    2f36:	08 95       	ret
			break;
		case MENU_CONFIRM:
			eeprom_update_byte(&eeDebugMode, DebugMode);
			return true;
		case MENU_CANCEL:
			return true;
    2f38:	81 e0       	ldi	r24, 0x01	; 1
	}

	DebugMode_CallbackRender(column);
	return false;
}
    2f3a:	08 95       	ret

00002f3c <MenuTimer_ActionCallback>:
	itoa(MenuTimer, buf, 10);
	lcd_puts(buf);
}

bool MenuTimer_ActionCallback(MENU_BUTTON *button, uint8_t column){
	switch(button->role){
    2f3c:	fc 01       	movw	r30, r24
    2f3e:	90 81       	ld	r25, Z
    2f40:	91 30       	cpi	r25, 0x01	; 1
    2f42:	61 f0       	breq	.+24     	; 0x2f5c <MenuTimer_ActionCallback+0x20>
    2f44:	28 f0       	brcs	.+10     	; 0x2f50 <MenuTimer_ActionCallback+0x14>
    2f46:	92 30       	cpi	r25, 0x02	; 2
    2f48:	79 f0       	breq	.+30     	; 0x2f68 <MenuTimer_ActionCallback+0x2c>
    2f4a:	93 30       	cpi	r25, 0x03	; 3
    2f4c:	d1 f0       	breq	.+52     	; 0x2f82 <MenuTimer_ActionCallback+0x46>
    2f4e:	14 c0       	rjmp	.+40     	; 0x2f78 <MenuTimer_ActionCallback+0x3c>
		case MENU_UP:
			++MenuTimer;
    2f50:	80 91 06 01 	lds	r24, 0x0106	; 0x800106 <MenuTimer>
    2f54:	8f 5f       	subi	r24, 0xFF	; 255
    2f56:	80 93 06 01 	sts	0x0106, r24	; 0x800106 <MenuTimer>
			break;
    2f5a:	0e c0       	rjmp	.+28     	; 0x2f78 <MenuTimer_ActionCallback+0x3c>
		case MENU_DOWN:
			--MenuTimer;
    2f5c:	80 91 06 01 	lds	r24, 0x0106	; 0x800106 <MenuTimer>
    2f60:	81 50       	subi	r24, 0x01	; 1
    2f62:	80 93 06 01 	sts	0x0106, r24	; 0x800106 <MenuTimer>
			break;
    2f66:	08 c0       	rjmp	.+16     	; 0x2f78 <MenuTimer_ActionCallback+0x3c>
		case MENU_CONFIRM:
			eeprom_update_byte(&eeMenuTimer, MenuTimer);
    2f68:	60 91 06 01 	lds	r22, 0x0106	; 0x800106 <MenuTimer>
    2f6c:	81 e1       	ldi	r24, 0x11	; 17
    2f6e:	90 e0       	ldi	r25, 0x00	; 0
    2f70:	0e 94 e1 1c 	call	0x39c2	; 0x39c2 <eeprom_update_byte>
			return true;
    2f74:	81 e0       	ldi	r24, 0x01	; 1
    2f76:	08 95       	ret
		case MENU_CANCEL:
			return true;
	}

	MenuTimer_CallbackRender(column);
    2f78:	86 2f       	mov	r24, r22
    2f7a:	0e 94 1b 13 	call	0x2636	; 0x2636 <MenuTimer_CallbackRender>
	return false;
    2f7e:	80 e0       	ldi	r24, 0x00	; 0
    2f80:	08 95       	ret
			break;
		case MENU_CONFIRM:
			eeprom_update_byte(&eeMenuTimer, MenuTimer);
			return true;
		case MENU_CANCEL:
			return true;
    2f82:	81 e0       	ldi	r24, 0x01	; 1
	}

	MenuTimer_CallbackRender(column);
	return false;
}
    2f84:	08 95       	ret

00002f86 <LCDBackLight_ActionCallback>:
	itoa(LCDBackLight, buf, 10);
	lcd_puts(buf);
}

bool LCDBackLight_ActionCallback(MENU_BUTTON *button, uint8_t column){
	switch(button->role){
    2f86:	fc 01       	movw	r30, r24
    2f88:	90 81       	ld	r25, Z
    2f8a:	91 30       	cpi	r25, 0x01	; 1
    2f8c:	61 f0       	breq	.+24     	; 0x2fa6 <LCDBackLight_ActionCallback+0x20>
    2f8e:	28 f0       	brcs	.+10     	; 0x2f9a <LCDBackLight_ActionCallback+0x14>
    2f90:	92 30       	cpi	r25, 0x02	; 2
    2f92:	79 f0       	breq	.+30     	; 0x2fb2 <LCDBackLight_ActionCallback+0x2c>
    2f94:	93 30       	cpi	r25, 0x03	; 3
    2f96:	19 f1       	breq	.+70     	; 0x2fde <LCDBackLight_ActionCallback+0x58>
    2f98:	14 c0       	rjmp	.+40     	; 0x2fc2 <LCDBackLight_ActionCallback+0x3c>
		case MENU_UP:
			++LCDBackLight;
    2f9a:	80 91 72 04 	lds	r24, 0x0472	; 0x800472 <LCDBackLight>
    2f9e:	8f 5f       	subi	r24, 0xFF	; 255
    2fa0:	80 93 72 04 	sts	0x0472, r24	; 0x800472 <LCDBackLight>
			break;
    2fa4:	0e c0       	rjmp	.+28     	; 0x2fc2 <LCDBackLight_ActionCallback+0x3c>
		case MENU_DOWN:
			--LCDBackLight;
    2fa6:	80 91 72 04 	lds	r24, 0x0472	; 0x800472 <LCDBackLight>
    2faa:	81 50       	subi	r24, 0x01	; 1
    2fac:	80 93 72 04 	sts	0x0472, r24	; 0x800472 <LCDBackLight>
			break;
    2fb0:	08 c0       	rjmp	.+16     	; 0x2fc2 <LCDBackLight_ActionCallback+0x3c>
		case MENU_CONFIRM:
			eeprom_update_byte(&eeLCDBackLight, LCDBackLight);
    2fb2:	60 91 72 04 	lds	r22, 0x0472	; 0x800472 <LCDBackLight>
    2fb6:	80 e1       	ldi	r24, 0x10	; 16
    2fb8:	90 e0       	ldi	r25, 0x00	; 0
    2fba:	0e 94 e1 1c 	call	0x39c2	; 0x39c2 <eeprom_update_byte>
			return true;
    2fbe:	81 e0       	ldi	r24, 0x01	; 1
    2fc0:	08 95       	ret
		case MENU_CANCEL:
			return true;
	}
	if (LCDBackLight != 0)
    2fc2:	20 91 72 04 	lds	r18, 0x0472	; 0x800472 <LCDBackLight>
    2fc6:	22 23       	and	r18, r18
    2fc8:	29 f0       	breq	.+10     	; 0x2fd4 <LCDBackLight_ActionCallback+0x4e>
		OCR3C = LCDBackLight;
    2fca:	30 e0       	ldi	r19, 0x00	; 0
    2fcc:	30 93 83 00 	sts	0x0083, r19	; 0x800083 <__TEXT_REGION_LENGTH__+0x7e0083>
    2fd0:	20 93 82 00 	sts	0x0082, r18	; 0x800082 <__TEXT_REGION_LENGTH__+0x7e0082>

	LCDBackLight_CallbackRender(column);
    2fd4:	86 2f       	mov	r24, r22
    2fd6:	0e 94 3b 13 	call	0x2676	; 0x2676 <LCDBackLight_CallbackRender>
	return false;
    2fda:	80 e0       	ldi	r24, 0x00	; 0
    2fdc:	08 95       	ret
			break;
		case MENU_CONFIRM:
			eeprom_update_byte(&eeLCDBackLight, LCDBackLight);
			return true;
		case MENU_CANCEL:
			return true;
    2fde:	81 e0       	ldi	r24, 0x01	; 1
	if (LCDBackLight != 0)
		OCR3C = LCDBackLight;

	LCDBackLight_CallbackRender(column);
	return false;
}
    2fe0:	08 95       	ret

00002fe2 <DHWRelay_ActionCallback>:
		lcd_puts_p(PSTR("Be"));
	else
		lcd_puts_p(PSTR("Ki"));
}

bool DHWRelay_ActionCallback(MENU_BUTTON *button, uint8_t column){
    2fe2:	cf 93       	push	r28
    2fe4:	c6 2f       	mov	r28, r22
	switch(button->role){
    2fe6:	fc 01       	movw	r30, r24
    2fe8:	80 81       	ld	r24, Z
    2fea:	82 30       	cpi	r24, 0x02	; 2
    2fec:	18 f0       	brcs	.+6      	; 0x2ff4 <DHWRelay_ActionCallback+0x12>
    2fee:	84 30       	cpi	r24, 0x04	; 4
    2ff0:	70 f4       	brcc	.+28     	; 0x300e <DHWRelay_ActionCallback+0x2c>
    2ff2:	12 c0       	rjmp	.+36     	; 0x3018 <DHWRelay_ActionCallback+0x36>
		case MENU_UP:
		case MENU_DOWN:
		{
			if (Relays & DHW_VALVE_RELAY)
    2ff4:	80 91 71 04 	lds	r24, 0x0471	; 0x800471 <Relays>
    2ff8:	82 ff       	sbrs	r24, 2
    2ffa:	04 c0       	rjmp	.+8      	; 0x3004 <DHWRelay_ActionCallback+0x22>
				Relays &= ~(1 << DHW_VALVE_RELAY);
    2ffc:	8f 7e       	andi	r24, 0xEF	; 239
    2ffe:	80 93 71 04 	sts	0x0471, r24	; 0x800471 <Relays>
    3002:	03 c0       	rjmp	.+6      	; 0x300a <DHWRelay_ActionCallback+0x28>
			else
				Relays |= (1 << DHW_VALVE_RELAY);
    3004:	80 61       	ori	r24, 0x10	; 16
    3006:	80 93 71 04 	sts	0x0471, r24	; 0x800471 <Relays>
			SwitchRelays();
    300a:	0e 94 a3 0c 	call	0x1946	; 0x1946 <SwitchRelays>
			return true;
		case MENU_CANCEL:
			return true;
	}

	DHWRelay_CallbackRender(column);
    300e:	8c 2f       	mov	r24, r28
    3010:	0e 94 37 15 	call	0x2a6e	; 0x2a6e <DHWRelay_CallbackRender>
	return false;
    3014:	80 e0       	ldi	r24, 0x00	; 0
    3016:	01 c0       	rjmp	.+2      	; 0x301a <DHWRelay_ActionCallback+0x38>
			SwitchRelays();

			break;
		}
		case MENU_CONFIRM:
			return true;
    3018:	81 e0       	ldi	r24, 0x01	; 1
			return true;
	}

	DHWRelay_CallbackRender(column);
	return false;
}
    301a:	cf 91       	pop	r28
    301c:	08 95       	ret

0000301e <ZoneValve1_ActionCallback>:
		lcd_puts_p(PSTR("Be"));
	else
		lcd_puts_p(PSTR("Ki"));
}

bool ZoneValve1_ActionCallback(MENU_BUTTON *button, uint8_t column){
    301e:	cf 93       	push	r28
    3020:	c6 2f       	mov	r28, r22
	switch(button->role){
    3022:	fc 01       	movw	r30, r24
    3024:	80 81       	ld	r24, Z
    3026:	82 30       	cpi	r24, 0x02	; 2
    3028:	18 f0       	brcs	.+6      	; 0x3030 <ZoneValve1_ActionCallback+0x12>
    302a:	84 30       	cpi	r24, 0x04	; 4
    302c:	48 f4       	brcc	.+18     	; 0x3040 <ZoneValve1_ActionCallback+0x22>
    302e:	0d c0       	rjmp	.+26     	; 0x304a <ZoneValve1_ActionCallback+0x2c>
		case MENU_UP:
		case MENU_DOWN:
			Relays ^= (1 << FIRST_FLOOR_VALVE);
    3030:	90 91 71 04 	lds	r25, 0x0471	; 0x800471 <Relays>
    3034:	84 e0       	ldi	r24, 0x04	; 4
    3036:	89 27       	eor	r24, r25
    3038:	80 93 71 04 	sts	0x0471, r24	; 0x800471 <Relays>
			SwitchRelays();
    303c:	0e 94 a3 0c 	call	0x1946	; 0x1946 <SwitchRelays>
		return true;
		case MENU_CANCEL:
		return true;
	}

	ZoneValve1_CallbackRender(column);
    3040:	8c 2f       	mov	r24, r28
    3042:	0e 94 4f 15 	call	0x2a9e	; 0x2a9e <ZoneValve1_CallbackRender>
	return false;
    3046:	80 e0       	ldi	r24, 0x00	; 0
    3048:	01 c0       	rjmp	.+2      	; 0x304c <ZoneValve1_ActionCallback+0x2e>
		case MENU_DOWN:
			Relays ^= (1 << FIRST_FLOOR_VALVE);
			SwitchRelays();
			break;
		case MENU_CONFIRM:
		return true;
    304a:	81 e0       	ldi	r24, 0x01	; 1
		return true;
	}

	ZoneValve1_CallbackRender(column);
	return false;
}
    304c:	cf 91       	pop	r28
    304e:	08 95       	ret

00003050 <ZoneValve2_ActionCallback>:
			lcd_puts_p(PSTR("Be"));
		else
			lcd_puts_p(PSTR("Ki"));
}

bool ZoneValve2_ActionCallback(MENU_BUTTON *button, uint8_t column){
    3050:	cf 93       	push	r28
    3052:	c6 2f       	mov	r28, r22
	switch(button->role){
    3054:	fc 01       	movw	r30, r24
    3056:	80 81       	ld	r24, Z
    3058:	82 30       	cpi	r24, 0x02	; 2
    305a:	18 f0       	brcs	.+6      	; 0x3062 <ZoneValve2_ActionCallback+0x12>
    305c:	84 30       	cpi	r24, 0x04	; 4
    305e:	48 f4       	brcc	.+18     	; 0x3072 <ZoneValve2_ActionCallback+0x22>
    3060:	0d c0       	rjmp	.+26     	; 0x307c <ZoneValve2_ActionCallback+0x2c>
		case MENU_UP:
		case MENU_DOWN:
			Relays ^= (1 << SECOND_FLOOR_VALVE);
    3062:	90 91 71 04 	lds	r25, 0x0471	; 0x800471 <Relays>
    3066:	88 e0       	ldi	r24, 0x08	; 8
    3068:	89 27       	eor	r24, r25
    306a:	80 93 71 04 	sts	0x0471, r24	; 0x800471 <Relays>
			SwitchRelays();
    306e:	0e 94 a3 0c 	call	0x1946	; 0x1946 <SwitchRelays>
		return true;
		case MENU_CANCEL:
		return true;
	}

	ZoneValve2_CallbackRender(column);
    3072:	8c 2f       	mov	r24, r28
    3074:	0e 94 67 15 	call	0x2ace	; 0x2ace <ZoneValve2_CallbackRender>
	return false;
    3078:	80 e0       	ldi	r24, 0x00	; 0
    307a:	01 c0       	rjmp	.+2      	; 0x307e <ZoneValve2_ActionCallback+0x2e>
		case MENU_DOWN:
			Relays ^= (1 << SECOND_FLOOR_VALVE);
			SwitchRelays();
			break;
		case MENU_CONFIRM:
		return true;
    307c:	81 e0       	ldi	r24, 0x01	; 1
		return true;
	}

	ZoneValve2_CallbackRender(column);
	return false;
}
    307e:	cf 91       	pop	r28
    3080:	08 95       	ret

00003082 <BufferValve_ActionCallback>:
		lcd_puts_p(PSTR("Puffer"));
	else
		lcd_puts_hu(PSTR("Gz"));
}

bool BufferValve_ActionCallback(MENU_BUTTON *button, uint8_t column){
    3082:	cf 93       	push	r28
    3084:	c6 2f       	mov	r28, r22
	switch(button->role){
    3086:	fc 01       	movw	r30, r24
    3088:	80 81       	ld	r24, Z
    308a:	82 30       	cpi	r24, 0x02	; 2
    308c:	18 f0       	brcs	.+6      	; 0x3094 <BufferValve_ActionCallback+0x12>
    308e:	84 30       	cpi	r24, 0x04	; 4
    3090:	48 f4       	brcc	.+18     	; 0x30a4 <BufferValve_ActionCallback+0x22>
    3092:	0d c0       	rjmp	.+26     	; 0x30ae <BufferValve_ActionCallback+0x2c>
		case MENU_UP:
		case MENU_DOWN:
			Relays ^= (1 << BUFFER_VALVE_RELAY);
    3094:	90 91 71 04 	lds	r25, 0x0471	; 0x800471 <Relays>
    3098:	80 e2       	ldi	r24, 0x20	; 32
    309a:	89 27       	eor	r24, r25
    309c:	80 93 71 04 	sts	0x0471, r24	; 0x800471 <Relays>
			SwitchRelays();
    30a0:	0e 94 a3 0c 	call	0x1946	; 0x1946 <SwitchRelays>
		return true;
		case MENU_CANCEL:
		return true;
	}

	BufferValve_CallbackRender(column);
    30a4:	8c 2f       	mov	r24, r28
    30a6:	0e 94 7f 15 	call	0x2afe	; 0x2afe <BufferValve_CallbackRender>
	return false;
    30aa:	80 e0       	ldi	r24, 0x00	; 0
    30ac:	01 c0       	rjmp	.+2      	; 0x30b0 <BufferValve_ActionCallback+0x2e>
		case MENU_DOWN:
			Relays ^= (1 << BUFFER_VALVE_RELAY);
			SwitchRelays();
			break;
		case MENU_CONFIRM:
		return true;
    30ae:	81 e0       	ldi	r24, 0x01	; 1
		return true;
	}

	BufferValve_CallbackRender(column);
	return false;
}
    30b0:	cf 91       	pop	r28
    30b2:	08 95       	ret

000030b4 <BufferPump_ActionCallback>:
		lcd_puts_p(PSTR("Be"));
	else
		lcd_puts_p(PSTR("Ki"));
}

bool BufferPump_ActionCallback(MENU_BUTTON *button, uint8_t column){
    30b4:	cf 93       	push	r28
    30b6:	c6 2f       	mov	r28, r22
	switch(button->role){
    30b8:	fc 01       	movw	r30, r24
    30ba:	80 81       	ld	r24, Z
    30bc:	82 30       	cpi	r24, 0x02	; 2
    30be:	18 f0       	brcs	.+6      	; 0x30c6 <BufferPump_ActionCallback+0x12>
    30c0:	84 30       	cpi	r24, 0x04	; 4
    30c2:	48 f4       	brcc	.+18     	; 0x30d6 <BufferPump_ActionCallback+0x22>
    30c4:	0d c0       	rjmp	.+26     	; 0x30e0 <BufferPump_ActionCallback+0x2c>
		case MENU_UP:
		case MENU_DOWN:
			Relays ^= (1 << BUFFER_PUMP_RELAY);
    30c6:	90 91 71 04 	lds	r25, 0x0471	; 0x800471 <Relays>
    30ca:	80 e4       	ldi	r24, 0x40	; 64
    30cc:	89 27       	eor	r24, r25
    30ce:	80 93 71 04 	sts	0x0471, r24	; 0x800471 <Relays>
			SwitchRelays();
    30d2:	0e 94 a3 0c 	call	0x1946	; 0x1946 <SwitchRelays>
		return true;
		case MENU_CANCEL:
		return true;
	}

	BufferPump_CallbackRender(column);
    30d6:	8c 2f       	mov	r24, r28
    30d8:	0e 94 97 15 	call	0x2b2e	; 0x2b2e <BufferPump_CallbackRender>
	return false;
    30dc:	80 e0       	ldi	r24, 0x00	; 0
    30de:	01 c0       	rjmp	.+2      	; 0x30e2 <BufferPump_ActionCallback+0x2e>
		case MENU_DOWN:
			Relays ^= (1 << BUFFER_PUMP_RELAY);
			SwitchRelays();
			break;
		case MENU_CONFIRM:
		return true;
    30e0:	81 e0       	ldi	r24, 0x01	; 1
		return true;
	}

	BufferPump_CallbackRender(column);
	return false;
}
    30e2:	cf 91       	pop	r28
    30e4:	08 95       	ret

000030e6 <GasRelay_ActionCallback>:
		lcd_puts_p(PSTR("Be"));
	else
		lcd_puts_p(PSTR("Ki"));
}

bool GasRelay_ActionCallback(MENU_BUTTON *button, uint8_t column){
    30e6:	cf 93       	push	r28
    30e8:	c6 2f       	mov	r28, r22
	switch(button->role){
    30ea:	fc 01       	movw	r30, r24
    30ec:	80 81       	ld	r24, Z
    30ee:	82 30       	cpi	r24, 0x02	; 2
    30f0:	18 f0       	brcs	.+6      	; 0x30f8 <GasRelay_ActionCallback+0x12>
    30f2:	84 30       	cpi	r24, 0x04	; 4
    30f4:	40 f4       	brcc	.+16     	; 0x3106 <GasRelay_ActionCallback+0x20>
    30f6:	0c c0       	rjmp	.+24     	; 0x3110 <GasRelay_ActionCallback+0x2a>
		case MENU_UP:
		case MENU_DOWN:
			Relays ^= (1 << GAS_RELAY);
    30f8:	80 91 71 04 	lds	r24, 0x0471	; 0x800471 <Relays>
    30fc:	80 58       	subi	r24, 0x80	; 128
    30fe:	80 93 71 04 	sts	0x0471, r24	; 0x800471 <Relays>
			SwitchRelays();
    3102:	0e 94 a3 0c 	call	0x1946	; 0x1946 <SwitchRelays>
		return true;
		case MENU_CANCEL:
		return true;
	}

	GasRelay_CallbackRender(column);
    3106:	8c 2f       	mov	r24, r28
    3108:	0e 94 af 15 	call	0x2b5e	; 0x2b5e <GasRelay_CallbackRender>
	return false;
    310c:	80 e0       	ldi	r24, 0x00	; 0
    310e:	01 c0       	rjmp	.+2      	; 0x3112 <GasRelay_ActionCallback+0x2c>
		case MENU_DOWN:
			Relays ^= (1 << GAS_RELAY);
			SwitchRelays();
			break;
		case MENU_CONFIRM:
		return true;
    3110:	81 e0       	ldi	r24, 0x01	; 1
		return true;
	}

	GasRelay_CallbackRender(column);
	return false;
}
    3112:	cf 91       	pop	r28
    3114:	08 95       	ret

00003116 <menuItemsGetHomeMenu>:
** Public methods to access home view and home view size
*/

MENU_ITEM *menuItemsGetHomeMenu(){
	return home_items;
}
    3116:	80 e4       	ldi	r24, 0x40	; 64
    3118:	91 e0       	ldi	r25, 0x01	; 1
    311a:	08 95       	ret

0000311c <menuItemsGetHomeMenuSize>:

uint8_t menuItemsGetHomeMenuSize(){
	return MENU_HOME_ITEMS;
    311c:	86 e0       	ldi	r24, 0x06	; 6
    311e:	08 95       	ret

00003120 <menuPortsioInit>:
#include "menu_portsio.h"


static void setupPortsForControlButtons(){
	// Set buttons as input
	MENU_PORTSIO_DDR &= ~(_BV(MENU_PORTSIO_BTN_UP)     |
    3120:	81 b3       	in	r24, 0x11	; 17
    3122:	8f 70       	andi	r24, 0x0F	; 15
    3124:	81 bb       	out	0x11, r24	; 17
					     _BV(MENU_PORTSIO_BTN_DOWN)    |
					     _BV(MENU_PORTSIO_BTN_CONFIRM) |
					     _BV(MENU_PORTSIO_BTN_CANCEL));

	// with active low
	MENU_PORTSIO_PORT |= _BV(MENU_PORTSIO_BTN_UP)      |
    3126:	82 b3       	in	r24, 0x12	; 18
    3128:	80 6f       	ori	r24, 0xF0	; 240
    312a:	82 bb       	out	0x12, r24	; 18
    312c:	08 95       	ret

0000312e <SPIInit>:
#include "spi.h"

void SPIInit()
{
	//Set up SPI I/O Ports
	SPI_DDR |= (1<<MOSI_POS)|(1<<SCK_POS)|(1<<SS_POS);
    312e:	87 b3       	in	r24, 0x17	; 23
    3130:	87 60       	ori	r24, 0x07	; 7
    3132:	87 bb       	out	0x17, r24	; 23
	
	SPI_PORT |= (1<<SS_POS)|(1 << MISO_POS);
    3134:	88 b3       	in	r24, 0x18	; 24
    3136:	89 60       	ori	r24, 0x09	; 9
    3138:	88 bb       	out	0x18, r24	; 24

	SPI_CS_PORT |= 0xFF;
    313a:	8b b3       	in	r24, 0x1b	; 27
    313c:	8f ef       	ldi	r24, 0xFF	; 255
    313e:	8b bb       	out	0x1b, r24	; 27
	SPI_CS_DDR |= 0xFF;
    3140:	9a b3       	in	r25, 0x1a	; 26
    3142:	8a bb       	out	0x1a, r24	; 26

	SPCR |= (1 << SPE)|(1 << MSTR)|(1 << SPR0)|(1 << SPR1);
    3144:	8d b1       	in	r24, 0x0d	; 13
    3146:	83 65       	ori	r24, 0x53	; 83
    3148:	8d b9       	out	0x0d, r24	; 13
    314a:	08 95       	ret

0000314c <SPIClose>:
}

void SPIClose()
{
	SPCR&=(~(1<<SPE));
    314c:	6e 98       	cbi	0x0d, 6	; 13
	SPI_DDR&=(~((1<<MOSI_POS)|(1<<SCK_POS)));
    314e:	87 b3       	in	r24, 0x17	; 23
    3150:	89 7f       	andi	r24, 0xF9	; 249
    3152:	87 bb       	out	0x17, r24	; 23
    3154:	08 95       	ret

00003156 <SPIWrite>:
}

unsigned char SPIWrite(unsigned char address, unsigned char data)
{
	SPI_CS_PORT &= ~(1 << address);
    3156:	4b b3       	in	r20, 0x1b	; 27
    3158:	21 e0       	ldi	r18, 0x01	; 1
    315a:	30 e0       	ldi	r19, 0x00	; 0
    315c:	f9 01       	movw	r30, r18
    315e:	02 c0       	rjmp	.+4      	; 0x3164 <SPIWrite+0xe>
    3160:	ee 0f       	add	r30, r30
    3162:	ff 1f       	adc	r31, r31
    3164:	8a 95       	dec	r24
    3166:	e2 f7       	brpl	.-8      	; 0x3160 <SPIWrite+0xa>
    3168:	cf 01       	movw	r24, r30
    316a:	2e 2f       	mov	r18, r30
    316c:	20 95       	com	r18
    316e:	42 23       	and	r20, r18
    3170:	4b bb       	out	0x1b, r20	; 27
	SPDR = data;
    3172:	6f b9       	out	0x0f, r22	; 15
	while(!(SPSR & (1 << SPIF)));
    3174:	77 9b       	sbis	0x0e, 7	; 14
    3176:	fe cf       	rjmp	.-4      	; 0x3174 <SPIWrite+0x1e>
	SPI_CS_PORT |= (1 << address);
    3178:	9b b3       	in	r25, 0x1b	; 27
    317a:	89 2b       	or	r24, r25
    317c:	8b bb       	out	0x1b, r24	; 27
	return SPDR;
    317e:	8f b1       	in	r24, 0x0f	; 15
}
    3180:	08 95       	ret

00003182 <__vector_18>:
**************************************************************************/
void uart_puthex_byte(const unsigned char  b)
{
	uart_puthex_nibble(b>>4);
	uart_puthex_nibble(b);
} /* uart_puthex_byte */
    3182:	1f 92       	push	r1
    3184:	0f 92       	push	r0
    3186:	0f b6       	in	r0, 0x3f	; 63
    3188:	0f 92       	push	r0
    318a:	11 24       	eor	r1, r1
    318c:	2f 93       	push	r18
    318e:	8f 93       	push	r24
    3190:	9f 93       	push	r25
    3192:	ef 93       	push	r30
    3194:	ff 93       	push	r31
    3196:	8b b1       	in	r24, 0x0b	; 11
    3198:	2c b1       	in	r18, 0x0c	; 12
    319a:	8c 71       	andi	r24, 0x1C	; 28
    319c:	e0 91 bc 04 	lds	r30, 0x04BC	; 0x8004bc <UART_RxHead>
    31a0:	ef 5f       	subi	r30, 0xFF	; 255
    31a2:	ef 71       	andi	r30, 0x1F	; 31
    31a4:	90 91 bb 04 	lds	r25, 0x04BB	; 0x8004bb <UART_RxTail>
    31a8:	e9 17       	cp	r30, r25
    31aa:	39 f0       	breq	.+14     	; 0x31ba <__vector_18+0x38>
    31ac:	e0 93 bc 04 	sts	0x04BC, r30	; 0x8004bc <UART_RxHead>
    31b0:	f0 e0       	ldi	r31, 0x00	; 0
    31b2:	e1 54       	subi	r30, 0x41	; 65
    31b4:	fb 4f       	sbci	r31, 0xFB	; 251
    31b6:	20 83       	st	Z, r18
    31b8:	01 c0       	rjmp	.+2      	; 0x31bc <__vector_18+0x3a>
    31ba:	82 e0       	ldi	r24, 0x02	; 2
    31bc:	90 91 ba 04 	lds	r25, 0x04BA	; 0x8004ba <UART_LastRxError>
    31c0:	89 2b       	or	r24, r25
    31c2:	80 93 ba 04 	sts	0x04BA, r24	; 0x8004ba <UART_LastRxError>
    31c6:	ff 91       	pop	r31
    31c8:	ef 91       	pop	r30
    31ca:	9f 91       	pop	r25
    31cc:	8f 91       	pop	r24
    31ce:	2f 91       	pop	r18
    31d0:	0f 90       	pop	r0
    31d2:	0f be       	out	0x3f, r0	; 63
    31d4:	0f 90       	pop	r0
    31d6:	1f 90       	pop	r1
    31d8:	18 95       	reti

000031da <__vector_19>:
    31da:	1f 92       	push	r1
    31dc:	0f 92       	push	r0
    31de:	0f b6       	in	r0, 0x3f	; 63
    31e0:	0f 92       	push	r0
    31e2:	11 24       	eor	r1, r1
    31e4:	8f 93       	push	r24
    31e6:	9f 93       	push	r25
    31e8:	ef 93       	push	r30
    31ea:	ff 93       	push	r31
    31ec:	90 91 be 04 	lds	r25, 0x04BE	; 0x8004be <UART_TxHead>
    31f0:	80 91 bd 04 	lds	r24, 0x04BD	; 0x8004bd <UART_TxTail>
    31f4:	98 17       	cp	r25, r24
    31f6:	61 f0       	breq	.+24     	; 0x3210 <__vector_19+0x36>
    31f8:	e0 91 bd 04 	lds	r30, 0x04BD	; 0x8004bd <UART_TxTail>
    31fc:	ef 5f       	subi	r30, 0xFF	; 255
    31fe:	ef 71       	andi	r30, 0x1F	; 31
    3200:	e0 93 bd 04 	sts	0x04BD, r30	; 0x8004bd <UART_TxTail>
    3204:	f0 e0       	ldi	r31, 0x00	; 0
    3206:	e1 52       	subi	r30, 0x21	; 33
    3208:	fb 4f       	sbci	r31, 0xFB	; 251
    320a:	80 81       	ld	r24, Z
    320c:	8c b9       	out	0x0c, r24	; 12
    320e:	01 c0       	rjmp	.+2      	; 0x3212 <__vector_19+0x38>
    3210:	55 98       	cbi	0x0a, 5	; 10
    3212:	ff 91       	pop	r31
    3214:	ef 91       	pop	r30
    3216:	9f 91       	pop	r25
    3218:	8f 91       	pop	r24
    321a:	0f 90       	pop	r0
    321c:	0f be       	out	0x3f, r0	; 63
    321e:	0f 90       	pop	r0
    3220:	1f 90       	pop	r1
    3222:	18 95       	reti

00003224 <uart_init>:
    3224:	10 92 be 04 	sts	0x04BE, r1	; 0x8004be <UART_TxHead>
    3228:	10 92 bd 04 	sts	0x04BD, r1	; 0x8004bd <UART_TxTail>
    322c:	10 92 bc 04 	sts	0x04BC, r1	; 0x8004bc <UART_RxHead>
    3230:	10 92 bb 04 	sts	0x04BB, r1	; 0x8004bb <UART_RxTail>
    3234:	99 23       	and	r25, r25
    3236:	14 f4       	brge	.+4      	; 0x323c <uart_init+0x18>
    3238:	22 e0       	ldi	r18, 0x02	; 2
    323a:	2b b9       	out	0x0b, r18	; 11
    323c:	90 78       	andi	r25, 0x80	; 128
    323e:	90 93 90 00 	sts	0x0090, r25	; 0x800090 <__TEXT_REGION_LENGTH__+0x7e0090>
    3242:	89 b9       	out	0x09, r24	; 9
    3244:	88 e9       	ldi	r24, 0x98	; 152
    3246:	8a b9       	out	0x0a, r24	; 10
    3248:	86 e0       	ldi	r24, 0x06	; 6
    324a:	80 93 95 00 	sts	0x0095, r24	; 0x800095 <__TEXT_REGION_LENGTH__+0x7e0095>
    324e:	08 95       	ret

00003250 <uart_putc>:
    3250:	20 91 be 04 	lds	r18, 0x04BE	; 0x8004be <UART_TxHead>
    3254:	2f 5f       	subi	r18, 0xFF	; 255
    3256:	2f 71       	andi	r18, 0x1F	; 31
    3258:	90 91 bd 04 	lds	r25, 0x04BD	; 0x8004bd <UART_TxTail>
    325c:	29 17       	cp	r18, r25
    325e:	e1 f3       	breq	.-8      	; 0x3258 <uart_putc+0x8>
    3260:	e2 2f       	mov	r30, r18
    3262:	f0 e0       	ldi	r31, 0x00	; 0
    3264:	e1 52       	subi	r30, 0x21	; 33
    3266:	fb 4f       	sbci	r31, 0xFB	; 251
    3268:	80 83       	st	Z, r24
    326a:	20 93 be 04 	sts	0x04BE, r18	; 0x8004be <UART_TxHead>
    326e:	55 9a       	sbi	0x0a, 5	; 10
    3270:	08 95       	ret

00003272 <uart_puts>:
    3272:	cf 93       	push	r28
    3274:	df 93       	push	r29
    3276:	ec 01       	movw	r28, r24
    3278:	88 81       	ld	r24, Y
    327a:	88 23       	and	r24, r24
    327c:	31 f0       	breq	.+12     	; 0x328a <uart_puts+0x18>
    327e:	21 96       	adiw	r28, 0x01	; 1
    3280:	0e 94 28 19 	call	0x3250	; 0x3250 <uart_putc>
    3284:	89 91       	ld	r24, Y+
    3286:	81 11       	cpse	r24, r1
    3288:	fb cf       	rjmp	.-10     	; 0x3280 <uart_puts+0xe>
    328a:	df 91       	pop	r29
    328c:	cf 91       	pop	r28
    328e:	08 95       	ret

00003290 <uart_puts_p>:
    3290:	cf 93       	push	r28
    3292:	df 93       	push	r29
    3294:	ec 01       	movw	r28, r24
    3296:	21 96       	adiw	r28, 0x01	; 1
    3298:	fc 01       	movw	r30, r24
    329a:	84 91       	lpm	r24, Z
    329c:	88 23       	and	r24, r24
    329e:	39 f0       	breq	.+14     	; 0x32ae <uart_puts_p+0x1e>
    32a0:	0e 94 28 19 	call	0x3250	; 0x3250 <uart_putc>
    32a4:	fe 01       	movw	r30, r28
    32a6:	84 91       	lpm	r24, Z
    32a8:	21 96       	adiw	r28, 0x01	; 1
    32aa:	81 11       	cpse	r24, r1
    32ac:	f9 cf       	rjmp	.-14     	; 0x32a0 <uart_puts_p+0x10>
    32ae:	df 91       	pop	r29
    32b0:	cf 91       	pop	r28
    32b2:	08 95       	ret

000032b4 <__vector_30>:
    32b4:	1f 92       	push	r1
    32b6:	0f 92       	push	r0
    32b8:	0f b6       	in	r0, 0x3f	; 63
    32ba:	0f 92       	push	r0
    32bc:	11 24       	eor	r1, r1
    32be:	2f 93       	push	r18
    32c0:	8f 93       	push	r24
    32c2:	9f 93       	push	r25
    32c4:	ef 93       	push	r30
    32c6:	ff 93       	push	r31
    32c8:	80 91 9b 00 	lds	r24, 0x009B	; 0x80009b <__TEXT_REGION_LENGTH__+0x7e009b>
    32cc:	20 91 9c 00 	lds	r18, 0x009C	; 0x80009c <__TEXT_REGION_LENGTH__+0x7e009c>
    32d0:	8c 71       	andi	r24, 0x1C	; 28
    32d2:	e0 91 77 04 	lds	r30, 0x0477	; 0x800477 <UART1_RxHead>
    32d6:	ef 5f       	subi	r30, 0xFF	; 255
    32d8:	ef 71       	andi	r30, 0x1F	; 31
    32da:	90 91 76 04 	lds	r25, 0x0476	; 0x800476 <UART1_RxTail>
    32de:	e9 17       	cp	r30, r25
    32e0:	39 f0       	breq	.+14     	; 0x32f0 <__vector_30+0x3c>
    32e2:	e0 93 77 04 	sts	0x0477, r30	; 0x800477 <UART1_RxHead>
    32e6:	f0 e0       	ldi	r31, 0x00	; 0
    32e8:	e6 58       	subi	r30, 0x86	; 134
    32ea:	fb 4f       	sbci	r31, 0xFB	; 251
    32ec:	20 83       	st	Z, r18
    32ee:	01 c0       	rjmp	.+2      	; 0x32f2 <__vector_30+0x3e>
    32f0:	82 e0       	ldi	r24, 0x02	; 2
    32f2:	90 91 75 04 	lds	r25, 0x0475	; 0x800475 <UART1_LastRxError>
    32f6:	89 2b       	or	r24, r25
    32f8:	80 93 75 04 	sts	0x0475, r24	; 0x800475 <UART1_LastRxError>
    32fc:	ff 91       	pop	r31
    32fe:	ef 91       	pop	r30
    3300:	9f 91       	pop	r25
    3302:	8f 91       	pop	r24
    3304:	2f 91       	pop	r18
    3306:	0f 90       	pop	r0
    3308:	0f be       	out	0x3f, r0	; 63
    330a:	0f 90       	pop	r0
    330c:	1f 90       	pop	r1
    330e:	18 95       	reti

00003310 <__vector_31>:
    3310:	1f 92       	push	r1
    3312:	0f 92       	push	r0
    3314:	0f b6       	in	r0, 0x3f	; 63
    3316:	0f 92       	push	r0
    3318:	11 24       	eor	r1, r1
    331a:	8f 93       	push	r24
    331c:	9f 93       	push	r25
    331e:	ef 93       	push	r30
    3320:	ff 93       	push	r31
    3322:	90 91 79 04 	lds	r25, 0x0479	; 0x800479 <UART1_TxHead>
    3326:	80 91 78 04 	lds	r24, 0x0478	; 0x800478 <UART1_TxTail>
    332a:	98 17       	cp	r25, r24
    332c:	69 f0       	breq	.+26     	; 0x3348 <__vector_31+0x38>
    332e:	e0 91 78 04 	lds	r30, 0x0478	; 0x800478 <UART1_TxTail>
    3332:	ef 5f       	subi	r30, 0xFF	; 255
    3334:	ef 71       	andi	r30, 0x1F	; 31
    3336:	e0 93 78 04 	sts	0x0478, r30	; 0x800478 <UART1_TxTail>
    333a:	f0 e0       	ldi	r31, 0x00	; 0
    333c:	e6 56       	subi	r30, 0x66	; 102
    333e:	fb 4f       	sbci	r31, 0xFB	; 251
    3340:	80 81       	ld	r24, Z
    3342:	80 93 9c 00 	sts	0x009C, r24	; 0x80009c <__TEXT_REGION_LENGTH__+0x7e009c>
    3346:	05 c0       	rjmp	.+10     	; 0x3352 <__vector_31+0x42>
    3348:	ea e9       	ldi	r30, 0x9A	; 154
    334a:	f0 e0       	ldi	r31, 0x00	; 0
    334c:	80 81       	ld	r24, Z
    334e:	8f 7d       	andi	r24, 0xDF	; 223
    3350:	80 83       	st	Z, r24
    3352:	ff 91       	pop	r31
    3354:	ef 91       	pop	r30
    3356:	9f 91       	pop	r25
    3358:	8f 91       	pop	r24
    335a:	0f 90       	pop	r0
    335c:	0f be       	out	0x3f, r0	; 63
    335e:	0f 90       	pop	r0
    3360:	1f 90       	pop	r1
    3362:	18 95       	reti

00003364 <uart_puti>:
Returns:  none
This functions has been added by Martin Thomas <eversmith@heizung-thomas.de>
Don't blame P. Fleury if it doesn't work ;-)
**************************************************************************/
void uart_puti( const int val )
{
    3364:	cf 93       	push	r28
    3366:	df 93       	push	r29
    3368:	cd b7       	in	r28, 0x3d	; 61
    336a:	de b7       	in	r29, 0x3e	; 62
    336c:	61 97       	sbiw	r28, 0x11	; 17
    336e:	0f b6       	in	r0, 0x3f	; 63
    3370:	f8 94       	cli
    3372:	de bf       	out	0x3e, r29	; 62
    3374:	0f be       	out	0x3f, r0	; 63
    3376:	cd bf       	out	0x3d, r28	; 61
    3378:	4a e0       	ldi	r20, 0x0A	; 10
    337a:	be 01       	movw	r22, r28
    337c:	6f 5f       	subi	r22, 0xFF	; 255
    337e:	7f 4f       	sbci	r23, 0xFF	; 255
    3380:	0e 94 9e 1c 	call	0x393c	; 0x393c <__itoa_ncheck>
	char buffer[sizeof(int)*8+1];
	
	uart_puts( itoa(val, buffer, 10) );
    3384:	0e 94 39 19 	call	0x3272	; 0x3272 <uart_puts>

}/* uart_puti */
    3388:	61 96       	adiw	r28, 0x11	; 17
    338a:	0f b6       	in	r0, 0x3f	; 63
    338c:	f8 94       	cli
    338e:	de bf       	out	0x3e, r29	; 62
    3390:	0f be       	out	0x3f, r0	; 63
    3392:	cd bf       	out	0x3d, r28	; 61
    3394:	df 91       	pop	r29
    3396:	cf 91       	pop	r28
    3398:	08 95       	ret

0000339a <ftoa>:
#include "ftoa.h"


char *ftoa(char *a, double f, int precision)
{
    339a:	2f 92       	push	r2
    339c:	3f 92       	push	r3
    339e:	4f 92       	push	r4
    33a0:	5f 92       	push	r5
    33a2:	6f 92       	push	r6
    33a4:	7f 92       	push	r7
    33a6:	8f 92       	push	r8
    33a8:	9f 92       	push	r9
    33aa:	af 92       	push	r10
    33ac:	bf 92       	push	r11
    33ae:	cf 92       	push	r12
    33b0:	df 92       	push	r13
    33b2:	ef 92       	push	r14
    33b4:	ff 92       	push	r15
    33b6:	0f 93       	push	r16
    33b8:	1f 93       	push	r17
    33ba:	cf 93       	push	r28
    33bc:	df 93       	push	r29
    33be:	cd b7       	in	r28, 0x3d	; 61
    33c0:	de b7       	in	r29, 0x3e	; 62
    33c2:	a4 97       	sbiw	r28, 0x24	; 36
    33c4:	0f b6       	in	r0, 0x3f	; 63
    33c6:	f8 94       	cli
    33c8:	de bf       	out	0x3e, r29	; 62
    33ca:	0f be       	out	0x3f, r0	; 63
    33cc:	cd bf       	out	0x3d, r28	; 61
    33ce:	8c 01       	movw	r16, r24
    33d0:	6a 01       	movw	r12, r20
    33d2:	7b 01       	movw	r14, r22
    33d4:	39 01       	movw	r6, r18
	long p[] = {0,10,100,1000,10000,100000,1000000,10000000,100000000};
    33d6:	84 e2       	ldi	r24, 0x24	; 36
    33d8:	e4 e8       	ldi	r30, 0x84	; 132
    33da:	f2 e0       	ldi	r31, 0x02	; 2
    33dc:	de 01       	movw	r26, r28
    33de:	11 96       	adiw	r26, 0x01	; 1
    33e0:	01 90       	ld	r0, Z+
    33e2:	0d 92       	st	X+, r0
    33e4:	8a 95       	dec	r24
    33e6:	e1 f7       	brne	.-8      	; 0x33e0 <ftoa+0x46>
	
	char *ret = a;
	long heiltal = (long)f;
    33e8:	cb 01       	movw	r24, r22
    33ea:	ba 01       	movw	r22, r20
    33ec:	0e 94 35 1b 	call	0x366a	; 0x366a <__fixsfsi>
    33f0:	4b 01       	movw	r8, r22
    33f2:	5c 01       	movw	r10, r24
    33f4:	4a e0       	ldi	r20, 0x0A	; 10
    33f6:	b8 01       	movw	r22, r16
    33f8:	c4 01       	movw	r24, r8
    33fa:	0e 94 9e 1c 	call	0x393c	; 0x393c <__itoa_ncheck>
	itoa(heiltal, a, 10);
	while (*a != '\0') a++;
    33fe:	f8 01       	movw	r30, r16
    3400:	80 81       	ld	r24, Z
    3402:	88 23       	and	r24, r24
    3404:	41 f0       	breq	.+16     	; 0x3416 <ftoa+0x7c>
    3406:	c8 01       	movw	r24, r16
    3408:	01 96       	adiw	r24, 0x01	; 1
    340a:	fc 01       	movw	r30, r24
    340c:	01 96       	adiw	r24, 0x01	; 1
    340e:	20 81       	ld	r18, Z
    3410:	21 11       	cpse	r18, r1
    3412:	fb cf       	rjmp	.-10     	; 0x340a <ftoa+0x70>
    3414:	01 c0       	rjmp	.+2      	; 0x3418 <ftoa+0x7e>
    3416:	f8 01       	movw	r30, r16
	*a++ = '.';
    3418:	8e e2       	ldi	r24, 0x2E	; 46
    341a:	81 93       	st	Z+, r24
    341c:	1f 01       	movw	r2, r30
	long desimal = abs((long)((f - heiltal) * p[precision]));
    341e:	66 0c       	add	r6, r6
    3420:	77 1c       	adc	r7, r7
    3422:	66 0c       	add	r6, r6
    3424:	77 1c       	adc	r7, r7
    3426:	fe 01       	movw	r30, r28
    3428:	e6 0d       	add	r30, r6
    342a:	f7 1d       	adc	r31, r7
    342c:	61 81       	ldd	r22, Z+1	; 0x01
    342e:	72 81       	ldd	r23, Z+2	; 0x02
    3430:	83 81       	ldd	r24, Z+3	; 0x03
    3432:	94 81       	ldd	r25, Z+4	; 0x04
    3434:	0e 94 6d 1b 	call	0x36da	; 0x36da <__floatsisf>
    3438:	2b 01       	movw	r4, r22
    343a:	3c 01       	movw	r6, r24
    343c:	c5 01       	movw	r24, r10
    343e:	b4 01       	movw	r22, r8
    3440:	0e 94 6d 1b 	call	0x36da	; 0x36da <__floatsisf>
    3444:	9b 01       	movw	r18, r22
    3446:	ac 01       	movw	r20, r24
    3448:	c7 01       	movw	r24, r14
    344a:	b6 01       	movw	r22, r12
    344c:	0e 94 56 1a 	call	0x34ac	; 0x34ac <__subsf3>
    3450:	9b 01       	movw	r18, r22
    3452:	ac 01       	movw	r20, r24
    3454:	c3 01       	movw	r24, r6
    3456:	b2 01       	movw	r22, r4
    3458:	0e 94 f9 1b 	call	0x37f2	; 0x37f2 <__mulsf3>
    345c:	0e 94 35 1b 	call	0x366a	; 0x366a <__fixsfsi>
    3460:	9b 01       	movw	r18, r22
    3462:	77 23       	and	r23, r23
    3464:	24 f4       	brge	.+8      	; 0x346e <ftoa+0xd4>
    3466:	22 27       	eor	r18, r18
    3468:	33 27       	eor	r19, r19
    346a:	26 1b       	sub	r18, r22
    346c:	37 0b       	sbc	r19, r23
    346e:	4a e0       	ldi	r20, 0x0A	; 10
    3470:	b1 01       	movw	r22, r2
    3472:	c9 01       	movw	r24, r18
    3474:	0e 94 9e 1c 	call	0x393c	; 0x393c <__itoa_ncheck>
	itoa(desimal, a, 10);
	return ret;
    3478:	c8 01       	movw	r24, r16
    347a:	a4 96       	adiw	r28, 0x24	; 36
    347c:	0f b6       	in	r0, 0x3f	; 63
    347e:	f8 94       	cli
    3480:	de bf       	out	0x3e, r29	; 62
    3482:	0f be       	out	0x3f, r0	; 63
    3484:	cd bf       	out	0x3d, r28	; 61
    3486:	df 91       	pop	r29
    3488:	cf 91       	pop	r28
    348a:	1f 91       	pop	r17
    348c:	0f 91       	pop	r16
    348e:	ff 90       	pop	r15
    3490:	ef 90       	pop	r14
    3492:	df 90       	pop	r13
    3494:	cf 90       	pop	r12
    3496:	bf 90       	pop	r11
    3498:	af 90       	pop	r10
    349a:	9f 90       	pop	r9
    349c:	8f 90       	pop	r8
    349e:	7f 90       	pop	r7
    34a0:	6f 90       	pop	r6
    34a2:	5f 90       	pop	r5
    34a4:	4f 90       	pop	r4
    34a6:	3f 90       	pop	r3
    34a8:	2f 90       	pop	r2
    34aa:	08 95       	ret

000034ac <__subsf3>:
    34ac:	50 58       	subi	r21, 0x80	; 128

000034ae <__addsf3>:
    34ae:	bb 27       	eor	r27, r27
    34b0:	aa 27       	eor	r26, r26
    34b2:	0e 94 6e 1a 	call	0x34dc	; 0x34dc <__addsf3x>
    34b6:	0c 94 bf 1b 	jmp	0x377e	; 0x377e <__fp_round>
    34ba:	0e 94 b1 1b 	call	0x3762	; 0x3762 <__fp_pscA>
    34be:	38 f0       	brcs	.+14     	; 0x34ce <__addsf3+0x20>
    34c0:	0e 94 b8 1b 	call	0x3770	; 0x3770 <__fp_pscB>
    34c4:	20 f0       	brcs	.+8      	; 0x34ce <__addsf3+0x20>
    34c6:	39 f4       	brne	.+14     	; 0x34d6 <__addsf3+0x28>
    34c8:	9f 3f       	cpi	r25, 0xFF	; 255
    34ca:	19 f4       	brne	.+6      	; 0x34d2 <__addsf3+0x24>
    34cc:	26 f4       	brtc	.+8      	; 0x34d6 <__addsf3+0x28>
    34ce:	0c 94 ae 1b 	jmp	0x375c	; 0x375c <__fp_nan>
    34d2:	0e f4       	brtc	.+2      	; 0x34d6 <__addsf3+0x28>
    34d4:	e0 95       	com	r30
    34d6:	e7 fb       	bst	r30, 7
    34d8:	0c 94 a8 1b 	jmp	0x3750	; 0x3750 <__fp_inf>

000034dc <__addsf3x>:
    34dc:	e9 2f       	mov	r30, r25
    34de:	0e 94 d0 1b 	call	0x37a0	; 0x37a0 <__fp_split3>
    34e2:	58 f3       	brcs	.-42     	; 0x34ba <__addsf3+0xc>
    34e4:	ba 17       	cp	r27, r26
    34e6:	62 07       	cpc	r22, r18
    34e8:	73 07       	cpc	r23, r19
    34ea:	84 07       	cpc	r24, r20
    34ec:	95 07       	cpc	r25, r21
    34ee:	20 f0       	brcs	.+8      	; 0x34f8 <__addsf3x+0x1c>
    34f0:	79 f4       	brne	.+30     	; 0x3510 <__addsf3x+0x34>
    34f2:	a6 f5       	brtc	.+104    	; 0x355c <__addsf3x+0x80>
    34f4:	0c 94 f2 1b 	jmp	0x37e4	; 0x37e4 <__fp_zero>
    34f8:	0e f4       	brtc	.+2      	; 0x34fc <__addsf3x+0x20>
    34fa:	e0 95       	com	r30
    34fc:	0b 2e       	mov	r0, r27
    34fe:	ba 2f       	mov	r27, r26
    3500:	a0 2d       	mov	r26, r0
    3502:	0b 01       	movw	r0, r22
    3504:	b9 01       	movw	r22, r18
    3506:	90 01       	movw	r18, r0
    3508:	0c 01       	movw	r0, r24
    350a:	ca 01       	movw	r24, r20
    350c:	a0 01       	movw	r20, r0
    350e:	11 24       	eor	r1, r1
    3510:	ff 27       	eor	r31, r31
    3512:	59 1b       	sub	r21, r25
    3514:	99 f0       	breq	.+38     	; 0x353c <__addsf3x+0x60>
    3516:	59 3f       	cpi	r21, 0xF9	; 249
    3518:	50 f4       	brcc	.+20     	; 0x352e <__addsf3x+0x52>
    351a:	50 3e       	cpi	r21, 0xE0	; 224
    351c:	68 f1       	brcs	.+90     	; 0x3578 <__addsf3x+0x9c>
    351e:	1a 16       	cp	r1, r26
    3520:	f0 40       	sbci	r31, 0x00	; 0
    3522:	a2 2f       	mov	r26, r18
    3524:	23 2f       	mov	r18, r19
    3526:	34 2f       	mov	r19, r20
    3528:	44 27       	eor	r20, r20
    352a:	58 5f       	subi	r21, 0xF8	; 248
    352c:	f3 cf       	rjmp	.-26     	; 0x3514 <__addsf3x+0x38>
    352e:	46 95       	lsr	r20
    3530:	37 95       	ror	r19
    3532:	27 95       	ror	r18
    3534:	a7 95       	ror	r26
    3536:	f0 40       	sbci	r31, 0x00	; 0
    3538:	53 95       	inc	r21
    353a:	c9 f7       	brne	.-14     	; 0x352e <__addsf3x+0x52>
    353c:	7e f4       	brtc	.+30     	; 0x355c <__addsf3x+0x80>
    353e:	1f 16       	cp	r1, r31
    3540:	ba 0b       	sbc	r27, r26
    3542:	62 0b       	sbc	r22, r18
    3544:	73 0b       	sbc	r23, r19
    3546:	84 0b       	sbc	r24, r20
    3548:	ba f0       	brmi	.+46     	; 0x3578 <__addsf3x+0x9c>
    354a:	91 50       	subi	r25, 0x01	; 1
    354c:	a1 f0       	breq	.+40     	; 0x3576 <__addsf3x+0x9a>
    354e:	ff 0f       	add	r31, r31
    3550:	bb 1f       	adc	r27, r27
    3552:	66 1f       	adc	r22, r22
    3554:	77 1f       	adc	r23, r23
    3556:	88 1f       	adc	r24, r24
    3558:	c2 f7       	brpl	.-16     	; 0x354a <__addsf3x+0x6e>
    355a:	0e c0       	rjmp	.+28     	; 0x3578 <__addsf3x+0x9c>
    355c:	ba 0f       	add	r27, r26
    355e:	62 1f       	adc	r22, r18
    3560:	73 1f       	adc	r23, r19
    3562:	84 1f       	adc	r24, r20
    3564:	48 f4       	brcc	.+18     	; 0x3578 <__addsf3x+0x9c>
    3566:	87 95       	ror	r24
    3568:	77 95       	ror	r23
    356a:	67 95       	ror	r22
    356c:	b7 95       	ror	r27
    356e:	f7 95       	ror	r31
    3570:	9e 3f       	cpi	r25, 0xFE	; 254
    3572:	08 f0       	brcs	.+2      	; 0x3576 <__addsf3x+0x9a>
    3574:	b0 cf       	rjmp	.-160    	; 0x34d6 <__addsf3+0x28>
    3576:	93 95       	inc	r25
    3578:	88 0f       	add	r24, r24
    357a:	08 f0       	brcs	.+2      	; 0x357e <__addsf3x+0xa2>
    357c:	99 27       	eor	r25, r25
    357e:	ee 0f       	add	r30, r30
    3580:	97 95       	ror	r25
    3582:	87 95       	ror	r24
    3584:	08 95       	ret

00003586 <__divsf3>:
    3586:	0e 94 d7 1a 	call	0x35ae	; 0x35ae <__divsf3x>
    358a:	0c 94 bf 1b 	jmp	0x377e	; 0x377e <__fp_round>
    358e:	0e 94 b8 1b 	call	0x3770	; 0x3770 <__fp_pscB>
    3592:	58 f0       	brcs	.+22     	; 0x35aa <__divsf3+0x24>
    3594:	0e 94 b1 1b 	call	0x3762	; 0x3762 <__fp_pscA>
    3598:	40 f0       	brcs	.+16     	; 0x35aa <__divsf3+0x24>
    359a:	29 f4       	brne	.+10     	; 0x35a6 <__divsf3+0x20>
    359c:	5f 3f       	cpi	r21, 0xFF	; 255
    359e:	29 f0       	breq	.+10     	; 0x35aa <__divsf3+0x24>
    35a0:	0c 94 a8 1b 	jmp	0x3750	; 0x3750 <__fp_inf>
    35a4:	51 11       	cpse	r21, r1
    35a6:	0c 94 f3 1b 	jmp	0x37e6	; 0x37e6 <__fp_szero>
    35aa:	0c 94 ae 1b 	jmp	0x375c	; 0x375c <__fp_nan>

000035ae <__divsf3x>:
    35ae:	0e 94 d0 1b 	call	0x37a0	; 0x37a0 <__fp_split3>
    35b2:	68 f3       	brcs	.-38     	; 0x358e <__divsf3+0x8>

000035b4 <__divsf3_pse>:
    35b4:	99 23       	and	r25, r25
    35b6:	b1 f3       	breq	.-20     	; 0x35a4 <__divsf3+0x1e>
    35b8:	55 23       	and	r21, r21
    35ba:	91 f3       	breq	.-28     	; 0x35a0 <__divsf3+0x1a>
    35bc:	95 1b       	sub	r25, r21
    35be:	55 0b       	sbc	r21, r21
    35c0:	bb 27       	eor	r27, r27
    35c2:	aa 27       	eor	r26, r26
    35c4:	62 17       	cp	r22, r18
    35c6:	73 07       	cpc	r23, r19
    35c8:	84 07       	cpc	r24, r20
    35ca:	38 f0       	brcs	.+14     	; 0x35da <__divsf3_pse+0x26>
    35cc:	9f 5f       	subi	r25, 0xFF	; 255
    35ce:	5f 4f       	sbci	r21, 0xFF	; 255
    35d0:	22 0f       	add	r18, r18
    35d2:	33 1f       	adc	r19, r19
    35d4:	44 1f       	adc	r20, r20
    35d6:	aa 1f       	adc	r26, r26
    35d8:	a9 f3       	breq	.-22     	; 0x35c4 <__divsf3_pse+0x10>
    35da:	35 d0       	rcall	.+106    	; 0x3646 <__divsf3_pse+0x92>
    35dc:	0e 2e       	mov	r0, r30
    35de:	3a f0       	brmi	.+14     	; 0x35ee <__divsf3_pse+0x3a>
    35e0:	e0 e8       	ldi	r30, 0x80	; 128
    35e2:	32 d0       	rcall	.+100    	; 0x3648 <__divsf3_pse+0x94>
    35e4:	91 50       	subi	r25, 0x01	; 1
    35e6:	50 40       	sbci	r21, 0x00	; 0
    35e8:	e6 95       	lsr	r30
    35ea:	00 1c       	adc	r0, r0
    35ec:	ca f7       	brpl	.-14     	; 0x35e0 <__divsf3_pse+0x2c>
    35ee:	2b d0       	rcall	.+86     	; 0x3646 <__divsf3_pse+0x92>
    35f0:	fe 2f       	mov	r31, r30
    35f2:	29 d0       	rcall	.+82     	; 0x3646 <__divsf3_pse+0x92>
    35f4:	66 0f       	add	r22, r22
    35f6:	77 1f       	adc	r23, r23
    35f8:	88 1f       	adc	r24, r24
    35fa:	bb 1f       	adc	r27, r27
    35fc:	26 17       	cp	r18, r22
    35fe:	37 07       	cpc	r19, r23
    3600:	48 07       	cpc	r20, r24
    3602:	ab 07       	cpc	r26, r27
    3604:	b0 e8       	ldi	r27, 0x80	; 128
    3606:	09 f0       	breq	.+2      	; 0x360a <__divsf3_pse+0x56>
    3608:	bb 0b       	sbc	r27, r27
    360a:	80 2d       	mov	r24, r0
    360c:	bf 01       	movw	r22, r30
    360e:	ff 27       	eor	r31, r31
    3610:	93 58       	subi	r25, 0x83	; 131
    3612:	5f 4f       	sbci	r21, 0xFF	; 255
    3614:	3a f0       	brmi	.+14     	; 0x3624 <__divsf3_pse+0x70>
    3616:	9e 3f       	cpi	r25, 0xFE	; 254
    3618:	51 05       	cpc	r21, r1
    361a:	78 f0       	brcs	.+30     	; 0x363a <__divsf3_pse+0x86>
    361c:	0c 94 a8 1b 	jmp	0x3750	; 0x3750 <__fp_inf>
    3620:	0c 94 f3 1b 	jmp	0x37e6	; 0x37e6 <__fp_szero>
    3624:	5f 3f       	cpi	r21, 0xFF	; 255
    3626:	e4 f3       	brlt	.-8      	; 0x3620 <__divsf3_pse+0x6c>
    3628:	98 3e       	cpi	r25, 0xE8	; 232
    362a:	d4 f3       	brlt	.-12     	; 0x3620 <__divsf3_pse+0x6c>
    362c:	86 95       	lsr	r24
    362e:	77 95       	ror	r23
    3630:	67 95       	ror	r22
    3632:	b7 95       	ror	r27
    3634:	f7 95       	ror	r31
    3636:	9f 5f       	subi	r25, 0xFF	; 255
    3638:	c9 f7       	brne	.-14     	; 0x362c <__divsf3_pse+0x78>
    363a:	88 0f       	add	r24, r24
    363c:	91 1d       	adc	r25, r1
    363e:	96 95       	lsr	r25
    3640:	87 95       	ror	r24
    3642:	97 f9       	bld	r25, 7
    3644:	08 95       	ret
    3646:	e1 e0       	ldi	r30, 0x01	; 1
    3648:	66 0f       	add	r22, r22
    364a:	77 1f       	adc	r23, r23
    364c:	88 1f       	adc	r24, r24
    364e:	bb 1f       	adc	r27, r27
    3650:	62 17       	cp	r22, r18
    3652:	73 07       	cpc	r23, r19
    3654:	84 07       	cpc	r24, r20
    3656:	ba 07       	cpc	r27, r26
    3658:	20 f0       	brcs	.+8      	; 0x3662 <__divsf3_pse+0xae>
    365a:	62 1b       	sub	r22, r18
    365c:	73 0b       	sbc	r23, r19
    365e:	84 0b       	sbc	r24, r20
    3660:	ba 0b       	sbc	r27, r26
    3662:	ee 1f       	adc	r30, r30
    3664:	88 f7       	brcc	.-30     	; 0x3648 <__divsf3_pse+0x94>
    3666:	e0 95       	com	r30
    3668:	08 95       	ret

0000366a <__fixsfsi>:
    366a:	0e 94 3c 1b 	call	0x3678	; 0x3678 <__fixunssfsi>
    366e:	68 94       	set
    3670:	b1 11       	cpse	r27, r1
    3672:	0c 94 f3 1b 	jmp	0x37e6	; 0x37e6 <__fp_szero>
    3676:	08 95       	ret

00003678 <__fixunssfsi>:
    3678:	0e 94 d8 1b 	call	0x37b0	; 0x37b0 <__fp_splitA>
    367c:	88 f0       	brcs	.+34     	; 0x36a0 <__fixunssfsi+0x28>
    367e:	9f 57       	subi	r25, 0x7F	; 127
    3680:	98 f0       	brcs	.+38     	; 0x36a8 <__fixunssfsi+0x30>
    3682:	b9 2f       	mov	r27, r25
    3684:	99 27       	eor	r25, r25
    3686:	b7 51       	subi	r27, 0x17	; 23
    3688:	b0 f0       	brcs	.+44     	; 0x36b6 <__fixunssfsi+0x3e>
    368a:	e1 f0       	breq	.+56     	; 0x36c4 <__fixunssfsi+0x4c>
    368c:	66 0f       	add	r22, r22
    368e:	77 1f       	adc	r23, r23
    3690:	88 1f       	adc	r24, r24
    3692:	99 1f       	adc	r25, r25
    3694:	1a f0       	brmi	.+6      	; 0x369c <__fixunssfsi+0x24>
    3696:	ba 95       	dec	r27
    3698:	c9 f7       	brne	.-14     	; 0x368c <__fixunssfsi+0x14>
    369a:	14 c0       	rjmp	.+40     	; 0x36c4 <__fixunssfsi+0x4c>
    369c:	b1 30       	cpi	r27, 0x01	; 1
    369e:	91 f0       	breq	.+36     	; 0x36c4 <__fixunssfsi+0x4c>
    36a0:	0e 94 f2 1b 	call	0x37e4	; 0x37e4 <__fp_zero>
    36a4:	b1 e0       	ldi	r27, 0x01	; 1
    36a6:	08 95       	ret
    36a8:	0c 94 f2 1b 	jmp	0x37e4	; 0x37e4 <__fp_zero>
    36ac:	67 2f       	mov	r22, r23
    36ae:	78 2f       	mov	r23, r24
    36b0:	88 27       	eor	r24, r24
    36b2:	b8 5f       	subi	r27, 0xF8	; 248
    36b4:	39 f0       	breq	.+14     	; 0x36c4 <__fixunssfsi+0x4c>
    36b6:	b9 3f       	cpi	r27, 0xF9	; 249
    36b8:	cc f3       	brlt	.-14     	; 0x36ac <__fixunssfsi+0x34>
    36ba:	86 95       	lsr	r24
    36bc:	77 95       	ror	r23
    36be:	67 95       	ror	r22
    36c0:	b3 95       	inc	r27
    36c2:	d9 f7       	brne	.-10     	; 0x36ba <__fixunssfsi+0x42>
    36c4:	3e f4       	brtc	.+14     	; 0x36d4 <__fixunssfsi+0x5c>
    36c6:	90 95       	com	r25
    36c8:	80 95       	com	r24
    36ca:	70 95       	com	r23
    36cc:	61 95       	neg	r22
    36ce:	7f 4f       	sbci	r23, 0xFF	; 255
    36d0:	8f 4f       	sbci	r24, 0xFF	; 255
    36d2:	9f 4f       	sbci	r25, 0xFF	; 255
    36d4:	08 95       	ret

000036d6 <__floatunsisf>:
    36d6:	e8 94       	clt
    36d8:	09 c0       	rjmp	.+18     	; 0x36ec <__floatsisf+0x12>

000036da <__floatsisf>:
    36da:	97 fb       	bst	r25, 7
    36dc:	3e f4       	brtc	.+14     	; 0x36ec <__floatsisf+0x12>
    36de:	90 95       	com	r25
    36e0:	80 95       	com	r24
    36e2:	70 95       	com	r23
    36e4:	61 95       	neg	r22
    36e6:	7f 4f       	sbci	r23, 0xFF	; 255
    36e8:	8f 4f       	sbci	r24, 0xFF	; 255
    36ea:	9f 4f       	sbci	r25, 0xFF	; 255
    36ec:	99 23       	and	r25, r25
    36ee:	a9 f0       	breq	.+42     	; 0x371a <__floatsisf+0x40>
    36f0:	f9 2f       	mov	r31, r25
    36f2:	96 e9       	ldi	r25, 0x96	; 150
    36f4:	bb 27       	eor	r27, r27
    36f6:	93 95       	inc	r25
    36f8:	f6 95       	lsr	r31
    36fa:	87 95       	ror	r24
    36fc:	77 95       	ror	r23
    36fe:	67 95       	ror	r22
    3700:	b7 95       	ror	r27
    3702:	f1 11       	cpse	r31, r1
    3704:	f8 cf       	rjmp	.-16     	; 0x36f6 <__floatsisf+0x1c>
    3706:	fa f4       	brpl	.+62     	; 0x3746 <__floatsisf+0x6c>
    3708:	bb 0f       	add	r27, r27
    370a:	11 f4       	brne	.+4      	; 0x3710 <__floatsisf+0x36>
    370c:	60 ff       	sbrs	r22, 0
    370e:	1b c0       	rjmp	.+54     	; 0x3746 <__floatsisf+0x6c>
    3710:	6f 5f       	subi	r22, 0xFF	; 255
    3712:	7f 4f       	sbci	r23, 0xFF	; 255
    3714:	8f 4f       	sbci	r24, 0xFF	; 255
    3716:	9f 4f       	sbci	r25, 0xFF	; 255
    3718:	16 c0       	rjmp	.+44     	; 0x3746 <__floatsisf+0x6c>
    371a:	88 23       	and	r24, r24
    371c:	11 f0       	breq	.+4      	; 0x3722 <__floatsisf+0x48>
    371e:	96 e9       	ldi	r25, 0x96	; 150
    3720:	11 c0       	rjmp	.+34     	; 0x3744 <__floatsisf+0x6a>
    3722:	77 23       	and	r23, r23
    3724:	21 f0       	breq	.+8      	; 0x372e <__floatsisf+0x54>
    3726:	9e e8       	ldi	r25, 0x8E	; 142
    3728:	87 2f       	mov	r24, r23
    372a:	76 2f       	mov	r23, r22
    372c:	05 c0       	rjmp	.+10     	; 0x3738 <__floatsisf+0x5e>
    372e:	66 23       	and	r22, r22
    3730:	71 f0       	breq	.+28     	; 0x374e <__floatsisf+0x74>
    3732:	96 e8       	ldi	r25, 0x86	; 134
    3734:	86 2f       	mov	r24, r22
    3736:	70 e0       	ldi	r23, 0x00	; 0
    3738:	60 e0       	ldi	r22, 0x00	; 0
    373a:	2a f0       	brmi	.+10     	; 0x3746 <__floatsisf+0x6c>
    373c:	9a 95       	dec	r25
    373e:	66 0f       	add	r22, r22
    3740:	77 1f       	adc	r23, r23
    3742:	88 1f       	adc	r24, r24
    3744:	da f7       	brpl	.-10     	; 0x373c <__floatsisf+0x62>
    3746:	88 0f       	add	r24, r24
    3748:	96 95       	lsr	r25
    374a:	87 95       	ror	r24
    374c:	97 f9       	bld	r25, 7
    374e:	08 95       	ret

00003750 <__fp_inf>:
    3750:	97 f9       	bld	r25, 7
    3752:	9f 67       	ori	r25, 0x7F	; 127
    3754:	80 e8       	ldi	r24, 0x80	; 128
    3756:	70 e0       	ldi	r23, 0x00	; 0
    3758:	60 e0       	ldi	r22, 0x00	; 0
    375a:	08 95       	ret

0000375c <__fp_nan>:
    375c:	9f ef       	ldi	r25, 0xFF	; 255
    375e:	80 ec       	ldi	r24, 0xC0	; 192
    3760:	08 95       	ret

00003762 <__fp_pscA>:
    3762:	00 24       	eor	r0, r0
    3764:	0a 94       	dec	r0
    3766:	16 16       	cp	r1, r22
    3768:	17 06       	cpc	r1, r23
    376a:	18 06       	cpc	r1, r24
    376c:	09 06       	cpc	r0, r25
    376e:	08 95       	ret

00003770 <__fp_pscB>:
    3770:	00 24       	eor	r0, r0
    3772:	0a 94       	dec	r0
    3774:	12 16       	cp	r1, r18
    3776:	13 06       	cpc	r1, r19
    3778:	14 06       	cpc	r1, r20
    377a:	05 06       	cpc	r0, r21
    377c:	08 95       	ret

0000377e <__fp_round>:
    377e:	09 2e       	mov	r0, r25
    3780:	03 94       	inc	r0
    3782:	00 0c       	add	r0, r0
    3784:	11 f4       	brne	.+4      	; 0x378a <__fp_round+0xc>
    3786:	88 23       	and	r24, r24
    3788:	52 f0       	brmi	.+20     	; 0x379e <__fp_round+0x20>
    378a:	bb 0f       	add	r27, r27
    378c:	40 f4       	brcc	.+16     	; 0x379e <__fp_round+0x20>
    378e:	bf 2b       	or	r27, r31
    3790:	11 f4       	brne	.+4      	; 0x3796 <__fp_round+0x18>
    3792:	60 ff       	sbrs	r22, 0
    3794:	04 c0       	rjmp	.+8      	; 0x379e <__fp_round+0x20>
    3796:	6f 5f       	subi	r22, 0xFF	; 255
    3798:	7f 4f       	sbci	r23, 0xFF	; 255
    379a:	8f 4f       	sbci	r24, 0xFF	; 255
    379c:	9f 4f       	sbci	r25, 0xFF	; 255
    379e:	08 95       	ret

000037a0 <__fp_split3>:
    37a0:	57 fd       	sbrc	r21, 7
    37a2:	90 58       	subi	r25, 0x80	; 128
    37a4:	44 0f       	add	r20, r20
    37a6:	55 1f       	adc	r21, r21
    37a8:	59 f0       	breq	.+22     	; 0x37c0 <__fp_splitA+0x10>
    37aa:	5f 3f       	cpi	r21, 0xFF	; 255
    37ac:	71 f0       	breq	.+28     	; 0x37ca <__fp_splitA+0x1a>
    37ae:	47 95       	ror	r20

000037b0 <__fp_splitA>:
    37b0:	88 0f       	add	r24, r24
    37b2:	97 fb       	bst	r25, 7
    37b4:	99 1f       	adc	r25, r25
    37b6:	61 f0       	breq	.+24     	; 0x37d0 <__fp_splitA+0x20>
    37b8:	9f 3f       	cpi	r25, 0xFF	; 255
    37ba:	79 f0       	breq	.+30     	; 0x37da <__fp_splitA+0x2a>
    37bc:	87 95       	ror	r24
    37be:	08 95       	ret
    37c0:	12 16       	cp	r1, r18
    37c2:	13 06       	cpc	r1, r19
    37c4:	14 06       	cpc	r1, r20
    37c6:	55 1f       	adc	r21, r21
    37c8:	f2 cf       	rjmp	.-28     	; 0x37ae <__fp_split3+0xe>
    37ca:	46 95       	lsr	r20
    37cc:	f1 df       	rcall	.-30     	; 0x37b0 <__fp_splitA>
    37ce:	08 c0       	rjmp	.+16     	; 0x37e0 <__fp_splitA+0x30>
    37d0:	16 16       	cp	r1, r22
    37d2:	17 06       	cpc	r1, r23
    37d4:	18 06       	cpc	r1, r24
    37d6:	99 1f       	adc	r25, r25
    37d8:	f1 cf       	rjmp	.-30     	; 0x37bc <__fp_splitA+0xc>
    37da:	86 95       	lsr	r24
    37dc:	71 05       	cpc	r23, r1
    37de:	61 05       	cpc	r22, r1
    37e0:	08 94       	sec
    37e2:	08 95       	ret

000037e4 <__fp_zero>:
    37e4:	e8 94       	clt

000037e6 <__fp_szero>:
    37e6:	bb 27       	eor	r27, r27
    37e8:	66 27       	eor	r22, r22
    37ea:	77 27       	eor	r23, r23
    37ec:	cb 01       	movw	r24, r22
    37ee:	97 f9       	bld	r25, 7
    37f0:	08 95       	ret

000037f2 <__mulsf3>:
    37f2:	0e 94 0c 1c 	call	0x3818	; 0x3818 <__mulsf3x>
    37f6:	0c 94 bf 1b 	jmp	0x377e	; 0x377e <__fp_round>
    37fa:	0e 94 b1 1b 	call	0x3762	; 0x3762 <__fp_pscA>
    37fe:	38 f0       	brcs	.+14     	; 0x380e <__mulsf3+0x1c>
    3800:	0e 94 b8 1b 	call	0x3770	; 0x3770 <__fp_pscB>
    3804:	20 f0       	brcs	.+8      	; 0x380e <__mulsf3+0x1c>
    3806:	95 23       	and	r25, r21
    3808:	11 f0       	breq	.+4      	; 0x380e <__mulsf3+0x1c>
    380a:	0c 94 a8 1b 	jmp	0x3750	; 0x3750 <__fp_inf>
    380e:	0c 94 ae 1b 	jmp	0x375c	; 0x375c <__fp_nan>
    3812:	11 24       	eor	r1, r1
    3814:	0c 94 f3 1b 	jmp	0x37e6	; 0x37e6 <__fp_szero>

00003818 <__mulsf3x>:
    3818:	0e 94 d0 1b 	call	0x37a0	; 0x37a0 <__fp_split3>
    381c:	70 f3       	brcs	.-36     	; 0x37fa <__mulsf3+0x8>

0000381e <__mulsf3_pse>:
    381e:	95 9f       	mul	r25, r21
    3820:	c1 f3       	breq	.-16     	; 0x3812 <__mulsf3+0x20>
    3822:	95 0f       	add	r25, r21
    3824:	50 e0       	ldi	r21, 0x00	; 0
    3826:	55 1f       	adc	r21, r21
    3828:	62 9f       	mul	r22, r18
    382a:	f0 01       	movw	r30, r0
    382c:	72 9f       	mul	r23, r18
    382e:	bb 27       	eor	r27, r27
    3830:	f0 0d       	add	r31, r0
    3832:	b1 1d       	adc	r27, r1
    3834:	63 9f       	mul	r22, r19
    3836:	aa 27       	eor	r26, r26
    3838:	f0 0d       	add	r31, r0
    383a:	b1 1d       	adc	r27, r1
    383c:	aa 1f       	adc	r26, r26
    383e:	64 9f       	mul	r22, r20
    3840:	66 27       	eor	r22, r22
    3842:	b0 0d       	add	r27, r0
    3844:	a1 1d       	adc	r26, r1
    3846:	66 1f       	adc	r22, r22
    3848:	82 9f       	mul	r24, r18
    384a:	22 27       	eor	r18, r18
    384c:	b0 0d       	add	r27, r0
    384e:	a1 1d       	adc	r26, r1
    3850:	62 1f       	adc	r22, r18
    3852:	73 9f       	mul	r23, r19
    3854:	b0 0d       	add	r27, r0
    3856:	a1 1d       	adc	r26, r1
    3858:	62 1f       	adc	r22, r18
    385a:	83 9f       	mul	r24, r19
    385c:	a0 0d       	add	r26, r0
    385e:	61 1d       	adc	r22, r1
    3860:	22 1f       	adc	r18, r18
    3862:	74 9f       	mul	r23, r20
    3864:	33 27       	eor	r19, r19
    3866:	a0 0d       	add	r26, r0
    3868:	61 1d       	adc	r22, r1
    386a:	23 1f       	adc	r18, r19
    386c:	84 9f       	mul	r24, r20
    386e:	60 0d       	add	r22, r0
    3870:	21 1d       	adc	r18, r1
    3872:	82 2f       	mov	r24, r18
    3874:	76 2f       	mov	r23, r22
    3876:	6a 2f       	mov	r22, r26
    3878:	11 24       	eor	r1, r1
    387a:	9f 57       	subi	r25, 0x7F	; 127
    387c:	50 40       	sbci	r21, 0x00	; 0
    387e:	9a f0       	brmi	.+38     	; 0x38a6 <__mulsf3_pse+0x88>
    3880:	f1 f0       	breq	.+60     	; 0x38be <__mulsf3_pse+0xa0>
    3882:	88 23       	and	r24, r24
    3884:	4a f0       	brmi	.+18     	; 0x3898 <__mulsf3_pse+0x7a>
    3886:	ee 0f       	add	r30, r30
    3888:	ff 1f       	adc	r31, r31
    388a:	bb 1f       	adc	r27, r27
    388c:	66 1f       	adc	r22, r22
    388e:	77 1f       	adc	r23, r23
    3890:	88 1f       	adc	r24, r24
    3892:	91 50       	subi	r25, 0x01	; 1
    3894:	50 40       	sbci	r21, 0x00	; 0
    3896:	a9 f7       	brne	.-22     	; 0x3882 <__mulsf3_pse+0x64>
    3898:	9e 3f       	cpi	r25, 0xFE	; 254
    389a:	51 05       	cpc	r21, r1
    389c:	80 f0       	brcs	.+32     	; 0x38be <__mulsf3_pse+0xa0>
    389e:	0c 94 a8 1b 	jmp	0x3750	; 0x3750 <__fp_inf>
    38a2:	0c 94 f3 1b 	jmp	0x37e6	; 0x37e6 <__fp_szero>
    38a6:	5f 3f       	cpi	r21, 0xFF	; 255
    38a8:	e4 f3       	brlt	.-8      	; 0x38a2 <__mulsf3_pse+0x84>
    38aa:	98 3e       	cpi	r25, 0xE8	; 232
    38ac:	d4 f3       	brlt	.-12     	; 0x38a2 <__mulsf3_pse+0x84>
    38ae:	86 95       	lsr	r24
    38b0:	77 95       	ror	r23
    38b2:	67 95       	ror	r22
    38b4:	b7 95       	ror	r27
    38b6:	f7 95       	ror	r31
    38b8:	e7 95       	ror	r30
    38ba:	9f 5f       	subi	r25, 0xFF	; 255
    38bc:	c1 f7       	brne	.-16     	; 0x38ae <__mulsf3_pse+0x90>
    38be:	fe 2b       	or	r31, r30
    38c0:	88 0f       	add	r24, r24
    38c2:	91 1d       	adc	r25, r1
    38c4:	96 95       	lsr	r25
    38c6:	87 95       	ror	r24
    38c8:	97 f9       	bld	r25, 7
    38ca:	08 95       	ret

000038cc <__mulsi3>:
    38cc:	db 01       	movw	r26, r22
    38ce:	8f 93       	push	r24
    38d0:	9f 93       	push	r25
    38d2:	0e 94 7c 1c 	call	0x38f8	; 0x38f8 <__muluhisi3>
    38d6:	bf 91       	pop	r27
    38d8:	af 91       	pop	r26
    38da:	a2 9f       	mul	r26, r18
    38dc:	80 0d       	add	r24, r0
    38de:	91 1d       	adc	r25, r1
    38e0:	a3 9f       	mul	r26, r19
    38e2:	90 0d       	add	r25, r0
    38e4:	b2 9f       	mul	r27, r18
    38e6:	90 0d       	add	r25, r0
    38e8:	11 24       	eor	r1, r1
    38ea:	08 95       	ret

000038ec <__tablejump2__>:
    38ec:	ee 0f       	add	r30, r30
    38ee:	ff 1f       	adc	r31, r31
    38f0:	05 90       	lpm	r0, Z+
    38f2:	f4 91       	lpm	r31, Z
    38f4:	e0 2d       	mov	r30, r0
    38f6:	09 94       	ijmp

000038f8 <__muluhisi3>:
    38f8:	0e 94 8f 1c 	call	0x391e	; 0x391e <__umulhisi3>
    38fc:	a5 9f       	mul	r26, r21
    38fe:	90 0d       	add	r25, r0
    3900:	b4 9f       	mul	r27, r20
    3902:	90 0d       	add	r25, r0
    3904:	a4 9f       	mul	r26, r20
    3906:	80 0d       	add	r24, r0
    3908:	91 1d       	adc	r25, r1
    390a:	11 24       	eor	r1, r1
    390c:	08 95       	ret

0000390e <__mulshisi3>:
    390e:	b7 ff       	sbrs	r27, 7
    3910:	0c 94 7c 1c 	jmp	0x38f8	; 0x38f8 <__muluhisi3>

00003914 <__mulohisi3>:
    3914:	0e 94 7c 1c 	call	0x38f8	; 0x38f8 <__muluhisi3>
    3918:	82 1b       	sub	r24, r18
    391a:	93 0b       	sbc	r25, r19
    391c:	08 95       	ret

0000391e <__umulhisi3>:
    391e:	a2 9f       	mul	r26, r18
    3920:	b0 01       	movw	r22, r0
    3922:	b3 9f       	mul	r27, r19
    3924:	c0 01       	movw	r24, r0
    3926:	a3 9f       	mul	r26, r19
    3928:	70 0d       	add	r23, r0
    392a:	81 1d       	adc	r24, r1
    392c:	11 24       	eor	r1, r1
    392e:	91 1d       	adc	r25, r1
    3930:	b2 9f       	mul	r27, r18
    3932:	70 0d       	add	r23, r0
    3934:	81 1d       	adc	r24, r1
    3936:	11 24       	eor	r1, r1
    3938:	91 1d       	adc	r25, r1
    393a:	08 95       	ret

0000393c <__itoa_ncheck>:
    393c:	bb 27       	eor	r27, r27
    393e:	4a 30       	cpi	r20, 0x0A	; 10
    3940:	31 f4       	brne	.+12     	; 0x394e <__itoa_ncheck+0x12>
    3942:	99 23       	and	r25, r25
    3944:	22 f4       	brpl	.+8      	; 0x394e <__itoa_ncheck+0x12>
    3946:	bd e2       	ldi	r27, 0x2D	; 45
    3948:	90 95       	com	r25
    394a:	81 95       	neg	r24
    394c:	9f 4f       	sbci	r25, 0xFF	; 255
    394e:	0c 94 aa 1c 	jmp	0x3954	; 0x3954 <__utoa_common>

00003952 <__utoa_ncheck>:
    3952:	bb 27       	eor	r27, r27

00003954 <__utoa_common>:
    3954:	fb 01       	movw	r30, r22
    3956:	55 27       	eor	r21, r21
    3958:	aa 27       	eor	r26, r26
    395a:	88 0f       	add	r24, r24
    395c:	99 1f       	adc	r25, r25
    395e:	aa 1f       	adc	r26, r26
    3960:	a4 17       	cp	r26, r20
    3962:	10 f0       	brcs	.+4      	; 0x3968 <__utoa_common+0x14>
    3964:	a4 1b       	sub	r26, r20
    3966:	83 95       	inc	r24
    3968:	50 51       	subi	r21, 0x10	; 16
    396a:	b9 f7       	brne	.-18     	; 0x395a <__utoa_common+0x6>
    396c:	a0 5d       	subi	r26, 0xD0	; 208
    396e:	aa 33       	cpi	r26, 0x3A	; 58
    3970:	08 f0       	brcs	.+2      	; 0x3974 <__utoa_common+0x20>
    3972:	a9 5d       	subi	r26, 0xD9	; 217
    3974:	a1 93       	st	Z+, r26
    3976:	00 97       	sbiw	r24, 0x00	; 0
    3978:	79 f7       	brne	.-34     	; 0x3958 <__utoa_common+0x4>
    397a:	b1 11       	cpse	r27, r1
    397c:	b1 93       	st	Z+, r27
    397e:	11 92       	st	Z+, r1
    3980:	cb 01       	movw	r24, r22
    3982:	0c 94 c3 1c 	jmp	0x3986	; 0x3986 <strrev>

00003986 <strrev>:
    3986:	dc 01       	movw	r26, r24
    3988:	fc 01       	movw	r30, r24
    398a:	67 2f       	mov	r22, r23
    398c:	71 91       	ld	r23, Z+
    398e:	77 23       	and	r23, r23
    3990:	e1 f7       	brne	.-8      	; 0x398a <strrev+0x4>
    3992:	32 97       	sbiw	r30, 0x02	; 2
    3994:	04 c0       	rjmp	.+8      	; 0x399e <strrev+0x18>
    3996:	7c 91       	ld	r23, X
    3998:	6d 93       	st	X+, r22
    399a:	70 83       	st	Z, r23
    399c:	62 91       	ld	r22, -Z
    399e:	ae 17       	cp	r26, r30
    39a0:	bf 07       	cpc	r27, r31
    39a2:	c8 f3       	brcs	.-14     	; 0x3996 <strrev+0x10>
    39a4:	08 95       	ret

000039a6 <eeprom_read_byte>:
    39a6:	e1 99       	sbic	0x1c, 1	; 28
    39a8:	fe cf       	rjmp	.-4      	; 0x39a6 <eeprom_read_byte>
    39aa:	9f bb       	out	0x1f, r25	; 31
    39ac:	8e bb       	out	0x1e, r24	; 30
    39ae:	e0 9a       	sbi	0x1c, 0	; 28
    39b0:	99 27       	eor	r25, r25
    39b2:	8d b3       	in	r24, 0x1d	; 29
    39b4:	08 95       	ret

000039b6 <eeprom_read_word>:
    39b6:	a8 e1       	ldi	r26, 0x18	; 24
    39b8:	b0 e0       	ldi	r27, 0x00	; 0
    39ba:	42 e0       	ldi	r20, 0x02	; 2
    39bc:	50 e0       	ldi	r21, 0x00	; 0
    39be:	0c 94 fa 1c 	jmp	0x39f4	; 0x39f4 <eeprom_read_blraw>

000039c2 <eeprom_update_byte>:
    39c2:	26 2f       	mov	r18, r22

000039c4 <eeprom_update_r18>:
    39c4:	e1 99       	sbic	0x1c, 1	; 28
    39c6:	fe cf       	rjmp	.-4      	; 0x39c4 <eeprom_update_r18>
    39c8:	9f bb       	out	0x1f, r25	; 31
    39ca:	8e bb       	out	0x1e, r24	; 30
    39cc:	e0 9a       	sbi	0x1c, 0	; 28
    39ce:	01 97       	sbiw	r24, 0x01	; 1
    39d0:	0d b2       	in	r0, 0x1d	; 29
    39d2:	02 16       	cp	r0, r18
    39d4:	31 f0       	breq	.+12     	; 0x39e2 <eeprom_update_r18+0x1e>
    39d6:	2d bb       	out	0x1d, r18	; 29
    39d8:	0f b6       	in	r0, 0x3f	; 63
    39da:	f8 94       	cli
    39dc:	e2 9a       	sbi	0x1c, 2	; 28
    39de:	e1 9a       	sbi	0x1c, 1	; 28
    39e0:	0f be       	out	0x3f, r0	; 63
    39e2:	08 95       	ret

000039e4 <eeprom_update_word>:
    39e4:	01 96       	adiw	r24, 0x01	; 1
    39e6:	27 2f       	mov	r18, r23
    39e8:	0e 94 e2 1c 	call	0x39c4	; 0x39c4 <eeprom_update_r18>
    39ec:	0c 94 e1 1c 	jmp	0x39c2	; 0x39c2 <eeprom_update_byte>

000039f0 <eeprom_read_block>:
    39f0:	dc 01       	movw	r26, r24
    39f2:	cb 01       	movw	r24, r22

000039f4 <eeprom_read_blraw>:
    39f4:	fc 01       	movw	r30, r24
    39f6:	e1 99       	sbic	0x1c, 1	; 28
    39f8:	fe cf       	rjmp	.-4      	; 0x39f6 <eeprom_read_blraw+0x2>
    39fa:	06 c0       	rjmp	.+12     	; 0x3a08 <eeprom_read_blraw+0x14>
    39fc:	ff bb       	out	0x1f, r31	; 31
    39fe:	ee bb       	out	0x1e, r30	; 30
    3a00:	e0 9a       	sbi	0x1c, 0	; 28
    3a02:	31 96       	adiw	r30, 0x01	; 1
    3a04:	0d b2       	in	r0, 0x1d	; 29
    3a06:	0d 92       	st	X+, r0
    3a08:	41 50       	subi	r20, 0x01	; 1
    3a0a:	50 40       	sbci	r21, 0x00	; 0
    3a0c:	b8 f7       	brcc	.-18     	; 0x39fc <eeprom_read_blraw+0x8>
    3a0e:	08 95       	ret

00003a10 <_exit>:
    3a10:	f8 94       	cli

00003a12 <__stop_program>:
    3a12:	ff cf       	rjmp	.-2      	; 0x3a12 <__stop_program>
