
futes_vezerlo.elf:     file format elf32-avr

Sections:
Idx Name          Size      VMA       LMA       File off  Algn
  0 .data         00000602  00800100  00005dec  00005ea0  2**0
                  CONTENTS, ALLOC, LOAD, DATA
  1 .text         00005dec  00000000  00000000  000000b4  2**1
                  CONTENTS, ALLOC, LOAD, READONLY, CODE
  2 .bss          000001bb  00800702  00800702  000064a2  2**0
                  ALLOC
  3 .eeprom       00000027  00810000  00810000  000064a2  2**0
                  CONTENTS, ALLOC, LOAD, DATA
  4 .comment      0000005c  00000000  00000000  000064c9  2**0
                  CONTENTS, READONLY
  5 .note.gnu.avr.deviceinfo 0000003c  00000000  00000000  00006528  2**2
                  CONTENTS, READONLY
  6 .debug_aranges 000007f0  00000000  00000000  00006568  2**3
                  CONTENTS, READONLY, DEBUGGING
  7 .debug_info   0000b87e  00000000  00000000  00006d58  2**0
                  CONTENTS, READONLY, DEBUGGING
  8 .debug_abbrev 00001d92  00000000  00000000  000125d6  2**0
                  CONTENTS, READONLY, DEBUGGING
  9 .debug_line   00004eba  00000000  00000000  00014368  2**0
                  CONTENTS, READONLY, DEBUGGING
 10 .debug_frame  00001564  00000000  00000000  00019224  2**2
                  CONTENTS, READONLY, DEBUGGING
 11 .debug_str    00001f2e  00000000  00000000  0001a788  2**0
                  CONTENTS, READONLY, DEBUGGING
 12 .debug_loc    0000791a  00000000  00000000  0001c6b6  2**0
                  CONTENTS, READONLY, DEBUGGING
 13 .debug_ranges 000007d0  00000000  00000000  00023fd0  2**0
                  CONTENTS, READONLY, DEBUGGING

Disassembly of section .text:

00000000 <__vectors>:
       0:	0c 94 f9 03 	jmp	0x7f2	; 0x7f2 <__ctors_end>
       4:	0c 94 16 04 	jmp	0x82c	; 0x82c <__bad_interrupt>
       8:	0c 94 16 04 	jmp	0x82c	; 0x82c <__bad_interrupt>
       c:	0c 94 16 04 	jmp	0x82c	; 0x82c <__bad_interrupt>
      10:	0c 94 16 04 	jmp	0x82c	; 0x82c <__bad_interrupt>
      14:	0c 94 16 04 	jmp	0x82c	; 0x82c <__bad_interrupt>
      18:	0c 94 16 04 	jmp	0x82c	; 0x82c <__bad_interrupt>
      1c:	0c 94 16 04 	jmp	0x82c	; 0x82c <__bad_interrupt>
      20:	0c 94 16 04 	jmp	0x82c	; 0x82c <__bad_interrupt>
      24:	0c 94 16 04 	jmp	0x82c	; 0x82c <__bad_interrupt>
      28:	0c 94 16 04 	jmp	0x82c	; 0x82c <__bad_interrupt>
      2c:	0c 94 16 04 	jmp	0x82c	; 0x82c <__bad_interrupt>
      30:	0c 94 2e 09 	jmp	0x125c	; 0x125c <__vector_12>
      34:	0c 94 16 04 	jmp	0x82c	; 0x82c <__bad_interrupt>
      38:	0c 94 16 04 	jmp	0x82c	; 0x82c <__bad_interrupt>
      3c:	0c 94 16 04 	jmp	0x82c	; 0x82c <__bad_interrupt>
      40:	0c 94 16 04 	jmp	0x82c	; 0x82c <__bad_interrupt>
      44:	0c 94 16 04 	jmp	0x82c	; 0x82c <__bad_interrupt>
      48:	0c 94 31 27 	jmp	0x4e62	; 0x4e62 <__vector_18>
      4c:	0c 94 5d 27 	jmp	0x4eba	; 0x4eba <__vector_19>
      50:	0c 94 16 04 	jmp	0x82c	; 0x82c <__bad_interrupt>
      54:	0c 94 16 04 	jmp	0x82c	; 0x82c <__bad_interrupt>
      58:	0c 94 16 04 	jmp	0x82c	; 0x82c <__bad_interrupt>
      5c:	0c 94 16 04 	jmp	0x82c	; 0x82c <__bad_interrupt>
      60:	0c 94 16 04 	jmp	0x82c	; 0x82c <__bad_interrupt>
      64:	0c 94 16 04 	jmp	0x82c	; 0x82c <__bad_interrupt>
      68:	0c 94 16 04 	jmp	0x82c	; 0x82c <__bad_interrupt>
      6c:	0c 94 16 04 	jmp	0x82c	; 0x82c <__bad_interrupt>
      70:	0c 94 16 04 	jmp	0x82c	; 0x82c <__bad_interrupt>
      74:	0c 94 16 04 	jmp	0x82c	; 0x82c <__bad_interrupt>
      78:	0c 94 e8 27 	jmp	0x4fd0	; 0x4fd0 <__vector_30>
      7c:	0c 94 16 28 	jmp	0x502c	; 0x502c <__vector_31>
      80:	0c 94 16 04 	jmp	0x82c	; 0x82c <__bad_interrupt>
      84:	0c 94 16 04 	jmp	0x82c	; 0x82c <__bad_interrupt>
      88:	0c 94 16 04 	jmp	0x82c	; 0x82c <__bad_interrupt>
      8c:	ad 08       	sbc	r10, r13
      8e:	ba 08       	sbc	r11, r10
      90:	ba 08       	sbc	r11, r10
      92:	ba 08       	sbc	r11, r10
      94:	ba 08       	sbc	r11, r10
      96:	ba 08       	sbc	r11, r10
      98:	ba 08       	sbc	r11, r10
      9a:	ba 08       	sbc	r11, r10
      9c:	af 08       	sbc	r10, r15
      9e:	ba 08       	sbc	r11, r10
      a0:	ba 08       	sbc	r11, r10
      a2:	ba 08       	sbc	r11, r10
      a4:	b1 08       	sbc	r11, r1
      a6:	ba 08       	sbc	r11, r10
      a8:	ba 08       	sbc	r11, r10
      aa:	ba 08       	sbc	r11, r10
      ac:	ba 08       	sbc	r11, r10
      ae:	ba 08       	sbc	r11, r10
      b0:	b3 08       	sbc	r11, r3
      b2:	ba 08       	sbc	r11, r10
      b4:	b5 08       	sbc	r11, r5
      b6:	a9 08       	sbc	r10, r9
      b8:	ba 08       	sbc	r11, r10
      ba:	ba 08       	sbc	r11, r10
      bc:	ba 08       	sbc	r11, r10
      be:	b7 08       	sbc	r11, r7
      c0:	b9 08       	sbc	r11, r9
      c2:	ab 08       	sbc	r10, r11
      c4:	ba 08       	sbc	r11, r10
      c6:	ba 08       	sbc	r11, r10
      c8:	ba 08       	sbc	r11, r10
      ca:	ba 08       	sbc	r11, r10
      cc:	ad 08       	sbc	r10, r13
      ce:	ba 08       	sbc	r11, r10
      d0:	ba 08       	sbc	r11, r10
      d2:	ba 08       	sbc	r11, r10
      d4:	ba 08       	sbc	r11, r10
      d6:	ba 08       	sbc	r11, r10
      d8:	ba 08       	sbc	r11, r10
      da:	ba 08       	sbc	r11, r10
      dc:	af 08       	sbc	r10, r15
      de:	ba 08       	sbc	r11, r10
      e0:	ba 08       	sbc	r11, r10
      e2:	ba 08       	sbc	r11, r10
      e4:	b1 08       	sbc	r11, r1
      e6:	ba 08       	sbc	r11, r10
      e8:	ba 08       	sbc	r11, r10
      ea:	ba 08       	sbc	r11, r10
      ec:	ba 08       	sbc	r11, r10
      ee:	ba 08       	sbc	r11, r10
      f0:	b3 08       	sbc	r11, r3
      f2:	ba 08       	sbc	r11, r10
      f4:	b5 08       	sbc	r11, r5
      f6:	a9 08       	sbc	r10, r9
      f8:	ba 08       	sbc	r11, r10
      fa:	ba 08       	sbc	r11, r10
      fc:	ba 08       	sbc	r11, r10
      fe:	b7 08       	sbc	r11, r7
     100:	b9 08       	sbc	r11, r9
     102:	ab 08       	sbc	r10, r11
     104:	14 0a       	sbc	r1, r20
     106:	28 0a       	sbc	r2, r24
     108:	ca 0a       	sbc	r12, r26
     10a:	de 0a       	sbc	r13, r30
     10c:	5b 0c       	add	r5, r11
     10e:	cd 0c       	add	r12, r13
     110:	2c 0d       	add	r18, r12
     112:	ac 0e       	add	r10, r28
     114:	b1 0e       	add	r11, r17
     116:	b6 0e       	add	r11, r22
     118:	bb 0e       	add	r11, r27
     11a:	c0 0e       	add	r12, r16
     11c:	c5 0e       	add	r12, r21
     11e:	ca 0e       	add	r12, r26
     120:	a6 13       	cpse	r26, r22
     122:	e8 14       	cp	r14, r8
     124:	a6 13       	cpse	r26, r22
     126:	aa 13       	cpse	r26, r26
     128:	a6 13       	cpse	r26, r22
     12a:	aa 13       	cpse	r26, r26
     12c:	a6 13       	cpse	r26, r22
     12e:	a6 13       	cpse	r26, r22
     130:	aa 13       	cpse	r26, r26
     132:	a6 13       	cpse	r26, r22
     134:	aa 13       	cpse	r26, r26
     136:	a6 13       	cpse	r26, r22
     138:	4f 14       	cp	r4, r15
     13a:	5c 14       	cp	r5, r12
     13c:	69 14       	cp	r6, r9
     13e:	76 14       	cp	r7, r6
     140:	83 14       	cp	r8, r3
     142:	90 14       	cp	r9, r0
     144:	9d 14       	cp	r9, r13
     146:	aa 14       	cp	r10, r10
     148:	29 17       	cp	r18, r25
     14a:	2e 17       	cp	r18, r30
     14c:	33 17       	cp	r19, r19
     14e:	38 17       	cp	r19, r24
     150:	3d 17       	cp	r19, r29
     152:	42 17       	cp	r20, r18
     154:	47 17       	cp	r20, r23

00000156 <__trampolines_end>:
     156:	02 04       	cpc	r0, r2
     158:	0e 01       	movw	r0, r28
     15a:	0f 11       	cpse	r16, r15
     15c:	0f 00       	.word	0x000f	; ????
     15e:	02 04       	cpc	r0, r2
     160:	0e 11       	cpse	r16, r14
     162:	1f 10       	cpse	r1, r15
     164:	0e 00       	.word	0x000e	; ????
     166:	02 04       	cpc	r0, r2
     168:	00 0c       	add	r0, r0
     16a:	04 04       	cpc	r0, r4
     16c:	0e 00       	.word	0x000e	; ????
     16e:	02 04       	cpc	r0, r2
     170:	0e 11       	cpse	r16, r14
     172:	11 11       	cpse	r17, r1
     174:	0e 00       	.word	0x000e	; ????
     176:	05 0a       	sbc	r0, r21
     178:	0e 11       	cpse	r16, r14
     17a:	11 11       	cpse	r17, r1
     17c:	0e 00       	.word	0x000e	; ????
     17e:	02 04       	cpc	r0, r2
     180:	00 11       	cpse	r16, r0
     182:	11 13       	cpse	r17, r17
     184:	0d 00       	.word	0x000d	; ????
     186:	05 0a       	sbc	r0, r21
     188:	00 11       	cpse	r16, r0
     18a:	11 13       	cpse	r17, r17
     18c:	0d 00       	.word	0x000d	; ????

0000018e <__c.3217>:
     18e:	2e 00                                               ..

00000190 <__c.3214>:
     190:	2e 00                                               ..

00000192 <__c.3211>:
     192:	2e 00                                               ..

00000194 <__c.3208>:
     194:	2e 00                                               ..

00000196 <__c.3205>:
     196:	2e 00                                               ..

00000198 <__c.3202>:
     198:	2e 00                                               ..

0000019a <__c.3198>:
     19a:	2e 00                                               ..

0000019c <__c.3175>:
     19c:	20 64 62 00                                          db.

000001a0 <__c.3173>:
     1a0:	44 53 31 38 42 32 30 3a 20 00                       DS18B20: .

000001aa <__c.3171>:
     1aa:	20 44 53 31 38 42 32 30 20 73 65 6e 73 6f 72 73      DS18B20 sensors
     1ba:	0a 00                                               ..

000001bc <__c.3169>:
     1bc:	46 6f 75 6e 64 20 00                                Found .

000001c3 <__c.3167>:
     1c3:	49 6e 74 65 72 72 75 70 74 20 65 6e 61 62 6c 65     Interrupt enable
     1d3:	64 0a 00                                            d..

000001d6 <__c.3165>:
     1d6:	4d 65 67 73 7a 61 6b ed 74 e1 73 6f 6b 20 65 6e     Megszak.t.sok en
     1e6:	67 2e 00                                            g..

000001e9 <__c.3163>:
     1e9:	49 32 43 20 69 6e 64 ed 74 e1 73 00                 I2C ind.t.s.

000001f5 <__c.3157>:
     1f5:	41 6c 61 70 e1 6c 6c 61 70 6f 74 62 61 20 e1 6c     Alap.llapotba .l
     205:	6c e1 73 00                                         l.s.

00000209 <__c.3155>:
     209:	46 fb 74 e9 73 20 76 65 7a e9 72 6c e9 73 20 76     F.t.s vez.rl.s v
     219:	30 2e 39 33 00                                      0.93.

0000021e <__c.3140>:
     21e:	42 75 73 20 65 72 72 6f 72 0a 00                    Bus error..

00000229 <__c.3137>:
     229:	4e 6f 20 73 65 6e 73 6f 72 20 66 6f 75 6e 64 0a     No sensor found.
	...

0000023a <__c.3135>:
     23a:	42 75 73 20 73 63 61 6e 6e 69 6e 67 20 2e 2e 2e     Bus scanning ...
     24a:	0a 00                                               ..

0000024c <__c.3126>:
     24c:	0d 0a 00                                            ...

0000024f <__c.3124>:
     24f:	53 39 39 3b 00                                      S99;.

00000254 <__c.3114>:
     254:	46 f6 6c 64 2f 45 6d 65 6c 20 00                    F.ld/Emel .

0000025f <__c.3112>:
     25f:	50 75 66 66 65 72 20 73 7a 2f 70 20 00              Puffer sz/p .

0000026c <__c.3110>:
     26c:	47 e1 7a 20 72 65 6c e9 20 00                       G.z rel. .

00000276 <__c.3108>:
     276:	48 4d 56 20 73 7a 65 6c 65 70 20 00                 HMV szelep .

00000282 <__c.3106>:
     282:	76 61 73 e1 72 6e 61 70 00                          vas.rnap.

0000028b <__c.3103>:
     28b:	73 7a 6f 6d 62 61 74 00                             szombat.

00000293 <__c.3100>:
     293:	70 e9 6e 74 65 6b 00                                p.ntek.

0000029a <__c.3097>:
     29a:	63 73 fc 74 00                                      cs.t.

0000029f <__c.3094>:
     29f:	73 7a 65 72 64 61 00                                szerda.

000002a6 <__c.3091>:
     2a6:	6b 65 64 64 00                                      kedd.

000002ab <__c.3087>:
     2ab:	68 e9 74 66 f5 00                                   h.tf..

000002b1 <__c.3084>:
     2b1:	2e 00                                               ..

000002b3 <__c.3082>:
     2b3:	2e 00                                               ..

000002b5 <__c.3080>:
     2b5:	3a 00                                               :.

000002b7 <__c.3078>:
     2b7:	20 43 00                                             C.

000002ba <__c.3076>:
     2ba:	2e 00                                               ..

000002bc <__c.3074>:
     2bc:	56 69 73 73 7a 61 74 e9 72 f5 20 00                 Visszat.r. .

000002c8 <__c.3072>:
     2c8:	20 43 00                                             C.

000002cb <__c.3070>:
     2cb:	2e 00                                               ..

000002cd <__c.3068>:
     2cd:	45 6c f5 72 65 6d 65 6e f5 20 00                    El.remen. .

000002d8 <__c.3066>:
     2d8:	20 43 00                                             C.

000002db <__c.3064>:
     2db:	2e 00                                               ..

000002dd <__c.3062>:
     2dd:	50 61 64 6c f3 20 00                                Padl. .

000002e4 <__c.3060>:
     2e4:	20 43 00                                             C.

000002e7 <__c.3058>:
     2e7:	2e 00                                               ..

000002e9 <__c.3056>:
     2e9:	4e 61 70 70 61 6c 69 20 00                          Nappali .

000002f2 <__c.3054>:
     2f2:	20 43 00                                             C.

000002f5 <__c.3052>:
     2f5:	2e 00                                               ..

000002f7 <__c.3050>:
     2f7:	47 61 72 e1 7a 73 20 00                             Gar.zs .

000002ff <__c.3048>:
     2ff:	20 43 00                                             C.

00000302 <__c.3046>:
     302:	4b fc 6c 73 f5 20 00                                K.ls. .

00000309 <__c.3044>:
     309:	20 43 00                                             C.

0000030c <__c.3042>:
     30c:	2e 00                                               ..

0000030e <__c.3040>:
     30e:	47 e9 70 68 e1 7a 20 00                             G.ph.z .

00000316 <__c.3038>:
     316:	20 43 00                                             C.

00000319 <__c.3036>:
     319:	2e 00                                               ..

0000031b <__c.3034>:
     31b:	50 75 66 66 65 72 20 00                             Puffer .

00000323 <__c.3032>:
     323:	20 43 00                                             C.

00000326 <__c.3030>:
     326:	2e 00                                               ..

00000328 <__c.3028>:
     328:	48 4d 56 20 00                                      HMV .

0000032d <__c.3025>:
     32d:	0a 00                                               ..

0000032f <__c.3023>:
     32f:	53 31 36 3b 00                                      S16;.

00000334 <__c.3021>:
     334:	0d 00                                               ..

00000336 <__c.3019>:
     336:	2e 00                                               ..

00000338 <__c.3017>:
     338:	53 31 35 3b 00                                      S15;.

0000033d <__c.3015>:
     33d:	0d 00                                               ..

0000033f <__c.3013>:
     33f:	2e 00                                               ..

00000341 <__c.3011>:
     341:	53 31 34 3b 00                                      S14;.

00000346 <__c.3009>:
     346:	0d 00                                               ..

00000348 <__c.3007>:
     348:	2e 00                                               ..

0000034a <__c.3005>:
     34a:	53 31 33 3b 00                                      S13;.

0000034f <__c.3002>:
     34f:	0a 00                                               ..

00000351 <__c.3000>:
     351:	53 31 32 3b 00                                      S12;.

00000356 <__c.2998>:
     356:	0d 00                                               ..

00000358 <__c.2996>:
     358:	53 31 31 3b 00                                      S11;.

0000035d <__c.2994>:
     35d:	0d 00                                               ..

0000035f <__c.2992>:
     35f:	2e 00                                               ..

00000361 <__c.2990>:
     361:	53 31 30 3b 00                                      S10;.

00000366 <__c.2988>:
     366:	0d 00                                               ..

00000368 <__c.2986>:
     368:	2e 00                                               ..

0000036a <__c.2984>:
     36a:	53 39 3b 00                                         S9;.

0000036e <__c.2982>:
     36e:	0d 00                                               ..

00000370 <__c.2980>:
     370:	2e 00                                               ..

00000372 <__c.2978>:
     372:	53 38 3b 00                                         S8;.

00000376 <__c.2975>:
     376:	0a 00                                               ..

00000378 <__c.2973>:
     378:	2e 00                                               ..

0000037a <__c.2971>:
     37a:	53 37 3b 00                                         S7;.

0000037e <__c.2969>:
     37e:	0d 00                                               ..

00000380 <__c.2967>:
     380:	2e 00                                               ..

00000382 <__c.2965>:
     382:	53 36 3b 00                                         S6;.

00000386 <__c.2963>:
     386:	0d 00                                               ..

00000388 <__c.2961>:
     388:	2e 00                                               ..

0000038a <__c.2959>:
     38a:	53 35 3b 00                                         S5;.

0000038e <__c.2957>:
     38e:	0d 00                                               ..

00000390 <__c.2955>:
     390:	2e 00                                               ..

00000392 <__c.2953>:
     392:	53 34 3b 00                                         S4;.

00000396 <__c.2951>:
     396:	0d 00                                               ..

00000398 <__c.2949>:
     398:	2e 00                                               ..

0000039a <__c.2947>:
     39a:	53 33 3b 00                                         S3;.

0000039e <__c.2941>:
     39e:	2d 00                                               -.

000003a0 <__c.2939>:
     3a0:	2d 2d 00                                            --.

000003a3 <__c.2936>:
     3a3:	0d 00                                               ..

000003a5 <__c.2934>:
     3a5:	2e 00                                               ..

000003a7 <__c.2932>:
     3a7:	3b 00                                               ;.

000003a9 <__c.2930>:
     3a9:	53 00                                               S.

000003ab <__c.2926>:
     3ab:	0d 00                                               ..

000003ad <__c.2924>:
     3ad:	53 31 32 3b 00                                      S12;.

000003b2 <__c.2922>:
     3b2:	0d 00                                               ..

000003b4 <__c.2920>:
     3b4:	53 31 31 3b 00                                      S11;.

000003b9 <__c.2904>:
     3b9:	2d 00                                               -.

000003bb <__c.2902>:
     3bb:	2d 2d 00                                            --.

000003be <fraccel_lookup>:
     3be:	00 01 01 02 03 03 04 04 05 06 06 07 08 08 09 09     ................

000003ce <magyar_betuk>:
     3ce:	02 04 0e 01 0f 11 0f 00 02 04 0e 11 1f 10 0e 00     ................
     3de:	02 04 00 0c 04 04 0e 00 02 04 0e 11 11 11 0e 00     ................
     3ee:	05 0a 0e 11 11 11 0e 00 02 04 00 11 11 13 0d 00     ................
     3fe:	05 0a 00 11 11 13 0d 00                             ........

00000406 <__c.3241>:
     406:	da 6a 72 61 69 6e 64 75 6c e1 73 6f 6b 00           .jraindul.sok.

00000414 <__c.3225>:
     414:	4d 61 78 20 69 64 f5 00                             Max id..

0000041c <__c.3210>:
     41c:	4d 69 6e 20 69 64 f5 00                             Min id..

00000424 <__c.3195>:
     424:	4b 6f 6d 66 6f 72 74 20 65 6c f5 72 65 6d 65 6e     Komfort el.remen
     434:	f5 00                                               ..

00000436 <__c.3180>:
     436:	4b 6f 6d 66 6f 72 74 20 68 f5 6d 00                 Komfort h.m.

00000442 <__c.3166>:
     442:	4b 69 00                                            Ki.

00000445 <__c.3164>:
     445:	42 65 00                                            Be.

00000448 <__c.3162>:
     448:	4b 6f 6d 66 6f 72 74 20 6d f3 64 00                 Komfort m.d.

00000454 <__c.3147>:
     454:	76 61 73 e1 72 6e 61 70 00                          vas.rnap.

0000045d <__c.3144>:
     45d:	73 7a 6f 6d 62 61 74 00                             szombat.

00000465 <__c.3141>:
     465:	70 e9 6e 74 65 6b 00                                p.ntek.

0000046c <__c.3138>:
     46c:	63 73 fc 74 f6 72 74 f6 6b 00                       cs.t.rt.k.

00000476 <__c.3135>:
     476:	73 7a 65 72 64 61 00                                szerda.

0000047d <__c.3132>:
     47d:	6b 65 64 64 00                                      kedd.

00000482 <__c.3128>:
     482:	68 e9 74 66 f5 00                                   h.tf..

00000488 <__c.3125>:
     488:	6e 61 70 20 6e e9 76 00                             nap n.v.

00000490 <__c.3110>:
     490:	6e 61 70 00                                         nap.

00000494 <__c.3095>:
     494:	68 f3 6e 61 70 00                                   h.nap.

0000049a <__c.3080>:
     49a:	e9 76 00                                            .v.

0000049d <__c.3065>:
     49d:	70 65 72 63 00                                      perc.

000004a2 <__c.3050>:
     4a2:	f3 72 61 00                                         .ra.

000004a6 <__c.3035>:
     4a6:	47 e1 7a 20 4f 54 20 65 6c f5 72 65 00              G.z OT el.re.

000004b3 <__c.3020>:
     4b3:	53 7a 69 76 61 74 74 79 fa 20 75 74 e1 6e 66 75     Szivatty. ut.nfu
     4c3:	74 e1 73 00                                         t.s.

000004c7 <__c.3005>:
     4c7:	4c 43 44 20 68 e1 74 74 e9 72 00                    LCD h.tt.r.

000004d2 <__c.2990>:
     4d2:	4d 65 6e fc 20 69 64 f5 7a ed 74 f5 20 28 6d 70     Men. id.z.t. (mp
     4e2:	29 00                                               ).

000004e4 <__c.2976>:
     4e4:	48 69 62 61 6b 65 72 65 73 e9 73 00                 Hibakeres.s.

000004f0 <__c.2973>:
     4f0:	4d 61 6e 75 e1 6c 69 73 00                          Manu.lis.

000004f9 <__c.2969>:
     4f9:	41 75 74 6f 6d 61 74 69 6b 75 73 00                 Automatikus.

00000505 <__c.2966>:
     505:	54 65 73 7a 74 fc 7a 65 6d 00                       Teszt.zem.

0000050f <__c.2950>:
     50f:	4b 65 76 65 72 74 20 73 7a 65 6e 7a 6f 72 20 49     Kevert szenzor I
     51f:	44 00                                               D.

00000521 <__c.2945>:
     521:	20 43 00                                             C.

00000524 <__c.2943>:
     524:	2e 00                                               ..

00000526 <__c.2941>:
     526:	4b 65 76 65 72 74 20 61 6b 74 20 68 f5 6d 00        Kevert akt h.m.

00000535 <__c.2926>:
     535:	56 69 73 73 7a 61 20 73 7a 65 6e 7a 6f 72 20 49     Vissza szenzor I
     545:	44 00                                               D.

00000547 <__c.2921>:
     547:	20 43 00                                             C.

0000054a <__c.2919>:
     54a:	2e 00                                               ..

0000054c <__c.2917>:
     54c:	56 69 73 73 7a 61 74 e9 72 f5 20 61 6b 74 20 68     Visszat.r. akt h
     55c:	f5 6d 00                                            .m.

0000055f <__c.2902>:
     55f:	45 6c f5 72 65 20 73 7a 65 6e 7a 6f 72 20 49 44     El.re szenzor ID
	...

00000570 <__c.2897>:
     570:	20 43 00                                             C.

00000573 <__c.2895>:
     573:	2e 00                                               ..

00000575 <__c.2893>:
     575:	45 6c f5 72 65 20 61 6b 74 20 68 f5 6d 00           El.re akt h.m.

00000583 <__c.2878>:
     583:	56 69 73 73 7a 61 20 73 7a 65 6e 7a 6f 72 20 49     Vissza szenzor I
     593:	44 00                                               D.

00000595 <__c.2873>:
     595:	20 43 00                                             C.

00000598 <__c.2871>:
     598:	2e 00                                               ..

0000059a <__c.2869>:
     59a:	56 69 73 73 7a 61 74 e9 72 f5 20 61 6b 74 20 68     Visszat.r. akt h
     5aa:	f5 6d 00                                            .m.

000005ad <__c.2854>:
     5ad:	45 6c f5 72 65 20 73 7a 65 6e 7a 6f 72 20 49 44     El.re szenzor ID
	...

000005be <__c.2849>:
     5be:	20 43 00                                             C.

000005c1 <__c.2847>:
     5c1:	2e 00                                               ..

000005c3 <__c.2845>:
     5c3:	45 6c f5 72 65 20 61 6b 74 20 68 f5 6d 00           El.re akt h.m.

000005d1 <__c.2830>:
     5d1:	50 61 64 6c f3 20 73 7a 65 6e 7a 6f 72 20 49 44     Padl. szenzor ID
	...

000005e2 <__c.2825>:
     5e2:	20 43 00                                             C.

000005e5 <__c.2823>:
     5e5:	2f 00                                               /.

000005e7 <__c.2820>:
     5e7:	20 43 00                                             C.

000005ea <__c.2818>:
     5ea:	2e 00                                               ..

000005ec <__c.2816>:
     5ec:	50 61 64 6c f3 20 61 6b 74 20 68 f5 6d 00           Padl. akt h.m.

000005fa <__c.2801>:
     5fa:	4e 61 70 70 61 6c 69 20 73 7a 65 6e 7a 6f 72 20     Nappali szenzor 
     60a:	49 44 00                                            ID.

0000060d <__c.2796>:
     60d:	20 43 00                                             C.

00000610 <__c.2794>:
     610:	2f 00                                               /.

00000612 <__c.2791>:
     612:	20 43 00                                             C.

00000615 <__c.2789>:
     615:	2e 00                                               ..

00000617 <__c.2787>:
     617:	4e 61 70 70 61 6c 69 20 61 6b 74 20 68 f5 6d 00     Nappali akt h.m.

00000627 <__c.2772>:
     627:	47 61 72 e1 7a 73 20 73 7a 65 6e 7a 6f 72 20 49     Gar.zs szenzor I
     637:	44 00                                               D.

00000639 <__c.2767>:
     639:	20 43 00                                             C.

0000063c <__c.2765>:
     63c:	2f 00                                               /.

0000063e <__c.2762>:
     63e:	20 43 00                                             C.

00000641 <__c.2760>:
     641:	2e 00                                               ..

00000643 <__c.2758>:
     643:	47 61 72 e1 7a 73 20 61 6b 74 20 68 f5 6d 00        Gar.zs akt h.m.

00000652 <__c.2743>:
     652:	4b 69 00                                            Ki.

00000655 <__c.2741>:
     655:	42 65 00                                            Be.

00000658 <__c.2739>:
     658:	47 e1 7a 20 e1 6c 6c 61 70 6f 74 00                 G.z .llapot.

00000664 <__c.2725>:
     664:	4b 69 00                                            Ki.

00000667 <__c.2723>:
     667:	42 65 00                                            Be.

0000066a <__c.2721>:
     66a:	50 75 66 66 65 72 20 73 7a 69 76 61 74 74 79 fa     Puffer szivatty.
	...

0000067b <__c.2707>:
     67b:	47 e1 7a 00                                         G.z.

0000067f <__c.2705>:
     67f:	50 75 66 66 65 72 00                                Puffer.

00000686 <__c.2703>:
     686:	50 75 66 66 65 72 20 2f 20 67 e1 7a 20 73 7a 65     Puffer / g.z sze
     696:	6c 65 70 00                                         lep.

0000069a <__c.2689>:
     69a:	4b 69 00                                            Ki.

0000069d <__c.2687>:
     69d:	42 65 00                                            Be.

000006a0 <__c.2685>:
     6a0:	45 6d 65 6c 65 74 69 20 73 7a 69 76 61 74 74 79     Emeleti szivatty
     6b0:	fa 00                                               ..

000006b2 <__c.2671>:
     6b2:	4b 69 00                                            Ki.

000006b5 <__c.2669>:
     6b5:	42 65 00                                            Be.

000006b8 <__c.2667>:
     6b8:	46 f6 6c 64 73 7a 69 6e 74 69 20 73 7a 69 76 61     F.ldszinti sziva
     6c8:	74 74 79 fa 00                                      tty..

000006cd <__c.2653>:
     6cd:	4b 69 00                                            Ki.

000006d0 <__c.2651>:
     6d0:	42 65 00                                            Be.

000006d3 <__c.2649>:
     6d3:	48 4d 56 20 73 7a 65 6c 65 70 20 e1 6c 6c 61 70     HMV szelep .llap
     6e3:	6f 74 00                                            ot.

000006e6 <__c.2633>:
     6e6:	47 e9 70 68 e1 7a 20 73 7a 65 6e 7a 6f 72 20 49     G.ph.z szenzor I
     6f6:	44 00                                               D.

000006f8 <__c.2619>:
     6f8:	47 e9 70 68 e1 7a 20 6b ed 76 e1 6e 74 20 68 f5     G.ph.z k.v.nt h.
     708:	6d 00                                               m.

0000070a <__c.2604>:
     70a:	47 e9 70 68 e1 7a 20 6d 69 6e 20 68 f5 6d 00        G.ph.z min h.m.

00000719 <__c.2598>:
     719:	20 43 00                                             C.

0000071c <__c.2596>:
     71c:	2f 00                                               /.

0000071e <__c.2593>:
     71e:	20 43 00                                             C.

00000721 <__c.2591>:
     721:	2e 00                                               ..

00000723 <__c.2589>:
     723:	47 e9 70 68 e1 7a 20 61 6b 74 20 68 f5 6d 00        G.ph.z akt h.m.

00000732 <__c.2573>:
     732:	50 75 66 66 65 72 20 73 7a 65 6e 7a 6f 72 20 49     Puffer szenzor I
     742:	44 00                                               D.

00000744 <__c.2559>:
     744:	50 75 66 66 65 72 20 6d 61 78 20 68 f5 6d 00        Puffer max h.m.

00000753 <__c.2544>:
     753:	45 6c f5 72 65 6d 65 6e f5 20 68 f5 6d 00           El.remen. h.m.

00000761 <__c.2538>:
     761:	20 43 00                                             C.

00000764 <__c.2536>:
     764:	2f 00                                               /.

00000766 <__c.2533>:
     766:	20 43 00                                             C.

00000769 <__c.2531>:
     769:	2e 00                                               ..

0000076b <__c.2529>:
     76b:	50 75 66 66 65 72 20 61 6b 74 20 68 f5 6d 00        Puffer akt h.m.

0000077a <__c.2512>:
     77a:	4d 61 78 20 69 64 f5 00                             Max id..

00000782 <__c.2497>:
     782:	4d 69 6e 20 69 64 f5 00                             Min id..

0000078a <__c.2482>:
     78a:	48 4d 56 20 73 7a 65 6e 7a 6f 72 20 49 44 00        HMV szenzor ID.

00000799 <__c.2468>:
     799:	48 4d 56 20 6d 69 6e 20 68 f5 6d 00                 HMV min h.m.

000007a5 <__c.2453>:
     7a5:	48 4d 56 20 6b ed 76 e1 6e 74 20 68 f5 6d 00        HMV k.v.nt h.m.

000007b4 <__c.2447>:
     7b4:	20 43 00                                             C.

000007b7 <__c.2445>:
     7b7:	2f 00                                               /.

000007b9 <__c.2442>:
     7b9:	20 43 00                                             C.

000007bc <__c.2440>:
     7bc:	2e 00                                               ..

000007be <__c.2438>:
     7be:	48 4d 56 20 61 6b 74 20 68 f5 6d 00                 HMV akt h.m.

000007ca <__c.2422>:
     7ca:	4b fc 6c 73 f5 20 6d 69 6e 20 68 f5 6d 00           K.ls. min h.m.

000007d8 <__c.2417>:
     7d8:	48 49 48 78 78 78 78 20 70 e1 72 61 00              HIHxxxx p.ra.

000007e5 <__c.2412>:
     7e5:	48 49 48 78 78 78 78 20 68 f5 6d 00 00              HIHxxxx h.m..

000007f2 <__ctors_end>:
     7f2:	11 24       	eor	r1, r1
     7f4:	1f be       	out	0x3f, r1	; 63
     7f6:	cf ef       	ldi	r28, 0xFF	; 255
     7f8:	d0 e1       	ldi	r29, 0x10	; 16
     7fa:	de bf       	out	0x3e, r29	; 62
     7fc:	cd bf       	out	0x3d, r28	; 61

000007fe <__do_copy_data>:
     7fe:	17 e0       	ldi	r17, 0x07	; 7
     800:	a0 e0       	ldi	r26, 0x00	; 0
     802:	b1 e0       	ldi	r27, 0x01	; 1
     804:	ec ee       	ldi	r30, 0xEC	; 236
     806:	fd e5       	ldi	r31, 0x5D	; 93
     808:	02 c0       	rjmp	.+4      	; 0x80e <__do_copy_data+0x10>
     80a:	05 90       	lpm	r0, Z+
     80c:	0d 92       	st	X+, r0
     80e:	a2 30       	cpi	r26, 0x02	; 2
     810:	b1 07       	cpc	r27, r17
     812:	d9 f7       	brne	.-10     	; 0x80a <__do_copy_data+0xc>

00000814 <__do_clear_bss>:
     814:	28 e0       	ldi	r18, 0x08	; 8
     816:	a2 e0       	ldi	r26, 0x02	; 2
     818:	b7 e0       	ldi	r27, 0x07	; 7
     81a:	01 c0       	rjmp	.+2      	; 0x81e <.do_clear_bss_start>

0000081c <.do_clear_bss_loop>:
     81c:	1d 92       	st	X+, r1

0000081e <.do_clear_bss_start>:
     81e:	ad 3b       	cpi	r26, 0xBD	; 189
     820:	b2 07       	cpc	r27, r18
     822:	e1 f7       	brne	.-8      	; 0x81c <.do_clear_bss_loop>
     824:	0e 94 7e 12 	call	0x24fc	; 0x24fc <main>
     828:	0c 94 f4 2e 	jmp	0x5de8	; 0x5de8 <_exit>

0000082c <__bad_interrupt>:
     82c:	0c 94 00 00 	jmp	0	; 0x0 <__vectors>

00000830 <crc8>:
	uint8_t  data;
	uint8_t  feedback_bit;
	
	crc = CRC8INIT;

	for (loop_count = 0; loop_count != number_of_bytes_to_read; loop_count++)
     830:	61 15       	cp	r22, r1
     832:	71 05       	cpc	r23, r1
     834:	a9 f0       	breq	.+42     	; 0x860 <crc8+0x30>
     836:	fc 01       	movw	r30, r24
     838:	68 0f       	add	r22, r24
     83a:	79 1f       	adc	r23, r25
     83c:	80 e0       	ldi	r24, 0x00	; 0
		bit_counter = 8;
		do {
			feedback_bit = (crc ^ data) & 0x01;
	
			if ( feedback_bit == 0x01 ) {
				crc = crc ^ CRC8POLY;
     83e:	48 e1       	ldi	r20, 0x18	; 24
	
	crc = CRC8INIT;

	for (loop_count = 0; loop_count != number_of_bytes_to_read; loop_count++)
	{
		data = data_in[loop_count];
     840:	21 91       	ld	r18, Z+
     842:	98 e0       	ldi	r25, 0x08	; 8
		
		bit_counter = 8;
		do {
			feedback_bit = (crc ^ data) & 0x01;
	
			if ( feedback_bit == 0x01 ) {
     844:	38 2f       	mov	r19, r24
     846:	32 27       	eor	r19, r18
     848:	30 ff       	sbrs	r19, 0
     84a:	0c c0       	rjmp	.+24     	; 0x864 <crc8+0x34>
				crc = crc ^ CRC8POLY;
     84c:	84 27       	eor	r24, r20
			}
			crc = (crc >> 1) & 0x7F;
     84e:	86 95       	lsr	r24
			if ( feedback_bit == 0x01 ) {
				crc = crc | 0x80;
     850:	80 68       	ori	r24, 0x80	; 128
			}
		
			data = data >> 1;
     852:	26 95       	lsr	r18
     854:	91 50       	subi	r25, 0x01	; 1
			bit_counter--;
		
		} while (bit_counter > 0);
     856:	b1 f7       	brne	.-20     	; 0x844 <crc8+0x14>
	uint8_t  data;
	uint8_t  feedback_bit;
	
	crc = CRC8INIT;

	for (loop_count = 0; loop_count != number_of_bytes_to_read; loop_count++)
     858:	e6 17       	cp	r30, r22
     85a:	f7 07       	cpc	r31, r23
     85c:	89 f7       	brne	.-30     	; 0x840 <crc8+0x10>
     85e:	08 95       	ret
	uint16_t loop_count;
	uint8_t  bit_counter;
	uint8_t  data;
	uint8_t  feedback_bit;
	
	crc = CRC8INIT;
     860:	80 e0       	ldi	r24, 0x00	; 0
			bit_counter--;
		
		} while (bit_counter > 0);
	}
	
	return crc;
     862:	08 95       	ret
			feedback_bit = (crc ^ data) & 0x01;
	
			if ( feedback_bit == 0x01 ) {
				crc = crc ^ CRC8POLY;
			}
			crc = (crc >> 1) & 0x7F;
     864:	86 95       	lsr	r24
     866:	f5 cf       	rjmp	.-22     	; 0x852 <crc8+0x22>

00000868 <DS18X20_meas_to_cel>:
    ow_reset();
    ow_command(DS18X20_READ_POWER_SUPPLY, id);
    pstat=ow_bit_io(1); // pstat 0=is parasite/ !=0 ext. powered
    ow_reset();
	return (pstat) ? DS18X20_POWER_EXTERN:DS18X20_POWER_PARASITE;
}
     868:	0f 93       	push	r16
     86a:	1f 93       	push	r17
     86c:	cf 93       	push	r28
     86e:	df 93       	push	r29
     870:	db 01       	movw	r26, r22
     872:	ec 91       	ld	r30, X
     874:	11 96       	adiw	r26, 0x01	; 1
     876:	9c 91       	ld	r25, X
     878:	11 97       	sbiw	r26, 0x01	; 1
     87a:	f0 e0       	ldi	r31, 0x00	; 0
     87c:	f9 2b       	or	r31, r25
     87e:	80 31       	cpi	r24, 0x10	; 16
     880:	81 f4       	brne	.+32     	; 0x8a2 <DS18X20_meas_to_cel+0x3a>
     882:	ee 7f       	andi	r30, 0xFE	; 254
     884:	ee 0f       	add	r30, r30
     886:	ff 1f       	adc	r31, r31
     888:	ee 0f       	add	r30, r30
     88a:	ff 1f       	adc	r31, r31
     88c:	ee 0f       	add	r30, r30
     88e:	ff 1f       	adc	r31, r31
     890:	16 96       	adiw	r26, 0x06	; 6
     892:	9c 91       	ld	r25, X
     894:	16 97       	sbiw	r26, 0x06	; 6
     896:	6c e0       	ldi	r22, 0x0C	; 12
     898:	70 e0       	ldi	r23, 0x00	; 0
     89a:	69 1b       	sub	r22, r25
     89c:	71 09       	sbc	r23, r1
     89e:	e6 0f       	add	r30, r22
     8a0:	f7 1f       	adc	r31, r23
     8a2:	ff 23       	and	r31, r31
     8a4:	3c f4       	brge	.+14     	; 0x8b4 <DS18X20_meas_to_cel+0x4c>
     8a6:	91 e0       	ldi	r25, 0x01	; 1
     8a8:	ea 01       	movw	r28, r20
     8aa:	98 83       	st	Y, r25
     8ac:	f1 95       	neg	r31
     8ae:	e1 95       	neg	r30
     8b0:	f1 09       	sbc	r31, r1
     8b2:	02 c0       	rjmp	.+4      	; 0x8b8 <DS18X20_meas_to_cel+0x50>
     8b4:	ea 01       	movw	r28, r20
     8b6:	18 82       	st	Y, r1
     8b8:	88 32       	cpi	r24, 0x28	; 40
     8ba:	79 f4       	brne	.+30     	; 0x8da <DS18X20_meas_to_cel+0x72>
     8bc:	14 96       	adiw	r26, 0x04	; 4
     8be:	8c 91       	ld	r24, X
     8c0:	98 2f       	mov	r25, r24
     8c2:	90 76       	andi	r25, 0x60	; 96
     8c4:	90 36       	cpi	r25, 0x60	; 96
     8c6:	49 f0       	breq	.+18     	; 0x8da <DS18X20_meas_to_cel+0x72>
     8c8:	86 ff       	sbrs	r24, 6
     8ca:	02 c0       	rjmp	.+4      	; 0x8d0 <DS18X20_meas_to_cel+0x68>
     8cc:	ee 7f       	andi	r30, 0xFE	; 254
     8ce:	05 c0       	rjmp	.+10     	; 0x8da <DS18X20_meas_to_cel+0x72>
     8d0:	85 ff       	sbrs	r24, 5
     8d2:	02 c0       	rjmp	.+4      	; 0x8d8 <DS18X20_meas_to_cel+0x70>
     8d4:	ec 7f       	andi	r30, 0xFC	; 252
     8d6:	01 c0       	rjmp	.+2      	; 0x8da <DS18X20_meas_to_cel+0x72>
     8d8:	e8 7f       	andi	r30, 0xF8	; 248
     8da:	cf 01       	movw	r24, r30
     8dc:	92 95       	swap	r25
     8de:	82 95       	swap	r24
     8e0:	8f 70       	andi	r24, 0x0F	; 15
     8e2:	89 27       	eor	r24, r25
     8e4:	9f 70       	andi	r25, 0x0F	; 15
     8e6:	89 27       	eor	r24, r25
     8e8:	d9 01       	movw	r26, r18
     8ea:	8c 93       	st	X, r24
     8ec:	ef 70       	andi	r30, 0x0F	; 15
     8ee:	e8 01       	movw	r28, r16
     8f0:	e8 83       	st	Y, r30
     8f2:	80 e0       	ldi	r24, 0x00	; 0
     8f4:	df 91       	pop	r29
     8f6:	cf 91       	pop	r28
     8f8:	1f 91       	pop	r17
     8fa:	0f 91       	pop	r16
     8fc:	08 95       	ret

000008fe <DS18X20_find_sensor>:
     8fe:	0f 93       	push	r16
     900:	1f 93       	push	r17
     902:	cf 93       	push	r28
     904:	df 93       	push	r29
     906:	ec 01       	movw	r28, r24
     908:	8b 01       	movw	r16, r22
     90a:	b8 01       	movw	r22, r16
     90c:	88 81       	ld	r24, Y
     90e:	0e 94 e1 05 	call	0xbc2	; 0xbc2 <ow_rom_search>
     912:	88 83       	st	Y, r24
     914:	81 50       	subi	r24, 0x01	; 1
     916:	8d 3f       	cpi	r24, 0xFD	; 253
     918:	30 f4       	brcc	.+12     	; 0x926 <DS18X20_find_sensor+0x28>
     91a:	f8 01       	movw	r30, r16
     91c:	80 81       	ld	r24, Z
     91e:	88 32       	cpi	r24, 0x28	; 40
     920:	11 f0       	breq	.+4      	; 0x926 <DS18X20_find_sensor+0x28>
     922:	80 31       	cpi	r24, 0x10	; 16
     924:	91 f7       	brne	.-28     	; 0x90a <DS18X20_find_sensor+0xc>
     926:	df 91       	pop	r29
     928:	cf 91       	pop	r28
     92a:	1f 91       	pop	r17
     92c:	0f 91       	pop	r16
     92e:	08 95       	ret

00000930 <DS18X20_start_meas>:

/* start measurement (CONVERT_T) for all sensors if input id==NULL
   or for single sensor. then id is the rom-code */
uint8_t DS18X20_start_meas( uint8_t with_power_extern, uint8_t id[])
{
     930:	0f 93       	push	r16
     932:	1f 93       	push	r17
     934:	cf 93       	push	r28
     936:	c8 2f       	mov	r28, r24
     938:	8b 01       	movw	r16, r22
	ow_reset(); //**
     93a:	0e 94 2d 05 	call	0xa5a	; 0xa5a <ow_reset>
	if( ow_input_pin_state() ) { // only send if bus is "idle" = high
     93e:	0e 94 11 05 	call	0xa22	; 0xa22 <ow_input_pin_state>
     942:	88 23       	and	r24, r24
     944:	51 f0       	breq	.+20     	; 0x95a <DS18X20_start_meas+0x2a>
		ow_command( DS18X20_CONVERT_T, id );
     946:	b8 01       	movw	r22, r16
     948:	84 e4       	ldi	r24, 0x44	; 68
     94a:	0e 94 3b 06 	call	0xc76	; 0xc76 <ow_command>
		if (with_power_extern != DS18X20_POWER_EXTERN)
     94e:	c1 30       	cpi	r28, 0x01	; 1
     950:	31 f0       	breq	.+12     	; 0x95e <DS18X20_start_meas+0x2e>
			ow_parasite_enable();
     952:	0e 94 1a 05 	call	0xa34	; 0xa34 <ow_parasite_enable>
		return DS18X20_OK;
     956:	80 e0       	ldi	r24, 0x00	; 0
     958:	03 c0       	rjmp	.+6      	; 0x960 <DS18X20_start_meas+0x30>
	}
	else {
		#ifdef DS18X20_VERBOSE
		#endif
		return DS18X20_START_FAIL;
     95a:	82 e0       	ldi	r24, 0x02	; 2
     95c:	01 c0       	rjmp	.+2      	; 0x960 <DS18X20_start_meas+0x30>
	ow_reset(); //**
	if( ow_input_pin_state() ) { // only send if bus is "idle" = high
		ow_command( DS18X20_CONVERT_T, id );
		if (with_power_extern != DS18X20_POWER_EXTERN)
			ow_parasite_enable();
		return DS18X20_OK;
     95e:	80 e0       	ldi	r24, 0x00	; 0
	else {
		#ifdef DS18X20_VERBOSE
		#endif
		return DS18X20_START_FAIL;
	}
}
     960:	cf 91       	pop	r28
     962:	1f 91       	pop	r17
     964:	0f 91       	pop	r16
     966:	08 95       	ret

00000968 <DS18X20_read_meas>:
   output: subzero==1 if temp.<0, cel: full celsius, mcel: frac
   in millicelsius*0.1
   i.e.: subzero=1, cel=18, millicel=5000 = -18,5000°C */
uint8_t DS18X20_read_meas(uint8_t id[], uint8_t *subzero,
	uint8_t *cel, uint8_t *cel_frac_bits)
{
     968:	6f 92       	push	r6
     96a:	7f 92       	push	r7
     96c:	8f 92       	push	r8
     96e:	9f 92       	push	r9
     970:	af 92       	push	r10
     972:	bf 92       	push	r11
     974:	cf 92       	push	r12
     976:	df 92       	push	r13
     978:	ef 92       	push	r14
     97a:	ff 92       	push	r15
     97c:	0f 93       	push	r16
     97e:	1f 93       	push	r17
     980:	cf 93       	push	r28
     982:	df 93       	push	r29
     984:	cd b7       	in	r28, 0x3d	; 61
     986:	de b7       	in	r29, 0x3e	; 62
     988:	29 97       	sbiw	r28, 0x09	; 9
     98a:	0f b6       	in	r0, 0x3f	; 63
     98c:	f8 94       	cli
     98e:	de bf       	out	0x3e, r29	; 62
     990:	0f be       	out	0x3f, r0	; 63
     992:	cd bf       	out	0x3d, r28	; 61
     994:	6c 01       	movw	r12, r24
     996:	5b 01       	movw	r10, r22
     998:	3a 01       	movw	r6, r20
     99a:	49 01       	movw	r8, r18
	uint8_t i;
	uint8_t sp[DS18X20_SP_SIZE];

	ow_reset(); //**
     99c:	0e 94 2d 05 	call	0xa5a	; 0xa5a <ow_reset>
	ow_command(DS18X20_READ, id);
     9a0:	b6 01       	movw	r22, r12
     9a2:	8e eb       	ldi	r24, 0xBE	; 190
     9a4:	0e 94 3b 06 	call	0xc76	; 0xc76 <ow_command>
     9a8:	8e 01       	movw	r16, r28
     9aa:	0f 5f       	subi	r16, 0xFF	; 255
     9ac:	1f 4f       	sbci	r17, 0xFF	; 255
     9ae:	7e 01       	movw	r14, r28
     9b0:	8a e0       	ldi	r24, 0x0A	; 10
     9b2:	e8 0e       	add	r14, r24
     9b4:	f1 1c       	adc	r15, r1
	for ( i=0 ; i< DS18X20_SP_SIZE; i++ ) sp[i]=ow_byte_rd();
     9b6:	0e 94 dd 05 	call	0xbba	; 0xbba <ow_byte_rd>
     9ba:	f8 01       	movw	r30, r16
     9bc:	81 93       	st	Z+, r24
     9be:	8f 01       	movw	r16, r30
     9c0:	ee 15       	cp	r30, r14
     9c2:	ff 05       	cpc	r31, r15
     9c4:	c1 f7       	brne	.-16     	; 0x9b6 <DS18X20_read_meas+0x4e>
	if ( crc8( &sp[0], DS18X20_SP_SIZE ) )
     9c6:	69 e0       	ldi	r22, 0x09	; 9
     9c8:	70 e0       	ldi	r23, 0x00	; 0
     9ca:	ce 01       	movw	r24, r28
     9cc:	01 96       	adiw	r24, 0x01	; 1
     9ce:	0e 94 18 04 	call	0x830	; 0x830 <crc8>
     9d2:	f8 2e       	mov	r15, r24
     9d4:	81 11       	cpse	r24, r1
     9d6:	0b c0       	rjmp	.+22     	; 0x9ee <DS18X20_read_meas+0x86>
		return DS18X20_ERROR_CRC;
	DS18X20_meas_to_cel(id[0], sp, subzero, cel, cel_frac_bits);
     9d8:	84 01       	movw	r16, r8
     9da:	93 01       	movw	r18, r6
     9dc:	a5 01       	movw	r20, r10
     9de:	be 01       	movw	r22, r28
     9e0:	6f 5f       	subi	r22, 0xFF	; 255
     9e2:	7f 4f       	sbci	r23, 0xFF	; 255
     9e4:	f6 01       	movw	r30, r12
     9e6:	80 81       	ld	r24, Z
     9e8:	0e 94 34 04 	call	0x868	; 0x868 <DS18X20_meas_to_cel>
	return DS18X20_OK;
     9ec:	04 c0       	rjmp	.+8      	; 0x9f6 <DS18X20_read_meas+0x8e>

	ow_reset(); //**
	ow_command(DS18X20_READ, id);
	for ( i=0 ; i< DS18X20_SP_SIZE; i++ ) sp[i]=ow_byte_rd();
	if ( crc8( &sp[0], DS18X20_SP_SIZE ) )
		return DS18X20_ERROR_CRC;
     9ee:	0f 2e       	mov	r0, r31
     9f0:	f3 e0       	ldi	r31, 0x03	; 3
     9f2:	ff 2e       	mov	r15, r31
     9f4:	f0 2d       	mov	r31, r0
	DS18X20_meas_to_cel(id[0], sp, subzero, cel, cel_frac_bits);
	return DS18X20_OK;
}
     9f6:	8f 2d       	mov	r24, r15
     9f8:	29 96       	adiw	r28, 0x09	; 9
     9fa:	0f b6       	in	r0, 0x3f	; 63
     9fc:	f8 94       	cli
     9fe:	de bf       	out	0x3e, r29	; 62
     a00:	0f be       	out	0x3f, r0	; 63
     a02:	cd bf       	out	0x3d, r28	; 61
     a04:	df 91       	pop	r29
     a06:	cf 91       	pop	r28
     a08:	1f 91       	pop	r17
     a0a:	0f 91       	pop	r16
     a0c:	ff 90       	pop	r15
     a0e:	ef 90       	pop	r14
     a10:	df 90       	pop	r13
     a12:	cf 90       	pop	r12
     a14:	bf 90       	pop	r11
     a16:	af 90       	pop	r10
     a18:	9f 90       	pop	r9
     a1a:	8f 90       	pop	r8
     a1c:	7f 90       	pop	r7
     a1e:	6f 90       	pop	r6
     a20:	08 95       	ret

00000a22 <ow_input_pin_state>:
}

void ow_parasite_disable(void)
{
    OW_OUT_LOW();
	OW_DIR_IN();
     a22:	e0 91 a0 07 	lds	r30, 0x07A0	; 0x8007a0 <OW_IN>
     a26:	f0 91 a1 07 	lds	r31, 0x07A1	; 0x8007a1 <OW_IN+0x1>
     a2a:	90 81       	ld	r25, Z
     a2c:	80 91 9f 07 	lds	r24, 0x079F	; 0x80079f <OW_PIN_MASK>
     a30:	89 23       	and	r24, r25
     a32:	08 95       	ret

00000a34 <ow_parasite_enable>:
     a34:	e0 91 9d 07 	lds	r30, 0x079D	; 0x80079d <OW_OUT>
     a38:	f0 91 9e 07 	lds	r31, 0x079E	; 0x80079e <OW_OUT+0x1>
     a3c:	90 81       	ld	r25, Z
     a3e:	80 91 9f 07 	lds	r24, 0x079F	; 0x80079f <OW_PIN_MASK>
     a42:	89 2b       	or	r24, r25
     a44:	80 83       	st	Z, r24
     a46:	e0 91 a2 07 	lds	r30, 0x07A2	; 0x8007a2 <OW_DDR>
     a4a:	f0 91 a3 07 	lds	r31, 0x07A3	; 0x8007a3 <OW_DDR+0x1>
     a4e:	90 81       	ld	r25, Z
     a50:	80 91 9f 07 	lds	r24, 0x079F	; 0x80079f <OW_PIN_MASK>
     a54:	89 2b       	or	r24, r25
     a56:	80 83       	st	Z, r24
     a58:	08 95       	ret

00000a5a <ow_reset>:
uint8_t ow_reset(void)
{
	uint8_t err;
	uint8_t sreg;
	
	OW_OUT_LOW(); // disable internal pull-up (maybe on from parasite)
     a5a:	e0 91 9d 07 	lds	r30, 0x079D	; 0x80079d <OW_OUT>
     a5e:	f0 91 9e 07 	lds	r31, 0x079E	; 0x80079e <OW_OUT+0x1>
     a62:	90 81       	ld	r25, Z
     a64:	80 91 9f 07 	lds	r24, 0x079F	; 0x80079f <OW_PIN_MASK>
     a68:	80 95       	com	r24
     a6a:	89 23       	and	r24, r25
     a6c:	80 83       	st	Z, r24
	OW_DIR_OUT(); // pull OW-Pin low for 480us
     a6e:	e0 91 a2 07 	lds	r30, 0x07A2	; 0x8007a2 <OW_DDR>
     a72:	f0 91 a3 07 	lds	r31, 0x07A3	; 0x8007a3 <OW_DDR+0x1>
     a76:	90 81       	ld	r25, Z
     a78:	80 91 9f 07 	lds	r24, 0x079F	; 0x80079f <OW_PIN_MASK>
     a7c:	89 2b       	or	r24, r25
     a7e:	80 83       	st	Z, r24
/* delay function for microsec
   4 cpu cycles per loop + 1 cycles(?) overhead 
   when a constant is passed. */
static inline void delayloop16(uint16_t count)
{
	asm volatile (  "cp  %A0,__zero_reg__ \n\t"  \
     a80:	8f e8       	ldi	r24, 0x8F	; 143
     a82:	97 e0       	ldi	r25, 0x07	; 7
     a84:	81 15       	cp	r24, r1
     a86:	91 05       	cpc	r25, r1
     a88:	11 f0       	breq	.+4      	; 0xa8e <L_Exit_69>

00000a8a <L_LOOP_69>:
     a8a:	01 97       	sbiw	r24, 0x01	; 1
     a8c:	f1 f7       	brne	.-4      	; 0xa8a <L_LOOP_69>

00000a8e <L_Exit_69>:
	
	delay_us(480);
		
	sreg=SREG;
     a8e:	2f b7       	in	r18, 0x3f	; 63
	cli();
     a90:	f8 94       	cli
	
	// set Pin as input - wait for clients to pull low
	OW_DIR_IN(); // input
     a92:	e0 91 a2 07 	lds	r30, 0x07A2	; 0x8007a2 <OW_DDR>
     a96:	f0 91 a3 07 	lds	r31, 0x07A3	; 0x8007a3 <OW_DDR+0x1>
     a9a:	90 81       	ld	r25, Z
     a9c:	80 91 9f 07 	lds	r24, 0x079F	; 0x80079f <OW_PIN_MASK>
     aa0:	80 95       	com	r24
     aa2:	89 23       	and	r24, r25
     aa4:	80 83       	st	Z, r24
     aa6:	89 e0       	ldi	r24, 0x09	; 9
     aa8:	91 e0       	ldi	r25, 0x01	; 1
     aaa:	81 15       	cp	r24, r1
     aac:	91 05       	cpc	r25, r1
     aae:	11 f0       	breq	.+4      	; 0xab4 <L_Exit_86>

00000ab0 <L_LOOP_86>:
     ab0:	01 97       	sbiw	r24, 0x01	; 1
     ab2:	f1 f7       	brne	.-4      	; 0xab0 <L_LOOP_86>

00000ab4 <L_Exit_86>:
	
	delay_us(66);
	err = OW_GET_IN();		// no presence detect
     ab4:	e0 91 a0 07 	lds	r30, 0x07A0	; 0x8007a0 <OW_IN>
     ab8:	f0 91 a1 07 	lds	r31, 0x07A1	; 0x8007a1 <OW_IN+0x1>
     abc:	30 81       	ld	r19, Z
     abe:	80 91 9f 07 	lds	r24, 0x079F	; 0x80079f <OW_PIN_MASK>
	// nobody pulled to low, still high
	
	SREG=sreg; // sei()
     ac2:	2f bf       	out	0x3f, r18	; 63
     ac4:	e5 e8       	ldi	r30, 0x85	; 133
     ac6:	f6 e0       	ldi	r31, 0x06	; 6
     ac8:	e1 15       	cp	r30, r1
     aca:	f1 05       	cpc	r31, r1
     acc:	11 f0       	breq	.+4      	; 0xad2 <L_Exit_99>

00000ace <L_LOOP_99>:
     ace:	31 97       	sbiw	r30, 0x01	; 1
     ad0:	f1 f7       	brne	.-4      	; 0xace <L_LOOP_99>

00000ad2 <L_Exit_99>:
	
	// after a delay the clients should release the line
	// and input-pin gets back to high due to pull-up-resistor
	delay_us(480-66);
	if( OW_GET_IN() == 0 )		// short circuit
     ad2:	e0 91 a0 07 	lds	r30, 0x07A0	; 0x8007a0 <OW_IN>
     ad6:	f0 91 a1 07 	lds	r31, 0x07A1	; 0x8007a1 <OW_IN+0x1>
     ada:	20 81       	ld	r18, Z
     adc:	90 91 9f 07 	lds	r25, 0x079F	; 0x80079f <OW_PIN_MASK>
     ae0:	92 23       	and	r25, r18
     ae2:	11 f0       	breq	.+4      	; 0xae8 <L_Exit_99+0x16>
	
	// set Pin as input - wait for clients to pull low
	OW_DIR_IN(); // input
	
	delay_us(66);
	err = OW_GET_IN();		// no presence detect
     ae4:	83 23       	and	r24, r19
     ae6:	08 95       	ret
	
	// after a delay the clients should release the line
	// and input-pin gets back to high due to pull-up-resistor
	delay_us(480-66);
	if( OW_GET_IN() == 0 )		// short circuit
		err = 1;
     ae8:	81 e0       	ldi	r24, 0x01	; 1
	
	return err;
}
     aea:	08 95       	ret

00000aec <ow_set_bus>:
void ow_set_bus(volatile uint8_t* in,
	volatile uint8_t* out,
	volatile uint8_t* ddr,
	uint8_t pin)
{
	OW_DDR=ddr;
     aec:	50 93 a3 07 	sts	0x07A3, r21	; 0x8007a3 <OW_DDR+0x1>
     af0:	40 93 a2 07 	sts	0x07A2, r20	; 0x8007a2 <OW_DDR>
	OW_OUT=out;
     af4:	70 93 9e 07 	sts	0x079E, r23	; 0x80079e <OW_OUT+0x1>
     af8:	60 93 9d 07 	sts	0x079D, r22	; 0x80079d <OW_OUT>
	OW_IN=in;
     afc:	90 93 a1 07 	sts	0x07A1, r25	; 0x8007a1 <OW_IN+0x1>
     b00:	80 93 a0 07 	sts	0x07A0, r24	; 0x8007a0 <OW_IN>
	OW_PIN_MASK=(1<<pin);
     b04:	81 e0       	ldi	r24, 0x01	; 1
     b06:	01 c0       	rjmp	.+2      	; 0xb0a <ow_set_bus+0x1e>
     b08:	88 0f       	add	r24, r24
     b0a:	2a 95       	dec	r18
     b0c:	ea f7       	brpl	.-6      	; 0xb08 <ow_set_bus+0x1c>
     b0e:	80 93 9f 07 	sts	0x079F, r24	; 0x80079f <OW_PIN_MASK>
	ow_reset();
     b12:	0e 94 2d 05 	call	0xa5a	; 0xa5a <ow_reset>
     b16:	08 95       	ret

00000b18 <ow_bit_io>:
   but around 14 cyles in configureable bus (us-Delay is 4 cyles per uS) */
uint8_t ow_bit_io( uint8_t b )
{
	uint8_t sreg;
	
	sreg=SREG;
     b18:	3f b7       	in	r19, 0x3f	; 63
	cli();
     b1a:	f8 94       	cli
	
	OW_DIR_OUT(); // drive bus low
     b1c:	e0 91 a2 07 	lds	r30, 0x07A2	; 0x8007a2 <OW_DDR>
     b20:	f0 91 a3 07 	lds	r31, 0x07A3	; 0x8007a3 <OW_DDR+0x1>
     b24:	20 81       	ld	r18, Z
     b26:	90 91 9f 07 	lds	r25, 0x079F	; 0x80079f <OW_PIN_MASK>
     b2a:	92 2b       	or	r25, r18
     b2c:	90 83       	st	Z, r25
     b2e:	e3 e0       	ldi	r30, 0x03	; 3
     b30:	f0 e0       	ldi	r31, 0x00	; 0
     b32:	e1 15       	cp	r30, r1
     b34:	f1 05       	cpc	r31, r1
     b36:	11 f0       	breq	.+4      	; 0xb3c <L_Exit_169>

00000b38 <L_LOOP_169>:
     b38:	31 97       	sbiw	r30, 0x01	; 1
     b3a:	f1 f7       	brne	.-4      	; 0xb38 <L_LOOP_169>

00000b3c <L_Exit_169>:
	
	delay_us(1); // Recovery-Time wuffwuff was 1
	if ( b ) OW_DIR_IN(); // if bit is 1 set bus high (by ext. pull-up)
     b3c:	88 23       	and	r24, r24
     b3e:	51 f0       	breq	.+20     	; 0xb54 <L_Exit_169+0x18>
     b40:	e0 91 a2 07 	lds	r30, 0x07A2	; 0x8007a2 <OW_DDR>
     b44:	f0 91 a3 07 	lds	r31, 0x07A3	; 0x8007a3 <OW_DDR+0x1>
     b48:	20 81       	ld	r18, Z
     b4a:	90 91 9f 07 	lds	r25, 0x079F	; 0x80079f <OW_PIN_MASK>
     b4e:	90 95       	com	r25
     b50:	92 23       	and	r25, r18
     b52:	90 83       	st	Z, r25
     b54:	e8 e3       	ldi	r30, 0x38	; 56
     b56:	f0 e0       	ldi	r31, 0x00	; 0
     b58:	e1 15       	cp	r30, r1
     b5a:	f1 05       	cpc	r31, r1
     b5c:	11 f0       	breq	.+4      	; 0xb62 <L_Exit_188>

00000b5e <L_LOOP_188>:
     b5e:	31 97       	sbiw	r30, 0x01	; 1
     b60:	f1 f7       	brne	.-4      	; 0xb5e <L_LOOP_188>

00000b62 <L_Exit_188>:
		
	// wuffwuff delay was 15uS-1 see comment above
	delay_us(15-1-OW_CONF_DELAYOFFSET);
		
	if( OW_GET_IN() == 0 ) b = 0;  // sample at end of read-timeslot
     b62:	e0 91 a0 07 	lds	r30, 0x07A0	; 0x8007a0 <OW_IN>
     b66:	f0 91 a1 07 	lds	r31, 0x07A1	; 0x8007a1 <OW_IN+0x1>
     b6a:	20 81       	ld	r18, Z
     b6c:	90 91 9f 07 	lds	r25, 0x079F	; 0x80079f <OW_PIN_MASK>
     b70:	29 23       	and	r18, r25
     b72:	09 f4       	brne	.+2      	; 0xb76 <L_Exit_188+0x14>
     b74:	80 e0       	ldi	r24, 0x00	; 0
     b76:	e5 eb       	ldi	r30, 0xB5	; 181
     b78:	f0 e0       	ldi	r31, 0x00	; 0
     b7a:	e1 15       	cp	r30, r1
     b7c:	f1 05       	cpc	r31, r1
     b7e:	11 f0       	breq	.+4      	; 0xb84 <L_Exit_208>

00000b80 <L_LOOP_208>:
     b80:	31 97       	sbiw	r30, 0x01	; 1
     b82:	f1 f7       	brne	.-4      	; 0xb80 <L_LOOP_208>

00000b84 <L_Exit_208>:
	
	delay_us(60-15);
	OW_DIR_IN();
     b84:	e0 91 a2 07 	lds	r30, 0x07A2	; 0x8007a2 <OW_DDR>
     b88:	f0 91 a3 07 	lds	r31, 0x07A3	; 0x8007a3 <OW_DDR+0x1>
     b8c:	20 81       	ld	r18, Z
     b8e:	90 95       	com	r25
     b90:	92 23       	and	r25, r18
     b92:	90 83       	st	Z, r25
	
	SREG=sreg; // sei();
     b94:	3f bf       	out	0x3f, r19	; 63
	
	return b;
}
     b96:	08 95       	ret

00000b98 <ow_byte_wr>:


uint8_t ow_byte_wr( uint8_t b )
{
     b98:	cf 93       	push	r28
     b9a:	df 93       	push	r29
     b9c:	c8 2f       	mov	r28, r24
     b9e:	d8 e0       	ldi	r29, 0x08	; 8
	uint8_t i = 8, j;
	
	do {
		j = ow_bit_io( b & 1 );
     ba0:	8c 2f       	mov	r24, r28
     ba2:	81 70       	andi	r24, 0x01	; 1
     ba4:	0e 94 8c 05 	call	0xb18	; 0xb18 <ow_bit_io>
		b >>= 1;
     ba8:	c6 95       	lsr	r28
		if( j ) b |= 0x80;
     baa:	81 11       	cpse	r24, r1
     bac:	c0 68       	ori	r28, 0x80	; 128
     bae:	d1 50       	subi	r29, 0x01	; 1
	} while( --i );
     bb0:	b9 f7       	brne	.-18     	; 0xba0 <ow_byte_wr+0x8>
	
	return b;
}
     bb2:	8c 2f       	mov	r24, r28
     bb4:	df 91       	pop	r29
     bb6:	cf 91       	pop	r28
     bb8:	08 95       	ret

00000bba <ow_byte_rd>:


uint8_t ow_byte_rd( void )
{
  // read by sending 0xff (a dontcare?)
  return ow_byte_wr( 0xFF ); 
     bba:	8f ef       	ldi	r24, 0xFF	; 255
     bbc:	0e 94 cc 05 	call	0xb98	; 0xb98 <ow_byte_wr>
}
     bc0:	08 95       	ret

00000bc2 <ow_rom_search>:


uint8_t ow_rom_search( uint8_t diff, uint8_t *id )
{
     bc2:	df 92       	push	r13
     bc4:	ef 92       	push	r14
     bc6:	ff 92       	push	r15
     bc8:	0f 93       	push	r16
     bca:	1f 93       	push	r17
     bcc:	cf 93       	push	r28
     bce:	df 93       	push	r29
     bd0:	d8 2e       	mov	r13, r24
     bd2:	8b 01       	movw	r16, r22
	uint8_t i, j, next_diff;
	uint8_t b;
	
	if( ow_reset() ) return OW_PRESENCE_ERR;	// error, no device found
     bd4:	0e 94 2d 05 	call	0xa5a	; 0xa5a <ow_reset>
     bd8:	81 11       	cpse	r24, r1
     bda:	2b c0       	rjmp	.+86     	; 0xc32 <ow_rom_search+0x70>
	
	ow_byte_wr( OW_SEARCH_ROM );			// ROM search command
     bdc:	80 ef       	ldi	r24, 0xF0	; 240
     bde:	0e 94 cc 05 	call	0xb98	; 0xb98 <ow_byte_wr>
	next_diff = OW_LAST_DEVICE;			// unchanged on last device
     be2:	e1 2c       	mov	r14, r1
	
	i = OW_ROMCODE_SIZE * 8;					// 8 bytes
     be4:	c0 e4       	ldi	r28, 0x40	; 64
     be6:	0f 2e       	mov	r0, r31
     be8:	f8 ef       	ldi	r31, 0xF8	; 248
     bea:	ff 2e       	mov	r15, r31
     bec:	f0 2d       	mov	r31, r0
     bee:	fc 0e       	add	r15, r28
	
	do {
		j = 8;					// 8 bits
		do {
			b = ow_bit_io( 1 );			// read bit
     bf0:	81 e0       	ldi	r24, 0x01	; 1
     bf2:	0e 94 8c 05 	call	0xb18	; 0xb18 <ow_bit_io>
     bf6:	d8 2f       	mov	r29, r24
			if( ow_bit_io( 1 ) ) {			// read complement bit
     bf8:	81 e0       	ldi	r24, 0x01	; 1
     bfa:	0e 94 8c 05 	call	0xb18	; 0xb18 <ow_bit_io>
     bfe:	88 23       	and	r24, r24
     c00:	19 f0       	breq	.+6      	; 0xc08 <ow_rom_search+0x46>
				if( b )					// 11
     c02:	dd 23       	and	r29, r29
     c04:	d1 f0       	breq	.+52     	; 0xc3a <ow_rom_search+0x78>
     c06:	17 c0       	rjmp	.+46     	; 0xc36 <ow_rom_search+0x74>
				return OW_DATA_ERR;			// data error
			}
			else {
				if( !b ) {				// 00 = 2 devices
     c08:	d1 11       	cpse	r29, r1
     c0a:	24 c0       	rjmp	.+72     	; 0xc54 <ow_rom_search+0x92>
					if( diff > i || ((*id & 1) && diff != i) ) {
     c0c:	cd 15       	cp	r28, r13
     c0e:	e8 f0       	brcs	.+58     	; 0xc4a <ow_rom_search+0x88>
     c10:	f8 01       	movw	r30, r16
     c12:	80 81       	ld	r24, Z
     c14:	80 ff       	sbrs	r24, 0
     c16:	11 c0       	rjmp	.+34     	; 0xc3a <ow_rom_search+0x78>
     c18:	cd 11       	cpse	r28, r13
     c1a:	1a c0       	rjmp	.+52     	; 0xc50 <ow_rom_search+0x8e>
     c1c:	0e c0       	rjmp	.+28     	; 0xc3a <ow_rom_search+0x78>
			}
			ow_bit_io( b );     			// write bit
			*id >>= 1;
			if( b ) *id |= 0x80;			// store bit
			
			i--;
     c1e:	c1 50       	subi	r28, 0x01	; 1
			
		} while( --j );
     c20:	fc 12       	cpse	r15, r28
     c22:	e6 cf       	rjmp	.-52     	; 0xbf0 <ow_rom_search+0x2e>
		
		id++;					// next byte
     c24:	0f 5f       	subi	r16, 0xFF	; 255
     c26:	1f 4f       	sbci	r17, 0xFF	; 255
			}
			ow_bit_io( b );     			// write bit
			*id >>= 1;
			if( b ) *id |= 0x80;			// store bit
			
			i--;
     c28:	cf 2d       	mov	r28, r15
			
		} while( --j );
		
		id++;					// next byte
	
	} while( i );
     c2a:	f1 10       	cpse	r15, r1
     c2c:	dc cf       	rjmp	.-72     	; 0xbe6 <ow_rom_search+0x24>
     c2e:	8e 2d       	mov	r24, r14
     c30:	1a c0       	rjmp	.+52     	; 0xc66 <ow_rom_search+0xa4>
uint8_t ow_rom_search( uint8_t diff, uint8_t *id )
{
	uint8_t i, j, next_diff;
	uint8_t b;
	
	if( ow_reset() ) return OW_PRESENCE_ERR;	// error, no device found
     c32:	8f ef       	ldi	r24, 0xFF	; 255
     c34:	18 c0       	rjmp	.+48     	; 0xc66 <ow_rom_search+0xa4>
		j = 8;					// 8 bits
		do {
			b = ow_bit_io( 1 );			// read bit
			if( ow_bit_io( 1 ) ) {			// read complement bit
				if( b )					// 11
				return OW_DATA_ERR;			// data error
     c36:	8e ef       	ldi	r24, 0xFE	; 254
     c38:	16 c0       	rjmp	.+44     	; 0xc66 <ow_rom_search+0xa4>
					b = 1;				// now 1
					next_diff = i;			// next pass 0
					}
				}
			}
			ow_bit_io( b );     			// write bit
     c3a:	80 e0       	ldi	r24, 0x00	; 0
     c3c:	0e 94 8c 05 	call	0xb18	; 0xb18 <ow_bit_io>
			*id >>= 1;
     c40:	f8 01       	movw	r30, r16
     c42:	90 81       	ld	r25, Z
     c44:	96 95       	lsr	r25
     c46:	90 83       	st	Z, r25
     c48:	ea cf       	rjmp	.-44     	; 0xc1e <ow_rom_search+0x5c>
			}
			else {
				if( !b ) {				// 00 = 2 devices
					if( diff > i || ((*id & 1) && diff != i) ) {
					b = 1;				// now 1
					next_diff = i;			// next pass 0
     c4a:	ec 2e       	mov	r14, r28
				return OW_DATA_ERR;			// data error
			}
			else {
				if( !b ) {				// 00 = 2 devices
					if( diff > i || ((*id & 1) && diff != i) ) {
					b = 1;				// now 1
     c4c:	d1 e0       	ldi	r29, 0x01	; 1
     c4e:	02 c0       	rjmp	.+4      	; 0xc54 <ow_rom_search+0x92>
					next_diff = i;			// next pass 0
     c50:	ec 2e       	mov	r14, r28
				return OW_DATA_ERR;			// data error
			}
			else {
				if( !b ) {				// 00 = 2 devices
					if( diff > i || ((*id & 1) && diff != i) ) {
					b = 1;				// now 1
     c52:	d1 e0       	ldi	r29, 0x01	; 1
					next_diff = i;			// next pass 0
					}
				}
			}
			ow_bit_io( b );     			// write bit
     c54:	8d 2f       	mov	r24, r29
     c56:	0e 94 8c 05 	call	0xb18	; 0xb18 <ow_bit_io>
			*id >>= 1;
			if( b ) *id |= 0x80;			// store bit
     c5a:	f8 01       	movw	r30, r16
     c5c:	90 81       	ld	r25, Z
     c5e:	96 95       	lsr	r25
     c60:	90 68       	ori	r25, 0x80	; 128
     c62:	90 83       	st	Z, r25
     c64:	dc cf       	rjmp	.-72     	; 0xc1e <ow_rom_search+0x5c>
		id++;					// next byte
	
	} while( i );
	
	return next_diff;				// to continue search
}
     c66:	df 91       	pop	r29
     c68:	cf 91       	pop	r28
     c6a:	1f 91       	pop	r17
     c6c:	0f 91       	pop	r16
     c6e:	ff 90       	pop	r15
     c70:	ef 90       	pop	r14
     c72:	df 90       	pop	r13
     c74:	08 95       	ret

00000c76 <ow_command>:


void ow_command( uint8_t command, uint8_t *id )
{
     c76:	ff 92       	push	r15
     c78:	0f 93       	push	r16
     c7a:	1f 93       	push	r17
     c7c:	cf 93       	push	r28
     c7e:	df 93       	push	r29
     c80:	f8 2e       	mov	r15, r24
     c82:	eb 01       	movw	r28, r22
	uint8_t i;

	ow_reset();
     c84:	0e 94 2d 05 	call	0xa5a	; 0xa5a <ow_reset>

	if( id ) {
     c88:	20 97       	sbiw	r28, 0x00	; 0
     c8a:	69 f0       	breq	.+26     	; 0xca6 <ow_command+0x30>
		ow_byte_wr( OW_MATCH_ROM );			// to a single device
     c8c:	85 e5       	ldi	r24, 0x55	; 85
     c8e:	0e 94 cc 05 	call	0xb98	; 0xb98 <ow_byte_wr>
     c92:	8e 01       	movw	r16, r28
     c94:	08 5f       	subi	r16, 0xF8	; 248
     c96:	1f 4f       	sbci	r17, 0xFF	; 255
		i = OW_ROMCODE_SIZE;
		do {
			ow_byte_wr( *id );
     c98:	89 91       	ld	r24, Y+
     c9a:	0e 94 cc 05 	call	0xb98	; 0xb98 <ow_byte_wr>
			id++;
		} while( --i );
     c9e:	c0 17       	cp	r28, r16
     ca0:	d1 07       	cpc	r29, r17
     ca2:	d1 f7       	brne	.-12     	; 0xc98 <ow_command+0x22>
     ca4:	03 c0       	rjmp	.+6      	; 0xcac <ow_command+0x36>
	} 
	else {
		ow_byte_wr( OW_SKIP_ROM );			// to all devices
     ca6:	8c ec       	ldi	r24, 0xCC	; 204
     ca8:	0e 94 cc 05 	call	0xb98	; 0xb98 <ow_byte_wr>
	}
	
	ow_byte_wr( command );
     cac:	8f 2d       	mov	r24, r15
     cae:	0e 94 cc 05 	call	0xb98	; 0xb98 <ow_byte_wr>
}
     cb2:	df 91       	pop	r29
     cb4:	cf 91       	pop	r28
     cb6:	1f 91       	pop	r17
     cb8:	0f 91       	pop	r16
     cba:	ff 90       	pop	r15
     cbc:	08 95       	ret

00000cbe <StartHIHxxxxMeasurement>:

#include "HIHxxxx.h"


uint8_t StartHIHxxxxMeasurement()
{
     cbe:	cf 93       	push	r28
	uint8_t state;
	state = i2c_start(HIHxxxx_address | I2C_WRITE);
     cc0:	8e e4       	ldi	r24, 0x4E	; 78
     cc2:	0e 94 ea 06 	call	0xdd4	; 0xdd4 <i2c_start>
     cc6:	c8 2f       	mov	r28, r24
	i2c_stop();
     cc8:	0e 94 6d 07 	call	0xeda	; 0xeda <i2c_stop>
	return state;
}
     ccc:	8c 2f       	mov	r24, r28
     cce:	cf 91       	pop	r28
     cd0:	08 95       	ret

00000cd2 <ReadHIHxxxxMeasurement>:

uint8_t ReadHIHxxxxMeasurement()
{
     cd2:	cf 92       	push	r12
     cd4:	df 92       	push	r13
     cd6:	ef 92       	push	r14
     cd8:	ff 92       	push	r15
     cda:	1f 93       	push	r17
     cdc:	cf 93       	push	r28
     cde:	df 93       	push	r29
	uint8_t state;
	state = i2c_receive(HIHxxxx_address, HIHxxxxData, 4);
     ce0:	44 e0       	ldi	r20, 0x04	; 4
     ce2:	50 e0       	ldi	r21, 0x00	; 0
     ce4:	6c ea       	ldi	r22, 0xAC	; 172
     ce6:	77 e0       	ldi	r23, 0x07	; 7
     ce8:	8e e4       	ldi	r24, 0x4E	; 78
     cea:	0e 94 37 07 	call	0xe6e	; 0xe6e <i2c_receive>
     cee:	18 2f       	mov	r17, r24
	
	if (state == 0)
     cf0:	81 11       	cpse	r24, r1
     cf2:	63 c0       	rjmp	.+198    	; 0xdba <ReadHIHxxxxMeasurement+0xe8>
	{
		HIHxxxxHumidity = (HIHxxxxData[0] << 8);
     cf4:	cc ea       	ldi	r28, 0xAC	; 172
     cf6:	d7 e0       	ldi	r29, 0x07	; 7
		HIHxxxxHumidity += HIHxxxxData[1];
		
		HIHxxxxHumidity = (HIHxxxxHumidity / (0x4000 - 2)) * 100;
     cf8:	68 81       	ld	r22, Y
     cfa:	70 e0       	ldi	r23, 0x00	; 0
     cfc:	76 2f       	mov	r23, r22
     cfe:	66 27       	eor	r22, r22
     d00:	07 2e       	mov	r0, r23
     d02:	00 0c       	add	r0, r0
     d04:	88 0b       	sbc	r24, r24
     d06:	99 0b       	sbc	r25, r25
     d08:	0e 94 16 2a 	call	0x542c	; 0x542c <__floatsisf>
     d0c:	6b 01       	movw	r12, r22
     d0e:	7c 01       	movw	r14, r24
     d10:	69 81       	ldd	r22, Y+1	; 0x01
     d12:	70 e0       	ldi	r23, 0x00	; 0
     d14:	80 e0       	ldi	r24, 0x00	; 0
     d16:	90 e0       	ldi	r25, 0x00	; 0
     d18:	0e 94 16 2a 	call	0x542c	; 0x542c <__floatsisf>
     d1c:	9b 01       	movw	r18, r22
     d1e:	ac 01       	movw	r20, r24
     d20:	c7 01       	movw	r24, r14
     d22:	b6 01       	movw	r22, r12
     d24:	0e 94 fb 28 	call	0x51f6	; 0x51f6 <__addsf3>
     d28:	20 e0       	ldi	r18, 0x00	; 0
     d2a:	38 ef       	ldi	r19, 0xF8	; 248
     d2c:	4f e7       	ldi	r20, 0x7F	; 127
     d2e:	56 e4       	ldi	r21, 0x46	; 70
     d30:	0e 94 6c 29 	call	0x52d8	; 0x52d8 <__divsf3>
     d34:	20 e0       	ldi	r18, 0x00	; 0
     d36:	30 e0       	ldi	r19, 0x00	; 0
     d38:	48 ec       	ldi	r20, 0xC8	; 200
     d3a:	52 e4       	ldi	r21, 0x42	; 66
     d3c:	0e 94 cb 2a 	call	0x5596	; 0x5596 <__mulsf3>
     d40:	60 93 a8 07 	sts	0x07A8, r22	; 0x8007a8 <HIHxxxxHumidity>
     d44:	70 93 a9 07 	sts	0x07A9, r23	; 0x8007a9 <HIHxxxxHumidity+0x1>
     d48:	80 93 aa 07 	sts	0x07AA, r24	; 0x8007aa <HIHxxxxHumidity+0x2>
     d4c:	90 93 ab 07 	sts	0x07AB, r25	; 0x8007ab <HIHxxxxHumidity+0x3>
		
		HIHxxxxTemperature = HIHxxxxData[2] << 6;
		HIHxxxxTemperature += HIHxxxxData[3] >> 2;
		HIHxxxxTemperature = (HIHxxxxTemperature / (0x4000 - 2)) * 165 - 40;
     d50:	6a 81       	ldd	r22, Y+2	; 0x02
     d52:	80 e4       	ldi	r24, 0x40	; 64
     d54:	68 9f       	mul	r22, r24
     d56:	b0 01       	movw	r22, r0
     d58:	11 24       	eor	r1, r1
     d5a:	07 2e       	mov	r0, r23
     d5c:	00 0c       	add	r0, r0
     d5e:	88 0b       	sbc	r24, r24
     d60:	99 0b       	sbc	r25, r25
     d62:	0e 94 16 2a 	call	0x542c	; 0x542c <__floatsisf>
     d66:	6b 01       	movw	r12, r22
     d68:	7c 01       	movw	r14, r24
     d6a:	6b 81       	ldd	r22, Y+3	; 0x03
     d6c:	66 95       	lsr	r22
     d6e:	66 95       	lsr	r22
     d70:	70 e0       	ldi	r23, 0x00	; 0
     d72:	80 e0       	ldi	r24, 0x00	; 0
     d74:	90 e0       	ldi	r25, 0x00	; 0
     d76:	0e 94 16 2a 	call	0x542c	; 0x542c <__floatsisf>
     d7a:	9b 01       	movw	r18, r22
     d7c:	ac 01       	movw	r20, r24
     d7e:	c7 01       	movw	r24, r14
     d80:	b6 01       	movw	r22, r12
     d82:	0e 94 fb 28 	call	0x51f6	; 0x51f6 <__addsf3>
     d86:	20 e0       	ldi	r18, 0x00	; 0
     d88:	38 ef       	ldi	r19, 0xF8	; 248
     d8a:	4f e7       	ldi	r20, 0x7F	; 127
     d8c:	56 e4       	ldi	r21, 0x46	; 70
     d8e:	0e 94 6c 29 	call	0x52d8	; 0x52d8 <__divsf3>
     d92:	20 e0       	ldi	r18, 0x00	; 0
     d94:	30 e0       	ldi	r19, 0x00	; 0
     d96:	45 e2       	ldi	r20, 0x25	; 37
     d98:	53 e4       	ldi	r21, 0x43	; 67
     d9a:	0e 94 cb 2a 	call	0x5596	; 0x5596 <__mulsf3>
     d9e:	20 e0       	ldi	r18, 0x00	; 0
     da0:	30 e0       	ldi	r19, 0x00	; 0
     da2:	40 e2       	ldi	r20, 0x20	; 32
     da4:	52 e4       	ldi	r21, 0x42	; 66
     da6:	0e 94 fa 28 	call	0x51f4	; 0x51f4 <__subsf3>
     daa:	60 93 a4 07 	sts	0x07A4, r22	; 0x8007a4 <HIHxxxxTemperature>
     dae:	70 93 a5 07 	sts	0x07A5, r23	; 0x8007a5 <HIHxxxxTemperature+0x1>
     db2:	80 93 a6 07 	sts	0x07A6, r24	; 0x8007a6 <HIHxxxxTemperature+0x2>
     db6:	90 93 a7 07 	sts	0x07A7, r25	; 0x8007a7 <HIHxxxxTemperature+0x3>
	}
	return state;
}
     dba:	81 2f       	mov	r24, r17
     dbc:	df 91       	pop	r29
     dbe:	cf 91       	pop	r28
     dc0:	1f 91       	pop	r17
     dc2:	ff 90       	pop	r15
     dc4:	ef 90       	pop	r14
     dc6:	df 90       	pop	r13
     dc8:	cf 90       	pop	r12
     dca:	08 95       	ret

00000dcc <i2c_init>:
	data[(length-1)] = i2c_read_nack();

	i2c_stop();

	return 0;
}
     dcc:	8e e2       	ldi	r24, 0x2E	; 46
     dce:	80 93 70 00 	sts	0x0070, r24	; 0x800070 <__TEXT_REGION_LENGTH__+0x7e0070>
     dd2:	08 95       	ret

00000dd4 <i2c_start>:
     dd4:	e4 e7       	ldi	r30, 0x74	; 116
     dd6:	f0 e0       	ldi	r31, 0x00	; 0
     dd8:	10 82       	st	Z, r1
     dda:	94 ea       	ldi	r25, 0xA4	; 164
     ddc:	90 83       	st	Z, r25
     dde:	90 81       	ld	r25, Z
     de0:	99 23       	and	r25, r25
     de2:	ec f7       	brge	.-6      	; 0xdde <i2c_start+0xa>
     de4:	90 91 71 00 	lds	r25, 0x0071	; 0x800071 <__TEXT_REGION_LENGTH__+0x7e0071>
     de8:	98 7f       	andi	r25, 0xF8	; 248
     dea:	98 30       	cpi	r25, 0x08	; 8
     dec:	a1 f4       	brne	.+40     	; 0xe16 <i2c_start+0x42>
     dee:	80 93 73 00 	sts	0x0073, r24	; 0x800073 <__TEXT_REGION_LENGTH__+0x7e0073>
     df2:	84 e8       	ldi	r24, 0x84	; 132
     df4:	80 93 74 00 	sts	0x0074, r24	; 0x800074 <__TEXT_REGION_LENGTH__+0x7e0074>
     df8:	e4 e7       	ldi	r30, 0x74	; 116
     dfa:	f0 e0       	ldi	r31, 0x00	; 0
     dfc:	80 81       	ld	r24, Z
     dfe:	88 23       	and	r24, r24
     e00:	ec f7       	brge	.-6      	; 0xdfc <i2c_start+0x28>
     e02:	90 91 71 00 	lds	r25, 0x0071	; 0x800071 <__TEXT_REGION_LENGTH__+0x7e0071>
     e06:	98 7f       	andi	r25, 0xF8	; 248
     e08:	98 31       	cpi	r25, 0x18	; 24
     e0a:	39 f0       	breq	.+14     	; 0xe1a <i2c_start+0x46>
     e0c:	81 e0       	ldi	r24, 0x01	; 1
     e0e:	90 34       	cpi	r25, 0x40	; 64
     e10:	29 f4       	brne	.+10     	; 0xe1c <i2c_start+0x48>
     e12:	80 e0       	ldi	r24, 0x00	; 0
     e14:	08 95       	ret
     e16:	81 e0       	ldi	r24, 0x01	; 1
     e18:	08 95       	ret
     e1a:	80 e0       	ldi	r24, 0x00	; 0
     e1c:	08 95       	ret

00000e1e <i2c_write>:
     e1e:	80 93 73 00 	sts	0x0073, r24	; 0x800073 <__TEXT_REGION_LENGTH__+0x7e0073>
     e22:	84 e8       	ldi	r24, 0x84	; 132
     e24:	80 93 74 00 	sts	0x0074, r24	; 0x800074 <__TEXT_REGION_LENGTH__+0x7e0074>
     e28:	e4 e7       	ldi	r30, 0x74	; 116
     e2a:	f0 e0       	ldi	r31, 0x00	; 0
     e2c:	80 81       	ld	r24, Z
     e2e:	88 23       	and	r24, r24
     e30:	ec f7       	brge	.-6      	; 0xe2c <i2c_write+0xe>
     e32:	90 91 71 00 	lds	r25, 0x0071	; 0x800071 <__TEXT_REGION_LENGTH__+0x7e0071>
     e36:	98 7f       	andi	r25, 0xF8	; 248
     e38:	81 e0       	ldi	r24, 0x01	; 1
     e3a:	98 32       	cpi	r25, 0x28	; 40
     e3c:	09 f4       	brne	.+2      	; 0xe40 <i2c_write+0x22>
     e3e:	80 e0       	ldi	r24, 0x00	; 0
     e40:	08 95       	ret

00000e42 <i2c_read_ack>:
     e42:	84 ec       	ldi	r24, 0xC4	; 196
     e44:	80 93 74 00 	sts	0x0074, r24	; 0x800074 <__TEXT_REGION_LENGTH__+0x7e0074>
     e48:	e4 e7       	ldi	r30, 0x74	; 116
     e4a:	f0 e0       	ldi	r31, 0x00	; 0
     e4c:	80 81       	ld	r24, Z
     e4e:	88 23       	and	r24, r24
     e50:	ec f7       	brge	.-6      	; 0xe4c <i2c_read_ack+0xa>
     e52:	80 91 73 00 	lds	r24, 0x0073	; 0x800073 <__TEXT_REGION_LENGTH__+0x7e0073>
     e56:	08 95       	ret

00000e58 <i2c_read_nack>:
     e58:	84 e8       	ldi	r24, 0x84	; 132
     e5a:	80 93 74 00 	sts	0x0074, r24	; 0x800074 <__TEXT_REGION_LENGTH__+0x7e0074>
     e5e:	e4 e7       	ldi	r30, 0x74	; 116
     e60:	f0 e0       	ldi	r31, 0x00	; 0
     e62:	80 81       	ld	r24, Z
     e64:	88 23       	and	r24, r24
     e66:	ec f7       	brge	.-6      	; 0xe62 <i2c_read_nack+0xa>
     e68:	80 91 73 00 	lds	r24, 0x0073	; 0x800073 <__TEXT_REGION_LENGTH__+0x7e0073>
     e6c:	08 95       	ret

00000e6e <i2c_receive>:
     e6e:	af 92       	push	r10
     e70:	bf 92       	push	r11
     e72:	df 92       	push	r13
     e74:	ef 92       	push	r14
     e76:	ff 92       	push	r15
     e78:	0f 93       	push	r16
     e7a:	1f 93       	push	r17
     e7c:	cf 93       	push	r28
     e7e:	df 93       	push	r29
     e80:	5b 01       	movw	r10, r22
     e82:	7a 01       	movw	r14, r20
     e84:	81 60       	ori	r24, 0x01	; 1
     e86:	0e 94 ea 06 	call	0xdd4	; 0xdd4 <i2c_start>
     e8a:	d8 2e       	mov	r13, r24
     e8c:	81 11       	cpse	r24, r1
     e8e:	18 c0       	rjmp	.+48     	; 0xec0 <i2c_receive+0x52>
     e90:	81 e0       	ldi	r24, 0x01	; 1
     e92:	e8 1a       	sub	r14, r24
     e94:	f1 08       	sbc	r15, r1
     e96:	51 f0       	breq	.+20     	; 0xeac <i2c_receive+0x3e>
     e98:	e5 01       	movw	r28, r10
     e9a:	85 01       	movw	r16, r10
     e9c:	0e 0d       	add	r16, r14
     e9e:	1f 1d       	adc	r17, r15
     ea0:	0e 94 21 07 	call	0xe42	; 0xe42 <i2c_read_ack>
     ea4:	89 93       	st	Y+, r24
     ea6:	0c 17       	cp	r16, r28
     ea8:	1d 07       	cpc	r17, r29
     eaa:	d1 f7       	brne	.-12     	; 0xea0 <i2c_receive+0x32>
     eac:	e5 01       	movw	r28, r10
     eae:	ce 0d       	add	r28, r14
     eb0:	df 1d       	adc	r29, r15
     eb2:	0e 94 2c 07 	call	0xe58	; 0xe58 <i2c_read_nack>
     eb6:	88 83       	st	Y, r24
     eb8:	84 e9       	ldi	r24, 0x94	; 148
     eba:	80 93 74 00 	sts	0x0074, r24	; 0x800074 <__TEXT_REGION_LENGTH__+0x7e0074>
     ebe:	02 c0       	rjmp	.+4      	; 0xec4 <i2c_receive+0x56>
     ec0:	dd 24       	eor	r13, r13
     ec2:	d3 94       	inc	r13
     ec4:	8d 2d       	mov	r24, r13
     ec6:	df 91       	pop	r29
     ec8:	cf 91       	pop	r28
     eca:	1f 91       	pop	r17
     ecc:	0f 91       	pop	r16
     ece:	ff 90       	pop	r15
     ed0:	ef 90       	pop	r14
     ed2:	df 90       	pop	r13
     ed4:	bf 90       	pop	r11
     ed6:	af 90       	pop	r10
     ed8:	08 95       	ret

00000eda <i2c_stop>:

void i2c_stop(void)
{
	// transmit STOP condition
	TWCR = (1<<TWINT) | (1<<TWEN) | (1<<TWSTO);
     eda:	84 e9       	ldi	r24, 0x94	; 148
     edc:	80 93 74 00 	sts	0x0074, r24	; 0x800074 <__TEXT_REGION_LENGTH__+0x7e0074>
     ee0:	08 95       	ret

00000ee2 <toggle_e>:
void lcd_puti16(uint16_t i)
{
	char buf[6];
	itoa(i, buf, 10);
	lcd_puts(buf);
}
     ee2:	ad 9a       	sbi	0x15, 5	; 21
     ee4:	00 c0       	rjmp	.+0      	; 0xee6 <toggle_e+0x4>
     ee6:	00 c0       	rjmp	.+0      	; 0xee8 <toggle_e+0x6>
     ee8:	ad 98       	cbi	0x15, 5	; 21
     eea:	08 95       	ret

00000eec <lcd_write>:
     eec:	cf 93       	push	r28
     eee:	c8 2f       	mov	r28, r24
     ef0:	66 23       	and	r22, r22
     ef2:	11 f0       	breq	.+4      	; 0xef8 <lcd_write+0xc>
     ef4:	af 9a       	sbi	0x15, 7	; 21
     ef6:	01 c0       	rjmp	.+2      	; 0xefa <lcd_write+0xe>
     ef8:	af 98       	cbi	0x15, 7	; 21
     efa:	ae 98       	cbi	0x15, 6	; 21
     efc:	a4 9a       	sbi	0x14, 4	; 20
     efe:	a3 9a       	sbi	0x14, 3	; 20
     f00:	a2 9a       	sbi	0x14, 2	; 20
     f02:	a1 9a       	sbi	0x14, 1	; 20
     f04:	a9 98       	cbi	0x15, 1	; 21
     f06:	aa 98       	cbi	0x15, 2	; 21
     f08:	ab 98       	cbi	0x15, 3	; 21
     f0a:	ac 98       	cbi	0x15, 4	; 21
     f0c:	cc 23       	and	r28, r28
     f0e:	0c f4       	brge	.+2      	; 0xf12 <lcd_write+0x26>
     f10:	a9 9a       	sbi	0x15, 1	; 21
     f12:	c6 fd       	sbrc	r28, 6
     f14:	aa 9a       	sbi	0x15, 2	; 21
     f16:	c5 fd       	sbrc	r28, 5
     f18:	ab 9a       	sbi	0x15, 3	; 21
     f1a:	c4 fd       	sbrc	r28, 4
     f1c:	ac 9a       	sbi	0x15, 4	; 21
     f1e:	0e 94 71 07 	call	0xee2	; 0xee2 <toggle_e>
     f22:	a9 98       	cbi	0x15, 1	; 21
     f24:	aa 98       	cbi	0x15, 2	; 21
     f26:	ab 98       	cbi	0x15, 3	; 21
     f28:	ac 98       	cbi	0x15, 4	; 21
     f2a:	c3 fd       	sbrc	r28, 3
     f2c:	a9 9a       	sbi	0x15, 1	; 21
     f2e:	c2 fd       	sbrc	r28, 2
     f30:	aa 9a       	sbi	0x15, 2	; 21
     f32:	c1 fd       	sbrc	r28, 1
     f34:	ab 9a       	sbi	0x15, 3	; 21
     f36:	c0 fd       	sbrc	r28, 0
     f38:	ac 9a       	sbi	0x15, 4	; 21
     f3a:	0e 94 71 07 	call	0xee2	; 0xee2 <toggle_e>
     f3e:	ac 9a       	sbi	0x15, 4	; 21
     f40:	ab 9a       	sbi	0x15, 3	; 21
     f42:	aa 9a       	sbi	0x15, 2	; 21
     f44:	a9 9a       	sbi	0x15, 1	; 21
     f46:	cf 91       	pop	r28
     f48:	08 95       	ret

00000f4a <lcd_read>:
     f4a:	88 23       	and	r24, r24
     f4c:	11 f0       	breq	.+4      	; 0xf52 <lcd_read+0x8>
     f4e:	af 9a       	sbi	0x15, 7	; 21
     f50:	01 c0       	rjmp	.+2      	; 0xf54 <lcd_read+0xa>
     f52:	af 98       	cbi	0x15, 7	; 21
     f54:	ae 9a       	sbi	0x15, 6	; 21
     f56:	a4 98       	cbi	0x14, 4	; 20
     f58:	a3 98       	cbi	0x14, 3	; 20
     f5a:	a2 98       	cbi	0x14, 2	; 20
     f5c:	a1 98       	cbi	0x14, 1	; 20
     f5e:	ad 9a       	sbi	0x15, 5	; 21
     f60:	00 c0       	rjmp	.+0      	; 0xf62 <lcd_read+0x18>
     f62:	00 c0       	rjmp	.+0      	; 0xf64 <lcd_read+0x1a>
     f64:	9c 9b       	sbis	0x13, 4	; 19
     f66:	02 c0       	rjmp	.+4      	; 0xf6c <lcd_read+0x22>
     f68:	80 e1       	ldi	r24, 0x10	; 16
     f6a:	01 c0       	rjmp	.+2      	; 0xf6e <lcd_read+0x24>
     f6c:	80 e0       	ldi	r24, 0x00	; 0
     f6e:	9b 99       	sbic	0x13, 3	; 19
     f70:	80 62       	ori	r24, 0x20	; 32
     f72:	9a 99       	sbic	0x13, 2	; 19
     f74:	80 64       	ori	r24, 0x40	; 64
     f76:	99 99       	sbic	0x13, 1	; 19
     f78:	80 68       	ori	r24, 0x80	; 128
     f7a:	ad 98       	cbi	0x15, 5	; 21
     f7c:	00 c0       	rjmp	.+0      	; 0xf7e <lcd_read+0x34>
     f7e:	00 c0       	rjmp	.+0      	; 0xf80 <lcd_read+0x36>
     f80:	ad 9a       	sbi	0x15, 5	; 21
     f82:	00 c0       	rjmp	.+0      	; 0xf84 <lcd_read+0x3a>
     f84:	00 c0       	rjmp	.+0      	; 0xf86 <lcd_read+0x3c>
     f86:	9c 99       	sbic	0x13, 4	; 19
     f88:	81 60       	ori	r24, 0x01	; 1
     f8a:	9b 99       	sbic	0x13, 3	; 19
     f8c:	82 60       	ori	r24, 0x02	; 2
     f8e:	9a 99       	sbic	0x13, 2	; 19
     f90:	84 60       	ori	r24, 0x04	; 4
     f92:	99 99       	sbic	0x13, 1	; 19
     f94:	88 60       	ori	r24, 0x08	; 8
     f96:	ad 98       	cbi	0x15, 5	; 21
     f98:	08 95       	ret

00000f9a <lcd_waitbusy>:
     f9a:	80 e0       	ldi	r24, 0x00	; 0
     f9c:	0e 94 a5 07 	call	0xf4a	; 0xf4a <lcd_read>
     fa0:	88 23       	and	r24, r24
     fa2:	dc f3       	brlt	.-10     	; 0xf9a <lcd_waitbusy>
     fa4:	88 e0       	ldi	r24, 0x08	; 8
     fa6:	90 e0       	ldi	r25, 0x00	; 0
     fa8:	01 97       	sbiw	r24, 0x01	; 1
     faa:	f1 f7       	brne	.-4      	; 0xfa8 <lcd_waitbusy+0xe>
     fac:	80 e0       	ldi	r24, 0x00	; 0
     fae:	0e 94 a5 07 	call	0xf4a	; 0xf4a <lcd_read>
     fb2:	08 95       	ret

00000fb4 <lcd_command>:
     fb4:	cf 93       	push	r28
     fb6:	c8 2f       	mov	r28, r24
     fb8:	0e 94 cd 07 	call	0xf9a	; 0xf9a <lcd_waitbusy>
     fbc:	60 e0       	ldi	r22, 0x00	; 0
     fbe:	8c 2f       	mov	r24, r28
     fc0:	0e 94 76 07 	call	0xeec	; 0xeec <lcd_write>
     fc4:	cf 91       	pop	r28
     fc6:	08 95       	ret

00000fc8 <lcd_data>:
     fc8:	cf 93       	push	r28
     fca:	c8 2f       	mov	r28, r24
     fcc:	0e 94 cd 07 	call	0xf9a	; 0xf9a <lcd_waitbusy>
     fd0:	61 e0       	ldi	r22, 0x01	; 1
     fd2:	8c 2f       	mov	r24, r28
     fd4:	0e 94 76 07 	call	0xeec	; 0xeec <lcd_write>
     fd8:	cf 91       	pop	r28
     fda:	08 95       	ret

00000fdc <lcd_gotoxy>:
     fdc:	61 11       	cpse	r22, r1
     fde:	04 c0       	rjmp	.+8      	; 0xfe8 <lcd_gotoxy+0xc>
     fe0:	80 58       	subi	r24, 0x80	; 128
     fe2:	0e 94 da 07 	call	0xfb4	; 0xfb4 <lcd_command>
     fe6:	08 95       	ret
     fe8:	61 30       	cpi	r22, 0x01	; 1
     fea:	21 f4       	brne	.+8      	; 0xff4 <lcd_gotoxy+0x18>
     fec:	80 54       	subi	r24, 0x40	; 64
     fee:	0e 94 da 07 	call	0xfb4	; 0xfb4 <lcd_command>
     ff2:	08 95       	ret
     ff4:	62 30       	cpi	r22, 0x02	; 2
     ff6:	21 f4       	brne	.+8      	; 0x1000 <lcd_gotoxy+0x24>
     ff8:	8c 56       	subi	r24, 0x6C	; 108
     ffa:	0e 94 da 07 	call	0xfb4	; 0xfb4 <lcd_command>
     ffe:	08 95       	ret
    1000:	8c 52       	subi	r24, 0x2C	; 44
    1002:	0e 94 da 07 	call	0xfb4	; 0xfb4 <lcd_command>
    1006:	08 95       	ret

00001008 <lcd_clrscr>:
    1008:	81 e0       	ldi	r24, 0x01	; 1
    100a:	0e 94 da 07 	call	0xfb4	; 0xfb4 <lcd_command>
    100e:	08 95       	ret

00001010 <lcd_putc>:
    1010:	cf 93       	push	r28
    1012:	c8 2f       	mov	r28, r24
    1014:	0e 94 cd 07 	call	0xf9a	; 0xf9a <lcd_waitbusy>
    1018:	ca 30       	cpi	r28, 0x0A	; 10
    101a:	a1 f4       	brne	.+40     	; 0x1044 <lcd_putc+0x34>
    101c:	84 31       	cpi	r24, 0x14	; 20
    101e:	48 f0       	brcs	.+18     	; 0x1032 <lcd_putc+0x22>
    1020:	90 ec       	ldi	r25, 0xC0	; 192
    1022:	98 0f       	add	r25, r24
    1024:	94 31       	cpi	r25, 0x14	; 20
    1026:	38 f0       	brcs	.+14     	; 0x1036 <lcd_putc+0x26>
    1028:	84 51       	subi	r24, 0x14	; 20
    102a:	8c 32       	cpi	r24, 0x2C	; 44
    102c:	30 f0       	brcs	.+12     	; 0x103a <lcd_putc+0x2a>
    102e:	80 e0       	ldi	r24, 0x00	; 0
    1030:	05 c0       	rjmp	.+10     	; 0x103c <lcd_putc+0x2c>
    1032:	80 e4       	ldi	r24, 0x40	; 64
    1034:	03 c0       	rjmp	.+6      	; 0x103c <lcd_putc+0x2c>
    1036:	84 e1       	ldi	r24, 0x14	; 20
    1038:	01 c0       	rjmp	.+2      	; 0x103c <lcd_putc+0x2c>
    103a:	84 e5       	ldi	r24, 0x54	; 84
    103c:	80 58       	subi	r24, 0x80	; 128
    103e:	0e 94 da 07 	call	0xfb4	; 0xfb4 <lcd_command>
    1042:	04 c0       	rjmp	.+8      	; 0x104c <lcd_putc+0x3c>
    1044:	61 e0       	ldi	r22, 0x01	; 1
    1046:	8c 2f       	mov	r24, r28
    1048:	0e 94 76 07 	call	0xeec	; 0xeec <lcd_write>
    104c:	cf 91       	pop	r28
    104e:	08 95       	ret

00001050 <lcd_puts_p>:
    1050:	cf 93       	push	r28
    1052:	df 93       	push	r29
    1054:	ec 01       	movw	r28, r24
    1056:	21 96       	adiw	r28, 0x01	; 1
    1058:	fc 01       	movw	r30, r24
    105a:	84 91       	lpm	r24, Z
    105c:	88 23       	and	r24, r24
    105e:	39 f0       	breq	.+14     	; 0x106e <lcd_puts_p+0x1e>
    1060:	0e 94 08 08 	call	0x1010	; 0x1010 <lcd_putc>
    1064:	fe 01       	movw	r30, r28
    1066:	84 91       	lpm	r24, Z
    1068:	21 96       	adiw	r28, 0x01	; 1
    106a:	81 11       	cpse	r24, r1
    106c:	f9 cf       	rjmp	.-14     	; 0x1060 <lcd_puts_p+0x10>
    106e:	df 91       	pop	r29
    1070:	cf 91       	pop	r28
    1072:	08 95       	ret

00001074 <lcd_init>:
    1074:	1f 93       	push	r17
    1076:	cf 93       	push	r28
    1078:	df 93       	push	r29
    107a:	18 2f       	mov	r17, r24
    107c:	a7 9a       	sbi	0x14, 7	; 20
    107e:	a6 9a       	sbi	0x14, 6	; 20
    1080:	a5 9a       	sbi	0x14, 5	; 20
    1082:	a4 9a       	sbi	0x14, 4	; 20
    1084:	a3 9a       	sbi	0x14, 3	; 20
    1086:	a2 9a       	sbi	0x14, 2	; 20
    1088:	a1 9a       	sbi	0x14, 1	; 20
    108a:	80 e0       	ldi	r24, 0x00	; 0
    108c:	9a ef       	ldi	r25, 0xFA	; 250
    108e:	01 97       	sbiw	r24, 0x01	; 1
    1090:	f1 f7       	brne	.-4      	; 0x108e <lcd_init+0x1a>
    1092:	ab 9a       	sbi	0x15, 3	; 21
    1094:	ac 9a       	sbi	0x15, 4	; 21
    1096:	0e 94 71 07 	call	0xee2	; 0xee2 <toggle_e>
    109a:	80 e0       	ldi	r24, 0x00	; 0
    109c:	9e e4       	ldi	r25, 0x4E	; 78
    109e:	01 97       	sbiw	r24, 0x01	; 1
    10a0:	f1 f7       	brne	.-4      	; 0x109e <lcd_init+0x2a>
    10a2:	0e 94 71 07 	call	0xee2	; 0xee2 <toggle_e>
    10a6:	c0 e0       	ldi	r28, 0x00	; 0
    10a8:	d1 e0       	ldi	r29, 0x01	; 1
    10aa:	ce 01       	movw	r24, r28
    10ac:	01 97       	sbiw	r24, 0x01	; 1
    10ae:	f1 f7       	brne	.-4      	; 0x10ac <lcd_init+0x38>
    10b0:	0e 94 71 07 	call	0xee2	; 0xee2 <toggle_e>
    10b4:	ce 01       	movw	r24, r28
    10b6:	01 97       	sbiw	r24, 0x01	; 1
    10b8:	f1 f7       	brne	.-4      	; 0x10b6 <lcd_init+0x42>
    10ba:	ac 98       	cbi	0x15, 4	; 21
    10bc:	0e 94 71 07 	call	0xee2	; 0xee2 <toggle_e>
    10c0:	21 97       	sbiw	r28, 0x01	; 1
    10c2:	f1 f7       	brne	.-4      	; 0x10c0 <lcd_init+0x4c>
    10c4:	88 e2       	ldi	r24, 0x28	; 40
    10c6:	0e 94 da 07 	call	0xfb4	; 0xfb4 <lcd_command>
    10ca:	88 e0       	ldi	r24, 0x08	; 8
    10cc:	0e 94 da 07 	call	0xfb4	; 0xfb4 <lcd_command>
    10d0:	0e 94 04 08 	call	0x1008	; 0x1008 <lcd_clrscr>
    10d4:	86 e0       	ldi	r24, 0x06	; 6
    10d6:	0e 94 da 07 	call	0xfb4	; 0xfb4 <lcd_command>
    10da:	81 2f       	mov	r24, r17
    10dc:	0e 94 da 07 	call	0xfb4	; 0xfb4 <lcd_command>
    10e0:	df 91       	pop	r29
    10e2:	cf 91       	pop	r28
    10e4:	1f 91       	pop	r17
    10e6:	08 95       	ret

000010e8 <lcd_defc>:
    10e8:	0f 93       	push	r16
    10ea:	1f 93       	push	r17
    10ec:	cf 93       	push	r28
    10ee:	df 93       	push	r29
    10f0:	80 e4       	ldi	r24, 0x40	; 64
    10f2:	0e 94 da 07 	call	0xfb4	; 0xfb4 <lcd_command>
    10f6:	c6 e5       	ldi	r28, 0x56	; 86
    10f8:	d1 e0       	ldi	r29, 0x01	; 1
    10fa:	0f e8       	ldi	r16, 0x8F	; 143
    10fc:	11 e0       	ldi	r17, 0x01	; 1
    10fe:	fe 01       	movw	r30, r28
    1100:	84 91       	lpm	r24, Z
    1102:	0e 94 e4 07 	call	0xfc8	; 0xfc8 <lcd_data>
    1106:	21 96       	adiw	r28, 0x01	; 1
    1108:	c0 17       	cp	r28, r16
    110a:	d1 07       	cpc	r29, r17
    110c:	c1 f7       	brne	.-16     	; 0x10fe <lcd_defc+0x16>
    110e:	df 91       	pop	r29
    1110:	cf 91       	pop	r28
    1112:	1f 91       	pop	r17
    1114:	0f 91       	pop	r16
    1116:	08 95       	ret

00001118 <lcd_putbit>:
    1118:	9f ef       	ldi	r25, 0xFF	; 255
    111a:	96 0f       	add	r25, r22
    111c:	66 23       	and	r22, r22
    111e:	19 f0       	breq	.+6      	; 0x1126 <lcd_putbit+0xe>
    1120:	86 95       	lsr	r24
    1122:	91 50       	subi	r25, 0x01	; 1
    1124:	e8 f7       	brcc	.-6      	; 0x1120 <lcd_putbit+0x8>
    1126:	80 ff       	sbrs	r24, 0
    1128:	04 c0       	rjmp	.+8      	; 0x1132 <lcd_putbit+0x1a>
    112a:	81 e3       	ldi	r24, 0x31	; 49
    112c:	0e 94 08 08 	call	0x1010	; 0x1010 <lcd_putc>
    1130:	08 95       	ret
    1132:	80 e3       	ldi	r24, 0x30	; 48
    1134:	0e 94 08 08 	call	0x1010	; 0x1010 <lcd_putc>
    1138:	08 95       	ret

0000113a <lcd_putc_hu>:
    113a:	48 2f       	mov	r20, r24
    113c:	50 e0       	ldi	r21, 0x00	; 0
    113e:	fa 01       	movw	r30, r20
    1140:	e1 5c       	subi	r30, 0xC1	; 193
    1142:	f1 09       	sbc	r31, r1
    1144:	ec 33       	cpi	r30, 0x3C	; 60
    1146:	f1 05       	cpc	r31, r1
    1148:	a8 f4       	brcc	.+42     	; 0x1174 <lcd_putc_hu+0x3a>
    114a:	ea 5b       	subi	r30, 0xBA	; 186
    114c:	ff 4f       	sbci	r31, 0xFF	; 255
    114e:	0c 94 38 2b 	jmp	0x5670	; 0x5670 <__tablejump2__>
    1152:	8f ee       	ldi	r24, 0xEF	; 239
    1154:	0f c0       	rjmp	.+30     	; 0x1174 <lcd_putc_hu+0x3a>
    1156:	85 ef       	ldi	r24, 0xF5	; 245
    1158:	0d c0       	rjmp	.+26     	; 0x1174 <lcd_putc_hu+0x3a>
    115a:	80 e0       	ldi	r24, 0x00	; 0
    115c:	0b c0       	rjmp	.+22     	; 0x1174 <lcd_putc_hu+0x3a>
    115e:	81 e0       	ldi	r24, 0x01	; 1
    1160:	09 c0       	rjmp	.+18     	; 0x1174 <lcd_putc_hu+0x3a>
    1162:	82 e0       	ldi	r24, 0x02	; 2
    1164:	07 c0       	rjmp	.+14     	; 0x1174 <lcd_putc_hu+0x3a>
    1166:	83 e0       	ldi	r24, 0x03	; 3
    1168:	05 c0       	rjmp	.+10     	; 0x1174 <lcd_putc_hu+0x3a>
    116a:	84 e0       	ldi	r24, 0x04	; 4
    116c:	03 c0       	rjmp	.+6      	; 0x1174 <lcd_putc_hu+0x3a>
    116e:	85 e0       	ldi	r24, 0x05	; 5
    1170:	01 c0       	rjmp	.+2      	; 0x1174 <lcd_putc_hu+0x3a>
    1172:	86 e0       	ldi	r24, 0x06	; 6
    1174:	0e 94 08 08 	call	0x1010	; 0x1010 <lcd_putc>
    1178:	08 95       	ret

0000117a <lcd_puts>:
    117a:	cf 93       	push	r28
    117c:	df 93       	push	r29
    117e:	ec 01       	movw	r28, r24
    1180:	21 96       	adiw	r28, 0x01	; 1
    1182:	fc 01       	movw	r30, r24
    1184:	80 81       	ld	r24, Z
    1186:	88 23       	and	r24, r24
    1188:	29 f0       	breq	.+10     	; 0x1194 <lcd_puts+0x1a>
    118a:	0e 94 9d 08 	call	0x113a	; 0x113a <lcd_putc_hu>
    118e:	89 91       	ld	r24, Y+
    1190:	81 11       	cpse	r24, r1
    1192:	fb cf       	rjmp	.-10     	; 0x118a <lcd_puts+0x10>
    1194:	df 91       	pop	r29
    1196:	cf 91       	pop	r28
    1198:	08 95       	ret

0000119a <lcd_puti>:
    119a:	0f 93       	push	r16
    119c:	1f 93       	push	r17
    119e:	cf 93       	push	r28
    11a0:	df 93       	push	r29
    11a2:	00 d0       	rcall	.+0      	; 0x11a4 <lcd_puti+0xa>
    11a4:	00 d0       	rcall	.+0      	; 0x11a6 <lcd_puti+0xc>
    11a6:	cd b7       	in	r28, 0x3d	; 61
    11a8:	de b7       	in	r29, 0x3e	; 62
    11aa:	8c 01       	movw	r16, r24
    11ac:	4a e0       	ldi	r20, 0x0A	; 10
    11ae:	be 01       	movw	r22, r28
    11b0:	6f 5f       	subi	r22, 0xFF	; 255
    11b2:	7f 4f       	sbci	r23, 0xFF	; 255
    11b4:	0e 94 89 2b 	call	0x5712	; 0x5712 <__itoa_ncheck>
    11b8:	0a 30       	cpi	r16, 0x0A	; 10
    11ba:	11 05       	cpc	r17, r1
    11bc:	18 f4       	brcc	.+6      	; 0x11c4 <lcd_puti+0x2a>
    11be:	80 e3       	ldi	r24, 0x30	; 48
    11c0:	0e 94 08 08 	call	0x1010	; 0x1010 <lcd_putc>
    11c4:	ce 01       	movw	r24, r28
    11c6:	01 96       	adiw	r24, 0x01	; 1
    11c8:	0e 94 bd 08 	call	0x117a	; 0x117a <lcd_puts>
    11cc:	0f 90       	pop	r0
    11ce:	0f 90       	pop	r0
    11d0:	0f 90       	pop	r0
    11d2:	0f 90       	pop	r0
    11d4:	df 91       	pop	r29
    11d6:	cf 91       	pop	r28
    11d8:	1f 91       	pop	r17
    11da:	0f 91       	pop	r16
    11dc:	08 95       	ret

000011de <lcd_puts_hu>:
	lcd_putc(c);
}


void lcd_puts_hu( const char *s)                 // string kiiras, magyar betuk is
{
    11de:	cf 93       	push	r28
    11e0:	df 93       	push	r29
	register unsigned char c;
	while ( ( c= pgm_read_byte( s++))) lcd_putc_hu( c);
    11e2:	ec 01       	movw	r28, r24
    11e4:	21 96       	adiw	r28, 0x01	; 1
    11e6:	fc 01       	movw	r30, r24
    11e8:	84 91       	lpm	r24, Z
    11ea:	88 23       	and	r24, r24
    11ec:	39 f0       	breq	.+14     	; 0x11fc <lcd_puts_hu+0x1e>
    11ee:	0e 94 9d 08 	call	0x113a	; 0x113a <lcd_putc_hu>
    11f2:	fe 01       	movw	r30, r28
    11f4:	84 91       	lpm	r24, Z
    11f6:	21 96       	adiw	r28, 0x01	; 1
    11f8:	81 11       	cpse	r24, r1
    11fa:	f9 cf       	rjmp	.-14     	; 0x11ee <lcd_puts_hu+0x10>
}
    11fc:	df 91       	pop	r29
    11fe:	cf 91       	pop	r28
    1200:	08 95       	ret

00001202 <GetCompensation>:
		//OCR3C = ADC;
//}

int GetCompensation(int outside)
{
	int diff = 23 - outside;
    1202:	27 e1       	ldi	r18, 0x17	; 23
    1204:	30 e0       	ldi	r19, 0x00	; 0
    1206:	a9 01       	movw	r20, r18
    1208:	48 1b       	sub	r20, r24
    120a:	59 0b       	sbc	r21, r25
	if (diff <= 10)
    120c:	4b 30       	cpi	r20, 0x0B	; 11
    120e:	51 05       	cpc	r21, r1
    1210:	b4 f0       	brlt	.+44     	; 0x123e <GetCompensation+0x3c>
		return -10;
	else if (10 < diff && diff <= 20)
    1212:	9a 01       	movw	r18, r20
    1214:	2b 50       	subi	r18, 0x0B	; 11
    1216:	31 09       	sbc	r19, r1
    1218:	2a 30       	cpi	r18, 0x0A	; 10
    121a:	31 05       	cpc	r19, r1
    121c:	98 f0       	brcs	.+38     	; 0x1244 <GetCompensation+0x42>
		return -5;
	else if (20 < diff && diff <= 30)
    121e:	2a 50       	subi	r18, 0x0A	; 10
    1220:	31 09       	sbc	r19, r1
    1222:	2a 30       	cpi	r18, 0x0A	; 10
    1224:	31 05       	cpc	r19, r1
    1226:	88 f0       	brcs	.+34     	; 0x124a <GetCompensation+0x48>
		return 0;
	else if (30 < diff && diff <= 40)
    1228:	2a 50       	subi	r18, 0x0A	; 10
    122a:	31 09       	sbc	r19, r1
    122c:	2a 30       	cpi	r18, 0x0A	; 10
    122e:	31 05       	cpc	r19, r1
    1230:	78 f0       	brcs	.+30     	; 0x1250 <GetCompensation+0x4e>
		return 5;
	else if (40 < diff )
    1232:	49 32       	cpi	r20, 0x29	; 41
    1234:	51 05       	cpc	r21, r1
    1236:	7c f4       	brge	.+30     	; 0x1256 <GetCompensation+0x54>
		return 10;
	return 0;
    1238:	80 e0       	ldi	r24, 0x00	; 0
    123a:	90 e0       	ldi	r25, 0x00	; 0
    123c:	08 95       	ret

int GetCompensation(int outside)
{
	int diff = 23 - outside;
	if (diff <= 10)
		return -10;
    123e:	86 ef       	ldi	r24, 0xF6	; 246
    1240:	9f ef       	ldi	r25, 0xFF	; 255
    1242:	08 95       	ret
	else if (10 < diff && diff <= 20)
		return -5;
    1244:	8b ef       	ldi	r24, 0xFB	; 251
    1246:	9f ef       	ldi	r25, 0xFF	; 255
    1248:	08 95       	ret
	else if (20 < diff && diff <= 30)
		return 0;
    124a:	80 e0       	ldi	r24, 0x00	; 0
    124c:	90 e0       	ldi	r25, 0x00	; 0
    124e:	08 95       	ret
	else if (30 < diff && diff <= 40)
		return 5;
    1250:	85 e0       	ldi	r24, 0x05	; 5
    1252:	90 e0       	ldi	r25, 0x00	; 0
    1254:	08 95       	ret
	else if (40 < diff )
		return 10;
    1256:	8a e0       	ldi	r24, 0x0A	; 10
    1258:	90 e0       	ldi	r25, 0x00	; 0
	return 0;
	
}
    125a:	08 95       	ret

0000125c <__vector_12>:
ISR(TIMER1_COMPA_vect) // 1 mp-es idõzítõ
{
    125c:	1f 92       	push	r1
    125e:	0f 92       	push	r0
    1260:	0f b6       	in	r0, 0x3f	; 63
    1262:	0f 92       	push	r0
    1264:	11 24       	eor	r1, r1
    1266:	8f 93       	push	r24
	if (TimerElapsed == 0);
    1268:	80 91 12 07 	lds	r24, 0x0712	; 0x800712 <TimerElapsed>
		TimerElapsed++;
    126c:	80 91 12 07 	lds	r24, 0x0712	; 0x800712 <TimerElapsed>
    1270:	8f 5f       	subi	r24, 0xFF	; 255
    1272:	80 93 12 07 	sts	0x0712, r24	; 0x800712 <TimerElapsed>
}
    1276:	8f 91       	pop	r24
    1278:	0f 90       	pop	r0
    127a:	0f be       	out	0x3f, r0	; 63
    127c:	0f 90       	pop	r0
    127e:	1f 90       	pop	r1
    1280:	18 95       	reti

00001282 <TempToVariable>:

int TempToVariable(TempSensor * tempsensor, uint8_t * cel, uint8_t * celfracs)
{
    1282:	af 92       	push	r10
    1284:	bf 92       	push	r11
    1286:	cf 92       	push	r12
    1288:	df 92       	push	r13
    128a:	ef 92       	push	r14
    128c:	ff 92       	push	r15
    128e:	0f 93       	push	r16
    1290:	1f 93       	push	r17
    1292:	cf 93       	push	r28
    1294:	df 93       	push	r29
    1296:	ec 01       	movw	r28, r24
    1298:	8b 01       	movw	r16, r22
    129a:	5a 01       	movw	r10, r20
	tempsensor->ActualTemp = *cel;
    129c:	fb 01       	movw	r30, r22
    129e:	80 81       	ld	r24, Z
    12a0:	88 83       	st	Y, r24
	utoa(tempsensor->ActualTemp, tempsensor->ActualTempBuffer, 10);
    12a2:	6e 01       	movw	r12, r28
    12a4:	f3 e0       	ldi	r31, 0x03	; 3
    12a6:	cf 0e       	add	r12, r31
    12a8:	d1 1c       	adc	r13, r1
    } else if (__radix < 2 || __radix > 36) {
	*__s = 0;
	return __s;
    } else {
	extern char *__utoa_ncheck (unsigned int, char *, unsigned char);
	return __utoa_ncheck (__val, __s, __radix);
    12aa:	4a e0       	ldi	r20, 0x0A	; 10
    12ac:	b6 01       	movw	r22, r12
    12ae:	90 e0       	ldi	r25, 0x00	; 0
    12b0:	0e 94 cd 2b 	call	0x579a	; 0x579a <__utoa_ncheck>
	utoa(*celfracs, tempsensor->ActualTempFracBuffer, 10);
    12b4:	7e 01       	movw	r14, r28
    12b6:	87 e0       	ldi	r24, 0x07	; 7
    12b8:	e8 0e       	add	r14, r24
    12ba:	f1 1c       	adc	r15, r1
    12bc:	f5 01       	movw	r30, r10
    12be:	80 81       	ld	r24, Z
    12c0:	4a e0       	ldi	r20, 0x0A	; 10
    12c2:	b7 01       	movw	r22, r14
    12c4:	90 e0       	ldi	r25, 0x00	; 0
    12c6:	0e 94 cd 2b 	call	0x579a	; 0x579a <__utoa_ncheck>
	if (tempsensor->ActualTemp > tempsensor->MeasuredMaximumTemp)
    12ca:	88 81       	ld	r24, Y
    12cc:	9a 81       	ldd	r25, Y+2	; 0x02
    12ce:	98 17       	cp	r25, r24
    12d0:	08 f4       	brcc	.+2      	; 0x12d4 <TempToVariable+0x52>
		tempsensor->MeasuredMaximumTemp = tempsensor->ActualTemp;
    12d2:	8a 83       	std	Y+2, r24	; 0x02
	if (tempsensor->ActualTemp < tempsensor->MeasuredMinimumTemp)
    12d4:	99 81       	ldd	r25, Y+1	; 0x01
    12d6:	89 17       	cp	r24, r25
    12d8:	08 f4       	brcc	.+2      	; 0x12dc <TempToVariable+0x5a>
		tempsensor->MeasuredMinimumTemp = tempsensor->ActualTemp;
    12da:	89 83       	std	Y+1, r24	; 0x01
	if (*cel > 100)
    12dc:	f8 01       	movw	r30, r16
    12de:	80 81       	ld	r24, Z
    12e0:	85 36       	cpi	r24, 0x65	; 101
    12e2:	68 f0       	brcs	.+26     	; 0x12fe <TempToVariable+0x7c>
	{
		strcpy_P(tempsensor->ActualTempBuffer, PSTR("--"));
    12e4:	6b eb       	ldi	r22, 0xBB	; 187
    12e6:	73 e0       	ldi	r23, 0x03	; 3
    12e8:	c6 01       	movw	r24, r12
    12ea:	0e 94 5c 2b 	call	0x56b8	; 0x56b8 <strcpy_P>
		strcpy_P(tempsensor->ActualTempFracBuffer, PSTR("-"));
    12ee:	69 eb       	ldi	r22, 0xB9	; 185
    12f0:	73 e0       	ldi	r23, 0x03	; 3
    12f2:	c7 01       	movw	r24, r14
    12f4:	0e 94 5c 2b 	call	0x56b8	; 0x56b8 <strcpy_P>
		return 1;
    12f8:	81 e0       	ldi	r24, 0x01	; 1
    12fa:	90 e0       	ldi	r25, 0x00	; 0
    12fc:	02 c0       	rjmp	.+4      	; 0x1302 <TempToVariable+0x80>
	}
	return 0;
    12fe:	80 e0       	ldi	r24, 0x00	; 0
    1300:	90 e0       	ldi	r25, 0x00	; 0
}
    1302:	df 91       	pop	r29
    1304:	cf 91       	pop	r28
    1306:	1f 91       	pop	r17
    1308:	0f 91       	pop	r16
    130a:	ff 90       	pop	r15
    130c:	ef 90       	pop	r14
    130e:	df 90       	pop	r13
    1310:	cf 90       	pop	r12
    1312:	bf 90       	pop	r11
    1314:	af 90       	pop	r10
    1316:	08 95       	ret

00001318 <search_sensors>:
		SwitchRelays();
	}
}

uint8_t search_sensors(void)
{
    1318:	df 92       	push	r13
    131a:	ef 92       	push	r14
    131c:	ff 92       	push	r15
    131e:	0f 93       	push	r16
    1320:	1f 93       	push	r17
    1322:	cf 93       	push	r28
    1324:	df 93       	push	r29
    1326:	cd b7       	in	r28, 0x3d	; 61
    1328:	de b7       	in	r29, 0x3e	; 62
    132a:	29 97       	sbiw	r28, 0x09	; 9
    132c:	0f b6       	in	r0, 0x3f	; 63
    132e:	f8 94       	cli
    1330:	de bf       	out	0x3e, r29	; 62
    1332:	0f be       	out	0x3f, r0	; 63
    1334:	cd bf       	out	0x3d, r28	; 61
	uint8_t i;
	uint8_t id[OW_ROMCODE_SIZE];
	uint8_t diff, nSensors;

	/* clear display and home cursor */
	if (Mode == DEBUG1)
    1336:	80 91 11 07 	lds	r24, 0x0711	; 0x800711 <Mode>
    133a:	82 30       	cpi	r24, 0x02	; 2
    133c:	09 f0       	breq	.+2      	; 0x1340 <search_sensors+0x28>
    133e:	3f c0       	rjmp	.+126    	; 0x13be <search_sensors+0xa6>
		uart_puts_P("Bus scanning ...\n");
    1340:	8a e3       	ldi	r24, 0x3A	; 58
    1342:	92 e0       	ldi	r25, 0x02	; 2
    1344:	0e 94 d6 27 	call	0x4fac	; 0x4fac <uart_puts_p>

	nSensors = 0;

	for( diff = OW_SEARCH_FIRST; diff != OW_LAST_DEVICE && nSensors < DS18B20_MAX_NO;)
    1348:	8f ef       	ldi	r24, 0xFF	; 255
    134a:	89 87       	std	Y+9, r24	; 0x09
    134c:	0f 2e       	mov	r0, r31
    134e:	f7 e4       	ldi	r31, 0x47	; 71
    1350:	ef 2e       	mov	r14, r31
    1352:	f8 e0       	ldi	r31, 0x08	; 8
    1354:	ff 2e       	mov	r15, r31
    1356:	f0 2d       	mov	r31, r0
		SwitchRelays();
	}
}

uint8_t search_sensors(void)
{
    1358:	d1 2c       	mov	r13, r1

	nSensors = 0;

	for( diff = OW_SEARCH_FIRST; diff != OW_LAST_DEVICE && nSensors < DS18B20_MAX_NO;)
	{
		DS18X20_find_sensor( &diff, &id[0] );
    135a:	8e 01       	movw	r16, r28
    135c:	07 5f       	subi	r16, 0xF7	; 247
    135e:	1f 4f       	sbci	r17, 0xFF	; 255
    1360:	be 01       	movw	r22, r28
    1362:	6f 5f       	subi	r22, 0xFF	; 255
    1364:	7f 4f       	sbci	r23, 0xFF	; 255
    1366:	c8 01       	movw	r24, r16
    1368:	0e 94 7f 04 	call	0x8fe	; 0x8fe <DS18X20_find_sensor>

		if( diff == OW_PRESENCE_ERR ) {
    136c:	99 85       	ldd	r25, Y+9	; 0x09
    136e:	9f 3f       	cpi	r25, 0xFF	; 255
    1370:	49 f4       	brne	.+18     	; 0x1384 <search_sensors+0x6c>
			if (Mode == DEBUG1)
    1372:	80 91 11 07 	lds	r24, 0x0711	; 0x800711 <Mode>
    1376:	82 30       	cpi	r24, 0x02	; 2
    1378:	29 f5       	brne	.+74     	; 0x13c4 <search_sensors+0xac>
				uart_puts_P("No sensor found\n");
    137a:	89 e2       	ldi	r24, 0x29	; 41
    137c:	92 e0       	ldi	r25, 0x02	; 2
    137e:	0e 94 d6 27 	call	0x4fac	; 0x4fac <uart_puts_p>
    1382:	20 c0       	rjmp	.+64     	; 0x13c4 <search_sensors+0xac>
			break;
		}

		if( diff == OW_DATA_ERR ) {
    1384:	9e 3f       	cpi	r25, 0xFE	; 254
    1386:	49 f4       	brne	.+18     	; 0x139a <search_sensors+0x82>
			if (Mode == DEBUG1)
    1388:	80 91 11 07 	lds	r24, 0x0711	; 0x800711 <Mode>
    138c:	82 30       	cpi	r24, 0x02	; 2
    138e:	d1 f4       	brne	.+52     	; 0x13c4 <search_sensors+0xac>
				uart_puts_P("Bus error\n");
    1390:	8e e1       	ldi	r24, 0x1E	; 30
    1392:	92 e0       	ldi	r25, 0x02	; 2
    1394:	0e 94 d6 27 	call	0x4fac	; 0x4fac <uart_puts_p>
    1398:	15 c0       	rjmp	.+42     	; 0x13c4 <search_sensors+0xac>
    139a:	fe 01       	movw	r30, r28
    139c:	31 96       	adiw	r30, 0x01	; 1
			if (Mode == DEBUG1)
				uart_puts_P("No sensor found\n");
			break;
		}

		if( diff == OW_DATA_ERR ) {
    139e:	d7 01       	movw	r26, r14
			break;
		}

		for (i=0;i<OW_ROMCODE_SIZE;i++)
		{
			gSensorIDs[nSensors][i]=id[i];
    13a0:	81 91       	ld	r24, Z+
    13a2:	8d 93       	st	X+, r24
			if (Mode == DEBUG1)
				uart_puts_P("Bus error\n");
			break;
		}

		for (i=0;i<OW_ROMCODE_SIZE;i++)
    13a4:	e0 17       	cp	r30, r16
    13a6:	f1 07       	cpc	r31, r17
    13a8:	d9 f7       	brne	.-10     	; 0x13a0 <search_sensors+0x88>
		{
			gSensorIDs[nSensors][i]=id[i];
		}

		nSensors++;
    13aa:	d3 94       	inc	r13
	if (Mode == DEBUG1)
		uart_puts_P("Bus scanning ...\n");

	nSensors = 0;

	for( diff = OW_SEARCH_FIRST; diff != OW_LAST_DEVICE && nSensors < DS18B20_MAX_NO;)
    13ac:	99 23       	and	r25, r25
    13ae:	51 f0       	breq	.+20     	; 0x13c4 <search_sensors+0xac>
    13b0:	88 e0       	ldi	r24, 0x08	; 8
    13b2:	e8 0e       	add	r14, r24
    13b4:	f1 1c       	adc	r15, r1
    13b6:	8c e0       	ldi	r24, 0x0C	; 12
    13b8:	d8 12       	cpse	r13, r24
    13ba:	d2 cf       	rjmp	.-92     	; 0x1360 <search_sensors+0x48>
    13bc:	03 c0       	rjmp	.+6      	; 0x13c4 <search_sensors+0xac>
    13be:	8f ef       	ldi	r24, 0xFF	; 255
    13c0:	89 87       	std	Y+9, r24	; 0x09
    13c2:	c4 cf       	rjmp	.-120    	; 0x134c <search_sensors+0x34>

		nSensors++;
	}

	return nSensors;
}
    13c4:	8d 2d       	mov	r24, r13
    13c6:	29 96       	adiw	r28, 0x09	; 9
    13c8:	0f b6       	in	r0, 0x3f	; 63
    13ca:	f8 94       	cli
    13cc:	de bf       	out	0x3e, r29	; 62
    13ce:	0f be       	out	0x3f, r0	; 63
    13d0:	cd bf       	out	0x3d, r28	; 61
    13d2:	df 91       	pop	r29
    13d4:	cf 91       	pop	r28
    13d6:	1f 91       	pop	r17
    13d8:	0f 91       	pop	r16
    13da:	ff 90       	pop	r15
    13dc:	ef 90       	pop	r14
    13de:	df 90       	pop	r13
    13e0:	08 95       	ret

000013e2 <SensorRead>:
	}
	return 0;
}

void SensorRead()
{
    13e2:	2f 92       	push	r2
    13e4:	3f 92       	push	r3
    13e6:	4f 92       	push	r4
    13e8:	5f 92       	push	r5
    13ea:	6f 92       	push	r6
    13ec:	7f 92       	push	r7
    13ee:	8f 92       	push	r8
    13f0:	9f 92       	push	r9
    13f2:	af 92       	push	r10
    13f4:	bf 92       	push	r11
    13f6:	cf 92       	push	r12
    13f8:	df 92       	push	r13
    13fa:	ef 92       	push	r14
    13fc:	ff 92       	push	r15
    13fe:	0f 93       	push	r16
    1400:	1f 93       	push	r17
    1402:	cf 93       	push	r28
    1404:	df 93       	push	r29
    1406:	00 d0       	rcall	.+0      	; 0x1408 <SensorRead+0x26>
    1408:	00 d0       	rcall	.+0      	; 0x140a <SensorRead+0x28>
    140a:	cd b7       	in	r28, 0x3d	; 61
    140c:	de b7       	in	r29, 0x3e	; 62
	static uint8_t timerstate = 0;
	uint8_t sensor_fail = 0;
	static uint8_t web = 0;
	uint8_t relmodlevel = 0;
	
	switch (timerstate)
    140e:	e0 91 05 07 	lds	r30, 0x0705	; 0x800705 <timerstate.2913>
    1412:	8e 2f       	mov	r24, r30
    1414:	90 e0       	ldi	r25, 0x00	; 0
    1416:	87 30       	cpi	r24, 0x07	; 7
    1418:	91 05       	cpc	r25, r1
    141a:	08 f0       	brcs	.+2      	; 0x141e <SensorRead+0x3c>
    141c:	72 c3       	rjmp	.+1764   	; 0x1b02 <SensorRead+0x720>
    141e:	fc 01       	movw	r30, r24
    1420:	ee 57       	subi	r30, 0x7E	; 126
    1422:	ff 4f       	sbci	r31, 0xFF	; 255
    1424:	0c 94 38 2b 	jmp	0x5670	; 0x5670 <__tablejump2__>
	{
		case (HIHxxxxStartMeaserementState):
			StartHIHxxxxMeasurement();
    1428:	0e 94 5f 06 	call	0xcbe	; 0xcbe <StartHIHxxxxMeasurement>
			if (i2c_start(0x09 | I2C_READ) == 0)
    142c:	89 e0       	ldi	r24, 0x09	; 9
    142e:	0e 94 ea 06 	call	0xdd4	; 0xdd4 <i2c_start>
    1432:	81 11       	cpse	r24, r1
    1434:	07 c0       	rjmp	.+14     	; 0x1444 <SensorRead+0x62>
			{		
				i2c_write('m');
    1436:	8d e6       	ldi	r24, 0x6D	; 109
    1438:	0e 94 0f 07 	call	0xe1e	; 0xe1e <i2c_write>
				relmodlevel = i2c_read_ack();
    143c:	0e 94 21 07 	call	0xe42	; 0xe42 <i2c_read_ack>
				i2c_stop();
    1440:	0e 94 6d 07 	call	0xeda	; 0xeda <i2c_stop>
			}
			timerstate++;
    1444:	80 91 05 07 	lds	r24, 0x0705	; 0x800705 <timerstate.2913>
    1448:	8f 5f       	subi	r24, 0xFF	; 255
    144a:	80 93 05 07 	sts	0x0705, r24	; 0x800705 <timerstate.2913>
		break;
    144e:	f9 c4       	rjmp	.+2546   	; 0x1e42 <SensorRead+0xa60>

		case (HIHxxxxReadMeasurementState):
			ReadHIHxxxxMeasurement();
    1450:	0e 94 69 06 	call	0xcd2	; 0xcd2 <ReadHIHxxxxMeasurement>
			HIHxxxxTemp = HIHxxxxTemperature; // in °C
    1454:	40 91 a4 07 	lds	r20, 0x07A4	; 0x8007a4 <HIHxxxxTemperature>
    1458:	50 91 a5 07 	lds	r21, 0x07A5	; 0x8007a5 <HIHxxxxTemperature+0x1>
    145c:	60 91 a6 07 	lds	r22, 0x07A6	; 0x8007a6 <HIHxxxxTemperature+0x2>
    1460:	70 91 a7 07 	lds	r23, 0x07A7	; 0x8007a7 <HIHxxxxTemperature+0x3>
    1464:	40 93 28 08 	sts	0x0828, r20	; 0x800828 <HIHxxxxTemp>
    1468:	50 93 29 08 	sts	0x0829, r21	; 0x800829 <HIHxxxxTemp+0x1>
    146c:	60 93 2a 08 	sts	0x082A, r22	; 0x80082a <HIHxxxxTemp+0x2>
    1470:	70 93 2b 08 	sts	0x082B, r23	; 0x80082b <HIHxxxxTemp+0x3>
			memset(HIHxxxxTempBuf, 0x00, sizeof(HIHxxxxTempBuf));
    1474:	8a e0       	ldi	r24, 0x0A	; 10
    1476:	ee ef       	ldi	r30, 0xFE	; 254
    1478:	f7 e0       	ldi	r31, 0x07	; 7
    147a:	df 01       	movw	r26, r30
    147c:	1d 92       	st	X+, r1
    147e:	8a 95       	dec	r24
    1480:	e9 f7       	brne	.-6      	; 0x147c <SensorRead+0x9a>
			ftoa(HIHxxxxTempBuf, HIHxxxxTemp, 1);
    1482:	21 e0       	ldi	r18, 0x01	; 1
    1484:	30 e0       	ldi	r19, 0x00	; 0
    1486:	cf 01       	movw	r24, r30
    1488:	0e 94 6f 28 	call	0x50de	; 0x50de <ftoa>
			
			HIHxxxxTempInt = (int16_t)( HIHxxxxTemp * 100);
    148c:	20 e0       	ldi	r18, 0x00	; 0
    148e:	30 e0       	ldi	r19, 0x00	; 0
    1490:	48 ec       	ldi	r20, 0xC8	; 200
    1492:	52 e4       	ldi	r21, 0x42	; 66
    1494:	60 91 28 08 	lds	r22, 0x0828	; 0x800828 <HIHxxxxTemp>
    1498:	70 91 29 08 	lds	r23, 0x0829	; 0x800829 <HIHxxxxTemp+0x1>
    149c:	80 91 2a 08 	lds	r24, 0x082A	; 0x80082a <HIHxxxxTemp+0x2>
    14a0:	90 91 2b 08 	lds	r25, 0x082B	; 0x80082b <HIHxxxxTemp+0x3>
    14a4:	0e 94 cb 2a 	call	0x5596	; 0x5596 <__mulsf3>
    14a8:	0e 94 de 29 	call	0x53bc	; 0x53bc <__fixsfsi>
    14ac:	70 93 3c 08 	sts	0x083C, r23	; 0x80083c <HIHxxxxTempInt+0x1>
    14b0:	60 93 3b 08 	sts	0x083B, r22	; 0x80083b <HIHxxxxTempInt>
			if (Mode == DEBUG1)
    14b4:	80 91 11 07 	lds	r24, 0x0711	; 0x800711 <Mode>
    14b8:	82 30       	cpi	r24, 0x02	; 2
    14ba:	61 f4       	brne	.+24     	; 0x14d4 <SensorRead+0xf2>
				{ uart_puts_p(PSTR("S11;")); uart_puts(HIHxxxxTempBuf); uart_puts_p(PSTR("\r")); }
    14bc:	84 eb       	ldi	r24, 0xB4	; 180
    14be:	93 e0       	ldi	r25, 0x03	; 3
    14c0:	0e 94 d6 27 	call	0x4fac	; 0x4fac <uart_puts_p>
    14c4:	8e ef       	ldi	r24, 0xFE	; 254
    14c6:	97 e0       	ldi	r25, 0x07	; 7
    14c8:	0e 94 c7 27 	call	0x4f8e	; 0x4f8e <uart_puts>
    14cc:	82 eb       	ldi	r24, 0xB2	; 178
    14ce:	93 e0       	ldi	r25, 0x03	; 3
    14d0:	0e 94 d6 27 	call	0x4fac	; 0x4fac <uart_puts_p>
			if (HIHxxxxTemp > HIHxxxxTempMax)
    14d4:	c0 90 28 08 	lds	r12, 0x0828	; 0x800828 <HIHxxxxTemp>
    14d8:	d0 90 29 08 	lds	r13, 0x0829	; 0x800829 <HIHxxxxTemp+0x1>
    14dc:	e0 90 2a 08 	lds	r14, 0x082A	; 0x80082a <HIHxxxxTemp+0x2>
    14e0:	f0 90 2b 08 	lds	r15, 0x082B	; 0x80082b <HIHxxxxTemp+0x3>
    14e4:	20 91 30 08 	lds	r18, 0x0830	; 0x800830 <HIHxxxxTempMax>
    14e8:	30 91 31 08 	lds	r19, 0x0831	; 0x800831 <HIHxxxxTempMax+0x1>
    14ec:	40 91 32 08 	lds	r20, 0x0832	; 0x800832 <HIHxxxxTempMax+0x2>
    14f0:	50 91 33 08 	lds	r21, 0x0833	; 0x800833 <HIHxxxxTempMax+0x3>
    14f4:	c7 01       	movw	r24, r14
    14f6:	b6 01       	movw	r22, r12
    14f8:	0e 94 c6 2a 	call	0x558c	; 0x558c <__gesf2>
    14fc:	18 16       	cp	r1, r24
    14fe:	44 f4       	brge	.+16     	; 0x1510 <SensorRead+0x12e>
				HIHxxxxTempMax = HIHxxxxTemp;
    1500:	c0 92 30 08 	sts	0x0830, r12	; 0x800830 <HIHxxxxTempMax>
    1504:	d0 92 31 08 	sts	0x0831, r13	; 0x800831 <HIHxxxxTempMax+0x1>
    1508:	e0 92 32 08 	sts	0x0832, r14	; 0x800832 <HIHxxxxTempMax+0x2>
    150c:	f0 92 33 08 	sts	0x0833, r15	; 0x800833 <HIHxxxxTempMax+0x3>
			if (HIHxxxxTemp < HIHxxxxTempMin)
    1510:	20 91 2c 08 	lds	r18, 0x082C	; 0x80082c <HIHxxxxTempMin>
    1514:	30 91 2d 08 	lds	r19, 0x082D	; 0x80082d <HIHxxxxTempMin+0x1>
    1518:	40 91 2e 08 	lds	r20, 0x082E	; 0x80082e <HIHxxxxTempMin+0x2>
    151c:	50 91 2f 08 	lds	r21, 0x082F	; 0x80082f <HIHxxxxTempMin+0x3>
    1520:	c7 01       	movw	r24, r14
    1522:	b6 01       	movw	r22, r12
    1524:	0e 94 67 29 	call	0x52ce	; 0x52ce <__cmpsf2>
    1528:	88 23       	and	r24, r24
    152a:	44 f4       	brge	.+16     	; 0x153c <SensorRead+0x15a>
				HIHxxxxTempMin = HIHxxxxTemp;
    152c:	c0 92 2c 08 	sts	0x082C, r12	; 0x80082c <HIHxxxxTempMin>
    1530:	d0 92 2d 08 	sts	0x082D, r13	; 0x80082d <HIHxxxxTempMin+0x1>
    1534:	e0 92 2e 08 	sts	0x082E, r14	; 0x80082e <HIHxxxxTempMin+0x2>
    1538:	f0 92 2f 08 	sts	0x082F, r15	; 0x80082f <HIHxxxxTempMin+0x3>
			
			HIHxxxxHumid = HIHxxxxHumidity;
    153c:	40 91 a8 07 	lds	r20, 0x07A8	; 0x8007a8 <HIHxxxxHumidity>
    1540:	50 91 a9 07 	lds	r21, 0x07A9	; 0x8007a9 <HIHxxxxHumidity+0x1>
    1544:	60 91 aa 07 	lds	r22, 0x07AA	; 0x8007aa <HIHxxxxHumidity+0x2>
    1548:	70 91 ab 07 	lds	r23, 0x07AB	; 0x8007ab <HIHxxxxHumidity+0x3>
    154c:	40 93 c6 07 	sts	0x07C6, r20	; 0x8007c6 <HIHxxxxHumid>
    1550:	50 93 c7 07 	sts	0x07C7, r21	; 0x8007c7 <HIHxxxxHumid+0x1>
    1554:	60 93 c8 07 	sts	0x07C8, r22	; 0x8007c8 <HIHxxxxHumid+0x2>
    1558:	70 93 c9 07 	sts	0x07C9, r23	; 0x8007c9 <HIHxxxxHumid+0x3>
			ftoa(HIHxxxxHumidBuf, HIHxxxxHumid, 1);
    155c:	21 e0       	ldi	r18, 0x01	; 1
    155e:	30 e0       	ldi	r19, 0x00	; 0
    1560:	88 ed       	ldi	r24, 0xD8	; 216
    1562:	97 e0       	ldi	r25, 0x07	; 7
    1564:	0e 94 6f 28 	call	0x50de	; 0x50de <ftoa>
			if (Mode == DEBUG1)
    1568:	80 91 11 07 	lds	r24, 0x0711	; 0x800711 <Mode>
    156c:	82 30       	cpi	r24, 0x02	; 2
    156e:	61 f4       	brne	.+24     	; 0x1588 <SensorRead+0x1a6>
				{ uart_puts_p(PSTR("S12;")); uart_puts(HIHxxxxHumidBuf); uart_puts_p(PSTR("\r")); }
    1570:	8d ea       	ldi	r24, 0xAD	; 173
    1572:	93 e0       	ldi	r25, 0x03	; 3
    1574:	0e 94 d6 27 	call	0x4fac	; 0x4fac <uart_puts_p>
    1578:	88 ed       	ldi	r24, 0xD8	; 216
    157a:	97 e0       	ldi	r25, 0x07	; 7
    157c:	0e 94 c7 27 	call	0x4f8e	; 0x4f8e <uart_puts>
    1580:	8b ea       	ldi	r24, 0xAB	; 171
    1582:	93 e0       	ldi	r25, 0x03	; 3
    1584:	0e 94 d6 27 	call	0x4fac	; 0x4fac <uart_puts_p>
			timerstate++;
    1588:	80 91 05 07 	lds	r24, 0x0705	; 0x800705 <timerstate.2913>
    158c:	8f 5f       	subi	r24, 0xFF	; 255
    158e:	80 93 05 07 	sts	0x0705, r24	; 0x800705 <timerstate.2913>
		break;
    1592:	57 c4       	rjmp	.+2222   	; 0x1e42 <SensorRead+0xa60>
			//ftoa(HIHxxxxHumidBuf, HIHxxxxHumid, 1);
			//timerstate++;
			//break;

		case (DS18B20State1):
			ow_set_bus(&DS18B20_PIN,&DS18B20_PORT,&DS18B20_DDR,DS18B20_PINx);
    1594:	20 e0       	ldi	r18, 0x00	; 0
    1596:	47 e3       	ldi	r20, 0x37	; 55
    1598:	50 e0       	ldi	r21, 0x00	; 0
    159a:	68 e3       	ldi	r22, 0x38	; 56
    159c:	70 e0       	ldi	r23, 0x00	; 0
    159e:	86 e3       	ldi	r24, 0x36	; 54
    15a0:	90 e0       	ldi	r25, 0x00	; 0
    15a2:	0e 94 76 05 	call	0xaec	; 0xaec <ow_set_bus>
			DS18X20_start_meas(DS18X20_POWER_EXTERN,NULL);
    15a6:	60 e0       	ldi	r22, 0x00	; 0
    15a8:	70 e0       	ldi	r23, 0x00	; 0
    15aa:	81 e0       	ldi	r24, 0x01	; 1
    15ac:	0e 94 98 04 	call	0x930	; 0x930 <DS18X20_start_meas>
			timerstate++;
    15b0:	80 91 05 07 	lds	r24, 0x0705	; 0x800705 <timerstate.2913>
    15b4:	8f 5f       	subi	r24, 0xFF	; 255
    15b6:	80 93 05 07 	sts	0x0705, r24	; 0x800705 <timerstate.2913>
		break;
    15ba:	43 c4       	rjmp	.+2182   	; 0x1e42 <SensorRead+0xa60>

		case (DS18B20State2):
			ow_set_bus(&DS18B20_PIN,&DS18B20_PORT,&DS18B20_DDR,DS18B20_PINx);
    15bc:	20 e0       	ldi	r18, 0x00	; 0
    15be:	47 e3       	ldi	r20, 0x37	; 55
    15c0:	50 e0       	ldi	r21, 0x00	; 0
    15c2:	68 e3       	ldi	r22, 0x38	; 56
    15c4:	70 e0       	ldi	r23, 0x00	; 0
    15c6:	86 e3       	ldi	r24, 0x36	; 54
    15c8:	90 e0       	ldi	r25, 0x00	; 0
    15ca:	0e 94 76 05 	call	0xaec	; 0xaec <ow_set_bus>
			i = 0;
			while (i < nSensors)
    15ce:	80 91 cc 07 	lds	r24, 0x07CC	; 0x8007cc <nSensors>
    15d2:	88 23       	and	r24, r24
    15d4:	09 f4       	brne	.+2      	; 0x15d8 <SensorRead+0x1f6>
    15d6:	3b c4       	rjmp	.+2166   	; 0x1e4e <SensorRead+0xa6c>
    15d8:	21 2c       	mov	r2, r1
    15da:	31 2c       	mov	r3, r1
					if (Mode == DEBUG1)
						{ uart_puts_P("S"); uart_puti(i); uart_puts_P(";"); uart_puti(subzero); uart_puti(cel); uart_puts_P("."); uart_puti(GetFracCel(cel_frac_bits)); uart_puts_P("\r"); }
				}
				uint8_t celfracs = GetFracCel(cel_frac_bits);
				
				if (i == DHW.SensorID)
    15dc:	0f 2e       	mov	r0, r31
    15de:	f4 e1       	ldi	r31, 0x14	; 20
    15e0:	8f 2e       	mov	r8, r31
    15e2:	f8 e0       	ldi	r31, 0x08	; 8
    15e4:	9f 2e       	mov	r9, r31
    15e6:	f0 2d       	mov	r31, r0
				{
					sensor_fail = TempToVariable(&DHW, &cel, &celfracs);
				}
				if (i == Buffer.SensorID)
    15e8:	0f 2e       	mov	r0, r31
    15ea:	fd e3       	ldi	r31, 0x3D	; 61
    15ec:	af 2e       	mov	r10, r31
    15ee:	f8 e0       	ldi	r31, 0x08	; 8
    15f0:	bf 2e       	mov	r11, r31
    15f2:	f0 2d       	mov	r31, r0
				{
					sensor_fail = TempToVariable(&Buffer, &cel, &celfracs);
				}
				if (i == Engineering.SensorID)
    15f4:	0f 2e       	mov	r0, r31
    15f6:	ff ed       	ldi	r31, 0xDF	; 223
    15f8:	cf 2e       	mov	r12, r31
    15fa:	f7 e0       	ldi	r31, 0x07	; 7
    15fc:	df 2e       	mov	r13, r31
    15fe:	f0 2d       	mov	r31, r0
				{
					sensor_fail = TempToVariable(&Engineering, &cel, &celfracs);
				}
				if (i == Garage.SensorID)
    1600:	0f 2e       	mov	r0, r31
    1602:	fe ec       	ldi	r31, 0xCE	; 206
    1604:	ef 2e       	mov	r14, r31
    1606:	f7 e0       	ldi	r31, 0x07	; 7
    1608:	ff 2e       	mov	r15, r31
    160a:	f0 2d       	mov	r31, r0
						strcpy_P(LivingRoomTempBuf, PSTR("--"));
						strcpy_P(LivingRoomTempFracBuf, PSTR("-"));
						sensor_fail = 1;
					}
				}
				if (i == Floor.SensorID)
    160c:	0f 2e       	mov	r0, r31
    160e:	fa e0       	ldi	r31, 0x0A	; 10
    1610:	6f 2e       	mov	r6, r31
    1612:	f8 e0       	ldi	r31, 0x08	; 8
    1614:	7f 2e       	mov	r7, r31
    1616:	f0 2d       	mov	r31, r0
				{
					sensor_fail = TempToVariable(&Floor, &cel, &celfracs);
				}
				if (i == GasForward.SensorID)
    1618:	0f 2e       	mov	r0, r31
    161a:	fe e1       	ldi	r31, 0x1E	; 30
    161c:	4f 2e       	mov	r4, r31
    161e:	f8 e0       	ldi	r31, 0x08	; 8
    1620:	5f 2e       	mov	r5, r31
    1622:	f0 2d       	mov	r31, r0
		case (DS18B20State2):
			ow_set_bus(&DS18B20_PIN,&DS18B20_PORT,&DS18B20_DDR,DS18B20_PINx);
			i = 0;
			while (i < nSensors)
			{
				if ( DS18X20_read_meas( &gSensorIDs[i][0], &subzero, &cel, &cel_frac_bits) == DS18X20_OK )
    1624:	03 2d       	mov	r16, r3
    1626:	10 e0       	ldi	r17, 0x00	; 0
    1628:	c8 01       	movw	r24, r16
    162a:	88 0f       	add	r24, r24
    162c:	99 1f       	adc	r25, r25
    162e:	88 0f       	add	r24, r24
    1630:	99 1f       	adc	r25, r25
    1632:	88 0f       	add	r24, r24
    1634:	99 1f       	adc	r25, r25
    1636:	9e 01       	movw	r18, r28
    1638:	2d 5f       	subi	r18, 0xFD	; 253
    163a:	3f 4f       	sbci	r19, 0xFF	; 255
    163c:	ae 01       	movw	r20, r28
    163e:	4e 5f       	subi	r20, 0xFE	; 254
    1640:	5f 4f       	sbci	r21, 0xFF	; 255
    1642:	be 01       	movw	r22, r28
    1644:	6f 5f       	subi	r22, 0xFF	; 255
    1646:	7f 4f       	sbci	r23, 0xFF	; 255
    1648:	89 5b       	subi	r24, 0xB9	; 185
    164a:	97 4f       	sbci	r25, 0xF7	; 247
    164c:	0e 94 b4 04 	call	0x968	; 0x968 <DS18X20_read_meas>
    1650:	81 11       	cpse	r24, r1
    1652:	27 c0       	rjmp	.+78     	; 0x16a2 <SensorRead+0x2c0>
				{
					if (Mode == DEBUG1)
    1654:	80 91 11 07 	lds	r24, 0x0711	; 0x800711 <Mode>
    1658:	82 30       	cpi	r24, 0x02	; 2
    165a:	19 f5       	brne	.+70     	; 0x16a2 <SensorRead+0x2c0>
						{ uart_puts_P("S"); uart_puti(i); uart_puts_P(";"); uart_puti(subzero); uart_puti(cel); uart_puts_P("."); uart_puti(GetFracCel(cel_frac_bits)); uart_puts_P("\r"); }
    165c:	89 ea       	ldi	r24, 0xA9	; 169
    165e:	93 e0       	ldi	r25, 0x03	; 3
    1660:	0e 94 d6 27 	call	0x4fac	; 0x4fac <uart_puts_p>
    1664:	c8 01       	movw	r24, r16
    1666:	0e 94 54 28 	call	0x50a8	; 0x50a8 <uart_puti>
    166a:	87 ea       	ldi	r24, 0xA7	; 167
    166c:	93 e0       	ldi	r25, 0x03	; 3
    166e:	0e 94 d6 27 	call	0x4fac	; 0x4fac <uart_puts_p>
    1672:	89 81       	ldd	r24, Y+1	; 0x01
    1674:	90 e0       	ldi	r25, 0x00	; 0
    1676:	0e 94 54 28 	call	0x50a8	; 0x50a8 <uart_puti>
    167a:	8a 81       	ldd	r24, Y+2	; 0x02
    167c:	90 e0       	ldi	r25, 0x00	; 0
    167e:	0e 94 54 28 	call	0x50a8	; 0x50a8 <uart_puti>
    1682:	85 ea       	ldi	r24, 0xA5	; 165
    1684:	93 e0       	ldi	r25, 0x03	; 3
    1686:	0e 94 d6 27 	call	0x4fac	; 0x4fac <uart_puts_p>
uint8_t isInitialized = 0;
uint8_t PumpRunner = 0;

uint8_t GetFracCel(uint8_t cel_frac_bits)
{
	return fraccel_lookup[cel_frac_bits];
    168a:	eb 81       	ldd	r30, Y+3	; 0x03
    168c:	f0 e0       	ldi	r31, 0x00	; 0
    168e:	e2 54       	subi	r30, 0x42	; 66
    1690:	fc 4f       	sbci	r31, 0xFC	; 252
			while (i < nSensors)
			{
				if ( DS18X20_read_meas( &gSensorIDs[i][0], &subzero, &cel, &cel_frac_bits) == DS18X20_OK )
				{
					if (Mode == DEBUG1)
						{ uart_puts_P("S"); uart_puti(i); uart_puts_P(";"); uart_puti(subzero); uart_puti(cel); uart_puts_P("."); uart_puti(GetFracCel(cel_frac_bits)); uart_puts_P("\r"); }
    1692:	84 91       	lpm	r24, Z
    1694:	90 e0       	ldi	r25, 0x00	; 0
    1696:	0e 94 54 28 	call	0x50a8	; 0x50a8 <uart_puti>
    169a:	83 ea       	ldi	r24, 0xA3	; 163
    169c:	93 e0       	ldi	r25, 0x03	; 3
    169e:	0e 94 d6 27 	call	0x4fac	; 0x4fac <uart_puts_p>
uint8_t isInitialized = 0;
uint8_t PumpRunner = 0;

uint8_t GetFracCel(uint8_t cel_frac_bits)
{
	return fraccel_lookup[cel_frac_bits];
    16a2:	eb 81       	ldd	r30, Y+3	; 0x03
    16a4:	f0 e0       	ldi	r31, 0x00	; 0
    16a6:	e2 54       	subi	r30, 0x42	; 66
    16a8:	fc 4f       	sbci	r31, 0xFC	; 252
				if ( DS18X20_read_meas( &gSensorIDs[i][0], &subzero, &cel, &cel_frac_bits) == DS18X20_OK )
				{
					if (Mode == DEBUG1)
						{ uart_puts_P("S"); uart_puti(i); uart_puts_P(";"); uart_puti(subzero); uart_puti(cel); uart_puts_P("."); uart_puti(GetFracCel(cel_frac_bits)); uart_puts_P("\r"); }
				}
				uint8_t celfracs = GetFracCel(cel_frac_bits);
    16aa:	84 91       	lpm	r24, Z
    16ac:	8c 83       	std	Y+4, r24	; 0x04
				
				if (i == DHW.SensorID)
    16ae:	f4 01       	movw	r30, r8
    16b0:	81 85       	ldd	r24, Z+9	; 0x09
    16b2:	83 11       	cpse	r24, r3
    16b4:	0a c0       	rjmp	.+20     	; 0x16ca <SensorRead+0x2e8>
				{
					sensor_fail = TempToVariable(&DHW, &cel, &celfracs);
    16b6:	ae 01       	movw	r20, r28
    16b8:	4c 5f       	subi	r20, 0xFC	; 252
    16ba:	5f 4f       	sbci	r21, 0xFF	; 255
    16bc:	be 01       	movw	r22, r28
    16be:	6e 5f       	subi	r22, 0xFE	; 254
    16c0:	7f 4f       	sbci	r23, 0xFF	; 255
    16c2:	c4 01       	movw	r24, r8
    16c4:	0e 94 41 09 	call	0x1282	; 0x1282 <TempToVariable>
    16c8:	28 2e       	mov	r2, r24
				}
				if (i == Buffer.SensorID)
    16ca:	d5 01       	movw	r26, r10
    16cc:	19 96       	adiw	r26, 0x09	; 9
    16ce:	8c 91       	ld	r24, X
    16d0:	83 11       	cpse	r24, r3
    16d2:	0a c0       	rjmp	.+20     	; 0x16e8 <SensorRead+0x306>
				{
					sensor_fail = TempToVariable(&Buffer, &cel, &celfracs);
    16d4:	ae 01       	movw	r20, r28
    16d6:	4c 5f       	subi	r20, 0xFC	; 252
    16d8:	5f 4f       	sbci	r21, 0xFF	; 255
    16da:	be 01       	movw	r22, r28
    16dc:	6e 5f       	subi	r22, 0xFE	; 254
    16de:	7f 4f       	sbci	r23, 0xFF	; 255
    16e0:	c5 01       	movw	r24, r10
    16e2:	0e 94 41 09 	call	0x1282	; 0x1282 <TempToVariable>
    16e6:	28 2e       	mov	r2, r24
				}
				if (i == Engineering.SensorID)
    16e8:	f6 01       	movw	r30, r12
    16ea:	81 85       	ldd	r24, Z+9	; 0x09
    16ec:	83 11       	cpse	r24, r3
    16ee:	0a c0       	rjmp	.+20     	; 0x1704 <SensorRead+0x322>
				{
					sensor_fail = TempToVariable(&Engineering, &cel, &celfracs);
    16f0:	ae 01       	movw	r20, r28
    16f2:	4c 5f       	subi	r20, 0xFC	; 252
    16f4:	5f 4f       	sbci	r21, 0xFF	; 255
    16f6:	be 01       	movw	r22, r28
    16f8:	6e 5f       	subi	r22, 0xFE	; 254
    16fa:	7f 4f       	sbci	r23, 0xFF	; 255
    16fc:	c6 01       	movw	r24, r12
    16fe:	0e 94 41 09 	call	0x1282	; 0x1282 <TempToVariable>
    1702:	28 2e       	mov	r2, r24
				}
				if (i == Garage.SensorID)
    1704:	d7 01       	movw	r26, r14
    1706:	19 96       	adiw	r26, 0x09	; 9
    1708:	8c 91       	ld	r24, X
    170a:	83 11       	cpse	r24, r3
    170c:	0a c0       	rjmp	.+20     	; 0x1722 <SensorRead+0x340>
				{
					sensor_fail = TempToVariable(&Garage, &cel, &celfracs);
    170e:	ae 01       	movw	r20, r28
    1710:	4c 5f       	subi	r20, 0xFC	; 252
    1712:	5f 4f       	sbci	r21, 0xFF	; 255
    1714:	be 01       	movw	r22, r28
    1716:	6e 5f       	subi	r22, 0xFE	; 254
    1718:	7f 4f       	sbci	r23, 0xFF	; 255
    171a:	c7 01       	movw	r24, r14
    171c:	0e 94 41 09 	call	0x1282	; 0x1282 <TempToVariable>
    1720:	28 2e       	mov	r2, r24
				}
				if (i == LivingRoomSensorID)
    1722:	80 91 06 01 	lds	r24, 0x0106	; 0x800106 <LivingRoomSensorID>
    1726:	83 11       	cpse	r24, r3
    1728:	5a c0       	rjmp	.+180    	; 0x17de <SensorRead+0x3fc>
				{
					LivingRoomTemp = cel * 100;
    172a:	8a 81       	ldd	r24, Y+2	; 0x02
    172c:	b4 e6       	ldi	r27, 0x64	; 100
    172e:	8b 9f       	mul	r24, r27
    1730:	a0 01       	movw	r20, r0
    1732:	11 24       	eor	r1, r1
					if (celfracs < 10)
    1734:	2c 81       	ldd	r18, Y+4	; 0x04
    1736:	2a 30       	cpi	r18, 0x0A	; 10
    1738:	98 f4       	brcc	.+38     	; 0x1760 <SensorRead+0x37e>
						LivingRoomTemp += celfracs * 10;
    173a:	30 e0       	ldi	r19, 0x00	; 0
    173c:	b9 01       	movw	r22, r18
    173e:	66 0f       	add	r22, r22
    1740:	77 1f       	adc	r23, r23
    1742:	22 0f       	add	r18, r18
    1744:	33 1f       	adc	r19, r19
    1746:	22 0f       	add	r18, r18
    1748:	33 1f       	adc	r19, r19
    174a:	22 0f       	add	r18, r18
    174c:	33 1f       	adc	r19, r19
    174e:	26 0f       	add	r18, r22
    1750:	37 1f       	adc	r19, r23
    1752:	24 0f       	add	r18, r20
    1754:	35 1f       	adc	r19, r21
    1756:	30 93 b1 07 	sts	0x07B1, r19	; 0x8007b1 <LivingRoomTemp+0x1>
    175a:	20 93 b0 07 	sts	0x07B0, r18	; 0x8007b0 <LivingRoomTemp>
    175e:	07 c0       	rjmp	.+14     	; 0x176e <SensorRead+0x38c>
					else
						LivingRoomTemp += celfracs;
    1760:	fa 01       	movw	r30, r20
    1762:	e2 0f       	add	r30, r18
    1764:	f1 1d       	adc	r31, r1
    1766:	f0 93 b1 07 	sts	0x07B1, r31	; 0x8007b1 <LivingRoomTemp+0x1>
    176a:	e0 93 b0 07 	sts	0x07B0, r30	; 0x8007b0 <LivingRoomTemp>
    176e:	4a e0       	ldi	r20, 0x0A	; 10
    1770:	62 ec       	ldi	r22, 0xC2	; 194
    1772:	77 e0       	ldi	r23, 0x07	; 7
    1774:	90 e0       	ldi	r25, 0x00	; 0
    1776:	0e 94 cd 2b 	call	0x579a	; 0x579a <__utoa_ncheck>
    177a:	8c 81       	ldd	r24, Y+4	; 0x04
    177c:	4a e0       	ldi	r20, 0x0A	; 10
    177e:	66 e3       	ldi	r22, 0x36	; 54
    1780:	78 e0       	ldi	r23, 0x08	; 8
    1782:	90 e0       	ldi	r25, 0x00	; 0
    1784:	0e 94 cd 2b 	call	0x579a	; 0x579a <__utoa_ncheck>
					utoa(cel, LivingRoomTempBuf, 10);
					utoa(celfracs, LivingRoomTempFracBuf, 10);
					if (LivingRoomTemp > LivingRoomTempMax)
    1788:	80 91 b0 07 	lds	r24, 0x07B0	; 0x8007b0 <LivingRoomTemp>
    178c:	90 91 b1 07 	lds	r25, 0x07B1	; 0x8007b1 <LivingRoomTemp+0x1>
    1790:	20 91 a7 08 	lds	r18, 0x08A7	; 0x8008a7 <LivingRoomTempMax>
    1794:	30 91 a8 08 	lds	r19, 0x08A8	; 0x8008a8 <LivingRoomTempMax+0x1>
    1798:	28 17       	cp	r18, r24
    179a:	39 07       	cpc	r19, r25
    179c:	20 f4       	brcc	.+8      	; 0x17a6 <SensorRead+0x3c4>
						LivingRoomTempMax = LivingRoomTemp;
    179e:	90 93 a8 08 	sts	0x08A8, r25	; 0x8008a8 <LivingRoomTempMax+0x1>
    17a2:	80 93 a7 08 	sts	0x08A7, r24	; 0x8008a7 <LivingRoomTempMax>
					if (LivingRoomTemp < LivingRoomTempMin)
    17a6:	20 91 38 08 	lds	r18, 0x0838	; 0x800838 <LivingRoomTempMin>
    17aa:	30 91 39 08 	lds	r19, 0x0839	; 0x800839 <LivingRoomTempMin+0x1>
    17ae:	82 17       	cp	r24, r18
    17b0:	93 07       	cpc	r25, r19
    17b2:	20 f4       	brcc	.+8      	; 0x17bc <SensorRead+0x3da>
						LivingRoomTempMin = LivingRoomTemp;
    17b4:	90 93 39 08 	sts	0x0839, r25	; 0x800839 <LivingRoomTempMin+0x1>
    17b8:	80 93 38 08 	sts	0x0838, r24	; 0x800838 <LivingRoomTempMin>
					if (cel > 135)
    17bc:	8a 81       	ldd	r24, Y+2	; 0x02
    17be:	88 38       	cpi	r24, 0x88	; 136
    17c0:	70 f0       	brcs	.+28     	; 0x17de <SensorRead+0x3fc>
					{
						strcpy_P(LivingRoomTempBuf, PSTR("--"));
    17c2:	60 ea       	ldi	r22, 0xA0	; 160
    17c4:	73 e0       	ldi	r23, 0x03	; 3
    17c6:	82 ec       	ldi	r24, 0xC2	; 194
    17c8:	97 e0       	ldi	r25, 0x07	; 7
    17ca:	0e 94 5c 2b 	call	0x56b8	; 0x56b8 <strcpy_P>
						strcpy_P(LivingRoomTempFracBuf, PSTR("-"));
    17ce:	6e e9       	ldi	r22, 0x9E	; 158
    17d0:	73 e0       	ldi	r23, 0x03	; 3
    17d2:	86 e3       	ldi	r24, 0x36	; 54
    17d4:	98 e0       	ldi	r25, 0x08	; 8
    17d6:	0e 94 5c 2b 	call	0x56b8	; 0x56b8 <strcpy_P>
						sensor_fail = 1;
    17da:	22 24       	eor	r2, r2
    17dc:	23 94       	inc	r2
					}
				}
				if (i == Floor.SensorID)
    17de:	d3 01       	movw	r26, r6
    17e0:	19 96       	adiw	r26, 0x09	; 9
    17e2:	8c 91       	ld	r24, X
    17e4:	83 11       	cpse	r24, r3
    17e6:	0a c0       	rjmp	.+20     	; 0x17fc <SensorRead+0x41a>
				{
					sensor_fail = TempToVariable(&Floor, &cel, &celfracs);
    17e8:	ae 01       	movw	r20, r28
    17ea:	4c 5f       	subi	r20, 0xFC	; 252
    17ec:	5f 4f       	sbci	r21, 0xFF	; 255
    17ee:	be 01       	movw	r22, r28
    17f0:	6e 5f       	subi	r22, 0xFE	; 254
    17f2:	7f 4f       	sbci	r23, 0xFF	; 255
    17f4:	c3 01       	movw	r24, r6
    17f6:	0e 94 41 09 	call	0x1282	; 0x1282 <TempToVariable>
    17fa:	28 2e       	mov	r2, r24
				}
				if (i == GasForward.SensorID)
    17fc:	f2 01       	movw	r30, r4
    17fe:	81 85       	ldd	r24, Z+9	; 0x09
    1800:	83 11       	cpse	r24, r3
    1802:	0a c0       	rjmp	.+20     	; 0x1818 <SensorRead+0x436>
				{
					sensor_fail = TempToVariable(&GasForward, &cel, &celfracs);
    1804:	ae 01       	movw	r20, r28
    1806:	4c 5f       	subi	r20, 0xFC	; 252
    1808:	5f 4f       	sbci	r21, 0xFF	; 255
    180a:	be 01       	movw	r22, r28
    180c:	6e 5f       	subi	r22, 0xFE	; 254
    180e:	7f 4f       	sbci	r23, 0xFF	; 255
    1810:	c2 01       	movw	r24, r4
    1812:	0e 94 41 09 	call	0x1282	; 0x1282 <TempToVariable>
    1816:	28 2e       	mov	r2, r24
				}
				if (i == GasReturn.SensorID)
    1818:	80 91 b2 08 	lds	r24, 0x08B2	; 0x8008b2 <GasReturn+0x9>
    181c:	83 11       	cpse	r24, r3
    181e:	0b c0       	rjmp	.+22     	; 0x1836 <SensorRead+0x454>
				{
					sensor_fail = TempToVariable(&GasReturn, &cel, &celfracs);
    1820:	ae 01       	movw	r20, r28
    1822:	4c 5f       	subi	r20, 0xFC	; 252
    1824:	5f 4f       	sbci	r21, 0xFF	; 255
    1826:	be 01       	movw	r22, r28
    1828:	6e 5f       	subi	r22, 0xFE	; 254
    182a:	7f 4f       	sbci	r23, 0xFF	; 255
    182c:	89 ea       	ldi	r24, 0xA9	; 169
    182e:	98 e0       	ldi	r25, 0x08	; 8
    1830:	0e 94 41 09 	call	0x1282	; 0x1282 <TempToVariable>
    1834:	28 2e       	mov	r2, r24
				}
				if (i == Forward.SensorID)
    1836:	80 91 f2 07 	lds	r24, 0x07F2	; 0x8007f2 <Forward+0x9>
    183a:	83 11       	cpse	r24, r3
    183c:	0b c0       	rjmp	.+22     	; 0x1854 <SensorRead+0x472>
				{
					sensor_fail = TempToVariable(&Forward, &cel, &celfracs);
    183e:	ae 01       	movw	r20, r28
    1840:	4c 5f       	subi	r20, 0xFC	; 252
    1842:	5f 4f       	sbci	r21, 0xFF	; 255
    1844:	be 01       	movw	r22, r28
    1846:	6e 5f       	subi	r22, 0xFE	; 254
    1848:	7f 4f       	sbci	r23, 0xFF	; 255
    184a:	89 ee       	ldi	r24, 0xE9	; 233
    184c:	97 e0       	ldi	r25, 0x07	; 7
    184e:	0e 94 41 09 	call	0x1282	; 0x1282 <TempToVariable>
    1852:	28 2e       	mov	r2, r24
				}
				if (i == Return.SensorID)
    1854:	80 91 fc 07 	lds	r24, 0x07FC	; 0x8007fc <Return+0x9>
    1858:	83 11       	cpse	r24, r3
    185a:	0b c0       	rjmp	.+22     	; 0x1872 <SensorRead+0x490>
				{
					sensor_fail = TempToVariable(&Return, &cel, &celfracs);
    185c:	ae 01       	movw	r20, r28
    185e:	4c 5f       	subi	r20, 0xFC	; 252
    1860:	5f 4f       	sbci	r21, 0xFF	; 255
    1862:	be 01       	movw	r22, r28
    1864:	6e 5f       	subi	r22, 0xFE	; 254
    1866:	7f 4f       	sbci	r23, 0xFF	; 255
    1868:	83 ef       	ldi	r24, 0xF3	; 243
    186a:	97 e0       	ldi	r25, 0x07	; 7
    186c:	0e 94 41 09 	call	0x1282	; 0x1282 <TempToVariable>
    1870:	28 2e       	mov	r2, r24
				}
				if (i == Mixed.SensorID)
    1872:	80 91 bc 08 	lds	r24, 0x08BC	; 0x8008bc <Mixed+0x9>
    1876:	83 11       	cpse	r24, r3
    1878:	0b c0       	rjmp	.+22     	; 0x1890 <SensorRead+0x4ae>
				{
					sensor_fail = TempToVariable(&Mixed, &cel, &celfracs);
    187a:	ae 01       	movw	r20, r28
    187c:	4c 5f       	subi	r20, 0xFC	; 252
    187e:	5f 4f       	sbci	r21, 0xFF	; 255
    1880:	be 01       	movw	r22, r28
    1882:	6e 5f       	subi	r22, 0xFE	; 254
    1884:	7f 4f       	sbci	r23, 0xFF	; 255
    1886:	83 eb       	ldi	r24, 0xB3	; 179
    1888:	98 e0       	ldi	r25, 0x08	; 8
    188a:	0e 94 41 09 	call	0x1282	; 0x1282 <TempToVariable>
    188e:	28 2e       	mov	r2, r24
				}
				i++;
    1890:	33 94       	inc	r3
		break;

		case (DS18B20State2):
			ow_set_bus(&DS18B20_PIN,&DS18B20_PORT,&DS18B20_DDR,DS18B20_PINx);
			i = 0;
			while (i < nSensors)
    1892:	80 91 cc 07 	lds	r24, 0x07CC	; 0x8007cc <nSensors>
    1896:	38 16       	cp	r3, r24
    1898:	08 f4       	brcc	.+2      	; 0x189c <SensorRead+0x4ba>
    189a:	c4 ce       	rjmp	.-632    	; 0x1624 <SensorRead+0x242>
					sensor_fail = TempToVariable(&Mixed, &cel, &celfracs);
				}
				i++;
			}

			timerstate++;
    189c:	80 91 05 07 	lds	r24, 0x0705	; 0x800705 <timerstate.2913>
    18a0:	8f 5f       	subi	r24, 0xFF	; 255
    18a2:	80 93 05 07 	sts	0x0705, r24	; 0x800705 <timerstate.2913>
		default:
			timerstate = 0;
		break;
	}

	web++;
    18a6:	80 91 04 07 	lds	r24, 0x0704	; 0x800704 <web.2915>
    18aa:	8f 5f       	subi	r24, 0xFF	; 255
    18ac:	80 93 04 07 	sts	0x0704, r24	; 0x800704 <web.2915>

	if (sensor_fail != 0)
    18b0:	21 10       	cpse	r2, r1
    18b2:	2a c1       	rjmp	.+596    	; 0x1b08 <SensorRead+0x726>
    18b4:	36 c1       	rjmp	.+620    	; 0x1b22 <SensorRead+0x740>

			timerstate++;
		break;

		case (ReportState1):
			isInitialized = 1;
    18b6:	81 e0       	ldi	r24, 0x01	; 1
    18b8:	80 93 07 07 	sts	0x0707, r24	; 0x800707 <isInitialized>
			if (web > 60)
    18bc:	80 91 04 07 	lds	r24, 0x0704	; 0x800704 <web.2915>
    18c0:	8d 33       	cpi	r24, 0x3D	; 61
    18c2:	08 f4       	brcc	.+2      	; 0x18c6 <SensorRead+0x4e4>
    18c4:	64 c0       	rjmp	.+200    	; 0x198e <SensorRead+0x5ac>
			{
				uart_puts_p(PSTR("S3;")); uart_puts(DHW.ActualTempBuffer); uart_puts_p(PSTR(".")); uart_puts(DHW.ActualTempFracBuffer); uart_puts_p(PSTR("\r"));
    18c6:	8a e9       	ldi	r24, 0x9A	; 154
    18c8:	93 e0       	ldi	r25, 0x03	; 3
    18ca:	0e 94 d6 27 	call	0x4fac	; 0x4fac <uart_puts_p>
    18ce:	87 e1       	ldi	r24, 0x17	; 23
    18d0:	98 e0       	ldi	r25, 0x08	; 8
    18d2:	0e 94 c7 27 	call	0x4f8e	; 0x4f8e <uart_puts>
    18d6:	88 e9       	ldi	r24, 0x98	; 152
    18d8:	93 e0       	ldi	r25, 0x03	; 3
    18da:	0e 94 d6 27 	call	0x4fac	; 0x4fac <uart_puts_p>
    18de:	8b e1       	ldi	r24, 0x1B	; 27
    18e0:	98 e0       	ldi	r25, 0x08	; 8
    18e2:	0e 94 c7 27 	call	0x4f8e	; 0x4f8e <uart_puts>
    18e6:	86 e9       	ldi	r24, 0x96	; 150
    18e8:	93 e0       	ldi	r25, 0x03	; 3
    18ea:	0e 94 d6 27 	call	0x4fac	; 0x4fac <uart_puts_p>
				uart_puts_p(PSTR("S4;")); uart_puts(Buffer.ActualTempBuffer); uart_puts_p(PSTR(".")); uart_puts(Buffer.ActualTempFracBuffer); uart_puts_p(PSTR("\r"));
    18ee:	82 e9       	ldi	r24, 0x92	; 146
    18f0:	93 e0       	ldi	r25, 0x03	; 3
    18f2:	0e 94 d6 27 	call	0x4fac	; 0x4fac <uart_puts_p>
    18f6:	80 e4       	ldi	r24, 0x40	; 64
    18f8:	98 e0       	ldi	r25, 0x08	; 8
    18fa:	0e 94 c7 27 	call	0x4f8e	; 0x4f8e <uart_puts>
    18fe:	80 e9       	ldi	r24, 0x90	; 144
    1900:	93 e0       	ldi	r25, 0x03	; 3
    1902:	0e 94 d6 27 	call	0x4fac	; 0x4fac <uart_puts_p>
    1906:	84 e4       	ldi	r24, 0x44	; 68
    1908:	98 e0       	ldi	r25, 0x08	; 8
    190a:	0e 94 c7 27 	call	0x4f8e	; 0x4f8e <uart_puts>
    190e:	8e e8       	ldi	r24, 0x8E	; 142
    1910:	93 e0       	ldi	r25, 0x03	; 3
    1912:	0e 94 d6 27 	call	0x4fac	; 0x4fac <uart_puts_p>
				uart_puts_p(PSTR("S5;")); uart_puts(Engineering.ActualTempBuffer); uart_puts_p(PSTR(".")); uart_puts(Engineering.ActualTempFracBuffer); uart_puts_p(PSTR("\r"));
    1916:	8a e8       	ldi	r24, 0x8A	; 138
    1918:	93 e0       	ldi	r25, 0x03	; 3
    191a:	0e 94 d6 27 	call	0x4fac	; 0x4fac <uart_puts_p>
    191e:	82 ee       	ldi	r24, 0xE2	; 226
    1920:	97 e0       	ldi	r25, 0x07	; 7
    1922:	0e 94 c7 27 	call	0x4f8e	; 0x4f8e <uart_puts>
    1926:	88 e8       	ldi	r24, 0x88	; 136
    1928:	93 e0       	ldi	r25, 0x03	; 3
    192a:	0e 94 d6 27 	call	0x4fac	; 0x4fac <uart_puts_p>
    192e:	86 ee       	ldi	r24, 0xE6	; 230
    1930:	97 e0       	ldi	r25, 0x07	; 7
    1932:	0e 94 c7 27 	call	0x4f8e	; 0x4f8e <uart_puts>
    1936:	86 e8       	ldi	r24, 0x86	; 134
    1938:	93 e0       	ldi	r25, 0x03	; 3
    193a:	0e 94 d6 27 	call	0x4fac	; 0x4fac <uart_puts_p>
				uart_puts_p(PSTR("S6;")); uart_puts(Garage.ActualTempBuffer); uart_puts_p(PSTR(".")); uart_puts(Garage.ActualTempFracBuffer); uart_puts_p(PSTR("\r"));
    193e:	82 e8       	ldi	r24, 0x82	; 130
    1940:	93 e0       	ldi	r25, 0x03	; 3
    1942:	0e 94 d6 27 	call	0x4fac	; 0x4fac <uart_puts_p>
    1946:	81 ed       	ldi	r24, 0xD1	; 209
    1948:	97 e0       	ldi	r25, 0x07	; 7
    194a:	0e 94 c7 27 	call	0x4f8e	; 0x4f8e <uart_puts>
    194e:	80 e8       	ldi	r24, 0x80	; 128
    1950:	93 e0       	ldi	r25, 0x03	; 3
    1952:	0e 94 d6 27 	call	0x4fac	; 0x4fac <uart_puts_p>
    1956:	85 ed       	ldi	r24, 0xD5	; 213
    1958:	97 e0       	ldi	r25, 0x07	; 7
    195a:	0e 94 c7 27 	call	0x4f8e	; 0x4f8e <uart_puts>
    195e:	8e e7       	ldi	r24, 0x7E	; 126
    1960:	93 e0       	ldi	r25, 0x03	; 3
    1962:	0e 94 d6 27 	call	0x4fac	; 0x4fac <uart_puts_p>
				uart_puts_p(PSTR("S7;")); uart_puts(LivingRoomTempBuf); uart_puts_p(PSTR(".")); uart_puts(LivingRoomTempFracBuf); uart_puts_p(PSTR("\n"));
    1966:	8a e7       	ldi	r24, 0x7A	; 122
    1968:	93 e0       	ldi	r25, 0x03	; 3
    196a:	0e 94 d6 27 	call	0x4fac	; 0x4fac <uart_puts_p>
    196e:	82 ec       	ldi	r24, 0xC2	; 194
    1970:	97 e0       	ldi	r25, 0x07	; 7
    1972:	0e 94 c7 27 	call	0x4f8e	; 0x4f8e <uart_puts>
    1976:	88 e7       	ldi	r24, 0x78	; 120
    1978:	93 e0       	ldi	r25, 0x03	; 3
    197a:	0e 94 d6 27 	call	0x4fac	; 0x4fac <uart_puts_p>
    197e:	86 e3       	ldi	r24, 0x36	; 54
    1980:	98 e0       	ldi	r25, 0x08	; 8
    1982:	0e 94 c7 27 	call	0x4f8e	; 0x4f8e <uart_puts>
    1986:	86 e7       	ldi	r24, 0x76	; 118
    1988:	93 e0       	ldi	r25, 0x03	; 3
    198a:	0e 94 d6 27 	call	0x4fac	; 0x4fac <uart_puts_p>
			}
			timerstate++;
    198e:	80 91 05 07 	lds	r24, 0x0705	; 0x800705 <timerstate.2913>
    1992:	8f 5f       	subi	r24, 0xFF	; 255
    1994:	80 93 05 07 	sts	0x0705, r24	; 0x800705 <timerstate.2913>
		break;
    1998:	54 c2       	rjmp	.+1192   	; 0x1e42 <SensorRead+0xa60>

		case (ReportState2):
			if (web > 60)
    199a:	80 91 04 07 	lds	r24, 0x0704	; 0x800704 <web.2915>
    199e:	8d 33       	cpi	r24, 0x3D	; 61
    19a0:	08 f4       	brcc	.+2      	; 0x19a4 <SensorRead+0x5c2>
    19a2:	54 c0       	rjmp	.+168    	; 0x1a4c <SensorRead+0x66a>
			{
				uart_puts_p(PSTR("S8;")); uart_puts(Floor.ActualTempBuffer); uart_puts_p(PSTR(".")); uart_puts(Floor.ActualTempFracBuffer); uart_puts_p(PSTR("\r"));
    19a4:	82 e7       	ldi	r24, 0x72	; 114
    19a6:	93 e0       	ldi	r25, 0x03	; 3
    19a8:	0e 94 d6 27 	call	0x4fac	; 0x4fac <uart_puts_p>
    19ac:	8d e0       	ldi	r24, 0x0D	; 13
    19ae:	98 e0       	ldi	r25, 0x08	; 8
    19b0:	0e 94 c7 27 	call	0x4f8e	; 0x4f8e <uart_puts>
    19b4:	80 e7       	ldi	r24, 0x70	; 112
    19b6:	93 e0       	ldi	r25, 0x03	; 3
    19b8:	0e 94 d6 27 	call	0x4fac	; 0x4fac <uart_puts_p>
    19bc:	81 e1       	ldi	r24, 0x11	; 17
    19be:	98 e0       	ldi	r25, 0x08	; 8
    19c0:	0e 94 c7 27 	call	0x4f8e	; 0x4f8e <uart_puts>
    19c4:	8e e6       	ldi	r24, 0x6E	; 110
    19c6:	93 e0       	ldi	r25, 0x03	; 3
    19c8:	0e 94 d6 27 	call	0x4fac	; 0x4fac <uart_puts_p>
				uart_puts_p(PSTR("S9;")); uart_puts(GasForward.ActualTempBuffer); uart_puts_p(PSTR(".")); uart_puts(GasForward.ActualTempFracBuffer); uart_puts_p(PSTR("\r"));
    19cc:	8a e6       	ldi	r24, 0x6A	; 106
    19ce:	93 e0       	ldi	r25, 0x03	; 3
    19d0:	0e 94 d6 27 	call	0x4fac	; 0x4fac <uart_puts_p>
    19d4:	81 e2       	ldi	r24, 0x21	; 33
    19d6:	98 e0       	ldi	r25, 0x08	; 8
    19d8:	0e 94 c7 27 	call	0x4f8e	; 0x4f8e <uart_puts>
    19dc:	88 e6       	ldi	r24, 0x68	; 104
    19de:	93 e0       	ldi	r25, 0x03	; 3
    19e0:	0e 94 d6 27 	call	0x4fac	; 0x4fac <uart_puts_p>
    19e4:	85 e2       	ldi	r24, 0x25	; 37
    19e6:	98 e0       	ldi	r25, 0x08	; 8
    19e8:	0e 94 c7 27 	call	0x4f8e	; 0x4f8e <uart_puts>
    19ec:	86 e6       	ldi	r24, 0x66	; 102
    19ee:	93 e0       	ldi	r25, 0x03	; 3
    19f0:	0e 94 d6 27 	call	0x4fac	; 0x4fac <uart_puts_p>
				uart_puts_p(PSTR("S10;")); uart_puts(GasReturn.ActualTempBuffer); uart_puts_p(PSTR(".")); uart_puts(GasReturn.ActualTempFracBuffer); uart_puts_p(PSTR("\r"));
    19f4:	81 e6       	ldi	r24, 0x61	; 97
    19f6:	93 e0       	ldi	r25, 0x03	; 3
    19f8:	0e 94 d6 27 	call	0x4fac	; 0x4fac <uart_puts_p>
    19fc:	8c ea       	ldi	r24, 0xAC	; 172
    19fe:	98 e0       	ldi	r25, 0x08	; 8
    1a00:	0e 94 c7 27 	call	0x4f8e	; 0x4f8e <uart_puts>
    1a04:	8f e5       	ldi	r24, 0x5F	; 95
    1a06:	93 e0       	ldi	r25, 0x03	; 3
    1a08:	0e 94 d6 27 	call	0x4fac	; 0x4fac <uart_puts_p>
    1a0c:	80 eb       	ldi	r24, 0xB0	; 176
    1a0e:	98 e0       	ldi	r25, 0x08	; 8
    1a10:	0e 94 c7 27 	call	0x4f8e	; 0x4f8e <uart_puts>
    1a14:	8d e5       	ldi	r24, 0x5D	; 93
    1a16:	93 e0       	ldi	r25, 0x03	; 3
    1a18:	0e 94 d6 27 	call	0x4fac	; 0x4fac <uart_puts_p>
				uart_puts_p(PSTR("S11;")); uart_puts(HIHxxxxTempBuf);  uart_puts_p(PSTR("\r"));
    1a1c:	88 e5       	ldi	r24, 0x58	; 88
    1a1e:	93 e0       	ldi	r25, 0x03	; 3
    1a20:	0e 94 d6 27 	call	0x4fac	; 0x4fac <uart_puts_p>
    1a24:	8e ef       	ldi	r24, 0xFE	; 254
    1a26:	97 e0       	ldi	r25, 0x07	; 7
    1a28:	0e 94 c7 27 	call	0x4f8e	; 0x4f8e <uart_puts>
    1a2c:	86 e5       	ldi	r24, 0x56	; 86
    1a2e:	93 e0       	ldi	r25, 0x03	; 3
    1a30:	0e 94 d6 27 	call	0x4fac	; 0x4fac <uart_puts_p>
				uart_puts_p(PSTR("S12;")); uart_puts(HIHxxxxHumidBuf); uart_puts_p(PSTR("\n"));
    1a34:	81 e5       	ldi	r24, 0x51	; 81
    1a36:	93 e0       	ldi	r25, 0x03	; 3
    1a38:	0e 94 d6 27 	call	0x4fac	; 0x4fac <uart_puts_p>
    1a3c:	88 ed       	ldi	r24, 0xD8	; 216
    1a3e:	97 e0       	ldi	r25, 0x07	; 7
    1a40:	0e 94 c7 27 	call	0x4f8e	; 0x4f8e <uart_puts>
    1a44:	8f e4       	ldi	r24, 0x4F	; 79
    1a46:	93 e0       	ldi	r25, 0x03	; 3
    1a48:	0e 94 d6 27 	call	0x4fac	; 0x4fac <uart_puts_p>
			}
			timerstate++;
    1a4c:	80 91 05 07 	lds	r24, 0x0705	; 0x800705 <timerstate.2913>
    1a50:	8f 5f       	subi	r24, 0xFF	; 255
    1a52:	80 93 05 07 	sts	0x0705, r24	; 0x800705 <timerstate.2913>
		break;
    1a56:	f5 c1       	rjmp	.+1002   	; 0x1e42 <SensorRead+0xa60>
			
		case (ReportState3):
			if (web > 60)
    1a58:	80 91 04 07 	lds	r24, 0x0704	; 0x800704 <web.2915>
    1a5c:	8d 33       	cpi	r24, 0x3D	; 61
    1a5e:	08 f4       	brcc	.+2      	; 0x1a62 <SensorRead+0x680>
    1a60:	4a c0       	rjmp	.+148    	; 0x1af6 <SensorRead+0x714>
			{
				uart_puts_p(PSTR("S13;")); uart_puts(Forward.ActualTempBuffer); uart_puts_p(PSTR(".")); uart_puts(Forward.ActualTempFracBuffer); uart_puts_p(PSTR("\r"));
    1a62:	8a e4       	ldi	r24, 0x4A	; 74
    1a64:	93 e0       	ldi	r25, 0x03	; 3
    1a66:	0e 94 d6 27 	call	0x4fac	; 0x4fac <uart_puts_p>
    1a6a:	8c ee       	ldi	r24, 0xEC	; 236
    1a6c:	97 e0       	ldi	r25, 0x07	; 7
    1a6e:	0e 94 c7 27 	call	0x4f8e	; 0x4f8e <uart_puts>
    1a72:	88 e4       	ldi	r24, 0x48	; 72
    1a74:	93 e0       	ldi	r25, 0x03	; 3
    1a76:	0e 94 d6 27 	call	0x4fac	; 0x4fac <uart_puts_p>
    1a7a:	80 ef       	ldi	r24, 0xF0	; 240
    1a7c:	97 e0       	ldi	r25, 0x07	; 7
    1a7e:	0e 94 c7 27 	call	0x4f8e	; 0x4f8e <uart_puts>
    1a82:	86 e4       	ldi	r24, 0x46	; 70
    1a84:	93 e0       	ldi	r25, 0x03	; 3
    1a86:	0e 94 d6 27 	call	0x4fac	; 0x4fac <uart_puts_p>
				uart_puts_p(PSTR("S14;")); uart_puts(Return.ActualTempBuffer); uart_puts_p(PSTR(".")); uart_puts(Return.ActualTempFracBuffer); uart_puts_p(PSTR("\r"));
    1a8a:	81 e4       	ldi	r24, 0x41	; 65
    1a8c:	93 e0       	ldi	r25, 0x03	; 3
    1a8e:	0e 94 d6 27 	call	0x4fac	; 0x4fac <uart_puts_p>
    1a92:	86 ef       	ldi	r24, 0xF6	; 246
    1a94:	97 e0       	ldi	r25, 0x07	; 7
    1a96:	0e 94 c7 27 	call	0x4f8e	; 0x4f8e <uart_puts>
    1a9a:	8f e3       	ldi	r24, 0x3F	; 63
    1a9c:	93 e0       	ldi	r25, 0x03	; 3
    1a9e:	0e 94 d6 27 	call	0x4fac	; 0x4fac <uart_puts_p>
    1aa2:	8a ef       	ldi	r24, 0xFA	; 250
    1aa4:	97 e0       	ldi	r25, 0x07	; 7
    1aa6:	0e 94 c7 27 	call	0x4f8e	; 0x4f8e <uart_puts>
    1aaa:	8d e3       	ldi	r24, 0x3D	; 61
    1aac:	93 e0       	ldi	r25, 0x03	; 3
    1aae:	0e 94 d6 27 	call	0x4fac	; 0x4fac <uart_puts_p>
				uart_puts_p(PSTR("S15;")); uart_puts(Mixed.ActualTempBuffer); uart_puts_p(PSTR(".")); uart_puts(Mixed.ActualTempFracBuffer); uart_puts_p(PSTR("\r"));
    1ab2:	88 e3       	ldi	r24, 0x38	; 56
    1ab4:	93 e0       	ldi	r25, 0x03	; 3
    1ab6:	0e 94 d6 27 	call	0x4fac	; 0x4fac <uart_puts_p>
    1aba:	86 eb       	ldi	r24, 0xB6	; 182
    1abc:	98 e0       	ldi	r25, 0x08	; 8
    1abe:	0e 94 c7 27 	call	0x4f8e	; 0x4f8e <uart_puts>
    1ac2:	86 e3       	ldi	r24, 0x36	; 54
    1ac4:	93 e0       	ldi	r25, 0x03	; 3
    1ac6:	0e 94 d6 27 	call	0x4fac	; 0x4fac <uart_puts_p>
    1aca:	8a eb       	ldi	r24, 0xBA	; 186
    1acc:	98 e0       	ldi	r25, 0x08	; 8
    1ace:	0e 94 c7 27 	call	0x4f8e	; 0x4f8e <uart_puts>
    1ad2:	84 e3       	ldi	r24, 0x34	; 52
    1ad4:	93 e0       	ldi	r25, 0x03	; 3
    1ad6:	0e 94 d6 27 	call	0x4fac	; 0x4fac <uart_puts_p>
				uart_puts_p(PSTR("S16;")); uart_puti((int)relmodlevel); uart_puts_p(PSTR("\n"));
    1ada:	8f e2       	ldi	r24, 0x2F	; 47
    1adc:	93 e0       	ldi	r25, 0x03	; 3
    1ade:	0e 94 d6 27 	call	0x4fac	; 0x4fac <uart_puts_p>
    1ae2:	80 e0       	ldi	r24, 0x00	; 0
    1ae4:	90 e0       	ldi	r25, 0x00	; 0
    1ae6:	0e 94 54 28 	call	0x50a8	; 0x50a8 <uart_puti>
    1aea:	8d e2       	ldi	r24, 0x2D	; 45
    1aec:	93 e0       	ldi	r25, 0x03	; 3
    1aee:	0e 94 d6 27 	call	0x4fac	; 0x4fac <uart_puts_p>
				web = 0;
    1af2:	10 92 04 07 	sts	0x0704, r1	; 0x800704 <web.2915>
			}
			timerstate++;
    1af6:	80 91 05 07 	lds	r24, 0x0705	; 0x800705 <timerstate.2913>
    1afa:	8f 5f       	subi	r24, 0xFF	; 255
    1afc:	80 93 05 07 	sts	0x0705, r24	; 0x800705 <timerstate.2913>
		break;
    1b00:	a0 c1       	rjmp	.+832    	; 0x1e42 <SensorRead+0xa60>

		default:
			timerstate = 0;
    1b02:	10 92 05 07 	sts	0x0705, r1	; 0x800705 <timerstate.2913>
		break;
    1b06:	9d c1       	rjmp	.+826    	; 0x1e42 <SensorRead+0xa60>

	web++;

	if (sensor_fail != 0)
	{
		ow_set_bus(&PINB,&PORTB,&DDRB,PINB0);
    1b08:	20 e0       	ldi	r18, 0x00	; 0
    1b0a:	47 e3       	ldi	r20, 0x37	; 55
    1b0c:	50 e0       	ldi	r21, 0x00	; 0
    1b0e:	68 e3       	ldi	r22, 0x38	; 56
    1b10:	70 e0       	ldi	r23, 0x00	; 0
    1b12:	86 e3       	ldi	r24, 0x36	; 54
    1b14:	90 e0       	ldi	r25, 0x00	; 0
    1b16:	0e 94 76 05 	call	0xaec	; 0xaec <ow_set_bus>
		nSensors = search_sensors();
    1b1a:	0e 94 8c 09 	call	0x1318	; 0x1318 <search_sensors>
    1b1e:	80 93 cc 07 	sts	0x07CC, r24	; 0x8007cc <nSensors>
		sensor_fail = 0;
	}

	if (MenuTimer == 0)
    1b22:	80 91 13 01 	lds	r24, 0x0113	; 0x800113 <MenuTimer>
    1b26:	81 11       	cpse	r24, r1
    1b28:	88 c1       	rjmp	.+784    	; 0x1e3a <SensorRead+0xa58>
	{
		
		if (display == 20)
    1b2a:	80 91 00 01 	lds	r24, 0x0100	; 0x800100 <__data_start>
    1b2e:	84 31       	cpi	r24, 0x14	; 20
    1b30:	09 f0       	breq	.+2      	; 0x1b34 <SensorRead+0x752>
    1b32:	57 c0       	rjmp	.+174    	; 0x1be2 <SensorRead+0x800>
		{
			lcd_clrscr();
    1b34:	0e 94 04 08 	call	0x1008	; 0x1008 <lcd_clrscr>
			lcd_puts_p(PSTR("HMV ")); lcd_puts(DHW.ActualTempBuffer); lcd_puts_p(PSTR(".")), lcd_puts(DHW.ActualTempFracBuffer); lcd_puts_p(PSTR(" C"));
    1b38:	88 e2       	ldi	r24, 0x28	; 40
    1b3a:	93 e0       	ldi	r25, 0x03	; 3
    1b3c:	0e 94 28 08 	call	0x1050	; 0x1050 <lcd_puts_p>
    1b40:	87 e1       	ldi	r24, 0x17	; 23
    1b42:	98 e0       	ldi	r25, 0x08	; 8
    1b44:	0e 94 bd 08 	call	0x117a	; 0x117a <lcd_puts>
    1b48:	86 e2       	ldi	r24, 0x26	; 38
    1b4a:	93 e0       	ldi	r25, 0x03	; 3
    1b4c:	0e 94 28 08 	call	0x1050	; 0x1050 <lcd_puts_p>
    1b50:	8b e1       	ldi	r24, 0x1B	; 27
    1b52:	98 e0       	ldi	r25, 0x08	; 8
    1b54:	0e 94 bd 08 	call	0x117a	; 0x117a <lcd_puts>
    1b58:	83 e2       	ldi	r24, 0x23	; 35
    1b5a:	93 e0       	ldi	r25, 0x03	; 3
    1b5c:	0e 94 28 08 	call	0x1050	; 0x1050 <lcd_puts_p>
			lcd_gotoxy(0,1);
    1b60:	61 e0       	ldi	r22, 0x01	; 1
    1b62:	80 e0       	ldi	r24, 0x00	; 0
    1b64:	0e 94 ee 07 	call	0xfdc	; 0xfdc <lcd_gotoxy>
			lcd_puts_p(PSTR("Puffer ")); lcd_puts(Buffer.ActualTempBuffer); lcd_puts_p(PSTR(".")), lcd_puts(Buffer.ActualTempFracBuffer); lcd_puts_p(PSTR(" C"));
    1b68:	8b e1       	ldi	r24, 0x1B	; 27
    1b6a:	93 e0       	ldi	r25, 0x03	; 3
    1b6c:	0e 94 28 08 	call	0x1050	; 0x1050 <lcd_puts_p>
    1b70:	80 e4       	ldi	r24, 0x40	; 64
    1b72:	98 e0       	ldi	r25, 0x08	; 8
    1b74:	0e 94 bd 08 	call	0x117a	; 0x117a <lcd_puts>
    1b78:	89 e1       	ldi	r24, 0x19	; 25
    1b7a:	93 e0       	ldi	r25, 0x03	; 3
    1b7c:	0e 94 28 08 	call	0x1050	; 0x1050 <lcd_puts_p>
    1b80:	84 e4       	ldi	r24, 0x44	; 68
    1b82:	98 e0       	ldi	r25, 0x08	; 8
    1b84:	0e 94 bd 08 	call	0x117a	; 0x117a <lcd_puts>
    1b88:	86 e1       	ldi	r24, 0x16	; 22
    1b8a:	93 e0       	ldi	r25, 0x03	; 3
    1b8c:	0e 94 28 08 	call	0x1050	; 0x1050 <lcd_puts_p>
			lcd_gotoxy(0,2);
    1b90:	62 e0       	ldi	r22, 0x02	; 2
    1b92:	80 e0       	ldi	r24, 0x00	; 0
    1b94:	0e 94 ee 07 	call	0xfdc	; 0xfdc <lcd_gotoxy>
			lcd_puts_hu(PSTR("Gépház ")); lcd_puts(Engineering.ActualTempBuffer); lcd_puts_p(PSTR(".")), lcd_puts(Engineering.ActualTempFracBuffer); lcd_puts_p(PSTR(" C"));
    1b98:	8e e0       	ldi	r24, 0x0E	; 14
    1b9a:	93 e0       	ldi	r25, 0x03	; 3
    1b9c:	0e 94 ef 08 	call	0x11de	; 0x11de <lcd_puts_hu>
    1ba0:	82 ee       	ldi	r24, 0xE2	; 226
    1ba2:	97 e0       	ldi	r25, 0x07	; 7
    1ba4:	0e 94 bd 08 	call	0x117a	; 0x117a <lcd_puts>
    1ba8:	8c e0       	ldi	r24, 0x0C	; 12
    1baa:	93 e0       	ldi	r25, 0x03	; 3
    1bac:	0e 94 28 08 	call	0x1050	; 0x1050 <lcd_puts_p>
    1bb0:	86 ee       	ldi	r24, 0xE6	; 230
    1bb2:	97 e0       	ldi	r25, 0x07	; 7
    1bb4:	0e 94 bd 08 	call	0x117a	; 0x117a <lcd_puts>
    1bb8:	89 e0       	ldi	r24, 0x09	; 9
    1bba:	93 e0       	ldi	r25, 0x03	; 3
    1bbc:	0e 94 28 08 	call	0x1050	; 0x1050 <lcd_puts_p>
			lcd_gotoxy(0,3);
    1bc0:	63 e0       	ldi	r22, 0x03	; 3
    1bc2:	80 e0       	ldi	r24, 0x00	; 0
    1bc4:	0e 94 ee 07 	call	0xfdc	; 0xfdc <lcd_gotoxy>
			lcd_puts_hu(PSTR("Külsõ ")); lcd_puts(HIHxxxxTempBuf); lcd_puts_p(PSTR(" C"));
    1bc8:	82 e0       	ldi	r24, 0x02	; 2
    1bca:	93 e0       	ldi	r25, 0x03	; 3
    1bcc:	0e 94 ef 08 	call	0x11de	; 0x11de <lcd_puts_hu>
    1bd0:	8e ef       	ldi	r24, 0xFE	; 254
    1bd2:	97 e0       	ldi	r25, 0x07	; 7
    1bd4:	0e 94 bd 08 	call	0x117a	; 0x117a <lcd_puts>
    1bd8:	8f ef       	ldi	r24, 0xFF	; 255
    1bda:	92 e0       	ldi	r25, 0x02	; 2
    1bdc:	0e 94 28 08 	call	0x1050	; 0x1050 <lcd_puts_p>
    1be0:	21 c1       	rjmp	.+578    	; 0x1e24 <SensorRead+0xa42>
		}
		else if (display == 15)
    1be2:	8f 30       	cpi	r24, 0x0F	; 15
    1be4:	09 f0       	breq	.+2      	; 0x1be8 <SensorRead+0x806>
    1be6:	47 c0       	rjmp	.+142    	; 0x1c76 <SensorRead+0x894>
		{
			lcd_clrscr();
    1be8:	0e 94 04 08 	call	0x1008	; 0x1008 <lcd_clrscr>
			lcd_puts_hu(PSTR("Garázs ")); lcd_puts(Garage.ActualTempBuffer); lcd_puts_p(PSTR(".")), lcd_puts(Garage.ActualTempFracBuffer); lcd_puts_p(PSTR(" C"));
    1bec:	87 ef       	ldi	r24, 0xF7	; 247
    1bee:	92 e0       	ldi	r25, 0x02	; 2
    1bf0:	0e 94 ef 08 	call	0x11de	; 0x11de <lcd_puts_hu>
    1bf4:	81 ed       	ldi	r24, 0xD1	; 209
    1bf6:	97 e0       	ldi	r25, 0x07	; 7
    1bf8:	0e 94 bd 08 	call	0x117a	; 0x117a <lcd_puts>
    1bfc:	85 ef       	ldi	r24, 0xF5	; 245
    1bfe:	92 e0       	ldi	r25, 0x02	; 2
    1c00:	0e 94 28 08 	call	0x1050	; 0x1050 <lcd_puts_p>
    1c04:	85 ed       	ldi	r24, 0xD5	; 213
    1c06:	97 e0       	ldi	r25, 0x07	; 7
    1c08:	0e 94 bd 08 	call	0x117a	; 0x117a <lcd_puts>
    1c0c:	82 ef       	ldi	r24, 0xF2	; 242
    1c0e:	92 e0       	ldi	r25, 0x02	; 2
    1c10:	0e 94 28 08 	call	0x1050	; 0x1050 <lcd_puts_p>
			lcd_gotoxy(0,1);
    1c14:	61 e0       	ldi	r22, 0x01	; 1
    1c16:	80 e0       	ldi	r24, 0x00	; 0
    1c18:	0e 94 ee 07 	call	0xfdc	; 0xfdc <lcd_gotoxy>
			lcd_puts_p(PSTR("Nappali ")); lcd_puts(LivingRoomTempBuf); lcd_puts_p(PSTR(".")), lcd_puts(LivingRoomTempFracBuf); lcd_puts_p(PSTR(" C"));
    1c1c:	89 ee       	ldi	r24, 0xE9	; 233
    1c1e:	92 e0       	ldi	r25, 0x02	; 2
    1c20:	0e 94 28 08 	call	0x1050	; 0x1050 <lcd_puts_p>
    1c24:	82 ec       	ldi	r24, 0xC2	; 194
    1c26:	97 e0       	ldi	r25, 0x07	; 7
    1c28:	0e 94 bd 08 	call	0x117a	; 0x117a <lcd_puts>
    1c2c:	87 ee       	ldi	r24, 0xE7	; 231
    1c2e:	92 e0       	ldi	r25, 0x02	; 2
    1c30:	0e 94 28 08 	call	0x1050	; 0x1050 <lcd_puts_p>
    1c34:	86 e3       	ldi	r24, 0x36	; 54
    1c36:	98 e0       	ldi	r25, 0x08	; 8
    1c38:	0e 94 bd 08 	call	0x117a	; 0x117a <lcd_puts>
    1c3c:	84 ee       	ldi	r24, 0xE4	; 228
    1c3e:	92 e0       	ldi	r25, 0x02	; 2
    1c40:	0e 94 28 08 	call	0x1050	; 0x1050 <lcd_puts_p>
			lcd_gotoxy(0,2);
    1c44:	62 e0       	ldi	r22, 0x02	; 2
    1c46:	80 e0       	ldi	r24, 0x00	; 0
    1c48:	0e 94 ee 07 	call	0xfdc	; 0xfdc <lcd_gotoxy>
			lcd_puts_hu(PSTR("Padló ")); lcd_puts(Floor.ActualTempBuffer); lcd_puts_p(PSTR(".")), lcd_puts(Floor.ActualTempFracBuffer); lcd_puts_p(PSTR(" C"));
    1c4c:	8d ed       	ldi	r24, 0xDD	; 221
    1c4e:	92 e0       	ldi	r25, 0x02	; 2
    1c50:	0e 94 ef 08 	call	0x11de	; 0x11de <lcd_puts_hu>
    1c54:	8d e0       	ldi	r24, 0x0D	; 13
    1c56:	98 e0       	ldi	r25, 0x08	; 8
    1c58:	0e 94 bd 08 	call	0x117a	; 0x117a <lcd_puts>
    1c5c:	8b ed       	ldi	r24, 0xDB	; 219
    1c5e:	92 e0       	ldi	r25, 0x02	; 2
    1c60:	0e 94 28 08 	call	0x1050	; 0x1050 <lcd_puts_p>
    1c64:	81 e1       	ldi	r24, 0x11	; 17
    1c66:	98 e0       	ldi	r25, 0x08	; 8
    1c68:	0e 94 bd 08 	call	0x117a	; 0x117a <lcd_puts>
    1c6c:	88 ed       	ldi	r24, 0xD8	; 216
    1c6e:	92 e0       	ldi	r25, 0x02	; 2
    1c70:	0e 94 28 08 	call	0x1050	; 0x1050 <lcd_puts_p>
    1c74:	d7 c0       	rjmp	.+430    	; 0x1e24 <SensorRead+0xa42>
		}
		else if (display == 10)
    1c76:	8a 30       	cpi	r24, 0x0A	; 10
    1c78:	09 f0       	breq	.+2      	; 0x1c7c <SensorRead+0x89a>
    1c7a:	91 c0       	rjmp	.+290    	; 0x1d9e <SensorRead+0x9bc>
		{
			lcd_clrscr();
    1c7c:	0e 94 04 08 	call	0x1008	; 0x1008 <lcd_clrscr>
			lcd_puts_hu(PSTR("Elõremenõ ")); lcd_puts(GasForward.ActualTempBuffer); lcd_puts_p(PSTR(".")), lcd_puts(GasForward.ActualTempFracBuffer); lcd_puts_p(PSTR(" C"));
    1c80:	8d ec       	ldi	r24, 0xCD	; 205
    1c82:	92 e0       	ldi	r25, 0x02	; 2
    1c84:	0e 94 ef 08 	call	0x11de	; 0x11de <lcd_puts_hu>
    1c88:	81 e2       	ldi	r24, 0x21	; 33
    1c8a:	98 e0       	ldi	r25, 0x08	; 8
    1c8c:	0e 94 bd 08 	call	0x117a	; 0x117a <lcd_puts>
    1c90:	8b ec       	ldi	r24, 0xCB	; 203
    1c92:	92 e0       	ldi	r25, 0x02	; 2
    1c94:	0e 94 28 08 	call	0x1050	; 0x1050 <lcd_puts_p>
    1c98:	85 e2       	ldi	r24, 0x25	; 37
    1c9a:	98 e0       	ldi	r25, 0x08	; 8
    1c9c:	0e 94 bd 08 	call	0x117a	; 0x117a <lcd_puts>
    1ca0:	88 ec       	ldi	r24, 0xC8	; 200
    1ca2:	92 e0       	ldi	r25, 0x02	; 2
    1ca4:	0e 94 28 08 	call	0x1050	; 0x1050 <lcd_puts_p>
			lcd_gotoxy(0,1);
    1ca8:	61 e0       	ldi	r22, 0x01	; 1
    1caa:	80 e0       	ldi	r24, 0x00	; 0
    1cac:	0e 94 ee 07 	call	0xfdc	; 0xfdc <lcd_gotoxy>
			lcd_puts_hu(PSTR("Visszatérõ ")); lcd_puts(GasReturn.ActualTempBuffer); lcd_puts_p(PSTR(".")), lcd_puts(GasReturn.ActualTempFracBuffer); lcd_puts_p(PSTR(" C"));
    1cb0:	8c eb       	ldi	r24, 0xBC	; 188
    1cb2:	92 e0       	ldi	r25, 0x02	; 2
    1cb4:	0e 94 ef 08 	call	0x11de	; 0x11de <lcd_puts_hu>
    1cb8:	8c ea       	ldi	r24, 0xAC	; 172
    1cba:	98 e0       	ldi	r25, 0x08	; 8
    1cbc:	0e 94 bd 08 	call	0x117a	; 0x117a <lcd_puts>
    1cc0:	8a eb       	ldi	r24, 0xBA	; 186
    1cc2:	92 e0       	ldi	r25, 0x02	; 2
    1cc4:	0e 94 28 08 	call	0x1050	; 0x1050 <lcd_puts_p>
    1cc8:	80 eb       	ldi	r24, 0xB0	; 176
    1cca:	98 e0       	ldi	r25, 0x08	; 8
    1ccc:	0e 94 bd 08 	call	0x117a	; 0x117a <lcd_puts>
    1cd0:	87 eb       	ldi	r24, 0xB7	; 183
    1cd2:	92 e0       	ldi	r25, 0x02	; 2
    1cd4:	0e 94 28 08 	call	0x1050	; 0x1050 <lcd_puts_p>
			lcd_gotoxy(0,2);
    1cd8:	62 e0       	ldi	r22, 0x02	; 2
    1cda:	80 e0       	ldi	r24, 0x00	; 0
    1cdc:	0e 94 ee 07 	call	0xfdc	; 0xfdc <lcd_gotoxy>
			lcd_puti(Hour); lcd_puts_p(PSTR(":")); lcd_puti(Minute);
    1ce0:	80 91 0b 07 	lds	r24, 0x070B	; 0x80070b <Hour>
    1ce4:	90 e0       	ldi	r25, 0x00	; 0
    1ce6:	0e 94 cd 08 	call	0x119a	; 0x119a <lcd_puti>
    1cea:	85 eb       	ldi	r24, 0xB5	; 181
    1cec:	92 e0       	ldi	r25, 0x02	; 2
    1cee:	0e 94 28 08 	call	0x1050	; 0x1050 <lcd_puts_p>
    1cf2:	80 91 0a 07 	lds	r24, 0x070A	; 0x80070a <Minute>
    1cf6:	90 e0       	ldi	r25, 0x00	; 0
    1cf8:	0e 94 cd 08 	call	0x119a	; 0x119a <lcd_puti>
			lcd_gotoxy(0,3);
    1cfc:	63 e0       	ldi	r22, 0x03	; 3
    1cfe:	80 e0       	ldi	r24, 0x00	; 0
    1d00:	0e 94 ee 07 	call	0xfdc	; 0xfdc <lcd_gotoxy>
			lcd_puti(Year); lcd_puts_p(PSTR(".")); lcd_puti(Month); lcd_puts_p(PSTR(".")); lcd_puti(Day);
    1d04:	80 91 04 01 	lds	r24, 0x0104	; 0x800104 <Year>
    1d08:	90 91 05 01 	lds	r25, 0x0105	; 0x800105 <Year+0x1>
    1d0c:	0e 94 cd 08 	call	0x119a	; 0x119a <lcd_puti>
    1d10:	83 eb       	ldi	r24, 0xB3	; 179
    1d12:	92 e0       	ldi	r25, 0x02	; 2
    1d14:	0e 94 28 08 	call	0x1050	; 0x1050 <lcd_puts_p>
    1d18:	80 91 03 01 	lds	r24, 0x0103	; 0x800103 <Month>
    1d1c:	90 e0       	ldi	r25, 0x00	; 0
    1d1e:	0e 94 cd 08 	call	0x119a	; 0x119a <lcd_puti>
    1d22:	81 eb       	ldi	r24, 0xB1	; 177
    1d24:	92 e0       	ldi	r25, 0x02	; 2
    1d26:	0e 94 28 08 	call	0x1050	; 0x1050 <lcd_puts_p>
    1d2a:	80 91 02 01 	lds	r24, 0x0102	; 0x800102 <Day>
    1d2e:	90 e0       	ldi	r25, 0x00	; 0
    1d30:	0e 94 cd 08 	call	0x119a	; 0x119a <lcd_puti>
			lcd_gotoxy(12,3);
    1d34:	63 e0       	ldi	r22, 0x03	; 3
    1d36:	8c e0       	ldi	r24, 0x0C	; 12
    1d38:	0e 94 ee 07 	call	0xfdc	; 0xfdc <lcd_gotoxy>
			switch (DayName)
    1d3c:	e0 91 01 01 	lds	r30, 0x0101	; 0x800101 <DayName>
    1d40:	8e 2f       	mov	r24, r30
    1d42:	90 e0       	ldi	r25, 0x00	; 0
    1d44:	fc 01       	movw	r30, r24
    1d46:	31 97       	sbiw	r30, 0x01	; 1
    1d48:	e7 30       	cpi	r30, 0x07	; 7
    1d4a:	f1 05       	cpc	r31, r1
    1d4c:	08 f0       	brcs	.+2      	; 0x1d50 <SensorRead+0x96e>
    1d4e:	6a c0       	rjmp	.+212    	; 0x1e24 <SensorRead+0xa42>
    1d50:	e7 57       	subi	r30, 0x77	; 119
    1d52:	ff 4f       	sbci	r31, 0xFF	; 255
    1d54:	0c 94 38 2b 	jmp	0x5670	; 0x5670 <__tablejump2__>
			{
				case 1:
					lcd_puts_hu(PSTR("hétfõ"));
    1d58:	8b ea       	ldi	r24, 0xAB	; 171
    1d5a:	92 e0       	ldi	r25, 0x02	; 2
    1d5c:	0e 94 ef 08 	call	0x11de	; 0x11de <lcd_puts_hu>
					break;
    1d60:	61 c0       	rjmp	.+194    	; 0x1e24 <SensorRead+0xa42>
				case 2:
					lcd_puts_hu(PSTR("kedd"));
    1d62:	86 ea       	ldi	r24, 0xA6	; 166
    1d64:	92 e0       	ldi	r25, 0x02	; 2
    1d66:	0e 94 ef 08 	call	0x11de	; 0x11de <lcd_puts_hu>
					break;
    1d6a:	5c c0       	rjmp	.+184    	; 0x1e24 <SensorRead+0xa42>
				case 3:
					lcd_puts_hu(PSTR("szerda"));
    1d6c:	8f e9       	ldi	r24, 0x9F	; 159
    1d6e:	92 e0       	ldi	r25, 0x02	; 2
    1d70:	0e 94 ef 08 	call	0x11de	; 0x11de <lcd_puts_hu>
					break;
    1d74:	57 c0       	rjmp	.+174    	; 0x1e24 <SensorRead+0xa42>
				case 4:
					lcd_puts_hu(PSTR("csüt"));
    1d76:	8a e9       	ldi	r24, 0x9A	; 154
    1d78:	92 e0       	ldi	r25, 0x02	; 2
    1d7a:	0e 94 ef 08 	call	0x11de	; 0x11de <lcd_puts_hu>
					break;
    1d7e:	52 c0       	rjmp	.+164    	; 0x1e24 <SensorRead+0xa42>
				case 5:
					lcd_puts_hu(PSTR("péntek"));
    1d80:	83 e9       	ldi	r24, 0x93	; 147
    1d82:	92 e0       	ldi	r25, 0x02	; 2
    1d84:	0e 94 ef 08 	call	0x11de	; 0x11de <lcd_puts_hu>
					break;
    1d88:	4d c0       	rjmp	.+154    	; 0x1e24 <SensorRead+0xa42>
				case 6:
					lcd_puts_hu(PSTR("szombat"));
    1d8a:	8b e8       	ldi	r24, 0x8B	; 139
    1d8c:	92 e0       	ldi	r25, 0x02	; 2
    1d8e:	0e 94 ef 08 	call	0x11de	; 0x11de <lcd_puts_hu>
					break;
    1d92:	48 c0       	rjmp	.+144    	; 0x1e24 <SensorRead+0xa42>
				case 7:
					lcd_puts_hu(PSTR("vasárnap"));
    1d94:	82 e8       	ldi	r24, 0x82	; 130
    1d96:	92 e0       	ldi	r25, 0x02	; 2
    1d98:	0e 94 ef 08 	call	0x11de	; 0x11de <lcd_puts_hu>
					break;
    1d9c:	43 c0       	rjmp	.+134    	; 0x1e24 <SensorRead+0xa42>
			}
		}
		else if (display == 5)
    1d9e:	85 30       	cpi	r24, 0x05	; 5
    1da0:	09 f0       	breq	.+2      	; 0x1da4 <SensorRead+0x9c2>
    1da2:	40 c0       	rjmp	.+128    	; 0x1e24 <SensorRead+0xa42>
		{
			lcd_clrscr();
    1da4:	0e 94 04 08 	call	0x1008	; 0x1008 <lcd_clrscr>
			lcd_puts_p(PSTR("HMV szelep ")); lcd_putbit(Relays, DHW_VALVE_RELAY); lcd_gotoxy(15,0);
    1da8:	86 e7       	ldi	r24, 0x76	; 118
    1daa:	92 e0       	ldi	r25, 0x02	; 2
    1dac:	0e 94 28 08 	call	0x1050	; 0x1050 <lcd_puts_p>
    1db0:	60 e0       	ldi	r22, 0x00	; 0
    1db2:	80 91 0c 07 	lds	r24, 0x070C	; 0x80070c <Relays>
    1db6:	0e 94 8c 08 	call	0x1118	; 0x1118 <lcd_putbit>
    1dba:	60 e0       	ldi	r22, 0x00	; 0
    1dbc:	8f e0       	ldi	r24, 0x0F	; 15
    1dbe:	0e 94 ee 07 	call	0xfdc	; 0xfdc <lcd_gotoxy>
			lcd_gotoxy(0,1);
    1dc2:	61 e0       	ldi	r22, 0x01	; 1
    1dc4:	80 e0       	ldi	r24, 0x00	; 0
    1dc6:	0e 94 ee 07 	call	0xfdc	; 0xfdc <lcd_gotoxy>
			lcd_puts_hu(PSTR("Gáz relé ")); lcd_putbit(Relays, GAS_RELAY);
    1dca:	8c e6       	ldi	r24, 0x6C	; 108
    1dcc:	92 e0       	ldi	r25, 0x02	; 2
    1dce:	0e 94 ef 08 	call	0x11de	; 0x11de <lcd_puts_hu>
    1dd2:	61 e0       	ldi	r22, 0x01	; 1
    1dd4:	80 91 0c 07 	lds	r24, 0x070C	; 0x80070c <Relays>
    1dd8:	0e 94 8c 08 	call	0x1118	; 0x1118 <lcd_putbit>
			lcd_gotoxy(0,2);
    1ddc:	62 e0       	ldi	r22, 0x02	; 2
    1dde:	80 e0       	ldi	r24, 0x00	; 0
    1de0:	0e 94 ee 07 	call	0xfdc	; 0xfdc <lcd_gotoxy>
			lcd_puts_p(PSTR("Puffer sz/p ")); lcd_putbit(Relays, BUFFER_VALVE_RELAY); lcd_putbit(Relays, BUFFER_PUMP_RELAY);
    1de4:	8f e5       	ldi	r24, 0x5F	; 95
    1de6:	92 e0       	ldi	r25, 0x02	; 2
    1de8:	0e 94 28 08 	call	0x1050	; 0x1050 <lcd_puts_p>
    1dec:	65 e0       	ldi	r22, 0x05	; 5
    1dee:	80 91 0c 07 	lds	r24, 0x070C	; 0x80070c <Relays>
    1df2:	0e 94 8c 08 	call	0x1118	; 0x1118 <lcd_putbit>
    1df6:	64 e0       	ldi	r22, 0x04	; 4
    1df8:	80 91 0c 07 	lds	r24, 0x070C	; 0x80070c <Relays>
    1dfc:	0e 94 8c 08 	call	0x1118	; 0x1118 <lcd_putbit>
			lcd_gotoxy(0,3);
    1e00:	63 e0       	ldi	r22, 0x03	; 3
    1e02:	80 e0       	ldi	r24, 0x00	; 0
    1e04:	0e 94 ee 07 	call	0xfdc	; 0xfdc <lcd_gotoxy>
			lcd_puts_hu(PSTR("Föld/Emel ")); lcd_putbit(Relays, FIRST_FLOOR_VALVE); lcd_putbit(Relays, SECOND_FLOOR_VALVE);
    1e08:	84 e5       	ldi	r24, 0x54	; 84
    1e0a:	92 e0       	ldi	r25, 0x02	; 2
    1e0c:	0e 94 ef 08 	call	0x11de	; 0x11de <lcd_puts_hu>
    1e10:	67 e0       	ldi	r22, 0x07	; 7
    1e12:	80 91 0c 07 	lds	r24, 0x070C	; 0x80070c <Relays>
    1e16:	0e 94 8c 08 	call	0x1118	; 0x1118 <lcd_putbit>
    1e1a:	66 e0       	ldi	r22, 0x06	; 6
    1e1c:	80 91 0c 07 	lds	r24, 0x070C	; 0x80070c <Relays>
    1e20:	0e 94 8c 08 	call	0x1118	; 0x1118 <lcd_putbit>
		}
		if (--display == 0)
    1e24:	80 91 00 01 	lds	r24, 0x0100	; 0x800100 <__data_start>
    1e28:	81 50       	subi	r24, 0x01	; 1
    1e2a:	19 f0       	breq	.+6      	; 0x1e32 <SensorRead+0xa50>
    1e2c:	80 93 00 01 	sts	0x0100, r24	; 0x800100 <__data_start>
    1e30:	19 c0       	rjmp	.+50     	; 0x1e64 <SensorRead+0xa82>
			display = 20;
    1e32:	84 e1       	ldi	r24, 0x14	; 20
    1e34:	80 93 00 01 	sts	0x0100, r24	; 0x800100 <__data_start>
    1e38:	15 c0       	rjmp	.+42     	; 0x1e64 <SensorRead+0xa82>
		//display--;
		//lcd_puts_hu(PSTR("Relek: ")); lcd_putbyte_bin(Relays);
	}
	else
		MenuTimer--;
    1e3a:	81 50       	subi	r24, 0x01	; 1
    1e3c:	80 93 13 01 	sts	0x0113, r24	; 0x800113 <MenuTimer>

	//if (LCDBackLight == 0)
		//ADCSRA |= (1<<ADSC);

	return;
    1e40:	11 c0       	rjmp	.+34     	; 0x1e64 <SensorRead+0xa82>
		default:
			timerstate = 0;
		break;
	}

	web++;
    1e42:	80 91 04 07 	lds	r24, 0x0704	; 0x800704 <web.2915>
    1e46:	8f 5f       	subi	r24, 0xFF	; 255
    1e48:	80 93 04 07 	sts	0x0704, r24	; 0x800704 <web.2915>
    1e4c:	6a ce       	rjmp	.-812    	; 0x1b22 <SensorRead+0x740>
					sensor_fail = TempToVariable(&Mixed, &cel, &celfracs);
				}
				i++;
			}

			timerstate++;
    1e4e:	80 91 05 07 	lds	r24, 0x0705	; 0x800705 <timerstate.2913>
    1e52:	8f 5f       	subi	r24, 0xFF	; 255
    1e54:	80 93 05 07 	sts	0x0705, r24	; 0x800705 <timerstate.2913>
		default:
			timerstate = 0;
		break;
	}

	web++;
    1e58:	80 91 04 07 	lds	r24, 0x0704	; 0x800704 <web.2915>
    1e5c:	8f 5f       	subi	r24, 0xFF	; 255
    1e5e:	80 93 04 07 	sts	0x0704, r24	; 0x800704 <web.2915>
    1e62:	5f ce       	rjmp	.-834    	; 0x1b22 <SensorRead+0x740>

	//if (LCDBackLight == 0)
		//ADCSRA |= (1<<ADSC);

	return;
}
    1e64:	0f 90       	pop	r0
    1e66:	0f 90       	pop	r0
    1e68:	0f 90       	pop	r0
    1e6a:	0f 90       	pop	r0
    1e6c:	df 91       	pop	r29
    1e6e:	cf 91       	pop	r28
    1e70:	1f 91       	pop	r17
    1e72:	0f 91       	pop	r16
    1e74:	ff 90       	pop	r15
    1e76:	ef 90       	pop	r14
    1e78:	df 90       	pop	r13
    1e7a:	cf 90       	pop	r12
    1e7c:	bf 90       	pop	r11
    1e7e:	af 90       	pop	r10
    1e80:	9f 90       	pop	r9
    1e82:	8f 90       	pop	r8
    1e84:	7f 90       	pop	r7
    1e86:	6f 90       	pop	r6
    1e88:	5f 90       	pop	r5
    1e8a:	4f 90       	pop	r4
    1e8c:	3f 90       	pop	r3
    1e8e:	2f 90       	pop	r2
    1e90:	08 95       	ret

00001e92 <SwitchRelays>:
	return nSensors;
}

void SwitchRelays()
{
	SPIInit();
    1e92:	0e 94 07 27 	call	0x4e0e	; 0x4e0e <SPIInit>
	SPIWrite(RELAYS_CS_PIN, Relays);
    1e96:	60 91 0c 07 	lds	r22, 0x070C	; 0x80070c <Relays>
    1e9a:	81 e0       	ldi	r24, 0x01	; 1
    1e9c:	0e 94 1b 27 	call	0x4e36	; 0x4e36 <SPIWrite>
	SPIClose();
    1ea0:	0e 94 16 27 	call	0x4e2c	; 0x4e2c <SPIClose>
    1ea4:	08 95       	ret

00001ea6 <CheckConditions>:

	return;
}

void CheckConditions()
{
    1ea6:	1f 93       	push	r17
    1ea8:	cf 93       	push	r28
    1eaa:	df 93       	push	r29
	static uint16_t pumpplustime = 0;
	uint16_t currTime = Hour * 100 + Minute;
	uint8_t DHW_condition;
	uint8_t oldRelays = Relays;
	uint8_t activeCondition = 0;
	if (isInitialized)
    1eac:	80 91 07 07 	lds	r24, 0x0707	; 0x800707 <isInitialized>
    1eb0:	88 23       	and	r24, r24
    1eb2:	09 f4       	brne	.+2      	; 0x1eb6 <CheckConditions+0x10>
    1eb4:	54 c2       	rjmp	.+1192   	; 0x235e <CheckConditions+0x4b8>

void CheckConditions()
{
	// DHW felsõ kör
	static uint16_t pumpplustime = 0;
	uint16_t currTime = Hour * 100 + Minute;
    1eb6:	20 91 0b 07 	lds	r18, 0x070B	; 0x80070b <Hour>
    1eba:	80 91 0a 07 	lds	r24, 0x070A	; 0x80070a <Minute>
    1ebe:	90 e0       	ldi	r25, 0x00	; 0
    1ec0:	ec 01       	movw	r28, r24
    1ec2:	34 e6       	ldi	r19, 0x64	; 100
    1ec4:	23 9f       	mul	r18, r19
    1ec6:	c0 0d       	add	r28, r0
    1ec8:	d1 1d       	adc	r29, r1
    1eca:	11 24       	eor	r1, r1
	uint8_t DHW_condition;
	uint8_t oldRelays = Relays;
    1ecc:	10 91 0c 07 	lds	r17, 0x070C	; 0x80070c <Relays>
	uint8_t activeCondition = 0;
	if (isInitialized)
	{
		if (ClockInitialized)
    1ed0:	80 91 08 07 	lds	r24, 0x0708	; 0x800708 <ClockInitialized>
    1ed4:	88 23       	and	r24, r24
    1ed6:	89 f1       	breq	.+98     	; 0x1f3a <CheckConditions+0x94>
		{
			DHW_condition = (DHW.ActualTemp < DHWTempDesired && (DHWMaxTime >= currTime && DHWMinTime <= currTime )) ? 1 : 0;
    1ed8:	90 91 14 08 	lds	r25, 0x0814	; 0x800814 <DHW>
    1edc:	80 91 de 07 	lds	r24, 0x07DE	; 0x8007de <DHWTempDesired>
    1ee0:	98 17       	cp	r25, r24
    1ee2:	78 f4       	brcc	.+30     	; 0x1f02 <CheckConditions+0x5c>
    1ee4:	80 91 34 08 	lds	r24, 0x0834	; 0x800834 <DHWMaxTime>
    1ee8:	90 91 35 08 	lds	r25, 0x0835	; 0x800835 <DHWMaxTime+0x1>
    1eec:	8c 17       	cp	r24, r28
    1eee:	9d 07       	cpc	r25, r29
    1ef0:	f0 f0       	brcs	.+60     	; 0x1f2e <CheckConditions+0x88>
    1ef2:	80 91 08 08 	lds	r24, 0x0808	; 0x800808 <DHWMinTime>
    1ef6:	90 91 09 08 	lds	r25, 0x0809	; 0x800809 <DHWMinTime+0x1>
    1efa:	c8 17       	cp	r28, r24
    1efc:	d9 07       	cpc	r29, r25
    1efe:	88 f4       	brcc	.+34     	; 0x1f22 <CheckConditions+0x7c>
    1f00:	07 c0       	rjmp	.+14     	; 0x1f10 <CheckConditions+0x6a>
			if (DHWMaxTime >= currTime && DHWMinTime <= currTime )
    1f02:	80 91 34 08 	lds	r24, 0x0834	; 0x800834 <DHWMaxTime>
    1f06:	90 91 35 08 	lds	r25, 0x0835	; 0x800835 <DHWMaxTime+0x1>
    1f0a:	8c 17       	cp	r24, r28
    1f0c:	9d 07       	cpc	r25, r29
    1f0e:	78 f0       	brcs	.+30     	; 0x1f2e <CheckConditions+0x88>
    1f10:	80 91 08 08 	lds	r24, 0x0808	; 0x800808 <DHWMinTime>
    1f14:	90 91 09 08 	lds	r25, 0x0809	; 0x800809 <DHWMinTime+0x1>
    1f18:	c8 17       	cp	r28, r24
    1f1a:	d9 07       	cpc	r29, r25
    1f1c:	40 f0       	brcs	.+16     	; 0x1f2e <CheckConditions+0x88>
    1f1e:	80 e0       	ldi	r24, 0x00	; 0
    1f20:	01 c0       	rjmp	.+2      	; 0x1f24 <CheckConditions+0x7e>
	uint8_t activeCondition = 0;
	if (isInitialized)
	{
		if (ClockInitialized)
		{
			DHW_condition = (DHW.ActualTemp < DHWTempDesired && (DHWMaxTime >= currTime && DHWMinTime <= currTime )) ? 1 : 0;
    1f22:	81 e0       	ldi	r24, 0x01	; 1
			if (DHWMaxTime >= currTime && DHWMinTime <= currTime )
				Relays |= (1 << DHW_AUX_RELAY);
    1f24:	91 2f       	mov	r25, r17
    1f26:	98 60       	ori	r25, 0x08	; 8
    1f28:	90 93 0c 07 	sts	0x070C, r25	; 0x80070c <Relays>
    1f2c:	0e c0       	rjmp	.+28     	; 0x1f4a <CheckConditions+0xa4>
			else
				Relays &= ~(1 << DHW_AUX_RELAY);
    1f2e:	81 2f       	mov	r24, r17
    1f30:	87 7f       	andi	r24, 0xF7	; 247
    1f32:	80 93 0c 07 	sts	0x070C, r24	; 0x80070c <Relays>
    1f36:	80 e0       	ldi	r24, 0x00	; 0
    1f38:	08 c0       	rjmp	.+16     	; 0x1f4a <CheckConditions+0xa4>
		}
		else
			DHW_condition = (DHW.ActualTemp < DHWTempDesired) ? 1 : 0;
    1f3a:	81 e0       	ldi	r24, 0x01	; 1
    1f3c:	20 91 14 08 	lds	r18, 0x0814	; 0x800814 <DHW>
    1f40:	90 91 de 07 	lds	r25, 0x07DE	; 0x8007de <DHWTempDesired>
    1f44:	29 17       	cp	r18, r25
    1f46:	08 f0       	brcs	.+2      	; 0x1f4a <CheckConditions+0xa4>
    1f48:	80 e0       	ldi	r24, 0x00	; 0

		if (DHW_condition) // alacsony HMV hõmérséklet
    1f4a:	88 23       	and	r24, r24
    1f4c:	09 f4       	brne	.+2      	; 0x1f50 <CheckConditions+0xaa>
    1f4e:	4f c0       	rjmp	.+158    	; 0x1fee <CheckConditions+0x148>
		{
			if (DHWTempMin >= DHW.ActualTemp)
    1f50:	90 91 14 08 	lds	r25, 0x0814	; 0x800814 <DHW>
    1f54:	80 91 cd 07 	lds	r24, 0x07CD	; 0x8007cd <DHWTempMin>
    1f58:	89 17       	cp	r24, r25
    1f5a:	08 f4       	brcc	.+2      	; 0x1f5e <CheckConditions+0xb8>
    1f5c:	f2 c1       	rjmp	.+996    	; 0x2342 <CheckConditions+0x49c>
			{
				activeCondition = 1;
				Relays |= (1 << DHW_VALVE_RELAY);
    1f5e:	80 91 0c 07 	lds	r24, 0x070C	; 0x80070c <Relays>
    1f62:	98 2f       	mov	r25, r24
    1f64:	9b 73       	andi	r25, 0x3B	; 59
				Relays &= ~((1 << FIRST_FLOOR_VALVE) | (1 << SECOND_FLOOR_VALVE) | (1 << HOUSE_VALVE_RELAY));				

				if (Buffer.ActualTemp < DHWTempDesired) // Pufferben nincs elég energia
    1f66:	30 91 3d 08 	lds	r19, 0x083D	; 0x80083d <Buffer>
    1f6a:	20 91 de 07 	lds	r18, 0x07DE	; 0x8007de <DHWTempDesired>
    1f6e:	32 17       	cp	r19, r18
    1f70:	e0 f4       	brcc	.+56     	; 0x1faa <CheckConditions+0x104>
				{
					pumpplustime = PumpPlusTime;
    1f72:	20 91 11 01 	lds	r18, 0x0111	; 0x800111 <PumpPlusTime>
    1f76:	30 91 12 01 	lds	r19, 0x0112	; 0x800112 <PumpPlusTime+0x1>
    1f7a:	30 93 03 07 	sts	0x0703, r19	; 0x800703 <__data_end+0x1>
    1f7e:	20 93 02 07 	sts	0x0702, r18	; 0x800702 <__data_end>
					Relays |= (1 << GAS_RELAY);
					Relays &= ~((1 << BUFFER_VALVE_RELAY) | (1 << BUFFER_PUMP_RELAY));
    1f82:	8b 70       	andi	r24, 0x0B	; 11
    1f84:	83 60       	ori	r24, 0x03	; 3
    1f86:	80 93 0c 07 	sts	0x070C, r24	; 0x80070c <Relays>
					if (i2c_start(0x09 | I2C_WRITE) == 0)
    1f8a:	89 e0       	ldi	r24, 0x09	; 9
    1f8c:	0e 94 ea 06 	call	0xdd4	; 0xdd4 <i2c_start>
    1f90:	81 11       	cpse	r24, r1
    1f92:	c9 c1       	rjmp	.+914    	; 0x2326 <CheckConditions+0x480>
					{				
						i2c_write('c');
    1f94:	83 e6       	ldi	r24, 0x63	; 99
    1f96:	0e 94 0f 07 	call	0xe1e	; 0xe1e <i2c_write>
						i2c_write(DHWTempDesired + 15);
    1f9a:	80 91 de 07 	lds	r24, 0x07DE	; 0x8007de <DHWTempDesired>
    1f9e:	81 5f       	subi	r24, 0xF1	; 241
    1fa0:	0e 94 0f 07 	call	0xe1e	; 0xe1e <i2c_write>
						i2c_stop();
    1fa4:	0e 94 6d 07 	call	0xeda	; 0xeda <i2c_stop>
    1fa8:	be c1       	rjmp	.+892    	; 0x2326 <CheckConditions+0x480>
					//if (DebugMode > 0)
					//	uart_puts_P("DHW relay activated with gas\n");
				}
				else // Pufferben van elég energia
				{
					if (!pumpplustime)
    1faa:	20 91 02 07 	lds	r18, 0x0702	; 0x800702 <__data_end>
    1fae:	30 91 03 07 	lds	r19, 0x0703	; 0x800703 <__data_end+0x1>
    1fb2:	23 2b       	or	r18, r19
    1fb4:	c1 f4       	brne	.+48     	; 0x1fe6 <CheckConditions+0x140>
					{
						pumpplustime--;
    1fb6:	2f ef       	ldi	r18, 0xFF	; 255
    1fb8:	3f ef       	ldi	r19, 0xFF	; 255
    1fba:	30 93 03 07 	sts	0x0703, r19	; 0x800703 <__data_end+0x1>
    1fbe:	20 93 02 07 	sts	0x0702, r18	; 0x800702 <__data_end>
						Relays &= ~(1 << GAS_RELAY);
    1fc2:	89 73       	andi	r24, 0x39	; 57
    1fc4:	81 60       	ori	r24, 0x01	; 1
    1fc6:	80 93 0c 07 	sts	0x070C, r24	; 0x80070c <Relays>
						if (i2c_start(0x09 | I2C_WRITE) == 0)
    1fca:	89 e0       	ldi	r24, 0x09	; 9
    1fcc:	0e 94 ea 06 	call	0xdd4	; 0xdd4 <i2c_start>
    1fd0:	81 11       	cpse	r24, r1
    1fd2:	a9 c1       	rjmp	.+850    	; 0x2326 <CheckConditions+0x480>
						{
							i2c_write('o');
    1fd4:	8f e6       	ldi	r24, 0x6F	; 111
    1fd6:	0e 94 0f 07 	call	0xe1e	; 0xe1e <i2c_write>
							i2c_write(0);
    1fda:	80 e0       	ldi	r24, 0x00	; 0
    1fdc:	0e 94 0f 07 	call	0xe1e	; 0xe1e <i2c_write>
							i2c_stop();
    1fe0:	0e 94 6d 07 	call	0xeda	; 0xeda <i2c_stop>
    1fe4:	a0 c1       	rjmp	.+832    	; 0x2326 <CheckConditions+0x480>
						}
					}
					else
					{
						Relays |= (1 << BUFFER_VALVE_RELAY) | (1 << BUFFER_PUMP_RELAY);
    1fe6:	91 63       	ori	r25, 0x31	; 49
    1fe8:	90 93 0c 07 	sts	0x070C, r25	; 0x80070c <Relays>
    1fec:	9c c1       	rjmp	.+824    	; 0x2326 <CheckConditions+0x480>

			}
		}
		else // megszûnõ hõigény esetén az utókeringetés a gépház radiátorát fûti, különben visszahûtené a HMV-t
		{
			if (((!(THERMOSTAT_PIN & (1 << FIRST_THERMO_PIN)) || !(THERMOSTAT_PIN & (1 << SECOND_THERMO_PIN)) 
    1fee:	0e 9b       	sbis	0x01, 6	; 1
    1ff0:	0d c0       	rjmp	.+26     	; 0x200c <CheckConditions+0x166>
    1ff2:	0f 9b       	sbis	0x01, 7	; 1
    1ff4:	0b c0       	rjmp	.+22     	; 0x200c <CheckConditions+0x166>
				|| (!(THERMOSTAT_PIN & (1 << FIRST_REMOTE_PIN)) || !(PIND & (1 << SECOND_REMOTE_PIN)))
    1ff6:	0a 9b       	sbis	0x01, 2	; 1
    1ff8:	09 c0       	rjmp	.+18     	; 0x200c <CheckConditions+0x166>
    1ffa:	83 9b       	sbis	0x10, 3	; 16
    1ffc:	07 c0       	rjmp	.+14     	; 0x200c <CheckConditions+0x166>
				|| (Engineering.ActualTemp < EngineeringTempDesired)))
    1ffe:	90 91 df 07 	lds	r25, 0x07DF	; 0x8007df <Engineering>
    2002:	80 91 c1 07 	lds	r24, 0x07C1	; 0x8007c1 <EngineeringTempDesired>
    2006:	98 17       	cp	r25, r24
    2008:	08 f0       	brcs	.+2      	; 0x200c <CheckConditions+0x166>
    200a:	bd c0       	rjmp	.+378    	; 0x2186 <CheckConditions+0x2e0>
				&& (HIHxxxxTempInt <= SwitchOnOutdoorTempMin))
    200c:	20 91 3b 08 	lds	r18, 0x083B	; 0x80083b <HIHxxxxTempInt>
    2010:	30 91 3c 08 	lds	r19, 0x083C	; 0x80083c <HIHxxxxTempInt+0x1>
    2014:	80 91 ca 07 	lds	r24, 0x07CA	; 0x8007ca <SwitchOnOutdoorTempMin>
    2018:	90 91 cb 07 	lds	r25, 0x07CB	; 0x8007cb <SwitchOnOutdoorTempMin+0x1>
    201c:	82 17       	cp	r24, r18
    201e:	93 07       	cpc	r25, r19
    2020:	08 f4       	brcc	.+2      	; 0x2024 <CheckConditions+0x17e>
    2022:	b1 c0       	rjmp	.+354    	; 0x2186 <CheckConditions+0x2e0>
			{
				activeCondition = 1;
				if (Engineering.ActualTemp < EngineeringTempMin	|| !(THERMOSTAT_PIN & (1 << FIRST_THERMO_PIN)) || !(THERMOSTAT_PIN & (1 << SECOND_THERMO_PIN)) || !(THERMOSTAT_PIN & (1 << FIRST_REMOTE_PIN)) || !(PIND & (1 << SECOND_REMOTE_PIN)))
    2024:	90 91 df 07 	lds	r25, 0x07DF	; 0x8007df <Engineering>
    2028:	80 91 3a 08 	lds	r24, 0x083A	; 0x80083a <EngineeringTempMin>
    202c:	98 17       	cp	r25, r24
    202e:	08 f4       	brcc	.+2      	; 0x2032 <CheckConditions+0x18c>
    2030:	72 c1       	rjmp	.+740    	; 0x2316 <CheckConditions+0x470>
    2032:	0e 9b       	sbis	0x01, 6	; 1
    2034:	06 c0       	rjmp	.+12     	; 0x2042 <CheckConditions+0x19c>
    2036:	0f 9b       	sbis	0x01, 7	; 1
    2038:	04 c0       	rjmp	.+8      	; 0x2042 <CheckConditions+0x19c>
    203a:	0a 9b       	sbis	0x01, 2	; 1
    203c:	02 c0       	rjmp	.+4      	; 0x2042 <CheckConditions+0x19c>
    203e:	83 99       	sbic	0x10, 3	; 16
    2040:	60 c0       	rjmp	.+192    	; 0x2102 <CheckConditions+0x25c>
				{
					if ((Buffer.ActualTemp >= ForwardHeatTemp) || (Buffer.ActualTemp <= ForwardHeatTemp && Forward.ActualTemp >= ForwardHeatTemp && !pumpplustime))
    2042:	80 91 09 01 	lds	r24, 0x0109	; 0x800109 <ForwardHeatTemp>
    2046:	90 91 3d 08 	lds	r25, 0x083D	; 0x80083d <Buffer>
    204a:	98 17       	cp	r25, r24
    204c:	58 f4       	brcc	.+22     	; 0x2064 <CheckConditions+0x1be>
    204e:	90 91 e9 07 	lds	r25, 0x07E9	; 0x8007e9 <Forward>
    2052:	98 17       	cp	r25, r24
    2054:	58 f1       	brcs	.+86     	; 0x20ac <CheckConditions+0x206>
    2056:	80 91 02 07 	lds	r24, 0x0702	; 0x800702 <__data_end>
    205a:	90 91 03 07 	lds	r25, 0x0703	; 0x800703 <__data_end+0x1>
    205e:	89 2b       	or	r24, r25
    2060:	39 f0       	breq	.+14     	; 0x2070 <CheckConditions+0x1ca>
    2062:	24 c0       	rjmp	.+72     	; 0x20ac <CheckConditions+0x206>
					{
						if (!pumpplustime) // ha átkapcsol gázról pufferre, a gáz még utókeringetne
    2064:	80 91 02 07 	lds	r24, 0x0702	; 0x800702 <__data_end>
    2068:	90 91 03 07 	lds	r25, 0x0703	; 0x800703 <__data_end+0x1>
    206c:	00 97       	sbiw	r24, 0x00	; 0
    206e:	31 f4       	brne	.+12     	; 0x207c <CheckConditions+0x1d6>
						{							
							Relays |= ((1 << BUFFER_VALVE_RELAY) | (1 << BUFFER_PUMP_RELAY));							
    2070:	80 91 0c 07 	lds	r24, 0x070C	; 0x80070c <Relays>
    2074:	80 63       	ori	r24, 0x30	; 48
    2076:	80 93 0c 07 	sts	0x070C, r24	; 0x80070c <Relays>
    207a:	43 c0       	rjmp	.+134    	; 0x2102 <CheckConditions+0x25c>
						}
						else
						{
							pumpplustime--;
    207c:	01 97       	sbiw	r24, 0x01	; 1
    207e:	90 93 03 07 	sts	0x0703, r25	; 0x800703 <__data_end+0x1>
    2082:	80 93 02 07 	sts	0x0702, r24	; 0x800702 <__data_end>
							Relays &= ~((1 << GAS_RELAY) | (1 << DHW_VALVE_RELAY));
    2086:	80 91 0c 07 	lds	r24, 0x070C	; 0x80070c <Relays>
    208a:	8c 7f       	andi	r24, 0xFC	; 252
    208c:	80 93 0c 07 	sts	0x070C, r24	; 0x80070c <Relays>
							
							if (i2c_start(0x09 | I2C_WRITE) == 0)
    2090:	89 e0       	ldi	r24, 0x09	; 9
    2092:	0e 94 ea 06 	call	0xdd4	; 0xdd4 <i2c_start>
    2096:	81 11       	cpse	r24, r1
    2098:	34 c0       	rjmp	.+104    	; 0x2102 <CheckConditions+0x25c>
							{
								i2c_write('o');
    209a:	8f e6       	ldi	r24, 0x6F	; 111
    209c:	0e 94 0f 07 	call	0xe1e	; 0xe1e <i2c_write>
								i2c_write(0);
    20a0:	80 e0       	ldi	r24, 0x00	; 0
    20a2:	0e 94 0f 07 	call	0xe1e	; 0xe1e <i2c_write>
								i2c_stop();
    20a6:	0e 94 6d 07 	call	0xeda	; 0xeda <i2c_stop>
    20aa:	2b c0       	rjmp	.+86     	; 0x2102 <CheckConditions+0x25c>
							}
						}
					}
					else
					{
						pumpplustime = PumpPlusTime; // gáz utókeringetés
    20ac:	80 91 11 01 	lds	r24, 0x0111	; 0x800111 <PumpPlusTime>
    20b0:	90 91 12 01 	lds	r25, 0x0112	; 0x800112 <PumpPlusTime+0x1>
    20b4:	90 93 03 07 	sts	0x0703, r25	; 0x800703 <__data_end+0x1>
    20b8:	80 93 02 07 	sts	0x0702, r24	; 0x800702 <__data_end>
						Relays |= (1 << GAS_RELAY);
						Relays &= ~((1 << BUFFER_VALVE_RELAY) | (1 << BUFFER_PUMP_RELAY) | (1 << DHW_VALVE_RELAY));
    20bc:	80 91 0c 07 	lds	r24, 0x070C	; 0x80070c <Relays>
    20c0:	8e 7c       	andi	r24, 0xCE	; 206
    20c2:	82 60       	ori	r24, 0x02	; 2
    20c4:	80 93 0c 07 	sts	0x070C, r24	; 0x80070c <Relays>
						int comp = GetCompensation((int16_t)( HIHxxxxTemp));
    20c8:	60 91 28 08 	lds	r22, 0x0828	; 0x800828 <HIHxxxxTemp>
    20cc:	70 91 29 08 	lds	r23, 0x0829	; 0x800829 <HIHxxxxTemp+0x1>
    20d0:	80 91 2a 08 	lds	r24, 0x082A	; 0x80082a <HIHxxxxTemp+0x2>
    20d4:	90 91 2b 08 	lds	r25, 0x082B	; 0x80082b <HIHxxxxTemp+0x3>
    20d8:	0e 94 de 29 	call	0x53bc	; 0x53bc <__fixsfsi>
    20dc:	cb 01       	movw	r24, r22
    20de:	0e 94 01 09 	call	0x1202	; 0x1202 <GetCompensation>
    20e2:	c8 2f       	mov	r28, r24
						if (i2c_start(0x09 | I2C_WRITE) == 0)
    20e4:	89 e0       	ldi	r24, 0x09	; 9
    20e6:	0e 94 ea 06 	call	0xdd4	; 0xdd4 <i2c_start>
    20ea:	81 11       	cpse	r24, r1
    20ec:	0a c0       	rjmp	.+20     	; 0x2102 <CheckConditions+0x25c>
						{							
							i2c_write('c');
    20ee:	83 e6       	ldi	r24, 0x63	; 99
    20f0:	0e 94 0f 07 	call	0xe1e	; 0xe1e <i2c_write>
							i2c_write(GasForwardHeatTemp + comp);
    20f4:	80 91 07 01 	lds	r24, 0x0107	; 0x800107 <GasForwardHeatTemp>
    20f8:	8c 0f       	add	r24, r28
    20fa:	0e 94 0f 07 	call	0xe1e	; 0xe1e <i2c_write>
							i2c_stop();
    20fe:	0e 94 6d 07 	call	0xeda	; 0xeda <i2c_stop>
						}
					}								
				}

				if (!(THERMOSTAT_PIN & (1 << FIRST_THERMO_PIN)) || (!(THERMOSTAT_PIN & (1 << FIRST_REMOTE_PIN))))
    2102:	0e 9b       	sbis	0x01, 6	; 1
    2104:	02 c0       	rjmp	.+4      	; 0x210a <CheckConditions+0x264>
    2106:	0a 99       	sbic	0x01, 2	; 1
    2108:	0a c0       	rjmp	.+20     	; 0x211e <CheckConditions+0x278>
				{
					Relays |= (1 << FIRST_FLOOR_VALVE);
    210a:	80 91 0c 07 	lds	r24, 0x070C	; 0x80070c <Relays>
    210e:	80 68       	ori	r24, 0x80	; 128
    2110:	80 93 0c 07 	sts	0x070C, r24	; 0x80070c <Relays>
					uart_puts("F1\r\n");
    2114:	83 ec       	ldi	r24, 0xC3	; 195
    2116:	93 e0       	ldi	r25, 0x03	; 3
    2118:	0e 94 c7 27 	call	0x4f8e	; 0x4f8e <uart_puts>
    211c:	09 c0       	rjmp	.+18     	; 0x2130 <CheckConditions+0x28a>
				}
				else
				{
					Relays &= ~(1 << FIRST_FLOOR_VALVE);
    211e:	80 91 0c 07 	lds	r24, 0x070C	; 0x80070c <Relays>
    2122:	8f 77       	andi	r24, 0x7F	; 127
    2124:	80 93 0c 07 	sts	0x070C, r24	; 0x80070c <Relays>
					uart_puts("F0\r\n");
    2128:	88 ec       	ldi	r24, 0xC8	; 200
    212a:	93 e0       	ldi	r25, 0x03	; 3
    212c:	0e 94 c7 27 	call	0x4f8e	; 0x4f8e <uart_puts>
				}

				if (!(THERMOSTAT_PIN & (1 << SECOND_THERMO_PIN)) || !(PIND & (1 << SECOND_REMOTE_PIN)))
    2130:	0f 9b       	sbis	0x01, 7	; 1
    2132:	02 c0       	rjmp	.+4      	; 0x2138 <CheckConditions+0x292>
    2134:	83 99       	sbic	0x10, 3	; 16
    2136:	0a c0       	rjmp	.+20     	; 0x214c <CheckConditions+0x2a6>
				{
					Relays |= (1 << SECOND_FLOOR_VALVE);
    2138:	80 91 0c 07 	lds	r24, 0x070C	; 0x80070c <Relays>
    213c:	80 64       	ori	r24, 0x40	; 64
    213e:	80 93 0c 07 	sts	0x070C, r24	; 0x80070c <Relays>
					uart_puts("E1\r\n");
    2142:	8d ec       	ldi	r24, 0xCD	; 205
    2144:	93 e0       	ldi	r25, 0x03	; 3
    2146:	0e 94 c7 27 	call	0x4f8e	; 0x4f8e <uart_puts>
    214a:	09 c0       	rjmp	.+18     	; 0x215e <CheckConditions+0x2b8>
				}
				else
				{
					Relays &= ~(1 << SECOND_FLOOR_VALVE);
    214c:	80 91 0c 07 	lds	r24, 0x070C	; 0x80070c <Relays>
    2150:	8f 7b       	andi	r24, 0xBF	; 191
    2152:	80 93 0c 07 	sts	0x070C, r24	; 0x80070c <Relays>
					uart_puts("E0\r\n");
    2156:	82 ed       	ldi	r24, 0xD2	; 210
    2158:	93 e0       	ldi	r25, 0x03	; 3
    215a:	0e 94 c7 27 	call	0x4f8e	; 0x4f8e <uart_puts>
				}
				if (!(THERMOSTAT_PIN & (1 << FIRST_THERMO_PIN)) || !(THERMOSTAT_PIN & (1 << SECOND_THERMO_PIN)) || !(THERMOSTAT_PIN & (1 << FIRST_REMOTE_PIN)) || !(PIND & (1 << SECOND_REMOTE_PIN)))
    215e:	0e 9b       	sbis	0x01, 6	; 1
    2160:	06 c0       	rjmp	.+12     	; 0x216e <CheckConditions+0x2c8>
    2162:	0f 9b       	sbis	0x01, 7	; 1
    2164:	04 c0       	rjmp	.+8      	; 0x216e <CheckConditions+0x2c8>
    2166:	0a 9b       	sbis	0x01, 2	; 1
    2168:	02 c0       	rjmp	.+4      	; 0x216e <CheckConditions+0x2c8>
    216a:	83 99       	sbic	0x10, 3	; 16
    216c:	06 c0       	rjmp	.+12     	; 0x217a <CheckConditions+0x2d4>
				{
					Relays |= 1 << (HOUSE_VALVE_RELAY);
    216e:	80 91 0c 07 	lds	r24, 0x070C	; 0x80070c <Relays>
    2172:	84 60       	ori	r24, 0x04	; 4
    2174:	80 93 0c 07 	sts	0x070C, r24	; 0x80070c <Relays>
    2178:	d6 c0       	rjmp	.+428    	; 0x2326 <CheckConditions+0x480>
				}
				else
				{
					Relays &= ~(1 << HOUSE_VALVE_RELAY);
    217a:	80 91 0c 07 	lds	r24, 0x070C	; 0x80070c <Relays>
    217e:	8b 7f       	andi	r24, 0xFB	; 251
    2180:	80 93 0c 07 	sts	0x070C, r24	; 0x80070c <Relays>
    2184:	d0 c0       	rjmp	.+416    	; 0x2326 <CheckConditions+0x480>
				}
			}
			else
			{
				if (!pumpplustime)
    2186:	80 91 02 07 	lds	r24, 0x0702	; 0x800702 <__data_end>
    218a:	90 91 03 07 	lds	r25, 0x0703	; 0x800703 <__data_end+0x1>
    218e:	00 97       	sbiw	r24, 0x00	; 0
    2190:	31 f4       	brne	.+12     	; 0x219e <CheckConditions+0x2f8>
					Relays &= ~((1 << FIRST_FLOOR_VALVE) | (1 << SECOND_FLOOR_VALVE) | (1 << HOUSE_VALVE_RELAY));
    2192:	80 91 0c 07 	lds	r24, 0x070C	; 0x80070c <Relays>
    2196:	8b 73       	andi	r24, 0x3B	; 59
    2198:	80 93 0c 07 	sts	0x070C, r24	; 0x80070c <Relays>
    219c:	05 c0       	rjmp	.+10     	; 0x21a8 <CheckConditions+0x302>
				else
					pumpplustime--;
    219e:	01 97       	sbiw	r24, 0x01	; 1
    21a0:	90 93 03 07 	sts	0x0703, r25	; 0x800703 <__data_end+0x1>
    21a4:	80 93 02 07 	sts	0x0702, r24	; 0x800702 <__data_end>

				Relays &= ~((1 << BUFFER_VALVE_RELAY) | (1 <<BUFFER_PUMP_RELAY) | (1 << GAS_RELAY));
    21a8:	80 91 0c 07 	lds	r24, 0x070C	; 0x80070c <Relays>
    21ac:	8d 7c       	andi	r24, 0xCD	; 205
    21ae:	80 93 0c 07 	sts	0x070C, r24	; 0x80070c <Relays>
				
				if (i2c_start(0x09 | I2C_WRITE) == 0)
    21b2:	89 e0       	ldi	r24, 0x09	; 9
    21b4:	0e 94 ea 06 	call	0xdd4	; 0xdd4 <i2c_start>
    21b8:	81 11       	cpse	r24, r1
    21ba:	08 c0       	rjmp	.+16     	; 0x21cc <CheckConditions+0x326>
				{
					i2c_write('o');
    21bc:	8f e6       	ldi	r24, 0x6F	; 111
    21be:	0e 94 0f 07 	call	0xe1e	; 0xe1e <i2c_write>
					i2c_write(0);
    21c2:	80 e0       	ldi	r24, 0x00	; 0
    21c4:	0e 94 0f 07 	call	0xe1e	; 0xe1e <i2c_write>
					i2c_stop();
    21c8:	0e 94 6d 07 	call	0xeda	; 0xeda <i2c_stop>
				}
				//if (DebugMode > 0)
				//	uart_puts_P("GAS and FIRST_FLOOR_VALVE, SECOND_FLOOR_VALVE relay deactivated\n");

				if (ClockInitialized && ComfortMode && !activeCondition)
    21cc:	80 91 08 07 	lds	r24, 0x0708	; 0x800708 <ClockInitialized>
    21d0:	88 23       	and	r24, r24
    21d2:	09 f4       	brne	.+2      	; 0x21d6 <CheckConditions+0x330>
    21d4:	b6 c0       	rjmp	.+364    	; 0x2342 <CheckConditions+0x49c>
    21d6:	80 91 0f 07 	lds	r24, 0x070F	; 0x80070f <ComfortMode>
    21da:	88 23       	and	r24, r24
    21dc:	09 f4       	brne	.+2      	; 0x21e0 <CheckConditions+0x33a>
    21de:	b1 c0       	rjmp	.+354    	; 0x2342 <CheckConditions+0x49c>
				{
					if (ComfortMaxTime >= currTime && ComfortMinTime <= currTime && LivingRoomTemp <= ComfortTemp && Buffer.ActualTemp >= ComfortForwardTemp)
    21e0:	80 91 0c 01 	lds	r24, 0x010C	; 0x80010c <ComfortMaxTime>
    21e4:	90 91 0d 01 	lds	r25, 0x010D	; 0x80010d <ComfortMaxTime+0x1>
    21e8:	8c 17       	cp	r24, r28
    21ea:	9d 07       	cpc	r25, r29
    21ec:	08 f4       	brcc	.+2      	; 0x21f0 <CheckConditions+0x34a>
    21ee:	49 c0       	rjmp	.+146    	; 0x2282 <CheckConditions+0x3dc>
    21f0:	80 91 0a 01 	lds	r24, 0x010A	; 0x80010a <ComfortMinTime>
    21f4:	90 91 0b 01 	lds	r25, 0x010B	; 0x80010b <ComfortMinTime+0x1>
    21f8:	c8 17       	cp	r28, r24
    21fa:	d9 07       	cpc	r29, r25
    21fc:	08 f4       	brcc	.+2      	; 0x2200 <CheckConditions+0x35a>
    21fe:	41 c0       	rjmp	.+130    	; 0x2282 <CheckConditions+0x3dc>
    2200:	20 91 b0 07 	lds	r18, 0x07B0	; 0x8007b0 <LivingRoomTemp>
    2204:	30 91 b1 07 	lds	r19, 0x07B1	; 0x8007b1 <LivingRoomTemp+0x1>
    2208:	80 91 0f 01 	lds	r24, 0x010F	; 0x80010f <ComfortTemp>
    220c:	90 91 10 01 	lds	r25, 0x0110	; 0x800110 <ComfortTemp+0x1>
    2210:	82 17       	cp	r24, r18
    2212:	93 07       	cpc	r25, r19
    2214:	b0 f1       	brcs	.+108    	; 0x2282 <CheckConditions+0x3dc>
    2216:	90 91 3d 08 	lds	r25, 0x083D	; 0x80083d <Buffer>
    221a:	80 91 0e 01 	lds	r24, 0x010E	; 0x80010e <ComfortForwardTemp>
    221e:	98 17       	cp	r25, r24
    2220:	80 f1       	brcs	.+96     	; 0x2282 <CheckConditions+0x3dc>
					{
						if (!pumpplustime) // ha átkapcsol gázról pufferre, a gáz még utókeringetne
    2222:	80 91 02 07 	lds	r24, 0x0702	; 0x800702 <__data_end>
    2226:	90 91 03 07 	lds	r25, 0x0703	; 0x800703 <__data_end+0x1>
    222a:	00 97       	sbiw	r24, 0x00	; 0
    222c:	91 f4       	brne	.+36     	; 0x2252 <CheckConditions+0x3ac>
						{
							Relays |= ((1 << BUFFER_VALVE_RELAY) | (1 << BUFFER_PUMP_RELAY) | (1 << FIRST_FLOOR_VALVE) | (1 << HOUSE_VALVE_RELAY));
    222e:	80 91 0c 07 	lds	r24, 0x070C	; 0x80070c <Relays>
    2232:	84 6b       	ori	r24, 0xB4	; 180
    2234:	80 93 0c 07 	sts	0x070C, r24	; 0x80070c <Relays>
						Relays &= ~((1 << BUFFER_VALVE_RELAY) | (1 << BUFFER_PUMP_RELAY) | (1 << FIRST_FLOOR_VALVE) | (1 << HOUSE_VALVE_RELAY));
				}
			}
		}

		if (Buffer.ActualTemp >= (BufferMaxTemp - 5))
    2238:	20 91 3d 08 	lds	r18, 0x083D	; 0x80083d <Buffer>
    223c:	42 2f       	mov	r20, r18
    223e:	50 e0       	ldi	r21, 0x00	; 0
    2240:	30 91 08 01 	lds	r19, 0x0108	; 0x800108 <BufferMaxTemp>
    2244:	83 2f       	mov	r24, r19
    2246:	90 e0       	ldi	r25, 0x00	; 0
    2248:	05 97       	sbiw	r24, 0x05	; 5
    224a:	48 17       	cp	r20, r24
    224c:	59 07       	cpc	r21, r25
    224e:	e4 f1       	brlt	.+120    	; 0x22c8 <CheckConditions+0x422>
    2250:	1e c0       	rjmp	.+60     	; 0x228e <CheckConditions+0x3e8>
						{
							Relays |= ((1 << BUFFER_VALVE_RELAY) | (1 << BUFFER_PUMP_RELAY) | (1 << FIRST_FLOOR_VALVE) | (1 << HOUSE_VALVE_RELAY));
						}
						else
						{
							pumpplustime--;
    2252:	01 97       	sbiw	r24, 0x01	; 1
    2254:	90 93 03 07 	sts	0x0703, r25	; 0x800703 <__data_end+0x1>
    2258:	80 93 02 07 	sts	0x0702, r24	; 0x800702 <__data_end>
							Relays &= ~((1 << GAS_RELAY) | (1 << DHW_VALVE_RELAY));
    225c:	80 91 0c 07 	lds	r24, 0x070C	; 0x80070c <Relays>
    2260:	8c 7f       	andi	r24, 0xFC	; 252
    2262:	80 93 0c 07 	sts	0x070C, r24	; 0x80070c <Relays>
						
							if (i2c_start(0x09 | I2C_WRITE) == 0)
    2266:	89 e0       	ldi	r24, 0x09	; 9
    2268:	0e 94 ea 06 	call	0xdd4	; 0xdd4 <i2c_start>
    226c:	81 11       	cpse	r24, r1
    226e:	69 c0       	rjmp	.+210    	; 0x2342 <CheckConditions+0x49c>
							{
								i2c_write('o');
    2270:	8f e6       	ldi	r24, 0x6F	; 111
    2272:	0e 94 0f 07 	call	0xe1e	; 0xe1e <i2c_write>
								i2c_write(0);
    2276:	80 e0       	ldi	r24, 0x00	; 0
    2278:	0e 94 0f 07 	call	0xe1e	; 0xe1e <i2c_write>
								i2c_stop();
    227c:	0e 94 6d 07 	call	0xeda	; 0xeda <i2c_stop>
    2280:	60 c0       	rjmp	.+192    	; 0x2342 <CheckConditions+0x49c>
							}
						}
					}
					else
						Relays &= ~((1 << BUFFER_VALVE_RELAY) | (1 << BUFFER_PUMP_RELAY) | (1 << FIRST_FLOOR_VALVE) | (1 << HOUSE_VALVE_RELAY));
    2282:	80 91 0c 07 	lds	r24, 0x070C	; 0x80070c <Relays>
    2286:	8b 74       	andi	r24, 0x4B	; 75
    2288:	80 93 0c 07 	sts	0x070C, r24	; 0x80070c <Relays>
    228c:	5a c0       	rjmp	.+180    	; 0x2342 <CheckConditions+0x49c>
				}
			}
		}

		if (Buffer.ActualTemp >= (BufferMaxTemp - 5))
    228e:	60 e0       	ldi	r22, 0x00	; 0
    2290:	03 c0       	rjmp	.+6      	; 0x2298 <CheckConditions+0x3f2>
    2292:	61 e0       	ldi	r22, 0x01	; 1
    2294:	01 c0       	rjmp	.+2      	; 0x2298 <CheckConditions+0x3f2>
    2296:	60 e0       	ldi	r22, 0x00	; 0
		{
			if (Buffer.ActualTemp >= BufferMaxTemp)
    2298:	23 17       	cp	r18, r19
    229a:	30 f0       	brcs	.+12     	; 0x22a8 <CheckConditions+0x402>
				Relays |= ((1 << BUFFER_VALVE_RELAY) | (1 << BUFFER_PUMP_RELAY));
    229c:	80 91 0c 07 	lds	r24, 0x070C	; 0x80070c <Relays>
    22a0:	80 63       	ori	r24, 0x30	; 48
    22a2:	80 93 0c 07 	sts	0x070C, r24	; 0x80070c <Relays>
    22a6:	08 c0       	rjmp	.+16     	; 0x22b8 <CheckConditions+0x412>
			else if (Buffer.ActualTemp <= (BufferMaxTemp - 5))
    22a8:	84 17       	cp	r24, r20
    22aa:	95 07       	cpc	r25, r21
    22ac:	2c f0       	brlt	.+10     	; 0x22b8 <CheckConditions+0x412>
				Relays &= ~((1 << BUFFER_VALVE_RELAY) | (1 << BUFFER_PUMP_RELAY));
    22ae:	80 91 0c 07 	lds	r24, 0x070C	; 0x80070c <Relays>
    22b2:	8f 7c       	andi	r24, 0xCF	; 207
    22b4:	80 93 0c 07 	sts	0x070C, r24	; 0x80070c <Relays>
		}
		
		if (!activeCondition && !pumpplustime && (PumpRunner > 0))
    22b8:	61 11       	cpse	r22, r1
    22ba:	1a c0       	rjmp	.+52     	; 0x22f0 <CheckConditions+0x44a>
    22bc:	80 91 02 07 	lds	r24, 0x0702	; 0x800702 <__data_end>
    22c0:	90 91 03 07 	lds	r25, 0x0703	; 0x800703 <__data_end+0x1>
    22c4:	89 2b       	or	r24, r25
    22c6:	a1 f4       	brne	.+40     	; 0x22f0 <CheckConditions+0x44a>
    22c8:	80 91 06 07 	lds	r24, 0x0706	; 0x800706 <PumpRunner>
    22cc:	88 23       	and	r24, r24
    22ce:	81 f0       	breq	.+32     	; 0x22f0 <CheckConditions+0x44a>
		{
			PumpRunner--;
    22d0:	81 50       	subi	r24, 0x01	; 1
    22d2:	80 93 06 07 	sts	0x0706, r24	; 0x800706 <PumpRunner>
			if (PumpRunner == 0)
    22d6:	81 11       	cpse	r24, r1
    22d8:	06 c0       	rjmp	.+12     	; 0x22e6 <CheckConditions+0x440>
			{
				Relays &= ~((1 << BUFFER_VALVE_RELAY) | (1 << BUFFER_PUMP_RELAY) | (1 << FIRST_FLOOR_VALVE) | (1 << SECOND_FLOOR_VALVE) | (1 << HOUSE_VALVE_RELAY));
    22da:	80 91 0c 07 	lds	r24, 0x070C	; 0x80070c <Relays>
    22de:	8b 70       	andi	r24, 0x0B	; 11
    22e0:	80 93 0c 07 	sts	0x070C, r24	; 0x80070c <Relays>
    22e4:	05 c0       	rjmp	.+10     	; 0x22f0 <CheckConditions+0x44a>
			}
			else
			{
				Relays |= ((1 << BUFFER_VALVE_RELAY) | (1 << BUFFER_PUMP_RELAY) | (1 << FIRST_FLOOR_VALVE) | (1 << SECOND_FLOOR_VALVE) | (1 << HOUSE_VALVE_RELAY));
    22e6:	80 91 0c 07 	lds	r24, 0x070C	; 0x80070c <Relays>
    22ea:	84 6f       	ori	r24, 0xF4	; 244
    22ec:	80 93 0c 07 	sts	0x070C, r24	; 0x80070c <Relays>
			}
		}

		if (Relays != oldRelays)
    22f0:	80 91 0c 07 	lds	r24, 0x070C	; 0x80070c <Relays>
    22f4:	18 17       	cp	r17, r24
    22f6:	61 f0       	breq	.+24     	; 0x2310 <CheckConditions+0x46a>
		{
			uart_puts_P("S99;");uart_puthex_byte(Relays);uart_puts_P("\r\n");
    22f8:	8f e4       	ldi	r24, 0x4F	; 79
    22fa:	92 e0       	ldi	r25, 0x02	; 2
    22fc:	0e 94 d6 27 	call	0x4fac	; 0x4fac <uart_puts_p>
    2300:	80 91 0c 07 	lds	r24, 0x070C	; 0x80070c <Relays>
    2304:	0e 94 49 28 	call	0x5092	; 0x5092 <uart_puthex_byte>
    2308:	8c e4       	ldi	r24, 0x4C	; 76
    230a:	92 e0       	ldi	r25, 0x02	; 2
    230c:	0e 94 d6 27 	call	0x4fac	; 0x4fac <uart_puts_p>
		}
		SwitchRelays();
    2310:	0e 94 49 0f 	call	0x1e92	; 0x1e92 <SwitchRelays>
	}
}
    2314:	24 c0       	rjmp	.+72     	; 0x235e <CheckConditions+0x4b8>
				&& (HIHxxxxTempInt <= SwitchOnOutdoorTempMin))
			{
				activeCondition = 1;
				if (Engineering.ActualTemp < EngineeringTempMin	|| !(THERMOSTAT_PIN & (1 << FIRST_THERMO_PIN)) || !(THERMOSTAT_PIN & (1 << SECOND_THERMO_PIN)) || !(THERMOSTAT_PIN & (1 << FIRST_REMOTE_PIN)) || !(PIND & (1 << SECOND_REMOTE_PIN)))
				{
					if ((Buffer.ActualTemp >= ForwardHeatTemp) || (Buffer.ActualTemp <= ForwardHeatTemp && Forward.ActualTemp >= ForwardHeatTemp && !pumpplustime))
    2316:	80 91 09 01 	lds	r24, 0x0109	; 0x800109 <ForwardHeatTemp>
    231a:	90 91 3d 08 	lds	r25, 0x083D	; 0x80083d <Buffer>
    231e:	98 17       	cp	r25, r24
    2320:	08 f0       	brcs	.+2      	; 0x2324 <CheckConditions+0x47e>
    2322:	a0 ce       	rjmp	.-704    	; 0x2064 <CheckConditions+0x1be>
    2324:	94 ce       	rjmp	.-728    	; 0x204e <CheckConditions+0x1a8>
						Relays &= ~((1 << BUFFER_VALVE_RELAY) | (1 << BUFFER_PUMP_RELAY) | (1 << FIRST_FLOOR_VALVE) | (1 << HOUSE_VALVE_RELAY));
				}
			}
		}

		if (Buffer.ActualTemp >= (BufferMaxTemp - 5))
    2326:	20 91 3d 08 	lds	r18, 0x083D	; 0x80083d <Buffer>
    232a:	42 2f       	mov	r20, r18
    232c:	50 e0       	ldi	r21, 0x00	; 0
    232e:	30 91 08 01 	lds	r19, 0x0108	; 0x800108 <BufferMaxTemp>
    2332:	83 2f       	mov	r24, r19
    2334:	90 e0       	ldi	r25, 0x00	; 0
    2336:	05 97       	sbiw	r24, 0x05	; 5
    2338:	48 17       	cp	r20, r24
    233a:	59 07       	cpc	r21, r25
    233c:	0c f0       	brlt	.+2      	; 0x2340 <CheckConditions+0x49a>
    233e:	a9 cf       	rjmp	.-174    	; 0x2292 <CheckConditions+0x3ec>
    2340:	d7 cf       	rjmp	.-82     	; 0x22f0 <CheckConditions+0x44a>
    2342:	20 91 3d 08 	lds	r18, 0x083D	; 0x80083d <Buffer>
    2346:	42 2f       	mov	r20, r18
    2348:	50 e0       	ldi	r21, 0x00	; 0
    234a:	30 91 08 01 	lds	r19, 0x0108	; 0x800108 <BufferMaxTemp>
    234e:	83 2f       	mov	r24, r19
    2350:	90 e0       	ldi	r25, 0x00	; 0
    2352:	05 97       	sbiw	r24, 0x05	; 5
    2354:	48 17       	cp	r20, r24
    2356:	59 07       	cpc	r21, r25
    2358:	0c f4       	brge	.+2      	; 0x235c <CheckConditions+0x4b6>
    235a:	b0 cf       	rjmp	.-160    	; 0x22bc <CheckConditions+0x416>
    235c:	9c cf       	rjmp	.-200    	; 0x2296 <CheckConditions+0x3f0>
		{
			uart_puts_P("S99;");uart_puthex_byte(Relays);uart_puts_P("\r\n");
		}
		SwitchRelays();
	}
}
    235e:	df 91       	pop	r29
    2360:	cf 91       	pop	r28
    2362:	1f 91       	pop	r17
    2364:	08 95       	ret

00002366 <read_from_eeprom>:
	SPIClose();
}

void read_from_eeprom()
{
	DHW.SensorID = eeprom_read_byte(&eeDHWSensorID);
    2366:	8a e0       	ldi	r24, 0x0A	; 10
    2368:	90 e0       	ldi	r25, 0x00	; 0
    236a:	0e 94 88 2e 	call	0x5d10	; 0x5d10 <eeprom_read_byte>
    236e:	80 93 1d 08 	sts	0x081D, r24	; 0x80081d <DHW+0x9>
	DHWTempDesired = eeprom_read_byte(&eeDHWTempDesired);
    2372:	87 e1       	ldi	r24, 0x17	; 23
    2374:	90 e0       	ldi	r25, 0x00	; 0
    2376:	0e 94 88 2e 	call	0x5d10	; 0x5d10 <eeprom_read_byte>
    237a:	80 93 de 07 	sts	0x07DE, r24	; 0x8007de <DHWTempDesired>
	DHWTempMin = eeprom_read_byte(&eeDHWTempMin);
    237e:	86 e1       	ldi	r24, 0x16	; 22
    2380:	90 e0       	ldi	r25, 0x00	; 0
    2382:	0e 94 88 2e 	call	0x5d10	; 0x5d10 <eeprom_read_byte>
    2386:	80 93 cd 07 	sts	0x07CD, r24	; 0x8007cd <DHWTempMin>
	DHWMinTime = eeprom_read_word(&eeDHWMinTime);
    238a:	84 e1       	ldi	r24, 0x14	; 20
    238c:	90 e0       	ldi	r25, 0x00	; 0
    238e:	0e 94 90 2e 	call	0x5d20	; 0x5d20 <eeprom_read_word>
    2392:	90 93 09 08 	sts	0x0809, r25	; 0x800809 <DHWMinTime+0x1>
    2396:	80 93 08 08 	sts	0x0808, r24	; 0x800808 <DHWMinTime>
	DHWMaxTime = eeprom_read_word(&eeDHWMaxTime);
    239a:	82 e1       	ldi	r24, 0x12	; 18
    239c:	90 e0       	ldi	r25, 0x00	; 0
    239e:	0e 94 90 2e 	call	0x5d20	; 0x5d20 <eeprom_read_word>
    23a2:	90 93 35 08 	sts	0x0835, r25	; 0x800835 <DHWMaxTime+0x1>
    23a6:	80 93 34 08 	sts	0x0834, r24	; 0x800834 <DHWMaxTime>
	Buffer.SensorID = eeprom_read_byte(&eeBufferSensorID);
    23aa:	89 e0       	ldi	r24, 0x09	; 9
    23ac:	90 e0       	ldi	r25, 0x00	; 0
    23ae:	0e 94 88 2e 	call	0x5d10	; 0x5d10 <eeprom_read_byte>
    23b2:	80 93 46 08 	sts	0x0846, r24	; 0x800846 <Buffer+0x9>
	ForwardHeatTemp = eeprom_read_byte(&eeForwardHeatTemp);
    23b6:	81 e1       	ldi	r24, 0x11	; 17
    23b8:	90 e0       	ldi	r25, 0x00	; 0
    23ba:	0e 94 88 2e 	call	0x5d10	; 0x5d10 <eeprom_read_byte>
    23be:	80 93 09 01 	sts	0x0109, r24	; 0x800109 <ForwardHeatTemp>
	BufferMaxTemp = eeprom_read_byte(&eeBufferMaxTemp);
    23c2:	80 e1       	ldi	r24, 0x10	; 16
    23c4:	90 e0       	ldi	r25, 0x00	; 0
    23c6:	0e 94 88 2e 	call	0x5d10	; 0x5d10 <eeprom_read_byte>
    23ca:	80 93 08 01 	sts	0x0108, r24	; 0x800108 <BufferMaxTemp>
	Engineering.SensorID = eeprom_read_byte(&eeEngineeringSensorID);
    23ce:	87 e0       	ldi	r24, 0x07	; 7
    23d0:	90 e0       	ldi	r25, 0x00	; 0
    23d2:	0e 94 88 2e 	call	0x5d10	; 0x5d10 <eeprom_read_byte>
    23d6:	80 93 e8 07 	sts	0x07E8, r24	; 0x8007e8 <Engineering+0x9>
	EngineeringTempDesired = eeprom_read_byte(&eeEngineeringTempDesired);
    23da:	8e e0       	ldi	r24, 0x0E	; 14
    23dc:	90 e0       	ldi	r25, 0x00	; 0
    23de:	0e 94 88 2e 	call	0x5d10	; 0x5d10 <eeprom_read_byte>
    23e2:	80 93 c1 07 	sts	0x07C1, r24	; 0x8007c1 <EngineeringTempDesired>
	EngineeringTempMin = eeprom_read_byte(&eeEngineeringTempMin);
    23e6:	8d e0       	ldi	r24, 0x0D	; 13
    23e8:	90 e0       	ldi	r25, 0x00	; 0
    23ea:	0e 94 88 2e 	call	0x5d10	; 0x5d10 <eeprom_read_byte>
    23ee:	80 93 3a 08 	sts	0x083A, r24	; 0x80083a <EngineeringTempMin>
	Garage.SensorID = eeprom_read_byte(&eeGarageSensorID);
    23f2:	88 e0       	ldi	r24, 0x08	; 8
    23f4:	90 e0       	ldi	r25, 0x00	; 0
    23f6:	0e 94 88 2e 	call	0x5d10	; 0x5d10 <eeprom_read_byte>
    23fa:	80 93 d7 07 	sts	0x07D7, r24	; 0x8007d7 <Garage+0x9>
	LivingRoomSensorID = eeprom_read_byte(&eeLivingRoomSensorID);
    23fe:	86 e0       	ldi	r24, 0x06	; 6
    2400:	90 e0       	ldi	r25, 0x00	; 0
    2402:	0e 94 88 2e 	call	0x5d10	; 0x5d10 <eeprom_read_byte>
    2406:	80 93 06 01 	sts	0x0106, r24	; 0x800106 <LivingRoomSensorID>
	Floor.SensorID = eeprom_read_byte(&eeFloorSensorID);
    240a:	85 e0       	ldi	r24, 0x05	; 5
    240c:	90 e0       	ldi	r25, 0x00	; 0
    240e:	0e 94 88 2e 	call	0x5d10	; 0x5d10 <eeprom_read_byte>
    2412:	80 93 13 08 	sts	0x0813, r24	; 0x800813 <Floor+0x9>
	GasForward.SensorID = eeprom_read_byte(&eeGasForwardTempSensorID);
    2416:	84 e0       	ldi	r24, 0x04	; 4
    2418:	90 e0       	ldi	r25, 0x00	; 0
    241a:	0e 94 88 2e 	call	0x5d10	; 0x5d10 <eeprom_read_byte>
    241e:	80 93 27 08 	sts	0x0827, r24	; 0x800827 <GasForward+0x9>
	GasReturn.SensorID = eeprom_read_byte(&eeGasReturnTempSensorID);
    2422:	83 e0       	ldi	r24, 0x03	; 3
    2424:	90 e0       	ldi	r25, 0x00	; 0
    2426:	0e 94 88 2e 	call	0x5d10	; 0x5d10 <eeprom_read_byte>
    242a:	80 93 b2 08 	sts	0x08B2, r24	; 0x8008b2 <GasReturn+0x9>
	Forward.SensorID = eeprom_read_byte(&eeForwardTempSensorID);
    242e:	82 e0       	ldi	r24, 0x02	; 2
    2430:	90 e0       	ldi	r25, 0x00	; 0
    2432:	0e 94 88 2e 	call	0x5d10	; 0x5d10 <eeprom_read_byte>
    2436:	80 93 f2 07 	sts	0x07F2, r24	; 0x8007f2 <Forward+0x9>
	Return.SensorID = eeprom_read_byte(&eeReturnTempSensorID);
    243a:	81 e0       	ldi	r24, 0x01	; 1
    243c:	90 e0       	ldi	r25, 0x00	; 0
    243e:	0e 94 88 2e 	call	0x5d10	; 0x5d10 <eeprom_read_byte>
    2442:	80 93 fc 07 	sts	0x07FC, r24	; 0x8007fc <Return+0x9>
	Mixed.SensorID = eeprom_read_byte(&eeMixedTempSensorID);
    2446:	80 e0       	ldi	r24, 0x00	; 0
    2448:	90 e0       	ldi	r25, 0x00	; 0
    244a:	0e 94 88 2e 	call	0x5d10	; 0x5d10 <eeprom_read_byte>
    244e:	80 93 bc 08 	sts	0x08BC, r24	; 0x8008bc <Mixed+0x9>
	SwitchOnOutdoorTempMin = eeprom_read_word(&eeSwitchOnOutdoorTempMin);
    2452:	8b e0       	ldi	r24, 0x0B	; 11
    2454:	90 e0       	ldi	r25, 0x00	; 0
    2456:	0e 94 90 2e 	call	0x5d20	; 0x5d20 <eeprom_read_word>
    245a:	90 93 cb 07 	sts	0x07CB, r25	; 0x8007cb <SwitchOnOutdoorTempMin+0x1>
    245e:	80 93 ca 07 	sts	0x07CA, r24	; 0x8007ca <SwitchOnOutdoorTempMin>
	Mode = eeprom_read_byte(&eeMode);
    2462:	86 e2       	ldi	r24, 0x26	; 38
    2464:	90 e0       	ldi	r25, 0x00	; 0
    2466:	0e 94 88 2e 	call	0x5d10	; 0x5d10 <eeprom_read_byte>
    246a:	80 93 11 07 	sts	0x0711, r24	; 0x800711 <Mode>
	MenuTimer = eeprom_read_byte(&eeMenuTimer);
    246e:	85 e2       	ldi	r24, 0x25	; 37
    2470:	90 e0       	ldi	r25, 0x00	; 0
    2472:	0e 94 88 2e 	call	0x5d10	; 0x5d10 <eeprom_read_byte>
    2476:	80 93 13 01 	sts	0x0113, r24	; 0x800113 <MenuTimer>
	LCDBackLight = eeprom_read_byte(&eeLCDBackLight);
    247a:	84 e2       	ldi	r24, 0x24	; 36
    247c:	90 e0       	ldi	r25, 0x00	; 0
    247e:	0e 94 88 2e 	call	0x5d10	; 0x5d10 <eeprom_read_byte>
    2482:	80 93 10 07 	sts	0x0710, r24	; 0x800710 <LCDBackLight>
	PumpPlusTime = eeprom_read_word(&eePumpPlusTime);
    2486:	82 e2       	ldi	r24, 0x22	; 34
    2488:	90 e0       	ldi	r25, 0x00	; 0
    248a:	0e 94 90 2e 	call	0x5d20	; 0x5d20 <eeprom_read_word>
    248e:	90 93 12 01 	sts	0x0112, r25	; 0x800112 <PumpPlusTime+0x1>
    2492:	80 93 11 01 	sts	0x0111, r24	; 0x800111 <PumpPlusTime>
	ComfortMode = eeprom_read_byte(&eeComfortMode);
    2496:	81 e2       	ldi	r24, 0x21	; 33
    2498:	90 e0       	ldi	r25, 0x00	; 0
    249a:	0e 94 88 2e 	call	0x5d10	; 0x5d10 <eeprom_read_byte>
    249e:	80 93 0f 07 	sts	0x070F, r24	; 0x80070f <ComfortMode>
	ComfortTemp = eeprom_read_word(&eeComfortTemp);
    24a2:	8f e1       	ldi	r24, 0x1F	; 31
    24a4:	90 e0       	ldi	r25, 0x00	; 0
    24a6:	0e 94 90 2e 	call	0x5d20	; 0x5d20 <eeprom_read_word>
    24aa:	90 93 10 01 	sts	0x0110, r25	; 0x800110 <ComfortTemp+0x1>
    24ae:	80 93 0f 01 	sts	0x010F, r24	; 0x80010f <ComfortTemp>
	ComfortForwardTemp = eeprom_read_byte(&eeComfortForwardTemp);
    24b2:	8e e1       	ldi	r24, 0x1E	; 30
    24b4:	90 e0       	ldi	r25, 0x00	; 0
    24b6:	0e 94 88 2e 	call	0x5d10	; 0x5d10 <eeprom_read_byte>
    24ba:	80 93 0e 01 	sts	0x010E, r24	; 0x80010e <ComfortForwardTemp>
	ComfortMaxTime = eeprom_read_word(&eeComfortMaxTime);
    24be:	8c e1       	ldi	r24, 0x1C	; 28
    24c0:	90 e0       	ldi	r25, 0x00	; 0
    24c2:	0e 94 90 2e 	call	0x5d20	; 0x5d20 <eeprom_read_word>
    24c6:	90 93 0d 01 	sts	0x010D, r25	; 0x80010d <ComfortMaxTime+0x1>
    24ca:	80 93 0c 01 	sts	0x010C, r24	; 0x80010c <ComfortMaxTime>
	ComfortMinTime = eeprom_read_word(&eeComfortMinTime);
    24ce:	8a e1       	ldi	r24, 0x1A	; 26
    24d0:	90 e0       	ldi	r25, 0x00	; 0
    24d2:	0e 94 90 2e 	call	0x5d20	; 0x5d20 <eeprom_read_word>
    24d6:	90 93 0b 01 	sts	0x010B, r25	; 0x80010b <ComfortMinTime+0x1>
    24da:	80 93 0a 01 	sts	0x010A, r24	; 0x80010a <ComfortMinTime>
	eeGasForwardHeatTemp = eeprom_read_byte(&eeGasForwardHeatTemp);
    24de:	8f e0       	ldi	r24, 0x0F	; 15
    24e0:	90 e0       	ldi	r25, 0x00	; 0
    24e2:	0e 94 88 2e 	call	0x5d10	; 0x5d10 <eeprom_read_byte>
    24e6:	80 93 0f 00 	sts	0x000F, r24	; 0x80000f <__TEXT_REGION_LENGTH__+0x7e000f>
	Restarts = eeprom_read_word(&eeRestarts);
    24ea:	88 e1       	ldi	r24, 0x18	; 24
    24ec:	90 e0       	ldi	r25, 0x00	; 0
    24ee:	0e 94 90 2e 	call	0x5d20	; 0x5d20 <eeprom_read_word>
    24f2:	90 93 0e 07 	sts	0x070E, r25	; 0x80070e <Restarts+0x1>
    24f6:	80 93 0d 07 	sts	0x070D, r24	; 0x80070d <Restarts>
    24fa:	08 95       	ret

000024fc <main>:
}

int main(void)
{
    24fc:	cf 93       	push	r28
    24fe:	df 93       	push	r29
    2500:	cd b7       	in	r28, 0x3d	; 61
    2502:	de b7       	in	r29, 0x3e	; 62
    2504:	65 97       	sbiw	r28, 0x15	; 21
    2506:	0f b6       	in	r0, 0x3f	; 63
    2508:	f8 94       	cli
    250a:	de bf       	out	0x3e, r29	; 62
    250c:	0f be       	out	0x3f, r0	; 63
    250e:	cd bf       	out	0x3d, r28	; 61
	char readchar;
	read_from_eeprom();
    2510:	0e 94 b3 11 	call	0x2366	; 0x2366 <read_from_eeprom>
	eeprom_update_word(&eeRestarts, ++Restarts);
    2514:	60 91 0d 07 	lds	r22, 0x070D	; 0x80070d <Restarts>
    2518:	70 91 0e 07 	lds	r23, 0x070E	; 0x80070e <Restarts+0x1>
    251c:	6f 5f       	subi	r22, 0xFF	; 255
    251e:	7f 4f       	sbci	r23, 0xFF	; 255
    2520:	70 93 0e 07 	sts	0x070E, r23	; 0x80070e <Restarts+0x1>
    2524:	60 93 0d 07 	sts	0x070D, r22	; 0x80070d <Restarts>
    2528:	88 e1       	ldi	r24, 0x18	; 24
    252a:	90 e0       	ldi	r25, 0x00	; 0
    252c:	0e 94 a7 2e 	call	0x5d4e	; 0x5d4e <eeprom_update_word>

	lcd_init(LCD_DISP_ON);
    2530:	8c e0       	ldi	r24, 0x0C	; 12
    2532:	0e 94 3a 08 	call	0x1074	; 0x1074 <lcd_init>
	lcd_defc(magyar_betuk);
    2536:	8e ec       	ldi	r24, 0xCE	; 206
    2538:	93 e0       	ldi	r25, 0x03	; 3
    253a:	0e 94 74 08 	call	0x10e8	; 0x10e8 <lcd_defc>

	TCCR3A |= (1 << WGM30)|(1<<COM3C1);
    253e:	eb e8       	ldi	r30, 0x8B	; 139
    2540:	f0 e0       	ldi	r31, 0x00	; 0
    2542:	80 81       	ld	r24, Z
    2544:	89 60       	ori	r24, 0x09	; 9
    2546:	80 83       	st	Z, r24
	TCCR3B |= (1 << WGM32)|(1 << CS30)|(1 << CS31);
    2548:	ea e8       	ldi	r30, 0x8A	; 138
    254a:	f0 e0       	ldi	r31, 0x00	; 0
    254c:	80 81       	ld	r24, Z
    254e:	8b 60       	ori	r24, 0x0B	; 11
    2550:	80 83       	st	Z, r24
	OCR3C = 60;
    2552:	8c e3       	ldi	r24, 0x3C	; 60
    2554:	90 e0       	ldi	r25, 0x00	; 0
    2556:	90 93 83 00 	sts	0x0083, r25	; 0x800083 <__TEXT_REGION_LENGTH__+0x7e0083>
    255a:	80 93 82 00 	sts	0x0082, r24	; 0x800082 <__TEXT_REGION_LENGTH__+0x7e0082>
	DDRE |= (1 << PINE5);	//LCD led PWM
    255e:	15 9a       	sbi	0x02, 5	; 2
	PORTE |= (1 << PINE5);	//LCD led PWM
    2560:	1d 9a       	sbi	0x03, 5	; 3

	lcd_clrscr();
    2562:	0e 94 04 08 	call	0x1008	; 0x1008 <lcd_clrscr>
	lcd_puts_hu(PSTR("Fûtés vezérlés v0.93"));
    2566:	89 e0       	ldi	r24, 0x09	; 9
    2568:	92 e0       	ldi	r25, 0x02	; 2
    256a:	0e 94 ef 08 	call	0x11de	; 0x11de <lcd_puts_hu>

	uart_init( UART_BAUD_SELECT(UART_BAUD_RATE,F_CPU) );
    256e:	87 e6       	ldi	r24, 0x67	; 103
    2570:	90 e0       	ldi	r25, 0x00	; 0
    2572:	0e 94 82 27 	call	0x4f04	; 0x4f04 <uart_init>

	DDRF &= ~(1 << PINF0); //ADC input
    2576:	e1 e6       	ldi	r30, 0x61	; 97
    2578:	f0 e0       	ldi	r31, 0x00	; 0
    257a:	80 81       	ld	r24, Z
    257c:	8e 7f       	andi	r24, 0xFE	; 254
    257e:	80 83       	st	Z, r24
	PORTF &= ~(1 << PINF0);
    2580:	e2 e6       	ldi	r30, 0x62	; 98
    2582:	f0 e0       	ldi	r31, 0x00	; 0
    2584:	80 81       	ld	r24, Z
    2586:	8e 7f       	andi	r24, 0xFE	; 254
    2588:	80 83       	st	Z, r24

	BUZZER_DDR |= (1 << BUZZER_PIN);
    258a:	a0 9a       	sbi	0x14, 0	; 20

	THERMOSTAT_DDR &= ~((1 << FIRST_THERMO_PIN)|(1 << SECOND_THERMO_PIN)|(1 << FIRST_REMOTE_PIN));
    258c:	82 b1       	in	r24, 0x02	; 2
    258e:	8b 73       	andi	r24, 0x3B	; 59
    2590:	82 b9       	out	0x02, r24	; 2
	DDRD &= ~(1 << SECOND_REMOTE_PIN);
    2592:	8b 98       	cbi	0x11, 3	; 17
	#else
		//round up by default
		__ticks_dc = (uint32_t)(ceil(fabs(__tmp)));
	#endif

	__builtin_avr_delay_cycles(__ticks_dc);
    2594:	8f e3       	ldi	r24, 0x3F	; 63
    2596:	9c e9       	ldi	r25, 0x9C	; 156
    2598:	01 97       	sbiw	r24, 0x01	; 1
    259a:	f1 f7       	brne	.-4      	; 0x2598 <main+0x9c>
    259c:	00 c0       	rjmp	.+0      	; 0x259e <main+0xa2>
    259e:	00 00       	nop
	//THERMOSTAT_PORT |= (1 << FIRST_THERMO_PIN)|(1 << SECOND_THERMO_PIN);

	_delay_ms(10);
	SPIInit();
    25a0:	0e 94 07 27 	call	0x4e0e	; 0x4e0e <SPIInit>
	SPIWrite(3, 0x00);
    25a4:	60 e0       	ldi	r22, 0x00	; 0
    25a6:	83 e0       	ldi	r24, 0x03	; 3
    25a8:	0e 94 1b 27 	call	0x4e36	; 0x4e36 <SPIWrite>
	SPIClose();
    25ac:	0e 94 16 27 	call	0x4e2c	; 0x4e2c <SPIClose>

	Relays = 0x00;
    25b0:	10 92 0c 07 	sts	0x070C, r1	; 0x80070c <Relays>
	SwitchRelays();
    25b4:	0e 94 49 0f 	call	0x1e92	; 0x1e92 <SwitchRelays>

	lcd_gotoxy(0,1);
    25b8:	61 e0       	ldi	r22, 0x01	; 1
    25ba:	80 e0       	ldi	r24, 0x00	; 0
    25bc:	0e 94 ee 07 	call	0xfdc	; 0xfdc <lcd_gotoxy>
	lcd_puts_hu(PSTR("Alapállapotba állás"));
    25c0:	85 ef       	ldi	r24, 0xF5	; 245
    25c2:	91 e0       	ldi	r25, 0x01	; 1
    25c4:	0e 94 ef 08 	call	0x11de	; 0x11de <lcd_puts_hu>
	lcd_gotoxy(0,2);
    25c8:	62 e0       	ldi	r22, 0x02	; 2
    25ca:	80 e0       	ldi	r24, 0x00	; 0
    25cc:	0e 94 ee 07 	call	0xfdc	; 0xfdc <lcd_gotoxy>
    25d0:	1a e0       	ldi	r17, 0x0A	; 10
	uint8_t init_counter = 0;
	while (init_counter < 10)
	{
		lcd_putc('x');
    25d2:	88 e7       	ldi	r24, 0x78	; 120
    25d4:	0e 94 08 08 	call	0x1010	; 0x1010 <lcd_putc>
    25d8:	9f ef       	ldi	r25, 0xFF	; 255
    25da:	23 ed       	ldi	r18, 0xD3	; 211
    25dc:	80 e3       	ldi	r24, 0x30	; 48
    25de:	91 50       	subi	r25, 0x01	; 1
    25e0:	20 40       	sbci	r18, 0x00	; 0
    25e2:	80 40       	sbci	r24, 0x00	; 0
    25e4:	e1 f7       	brne	.-8      	; 0x25de <main+0xe2>
    25e6:	00 c0       	rjmp	.+0      	; 0x25e8 <main+0xec>
    25e8:	00 00       	nop
    25ea:	11 50       	subi	r17, 0x01	; 1

	lcd_gotoxy(0,1);
	lcd_puts_hu(PSTR("Alapállapotba állás"));
	lcd_gotoxy(0,2);
	uint8_t init_counter = 0;
	while (init_counter < 10)
    25ec:	91 f7       	brne	.-28     	; 0x25d2 <main+0xd6>
		lcd_putc('x');
		_delay_ms(1000);
		init_counter++;
	}

	lcd_clrscr();
    25ee:	0e 94 04 08 	call	0x1008	; 0x1008 <lcd_clrscr>
	lcd_puts_hu(PSTR("I2C indítás"));
    25f2:	89 ee       	ldi	r24, 0xE9	; 233
    25f4:	91 e0       	ldi	r25, 0x01	; 1
    25f6:	0e 94 ef 08 	call	0x11de	; 0x11de <lcd_puts_hu>
	i2c_init();
    25fa:	0e 94 e6 06 	call	0xdcc	; 0xdcc <i2c_init>
	lcd_gotoxy(0,1);
    25fe:	61 e0       	ldi	r22, 0x01	; 1
    2600:	80 e0       	ldi	r24, 0x00	; 0
    2602:	0e 94 ee 07 	call	0xfdc	; 0xfdc <lcd_gotoxy>
	//lcd_puts_hu(PSTR("HIHxxxx indítás"));
	lcd_puts_hu(PSTR("Megszakítások eng."));
    2606:	86 ed       	ldi	r24, 0xD6	; 214
    2608:	91 e0       	ldi	r25, 0x01	; 1
    260a:	0e 94 ef 08 	call	0x11de	; 0x11de <lcd_puts_hu>
	
	//init_BME280();

	sei();
    260e:	78 94       	sei
	uart_puts_p(PSTR("Interrupt enabled\n"));
    2610:	83 ec       	ldi	r24, 0xC3	; 195
    2612:	91 e0       	ldi	r25, 0x01	; 1
    2614:	0e 94 d6 27 	call	0x4fac	; 0x4fac <uart_puts_p>


	ow_set_bus(&PINB,&PORTB,&DDRB,PINB0);
    2618:	20 e0       	ldi	r18, 0x00	; 0
    261a:	47 e3       	ldi	r20, 0x37	; 55
    261c:	50 e0       	ldi	r21, 0x00	; 0
    261e:	68 e3       	ldi	r22, 0x38	; 56
    2620:	70 e0       	ldi	r23, 0x00	; 0
    2622:	86 e3       	ldi	r24, 0x36	; 54
    2624:	90 e0       	ldi	r25, 0x00	; 0
    2626:	0e 94 76 05 	call	0xaec	; 0xaec <ow_set_bus>
	nSensors = search_sensors();
    262a:	0e 94 8c 09 	call	0x1318	; 0x1318 <search_sensors>
    262e:	80 93 cc 07 	sts	0x07CC, r24	; 0x8007cc <nSensors>

	if (Mode == DEBUG1)
    2632:	80 91 11 07 	lds	r24, 0x0711	; 0x800711 <Mode>
    2636:	82 30       	cpi	r24, 0x02	; 2
    2638:	69 f4       	brne	.+26     	; 0x2654 <main+0x158>
		{ uart_puts_P("Found "); uart_puti(nSensors); uart_puts_P(" DS18B20 sensors\n"); }
    263a:	8c eb       	ldi	r24, 0xBC	; 188
    263c:	91 e0       	ldi	r25, 0x01	; 1
    263e:	0e 94 d6 27 	call	0x4fac	; 0x4fac <uart_puts_p>
    2642:	80 91 cc 07 	lds	r24, 0x07CC	; 0x8007cc <nSensors>
    2646:	90 e0       	ldi	r25, 0x00	; 0
    2648:	0e 94 54 28 	call	0x50a8	; 0x50a8 <uart_puti>
    264c:	8a ea       	ldi	r24, 0xAA	; 170
    264e:	91 e0       	ldi	r25, 0x01	; 1
    2650:	0e 94 d6 27 	call	0x4fac	; 0x4fac <uart_puts_p>
	lcd_gotoxy(0,2);
    2654:	62 e0       	ldi	r22, 0x02	; 2
    2656:	80 e0       	ldi	r24, 0x00	; 0
    2658:	0e 94 ee 07 	call	0xfdc	; 0xfdc <lcd_gotoxy>
	lcd_puts_p(PSTR("DS18B20: ")); lcd_puti(nSensors); lcd_puts_p(PSTR(" db"));
    265c:	80 ea       	ldi	r24, 0xA0	; 160
    265e:	91 e0       	ldi	r25, 0x01	; 1
    2660:	0e 94 28 08 	call	0x1050	; 0x1050 <lcd_puts_p>
    2664:	80 91 cc 07 	lds	r24, 0x07CC	; 0x8007cc <nSensors>
    2668:	90 e0       	ldi	r25, 0x00	; 0
    266a:	0e 94 cd 08 	call	0x119a	; 0x119a <lcd_puti>
    266e:	8c e9       	ldi	r24, 0x9C	; 156
    2670:	91 e0       	ldi	r25, 0x01	; 1
    2672:	0e 94 28 08 	call	0x1050	; 0x1050 <lcd_puts_p>
    2676:	9f ef       	ldi	r25, 0xFF	; 255
    2678:	2b e7       	ldi	r18, 0x7B	; 123
    267a:	82 e9       	ldi	r24, 0x92	; 146
    267c:	91 50       	subi	r25, 0x01	; 1
    267e:	20 40       	sbci	r18, 0x00	; 0
    2680:	80 40       	sbci	r24, 0x00	; 0
    2682:	e1 f7       	brne	.-8      	; 0x267c <main+0x180>
    2684:	00 c0       	rjmp	.+0      	; 0x2686 <main+0x18a>
    2686:	00 00       	nop

	_delay_ms(3000);

	TCCR1B |= (1 << CS12) | (1 << WGM12);
    2688:	8e b5       	in	r24, 0x2e	; 46
    268a:	8c 60       	ori	r24, 0x0C	; 12
    268c:	8e bd       	out	0x2e, r24	; 46
	TCNT1 = 0;
    268e:	1d bc       	out	0x2d, r1	; 45
    2690:	1c bc       	out	0x2c, r1	; 44
	OCR1A = 62500;//14400; // 1000ms
    2692:	84 e2       	ldi	r24, 0x24	; 36
    2694:	94 ef       	ldi	r25, 0xF4	; 244
    2696:	9b bd       	out	0x2b, r25	; 43
    2698:	8a bd       	out	0x2a, r24	; 42
	TIMSK |= (1 << OCIE1A);
    269a:	87 b7       	in	r24, 0x37	; 55
    269c:	80 61       	ori	r24, 0x10	; 16
    269e:	87 bf       	out	0x37, r24	; 55

	//ADMUX |= (1<<REFS0) | (1<< REFS1);
	//ADCSRA |= (1 << ADEN)|(1<<ADIE)|(1<<ADSC)|(1<<ADPS0)|(1<<ADPS1)|(1<<ADPS2);

	//reset watchdog
	wdt_reset();
    26a0:	a8 95       	wdr
	WDTCR |= (1<<WDE) | (1 << WDCE);
    26a2:	81 b5       	in	r24, 0x21	; 33
    26a4:	88 61       	ori	r24, 0x18	; 24
    26a6:	81 bd       	out	0x21, r24	; 33
	WDTCR |= (1<<WDP2)| (1<<WDP1) | (1<<WDP0);
    26a8:	81 b5       	in	r24, 0x21	; 33
    26aa:	87 60       	ori	r24, 0x07	; 7
    26ac:	81 bd       	out	0x21, r24	; 33


	menuInit();
    26ae:	0e 94 69 15 	call	0x2ad2	; 0x2ad2 <menuInit>
				if (++Minute == 60)
				{
					Minute = 0;
					if (++Hour == 24)
					{
						PumpRunner = 60;
    26b2:	0f 2e       	mov	r0, r31
    26b4:	fc e3       	ldi	r31, 0x3C	; 60
    26b6:	bf 2e       	mov	r11, r31
    26b8:	f0 2d       	mov	r31, r0
								xDay = 29;
								break;
						}
						if (++Day == xDay)
						{
							Day = 1;
    26ba:	aa 24       	eor	r10, r10
    26bc:	a3 94       	inc	r10
							case 11:
								xDay = 31;
								break;

							case 2:
								xDay = 29;
    26be:	0f 2e       	mov	r0, r31
    26c0:	fd e1       	ldi	r31, 0x1D	; 29
    26c2:	8f 2e       	mov	r8, r31
    26c4:	f0 2d       	mov	r31, r0

							case 4:
							case 6:
							case 9:
							case 11:
								xDay = 31;
    26c6:	0f 2e       	mov	r0, r31
    26c8:	ff e1       	ldi	r31, 0x1F	; 31
    26ca:	9f 2e       	mov	r9, r31
    26cc:	f0 2d       	mov	r31, r0
				{
					uartdata_in[uartdata_count++] = readchar;
				}
				else
				{
					uartdata_in[uartdata_count] = CHAR_NEWLINE;
    26ce:	0f 2e       	mov	r0, r31
    26d0:	fa e0       	ldi	r31, 0x0A	; 10
    26d2:	df 2e       	mov	r13, r31
    26d4:	f0 2d       	mov	r31, r0

	menuInit();

	while(1)
	{
		if (TimerElapsed == 1)
    26d6:	80 91 12 07 	lds	r24, 0x0712	; 0x800712 <TimerElapsed>
    26da:	81 30       	cpi	r24, 0x01	; 1
    26dc:	09 f0       	breq	.+2      	; 0x26e0 <main+0x1e4>
    26de:	60 c0       	rjmp	.+192    	; 0x27a0 <main+0x2a4>
		{
			if (++Seconds == 60)
    26e0:	80 91 09 07 	lds	r24, 0x0709	; 0x800709 <Seconds>
    26e4:	8f 5f       	subi	r24, 0xFF	; 255
    26e6:	8c 33       	cpi	r24, 0x3C	; 60
    26e8:	19 f0       	breq	.+6      	; 0x26f0 <main+0x1f4>
    26ea:	80 93 09 07 	sts	0x0709, r24	; 0x800709 <Seconds>
    26ee:	4e c0       	rjmp	.+156    	; 0x278c <main+0x290>
			{
				Seconds = 0;
    26f0:	10 92 09 07 	sts	0x0709, r1	; 0x800709 <Seconds>
				if (++Minute == 60)
    26f4:	80 91 0a 07 	lds	r24, 0x070A	; 0x80070a <Minute>
    26f8:	8f 5f       	subi	r24, 0xFF	; 255
    26fa:	8c 33       	cpi	r24, 0x3C	; 60
    26fc:	19 f0       	breq	.+6      	; 0x2704 <main+0x208>
    26fe:	80 93 0a 07 	sts	0x070A, r24	; 0x80070a <Minute>
    2702:	44 c0       	rjmp	.+136    	; 0x278c <main+0x290>
				{
					Minute = 0;
    2704:	10 92 0a 07 	sts	0x070A, r1	; 0x80070a <Minute>
					if (++Hour == 24)
    2708:	80 91 0b 07 	lds	r24, 0x070B	; 0x80070b <Hour>
    270c:	8f 5f       	subi	r24, 0xFF	; 255
    270e:	80 93 0b 07 	sts	0x070B, r24	; 0x80070b <Hour>
    2712:	88 31       	cpi	r24, 0x18	; 24
    2714:	d9 f5       	brne	.+118    	; 0x278c <main+0x290>
					{
						PumpRunner = 60;
    2716:	b0 92 06 07 	sts	0x0706, r11	; 0x800706 <PumpRunner>
						Hour = 0;
    271a:	10 92 0b 07 	sts	0x070B, r1	; 0x80070b <Hour>

						if (++DayName == 8)
    271e:	80 91 01 01 	lds	r24, 0x0101	; 0x800101 <DayName>
    2722:	8f 5f       	subi	r24, 0xFF	; 255
    2724:	88 30       	cpi	r24, 0x08	; 8
    2726:	19 f0       	breq	.+6      	; 0x272e <main+0x232>
    2728:	80 93 01 01 	sts	0x0101, r24	; 0x800101 <DayName>
    272c:	02 c0       	rjmp	.+4      	; 0x2732 <main+0x236>
							DayName = 1;
    272e:	a0 92 01 01 	sts	0x0101, r10	; 0x800101 <DayName>
						uint8_t xDay;
						switch (Month)
    2732:	20 91 03 01 	lds	r18, 0x0103	; 0x800103 <Month>
    2736:	82 2f       	mov	r24, r18
    2738:	90 e0       	ldi	r25, 0x00	; 0
    273a:	fc 01       	movw	r30, r24
    273c:	31 97       	sbiw	r30, 0x01	; 1
    273e:	ec 30       	cpi	r30, 0x0C	; 12
    2740:	f1 05       	cpc	r31, r1
    2742:	48 f4       	brcc	.+18     	; 0x2756 <main+0x25a>
    2744:	e0 57       	subi	r30, 0x70	; 112
    2746:	ff 4f       	sbci	r31, 0xFF	; 255
    2748:	0c 94 38 2b 	jmp	0x5670	; 0x5670 <__tablejump2__>
							case 5:
							case 7:
							case 8:
							case 10:
							case 12:
								xDay = 32;
    274c:	68 94       	set
    274e:	cc 24       	eor	r12, r12
    2750:	c5 f8       	bld	r12, 5
    2752:	01 c0       	rjmp	.+2      	; 0x2756 <main+0x25a>

							case 4:
							case 6:
							case 9:
							case 11:
								xDay = 31;
    2754:	c9 2c       	mov	r12, r9

							case 2:
								xDay = 29;
								break;
						}
						if (++Day == xDay)
    2756:	80 91 02 01 	lds	r24, 0x0102	; 0x800102 <Day>
    275a:	8f 5f       	subi	r24, 0xFF	; 255
    275c:	c8 16       	cp	r12, r24
    275e:	19 f0       	breq	.+6      	; 0x2766 <main+0x26a>
    2760:	80 93 02 01 	sts	0x0102, r24	; 0x800102 <Day>
    2764:	13 c0       	rjmp	.+38     	; 0x278c <main+0x290>
						{
							Day = 1;
    2766:	a0 92 02 01 	sts	0x0102, r10	; 0x800102 <Day>
							if (++Month == 13)
    276a:	2f 5f       	subi	r18, 0xFF	; 255
    276c:	2d 30       	cpi	r18, 0x0D	; 13
    276e:	19 f0       	breq	.+6      	; 0x2776 <main+0x27a>
    2770:	20 93 03 01 	sts	0x0103, r18	; 0x800103 <Month>
    2774:	0b c0       	rjmp	.+22     	; 0x278c <main+0x290>
							{
								Month = 1;
    2776:	a0 92 03 01 	sts	0x0103, r10	; 0x800103 <Month>
								Year++;
    277a:	80 91 04 01 	lds	r24, 0x0104	; 0x800104 <Year>
    277e:	90 91 05 01 	lds	r25, 0x0105	; 0x800105 <Year+0x1>
    2782:	01 96       	adiw	r24, 0x01	; 1
    2784:	90 93 05 01 	sts	0x0105, r25	; 0x800105 <Year+0x1>
    2788:	80 93 04 01 	sts	0x0104, r24	; 0x800104 <Year>
					}

				}
			}

			SensorRead();
    278c:	0e 94 f1 09 	call	0x13e2	; 0x13e2 <SensorRead>
			if (Mode != MANUAL)
    2790:	80 91 11 07 	lds	r24, 0x0711	; 0x800711 <Mode>
    2794:	81 30       	cpi	r24, 0x01	; 1
    2796:	11 f0       	breq	.+4      	; 0x279c <main+0x2a0>
				CheckConditions();
    2798:	0e 94 53 0f 	call	0x1ea6	; 0x1ea6 <CheckConditions>
			TimerElapsed = 0;
    279c:	10 92 12 07 	sts	0x0712, r1	; 0x800712 <TimerElapsed>
		}

		wdt_reset();
    27a0:	a8 95       	wdr
		menuPollButtons();
    27a2:	0e 94 6e 15 	call	0x2adc	; 0x2adc <menuPollButtons>

		if (Mode == DEBUG1)
    27a6:	80 91 11 07 	lds	r24, 0x0711	; 0x800711 <Mode>
    27aa:	82 30       	cpi	r24, 0x02	; 2
    27ac:	09 f0       	breq	.+2      	; 0x27b0 <main+0x2b4>
    27ae:	93 cf       	rjmp	.-218    	; 0x26d6 <main+0x1da>
		{
			readchar = uart_getc();
    27b0:	0e 94 98 27 	call	0x4f30	; 0x4f30 <uart_getc>
			if (readchar != UART_NO_DATA)
			{
				if (readchar != CHAR_NEWLINE)
    27b4:	8a 30       	cpi	r24, 0x0A	; 10
    27b6:	59 f0       	breq	.+22     	; 0x27ce <main+0x2d2>
				{
					uartdata_in[uartdata_count++] = readchar;
    27b8:	e0 91 fd 07 	lds	r30, 0x07FD	; 0x8007fd <uartdata_count>
    27bc:	91 e0       	ldi	r25, 0x01	; 1
    27be:	9e 0f       	add	r25, r30
    27c0:	90 93 fd 07 	sts	0x07FD, r25	; 0x8007fd <uartdata_count>
    27c4:	f0 e0       	ldi	r31, 0x00	; 0
    27c6:	ee 54       	subi	r30, 0x4E	; 78
    27c8:	f8 4f       	sbci	r31, 0xF8	; 248
    27ca:	80 83       	st	Z, r24
    27cc:	84 cf       	rjmp	.-248    	; 0x26d6 <main+0x1da>
				}
				else
				{
					uartdata_in[uartdata_count] = CHAR_NEWLINE;
    27ce:	e0 91 fd 07 	lds	r30, 0x07FD	; 0x8007fd <uartdata_count>
    27d2:	f0 e0       	ldi	r31, 0x00	; 0
    27d4:	ee 54       	subi	r30, 0x4E	; 78
    27d6:	f8 4f       	sbci	r31, 0xF8	; 248
    27d8:	d0 82       	st	Z, r13

					char *pch;
					char *pch2;
					char cmdvalue[10];
					char cmdvalue2[5];
					pch = strchr(uartdata_in, ';');
    27da:	6b e3       	ldi	r22, 0x3B	; 59
    27dc:	70 e0       	ldi	r23, 0x00	; 0
    27de:	82 eb       	ldi	r24, 0xB2	; 178
    27e0:	97 e0       	ldi	r25, 0x07	; 7
    27e2:	0e 94 63 2b 	call	0x56c6	; 0x56c6 <strchr>
    27e6:	7c 01       	movw	r14, r24
					pch2 = strchr(cmdvalue, ',');
    27e8:	6c e2       	ldi	r22, 0x2C	; 44
    27ea:	70 e0       	ldi	r23, 0x00	; 0
    27ec:	ce 01       	movw	r24, r28
    27ee:	01 96       	adiw	r24, 0x01	; 1
    27f0:	0e 94 63 2b 	call	0x56c6	; 0x56c6 <strchr>
    27f4:	8c 01       	movw	r16, r24

					if (pch2 == NULL)
    27f6:	00 97       	sbiw	r24, 0x00	; 0
    27f8:	41 f4       	brne	.+16     	; 0x280a <main+0x30e>
						strcpy(cmdvalue, pch + 1);
    27fa:	b7 01       	movw	r22, r14
    27fc:	6f 5f       	subi	r22, 0xFF	; 255
    27fe:	7f 4f       	sbci	r23, 0xFF	; 255
    2800:	ce 01       	movw	r24, r28
    2802:	01 96       	adiw	r24, 0x01	; 1
    2804:	0e 94 6e 2b 	call	0x56dc	; 0x56dc <strcpy>
    2808:	14 c0       	rjmp	.+40     	; 0x2832 <main+0x336>
					else
					{
						strlcpy(cmdvalue, pch, strlen(pch2));
    280a:	fc 01       	movw	r30, r24
    280c:	01 90       	ld	r0, Z+
    280e:	00 20       	and	r0, r0
    2810:	e9 f7       	brne	.-6      	; 0x280c <main+0x310>
    2812:	31 97       	sbiw	r30, 0x01	; 1
    2814:	af 01       	movw	r20, r30
    2816:	48 1b       	sub	r20, r24
    2818:	59 0b       	sbc	r21, r25
    281a:	b7 01       	movw	r22, r14
    281c:	ce 01       	movw	r24, r28
    281e:	01 96       	adiw	r24, 0x01	; 1
    2820:	0e 94 75 2b 	call	0x56ea	; 0x56ea <strlcpy>
						strcpy(cmdvalue2, pch2 + 1);
    2824:	b8 01       	movw	r22, r16
    2826:	6f 5f       	subi	r22, 0xFF	; 255
    2828:	7f 4f       	sbci	r23, 0xFF	; 255
    282a:	ce 01       	movw	r24, r28
    282c:	41 96       	adiw	r24, 0x11	; 17
    282e:	0e 94 6e 2b 	call	0x56dc	; 0x56dc <strcpy>
					}

					if (uartdata_in[0] == 'R') // read from EEPROM
    2832:	80 91 b2 07 	lds	r24, 0x07B2	; 0x8007b2 <uartdata_in>
    2836:	82 35       	cpi	r24, 0x52	; 82
    2838:	09 f5       	brne	.+66     	; 0x287c <main+0x380>
					{
						if (uartdata_in[1] == '1')
    283a:	80 91 b3 07 	lds	r24, 0x07B3	; 0x8007b3 <uartdata_in+0x1>
    283e:	81 33       	cpi	r24, 0x31	; 49
    2840:	49 f4       	brne	.+18     	; 0x2854 <main+0x358>
						{
							uart_putc(eeprom_read_byte((uint8_t*) atoi(cmdvalue)));
    2842:	ce 01       	movw	r24, r28
    2844:	01 96       	adiw	r24, 0x01	; 1
    2846:	0e 94 3e 2b 	call	0x567c	; 0x567c <atoi>
    284a:	0e 94 88 2e 	call	0x5d10	; 0x5d10 <eeprom_read_byte>
    284e:	0e 94 b6 27 	call	0x4f6c	; 0x4f6c <uart_putc>
    2852:	b6 c0       	rjmp	.+364    	; 0x29c0 <main+0x4c4>
						}
						else if (uartdata_in[1] == '2')
    2854:	82 33       	cpi	r24, 0x32	; 50
    2856:	09 f0       	breq	.+2      	; 0x285a <main+0x35e>
    2858:	b3 c0       	rjmp	.+358    	; 0x29c0 <main+0x4c4>
						{
							char readvalue[6];
							itoa(eeprom_read_word((uint16_t*) atoi(cmdvalue)), readvalue, 10);
    285a:	ce 01       	movw	r24, r28
    285c:	01 96       	adiw	r24, 0x01	; 1
    285e:	0e 94 3e 2b 	call	0x567c	; 0x567c <atoi>
    2862:	0e 94 90 2e 	call	0x5d20	; 0x5d20 <eeprom_read_word>
    } else if (__radix < 2 || __radix > 36) {
	*__s = 0;
	return __s;
    } else {
	extern char *__itoa_ncheck (int, char *, unsigned char);
	return __itoa_ncheck (__val, __s, __radix);
    2866:	4d 2d       	mov	r20, r13
    2868:	be 01       	movw	r22, r28
    286a:	65 5f       	subi	r22, 0xF5	; 245
    286c:	7f 4f       	sbci	r23, 0xFF	; 255
    286e:	0e 94 89 2b 	call	0x5712	; 0x5712 <__itoa_ncheck>
							uart_puts(readvalue);
    2872:	ce 01       	movw	r24, r28
    2874:	0b 96       	adiw	r24, 0x0b	; 11
    2876:	0e 94 c7 27 	call	0x4f8e	; 0x4f8e <uart_puts>
    287a:	a2 c0       	rjmp	.+324    	; 0x29c0 <main+0x4c4>
						}
					}
					else if (uartdata_in[0] == 'S') //read sensor
    287c:	83 35       	cpi	r24, 0x53	; 83
    287e:	09 f0       	breq	.+2      	; 0x2882 <main+0x386>
    2880:	6e c0       	rjmp	.+220    	; 0x295e <main+0x462>
					{
						uint8_t sensorID;
						sensorID = atoi(pch);
    2882:	c7 01       	movw	r24, r14
    2884:	0e 94 3e 2b 	call	0x567c	; 0x567c <atoi>
						switch (sensorID)
    2888:	fc 01       	movw	r30, r24
    288a:	ff 27       	eor	r31, r31
    288c:	f1 97       	sbiw	r30, 0x31	; 49
    288e:	e8 30       	cpi	r30, 0x08	; 8
    2890:	f1 05       	cpc	r31, r1
    2892:	08 f0       	brcs	.+2      	; 0x2896 <main+0x39a>
    2894:	95 c0       	rjmp	.+298    	; 0x29c0 <main+0x4c4>
    2896:	e4 56       	subi	r30, 0x64	; 100
    2898:	ff 4f       	sbci	r31, 0xFF	; 255
    289a:	0c 94 38 2b 	jmp	0x5670	; 0x5670 <__tablejump2__>
						{
							case '1':
								uart_puts(DHW.ActualTempBuffer); uart_puts_P("."); uart_puts(DHW.ActualTempFracBuffer);
    289e:	87 e1       	ldi	r24, 0x17	; 23
    28a0:	98 e0       	ldi	r25, 0x08	; 8
    28a2:	0e 94 c7 27 	call	0x4f8e	; 0x4f8e <uart_puts>
    28a6:	8a e9       	ldi	r24, 0x9A	; 154
    28a8:	91 e0       	ldi	r25, 0x01	; 1
    28aa:	0e 94 d6 27 	call	0x4fac	; 0x4fac <uart_puts_p>
    28ae:	8b e1       	ldi	r24, 0x1B	; 27
    28b0:	98 e0       	ldi	r25, 0x08	; 8
    28b2:	0e 94 c7 27 	call	0x4f8e	; 0x4f8e <uart_puts>
								break;
    28b6:	84 c0       	rjmp	.+264    	; 0x29c0 <main+0x4c4>
							case '2':
								uart_puts(Buffer.ActualTempBuffer); uart_puts_P("."); uart_puts(Buffer.ActualTempFracBuffer);
    28b8:	80 e4       	ldi	r24, 0x40	; 64
    28ba:	98 e0       	ldi	r25, 0x08	; 8
    28bc:	0e 94 c7 27 	call	0x4f8e	; 0x4f8e <uart_puts>
    28c0:	88 e9       	ldi	r24, 0x98	; 152
    28c2:	91 e0       	ldi	r25, 0x01	; 1
    28c4:	0e 94 d6 27 	call	0x4fac	; 0x4fac <uart_puts_p>
    28c8:	84 e4       	ldi	r24, 0x44	; 68
    28ca:	98 e0       	ldi	r25, 0x08	; 8
    28cc:	0e 94 c7 27 	call	0x4f8e	; 0x4f8e <uart_puts>
								break;
    28d0:	77 c0       	rjmp	.+238    	; 0x29c0 <main+0x4c4>
							case '3':
								uart_puts(Engineering.ActualTempBuffer); uart_puts_P("."); uart_puts(Engineering.ActualTempFracBuffer);
    28d2:	82 ee       	ldi	r24, 0xE2	; 226
    28d4:	97 e0       	ldi	r25, 0x07	; 7
    28d6:	0e 94 c7 27 	call	0x4f8e	; 0x4f8e <uart_puts>
    28da:	86 e9       	ldi	r24, 0x96	; 150
    28dc:	91 e0       	ldi	r25, 0x01	; 1
    28de:	0e 94 d6 27 	call	0x4fac	; 0x4fac <uart_puts_p>
    28e2:	86 ee       	ldi	r24, 0xE6	; 230
    28e4:	97 e0       	ldi	r25, 0x07	; 7
    28e6:	0e 94 c7 27 	call	0x4f8e	; 0x4f8e <uart_puts>
								break;
    28ea:	6a c0       	rjmp	.+212    	; 0x29c0 <main+0x4c4>
							case '4':
								uart_puts(Garage.ActualTempBuffer); uart_puts_P("."); uart_puts(Garage.ActualTempFracBuffer);
    28ec:	81 ed       	ldi	r24, 0xD1	; 209
    28ee:	97 e0       	ldi	r25, 0x07	; 7
    28f0:	0e 94 c7 27 	call	0x4f8e	; 0x4f8e <uart_puts>
    28f4:	84 e9       	ldi	r24, 0x94	; 148
    28f6:	91 e0       	ldi	r25, 0x01	; 1
    28f8:	0e 94 d6 27 	call	0x4fac	; 0x4fac <uart_puts_p>
    28fc:	85 ed       	ldi	r24, 0xD5	; 213
    28fe:	97 e0       	ldi	r25, 0x07	; 7
    2900:	0e 94 c7 27 	call	0x4f8e	; 0x4f8e <uart_puts>
								break;
    2904:	5d c0       	rjmp	.+186    	; 0x29c0 <main+0x4c4>
							case '5':
								uart_puts(LivingRoomTempBuf); uart_puts_P("."); uart_puts(LivingRoomTempFracBuf);
    2906:	82 ec       	ldi	r24, 0xC2	; 194
    2908:	97 e0       	ldi	r25, 0x07	; 7
    290a:	0e 94 c7 27 	call	0x4f8e	; 0x4f8e <uart_puts>
    290e:	82 e9       	ldi	r24, 0x92	; 146
    2910:	91 e0       	ldi	r25, 0x01	; 1
    2912:	0e 94 d6 27 	call	0x4fac	; 0x4fac <uart_puts_p>
    2916:	86 e3       	ldi	r24, 0x36	; 54
    2918:	98 e0       	ldi	r25, 0x08	; 8
    291a:	0e 94 c7 27 	call	0x4f8e	; 0x4f8e <uart_puts>
								break;
    291e:	50 c0       	rjmp	.+160    	; 0x29c0 <main+0x4c4>
							case '6':
								uart_puts(GasForward.ActualTempBuffer); uart_puts_P("."); uart_puts(GasForward.ActualTempFracBuffer);
    2920:	81 e2       	ldi	r24, 0x21	; 33
    2922:	98 e0       	ldi	r25, 0x08	; 8
    2924:	0e 94 c7 27 	call	0x4f8e	; 0x4f8e <uart_puts>
    2928:	80 e9       	ldi	r24, 0x90	; 144
    292a:	91 e0       	ldi	r25, 0x01	; 1
    292c:	0e 94 d6 27 	call	0x4fac	; 0x4fac <uart_puts_p>
    2930:	85 e2       	ldi	r24, 0x25	; 37
    2932:	98 e0       	ldi	r25, 0x08	; 8
    2934:	0e 94 c7 27 	call	0x4f8e	; 0x4f8e <uart_puts>
								break;
    2938:	43 c0       	rjmp	.+134    	; 0x29c0 <main+0x4c4>
							case '7':
								uart_puts(GasReturn.ActualTempBuffer); uart_puts_P("."); uart_puts(GasReturn.ActualTempFracBuffer);
    293a:	8c ea       	ldi	r24, 0xAC	; 172
    293c:	98 e0       	ldi	r25, 0x08	; 8
    293e:	0e 94 c7 27 	call	0x4f8e	; 0x4f8e <uart_puts>
    2942:	8e e8       	ldi	r24, 0x8E	; 142
    2944:	91 e0       	ldi	r25, 0x01	; 1
    2946:	0e 94 d6 27 	call	0x4fac	; 0x4fac <uart_puts_p>
    294a:	80 eb       	ldi	r24, 0xB0	; 176
    294c:	98 e0       	ldi	r25, 0x08	; 8
    294e:	0e 94 c7 27 	call	0x4f8e	; 0x4f8e <uart_puts>
								break;
    2952:	36 c0       	rjmp	.+108    	; 0x29c0 <main+0x4c4>
							case '8':
								uart_puts(HIHxxxxTempBuf);
    2954:	8e ef       	ldi	r24, 0xFE	; 254
    2956:	97 e0       	ldi	r25, 0x07	; 7
    2958:	0e 94 c7 27 	call	0x4f8e	; 0x4f8e <uart_puts>
								break;
    295c:	31 c0       	rjmp	.+98     	; 0x29c0 <main+0x4c4>
						}
					}
					else if (uartdata_in[0] == 'W') // write to EEPROM
    295e:	87 35       	cpi	r24, 0x57	; 87
    2960:	01 f5       	brne	.+64     	; 0x29a2 <main+0x4a6>
					{
						if (uartdata_in[1] == '1')
    2962:	80 91 b3 07 	lds	r24, 0x07B3	; 0x8007b3 <uartdata_in+0x1>
    2966:	81 33       	cpi	r24, 0x31	; 49
    2968:	69 f4       	brne	.+26     	; 0x2984 <main+0x488>
						{
							eeprom_update_byte((uint8_t*) atoi(cmdvalue), atoi(cmdvalue2));
    296a:	ce 01       	movw	r24, r28
    296c:	41 96       	adiw	r24, 0x11	; 17
    296e:	0e 94 3e 2b 	call	0x567c	; 0x567c <atoi>
    2972:	18 2f       	mov	r17, r24
    2974:	ce 01       	movw	r24, r28
    2976:	01 96       	adiw	r24, 0x01	; 1
    2978:	0e 94 3e 2b 	call	0x567c	; 0x567c <atoi>
    297c:	61 2f       	mov	r22, r17
    297e:	0e 94 96 2e 	call	0x5d2c	; 0x5d2c <eeprom_update_byte>
    2982:	1e c0       	rjmp	.+60     	; 0x29c0 <main+0x4c4>
						}
						else if (uartdata_in[1] == '2')
    2984:	82 33       	cpi	r24, 0x32	; 50
    2986:	e1 f4       	brne	.+56     	; 0x29c0 <main+0x4c4>
						{
							eeprom_update_word((uint16_t*) atoi(cmdvalue), atoi(cmdvalue2));
    2988:	ce 01       	movw	r24, r28
    298a:	41 96       	adiw	r24, 0x11	; 17
    298c:	0e 94 3e 2b 	call	0x567c	; 0x567c <atoi>
    2990:	8c 01       	movw	r16, r24
    2992:	ce 01       	movw	r24, r28
    2994:	01 96       	adiw	r24, 0x01	; 1
    2996:	0e 94 3e 2b 	call	0x567c	; 0x567c <atoi>
    299a:	b8 01       	movw	r22, r16
    299c:	0e 94 a7 2e 	call	0x5d4e	; 0x5d4e <eeprom_update_word>
    29a0:	0f c0       	rjmp	.+30     	; 0x29c0 <main+0x4c4>
						}
					}
					else if (uartdata_in[0] == 'U') // update
    29a2:	85 35       	cpi	r24, 0x55	; 85
    29a4:	19 f4       	brne	.+6      	; 0x29ac <main+0x4b0>
					{
						read_from_eeprom();
    29a6:	0e 94 b3 11 	call	0x2366	; 0x2366 <read_from_eeprom>
    29aa:	0a c0       	rjmp	.+20     	; 0x29c0 <main+0x4c4>
					}
					else if (uartdata_in[0] == 'M')
    29ac:	8d 34       	cpi	r24, 0x4D	; 77
    29ae:	41 f4       	brne	.+16     	; 0x29c0 <main+0x4c4>
					{
						Relays = atoi(cmdvalue);
    29b0:	ce 01       	movw	r24, r28
    29b2:	01 96       	adiw	r24, 0x01	; 1
    29b4:	0e 94 3e 2b 	call	0x567c	; 0x567c <atoi>
    29b8:	80 93 0c 07 	sts	0x070C, r24	; 0x80070c <Relays>
						SwitchRelays();
    29bc:	0e 94 49 0f 	call	0x1e92	; 0x1e92 <SwitchRelays>
					}
					
					uartdata_count = 0;
    29c0:	10 92 fd 07 	sts	0x07FD, r1	; 0x8007fd <uartdata_count>
    29c4:	88 ce       	rjmp	.-752    	; 0x26d6 <main+0x1da>
								xDay = 29;
								break;
						}
						if (++Day == xDay)
						{
							Day = 1;
    29c6:	a0 92 02 01 	sts	0x0102, r10	; 0x800102 <Day>
							if (++Month == 13)
    29ca:	2f 5f       	subi	r18, 0xFF	; 255
							case 11:
								xDay = 31;
								break;

							case 2:
								xDay = 29;
    29cc:	c8 2c       	mov	r12, r8
    29ce:	d0 ce       	rjmp	.-608    	; 0x2770 <main+0x274>
								break;
						}
						if (++Day == xDay)
    29d0:	80 91 02 01 	lds	r24, 0x0102	; 0x800102 <Day>
    29d4:	8f 5f       	subi	r24, 0xFF	; 255
    29d6:	8d 31       	cpi	r24, 0x1D	; 29
    29d8:	b1 f3       	breq	.-20     	; 0x29c6 <main+0x4ca>
							case 11:
								xDay = 31;
								break;

							case 2:
								xDay = 29;
    29da:	c8 2c       	mov	r12, r8
    29dc:	c1 ce       	rjmp	.-638    	; 0x2760 <main+0x264>

000029de <renderMenu>:
}

/*************************************************************************
 Basic render menu function, responsible for rendering the menu
*************************************************************************/
static void renderMenu(){
    29de:	ef 92       	push	r14
    29e0:	ff 92       	push	r15
    29e2:	0f 93       	push	r16
    29e4:	1f 93       	push	r17
    29e6:	cf 93       	push	r28
    29e8:	df 93       	push	r29
	lcd_clrscr();
    29ea:	0e 94 04 08 	call	0x1008	; 0x1008 <lcd_clrscr>

	MENU_ITEM *items = menuItemsGetHomeMenu();
    29ee:	0e 94 fb 26 	call	0x4df6	; 0x4df6 <menuItemsGetHomeMenu>
    29f2:	ec 01       	movw	r28, r24
	uint8_t max_options = menuItemsGetHomeMenuSize();
    29f4:	0e 94 fe 26 	call	0x4dfc	; 0x4dfc <menuItemsGetHomeMenuSize>

	if(current_state->level != MENU_LEVEL_1){
    29f8:	e0 91 28 01 	lds	r30, 0x0128	; 0x800128 <current_state>
    29fc:	f0 91 29 01 	lds	r31, 0x0129	; 0x800129 <current_state+0x1>
    2a00:	96 81       	ldd	r25, Z+6	; 0x06
    2a02:	99 23       	and	r25, r25
    2a04:	a1 f0       	breq	.+40     	; 0x2a2e <renderMenu+0x50>
		MENU_ITEM *previous_item = menu_states[current_state->prev_state->level].current_item;
    2a06:	a0 81       	ld	r26, Z
    2a08:	b1 81       	ldd	r27, Z+1	; 0x01
    2a0a:	16 96       	adiw	r26, 0x06	; 6
    2a0c:	ac 91       	ld	r26, X
    2a0e:	87 e0       	ldi	r24, 0x07	; 7
    2a10:	a8 9f       	mul	r26, r24
    2a12:	d0 01       	movw	r26, r0
    2a14:	11 24       	eor	r1, r1
    2a16:	a6 5d       	subi	r26, 0xD6	; 214
    2a18:	be 4f       	sbci	r27, 0xFE	; 254
    2a1a:	12 96       	adiw	r26, 0x02	; 2
    2a1c:	0d 90       	ld	r0, X+
    2a1e:	bc 91       	ld	r27, X
    2a20:	a0 2d       	mov	r26, r0
		items = previous_item->submenu;
    2a22:	17 96       	adiw	r26, 0x07	; 7
    2a24:	cd 91       	ld	r28, X+
    2a26:	dc 91       	ld	r29, X
    2a28:	18 97       	sbiw	r26, 0x08	; 8
		max_options = previous_item->submenu_length;
    2a2a:	16 96       	adiw	r26, 0x06	; 6
    2a2c:	8c 91       	ld	r24, X
	}

	uint8_t first_item = current_state->current_item_idx - current_state->cursor_line;
    2a2e:	24 81       	ldd	r18, Z+4	; 0x04
    2a30:	95 81       	ldd	r25, Z+5	; 0x05
    2a32:	29 1b       	sub	r18, r25

	for(int i=0; i<max_options && i<LCD_LINES; i++){
    2a34:	e8 2e       	mov	r14, r24
    2a36:	f1 2c       	mov	r15, r1
    2a38:	1e 14       	cp	r1, r14
    2a3a:	1f 04       	cpc	r1, r15
    2a3c:	a4 f5       	brge	.+104    	; 0x2aa6 <renderMenu+0xc8>
    2a3e:	30 e0       	ldi	r19, 0x00	; 0
    2a40:	89 01       	movw	r16, r18
    2a42:	00 0f       	add	r16, r16
    2a44:	11 1f       	adc	r17, r17
    2a46:	00 0f       	add	r16, r16
    2a48:	11 1f       	adc	r17, r17
    2a4a:	00 0f       	add	r16, r16
    2a4c:	11 1f       	adc	r17, r17
    2a4e:	20 0f       	add	r18, r16
    2a50:	31 1f       	adc	r19, r17
    2a52:	8e 01       	movw	r16, r28
    2a54:	02 0f       	add	r16, r18
    2a56:	13 1f       	adc	r17, r19
    2a58:	c0 e0       	ldi	r28, 0x00	; 0
    2a5a:	d0 e0       	ldi	r29, 0x00	; 0
		lcd_gotoxy(0, i);
    2a5c:	6c 2f       	mov	r22, r28
    2a5e:	80 e0       	ldi	r24, 0x00	; 0
    2a60:	0e 94 ee 07 	call	0xfdc	; 0xfdc <lcd_gotoxy>
		if(i==current_state->cursor_line) lcd_putc('>');
    2a64:	e0 91 28 01 	lds	r30, 0x0128	; 0x800128 <current_state>
    2a68:	f0 91 29 01 	lds	r31, 0x0129	; 0x800129 <current_state+0x1>
    2a6c:	85 81       	ldd	r24, Z+5	; 0x05
    2a6e:	90 e0       	ldi	r25, 0x00	; 0
    2a70:	8c 17       	cp	r24, r28
    2a72:	9d 07       	cpc	r25, r29
    2a74:	21 f4       	brne	.+8      	; 0x2a7e <renderMenu+0xa0>
    2a76:	8e e3       	ldi	r24, 0x3E	; 62
    2a78:	0e 94 08 08 	call	0x1010	; 0x1010 <lcd_putc>
    2a7c:	03 c0       	rjmp	.+6      	; 0x2a84 <renderMenu+0xa6>
		else lcd_putc(' ');
    2a7e:	80 e2       	ldi	r24, 0x20	; 32
    2a80:	0e 94 08 08 	call	0x1010	; 0x1010 <lcd_putc>
		lcd_putc(' ');
    2a84:	80 e2       	ldi	r24, 0x20	; 32
    2a86:	0e 94 08 08 	call	0x1010	; 0x1010 <lcd_putc>
		lcd_puts(items[first_item+i].title);
    2a8a:	f8 01       	movw	r30, r16
    2a8c:	80 81       	ld	r24, Z
    2a8e:	91 81       	ldd	r25, Z+1	; 0x01
    2a90:	0e 94 bd 08 	call	0x117a	; 0x117a <lcd_puts>
		max_options = previous_item->submenu_length;
	}

	uint8_t first_item = current_state->current_item_idx - current_state->cursor_line;

	for(int i=0; i<max_options && i<LCD_LINES; i++){
    2a94:	21 96       	adiw	r28, 0x01	; 1
    2a96:	ce 15       	cp	r28, r14
    2a98:	df 05       	cpc	r29, r15
    2a9a:	29 f0       	breq	.+10     	; 0x2aa6 <renderMenu+0xc8>
    2a9c:	07 5f       	subi	r16, 0xF7	; 247
    2a9e:	1f 4f       	sbci	r17, 0xFF	; 255
    2aa0:	c4 30       	cpi	r28, 0x04	; 4
    2aa2:	d1 05       	cpc	r29, r1
    2aa4:	d9 f6       	brne	.-74     	; 0x2a5c <renderMenu+0x7e>
		if(i==current_state->cursor_line) lcd_putc('>');
		else lcd_putc(' ');
		lcd_putc(' ');
		lcd_puts(items[first_item+i].title);
	}
}
    2aa6:	df 91       	pop	r29
    2aa8:	cf 91       	pop	r28
    2aaa:	1f 91       	pop	r17
    2aac:	0f 91       	pop	r16
    2aae:	ff 90       	pop	r15
    2ab0:	ef 90       	pop	r14
    2ab2:	08 95       	ret

00002ab4 <menuReset>:
/*
** Public functions accessible from .h file
*/

void menuReset(){
	current_state = &menu_states[MENU_LEVEL_1];
    2ab4:	ea e2       	ldi	r30, 0x2A	; 42
    2ab6:	f1 e0       	ldi	r31, 0x01	; 1
    2ab8:	f0 93 29 01 	sts	0x0129, r31	; 0x800129 <current_state+0x1>
    2abc:	e0 93 28 01 	sts	0x0128, r30	; 0x800128 <current_state>
*/
/*************************************************************************
 Helpers for setting the state properties
*************************************************************************/
static void setState(MENU_STATE *state, MENU_STATE *new_prev_state, MENU_ITEM *new_current_item, uint8_t new_current_item_idx, uint8_t new_cursor_line){
	state->prev_state = new_prev_state;
    2ac0:	11 82       	std	Z+1, r1	; 0x01
    2ac2:	10 82       	st	Z, r1
	state->current_item = new_current_item;
    2ac4:	13 82       	std	Z+3, r1	; 0x03
    2ac6:	12 82       	std	Z+2, r1	; 0x02
	state->current_item_idx = new_current_item_idx;
    2ac8:	14 82       	std	Z+4, r1	; 0x04
	state->cursor_line = new_cursor_line;
    2aca:	15 82       	std	Z+5, r1	; 0x05
*/

void menuReset(){
	current_state = &menu_states[MENU_LEVEL_1];
	resetState(current_state);
	renderMenu();
    2acc:	0e 94 ef 14 	call	0x29de	; 0x29de <renderMenu>
    2ad0:	08 95       	ret

00002ad2 <menuInit>:
}

void menuInit(){
	menuPortsioInit();
    2ad2:	0e 94 00 27 	call	0x4e00	; 0x4e00 <menuPortsioInit>
	menuReset();
    2ad6:	0e 94 5a 15 	call	0x2ab4	; 0x2ab4 <menuReset>
    2ada:	08 95       	ret

00002adc <menuPollButtons>:
}

void menuPollButtons(){
    2adc:	5f 92       	push	r5
    2ade:	6f 92       	push	r6
    2ae0:	7f 92       	push	r7
    2ae2:	8f 92       	push	r8
    2ae4:	9f 92       	push	r9
    2ae6:	af 92       	push	r10
    2ae8:	bf 92       	push	r11
    2aea:	cf 92       	push	r12
    2aec:	df 92       	push	r13
    2aee:	ef 92       	push	r14
    2af0:	ff 92       	push	r15
    2af2:	0f 93       	push	r16
    2af4:	1f 93       	push	r17
    2af6:	cf 93       	push	r28
    2af8:	df 93       	push	r29
    2afa:	c4 e1       	ldi	r28, 0x14	; 20
    2afc:	d1 e0       	ldi	r29, 0x01	; 1
    2afe:	0f 2e       	mov	r0, r31
    2b00:	f8 e2       	ldi	r31, 0x28	; 40
    2b02:	ef 2e       	mov	r14, r31
    2b04:	f1 e0       	ldi	r31, 0x01	; 1
    2b06:	ff 2e       	mov	r15, r31
    2b08:	f0 2d       	mov	r31, r0
	for(uint8_t i=0; i<MENU_BUTTON_ROLE_COUNT; i++){
		MENU_BUTTON *b = &menu_buttons[i];

		b->state = (b->state << 1) | !((MENU_PORTSIO_PIN) & (1<<(b->button_PIN))) | 0XE000;
    2b0a:	88 24       	eor	r8, r8
    2b0c:	83 94       	inc	r8
    2b0e:	91 2c       	mov	r9, r1
    2b10:	61 2c       	mov	r6, r1
    2b12:	71 2c       	mov	r7, r1

		if(b->state == 0xF000){
			b->pressed = true;
    2b14:	55 24       	eor	r5, r5
    2b16:	53 94       	inc	r5

			MENU_ITEM *item = &items[current_state->current_item_idx];
			MENU_STATE *prev_state = current_state;
			if(item->render_callback){
				prev_state->current_item = item;
				current_state = &menu_states[MENU_CALLBACK];
    2b18:	0f 2e       	mov	r0, r31
    2b1a:	f6 e4       	ldi	r31, 0x46	; 70
    2b1c:	af 2e       	mov	r10, r31
    2b1e:	f1 e0       	ldi	r31, 0x01	; 1
    2b20:	bf 2e       	mov	r11, r31
    2b22:	f0 2d       	mov	r31, r0
*/
/*************************************************************************
 Helpers for setting the state properties
*************************************************************************/
static void setState(MENU_STATE *state, MENU_STATE *new_prev_state, MENU_ITEM *new_current_item, uint8_t new_current_item_idx, uint8_t new_cursor_line){
	state->prev_state = new_prev_state;
    2b24:	0f 2e       	mov	r0, r31
    2b26:	fa e2       	ldi	r31, 0x2A	; 42
    2b28:	cf 2e       	mov	r12, r31
    2b2a:	f1 e0       	ldi	r31, 0x01	; 1
    2b2c:	df 2e       	mov	r13, r31
    2b2e:	f0 2d       	mov	r31, r0
    2b30:	8e 01       	movw	r16, r28

void menuPollButtons(){
	for(uint8_t i=0; i<MENU_BUTTON_ROLE_COUNT; i++){
		MENU_BUTTON *b = &menu_buttons[i];

		b->state = (b->state << 1) | !((MENU_PORTSIO_PIN) & (1<<(b->button_PIN))) | 0XE000;
    2b32:	80 b3       	in	r24, 0x10	; 16
    2b34:	90 e0       	ldi	r25, 0x00	; 0
    2b36:	09 80       	ldd	r0, Y+1	; 0x01
    2b38:	02 c0       	rjmp	.+4      	; 0x2b3e <menuPollButtons+0x62>
    2b3a:	95 95       	asr	r25
    2b3c:	87 95       	ror	r24
    2b3e:	0a 94       	dec	r0
    2b40:	e2 f7       	brpl	.-8      	; 0x2b3a <menuPollButtons+0x5e>
    2b42:	28 2d       	mov	r18, r8
    2b44:	39 2d       	mov	r19, r9
    2b46:	80 ff       	sbrs	r24, 0
    2b48:	02 c0       	rjmp	.+4      	; 0x2b4e <menuPollButtons+0x72>
    2b4a:	26 2d       	mov	r18, r6
    2b4c:	37 2d       	mov	r19, r7
    2b4e:	f8 01       	movw	r30, r16
    2b50:	82 81       	ldd	r24, Z+2	; 0x02
    2b52:	93 81       	ldd	r25, Z+3	; 0x03
    2b54:	88 0f       	add	r24, r24
    2b56:	99 1f       	adc	r25, r25
    2b58:	90 6e       	ori	r25, 0xE0	; 224
    2b5a:	82 2b       	or	r24, r18
    2b5c:	93 2b       	or	r25, r19
    2b5e:	93 83       	std	Z+3, r25	; 0x03
    2b60:	82 83       	std	Z+2, r24	; 0x02

		if(b->state == 0xF000){
    2b62:	81 15       	cp	r24, r1
    2b64:	90 4f       	sbci	r25, 0xF0	; 240
    2b66:	09 f0       	breq	.+2      	; 0x2b6a <menuPollButtons+0x8e>
    2b68:	11 c1       	rjmp	.+546    	; 0x2d8c <menuPollButtons+0x2b0>
			b->pressed = true;
    2b6a:	f8 01       	movw	r30, r16
    2b6c:	54 82       	std	Z+4, r5	; 0x04
			MenuTimer = eeprom_read_byte(&eeMenuTimer);
    2b6e:	85 e2       	ldi	r24, 0x25	; 37
    2b70:	90 e0       	ldi	r25, 0x00	; 0
    2b72:	0e 94 88 2e 	call	0x5d10	; 0x5d10 <eeprom_read_byte>
    2b76:	80 93 13 01 	sts	0x0113, r24	; 0x800113 <MenuTimer>
			BUZZER_PORT |= (1 << BUZZER_PIN);
    2b7a:	a8 9a       	sbi	0x15, 0	; 21
			if(current_state->level != MENU_CALLBACK){
    2b7c:	a0 91 28 01 	lds	r26, 0x0128	; 0x800128 <current_state>
    2b80:	b0 91 29 01 	lds	r27, 0x0129	; 0x800129 <current_state+0x1>
    2b84:	16 96       	adiw	r26, 0x06	; 6
    2b86:	9c 91       	ld	r25, X
    2b88:	16 97       	sbiw	r26, 0x06	; 6
    2b8a:	94 30       	cpi	r25, 0x04	; 4
    2b8c:	09 f4       	brne	.+2      	; 0x2b90 <menuPollButtons+0xb4>
    2b8e:	da c0       	rjmp	.+436    	; 0x2d44 <menuPollButtons+0x268>

/***************************************************************************************
 Function to handle basic btn clicks (Executed when menu is not in CALLBACK state)
***************************************************************************************/
static void scrollMenu(MENU_BUTTON *button){
	switch(button->role){
    2b90:	f8 01       	movw	r30, r16
    2b92:	80 81       	ld	r24, Z
    2b94:	81 30       	cpi	r24, 0x01	; 1
    2b96:	f9 f0       	breq	.+62     	; 0x2bd6 <menuPollButtons+0xfa>
    2b98:	38 f0       	brcs	.+14     	; 0x2ba8 <menuPollButtons+0xcc>
    2b9a:	82 30       	cpi	r24, 0x02	; 2
    2b9c:	09 f4       	brne	.+2      	; 0x2ba0 <menuPollButtons+0xc4>
    2b9e:	49 c0       	rjmp	.+146    	; 0x2c32 <menuPollButtons+0x156>
    2ba0:	83 30       	cpi	r24, 0x03	; 3
    2ba2:	09 f4       	brne	.+2      	; 0x2ba6 <menuPollButtons+0xca>
    2ba4:	a7 c0       	rjmp	.+334    	; 0x2cf4 <menuPollButtons+0x218>
    2ba6:	b5 c0       	rjmp	.+362    	; 0x2d12 <menuPollButtons+0x236>
		case MENU_UP:
			if(current_state->current_item_idx != 0){
    2ba8:	14 96       	adiw	r26, 0x04	; 4
    2baa:	8c 91       	ld	r24, X
    2bac:	14 97       	sbiw	r26, 0x04	; 4
    2bae:	88 23       	and	r24, r24
    2bb0:	09 f4       	brne	.+2      	; 0x2bb4 <menuPollButtons+0xd8>
    2bb2:	b8 c0       	rjmp	.+368    	; 0x2d24 <menuPollButtons+0x248>
				if(current_state->cursor_line == 0){
    2bb4:	15 96       	adiw	r26, 0x05	; 5
    2bb6:	9c 91       	ld	r25, X
    2bb8:	15 97       	sbiw	r26, 0x05	; 5
    2bba:	91 11       	cpse	r25, r1
    2bbc:	04 c0       	rjmp	.+8      	; 0x2bc6 <menuPollButtons+0xea>
					// Move screen
					current_state->current_item_idx -= 1;
    2bbe:	81 50       	subi	r24, 0x01	; 1
    2bc0:	14 96       	adiw	r26, 0x04	; 4
    2bc2:	8c 93       	st	X, r24
    2bc4:	af c0       	rjmp	.+350    	; 0x2d24 <menuPollButtons+0x248>
				}else{
					// Move cursor
					current_state->cursor_line -= 1;
    2bc6:	91 50       	subi	r25, 0x01	; 1
    2bc8:	15 96       	adiw	r26, 0x05	; 5
    2bca:	9c 93       	st	X, r25
    2bcc:	15 97       	sbiw	r26, 0x05	; 5
					current_state->current_item_idx -= 1;
    2bce:	81 50       	subi	r24, 0x01	; 1
    2bd0:	14 96       	adiw	r26, 0x04	; 4
    2bd2:	8c 93       	st	X, r24
    2bd4:	a7 c0       	rjmp	.+334    	; 0x2d24 <menuPollButtons+0x248>
				}
			}
			break;
		case MENU_DOWN: {
			uint8_t max_options = menuItemsGetHomeMenuSize();
    2bd6:	0e 94 fe 26 	call	0x4dfc	; 0x4dfc <menuItemsGetHomeMenuSize>
			if(current_state->level != MENU_LEVEL_1){
    2bda:	e0 91 28 01 	lds	r30, 0x0128	; 0x800128 <current_state>
    2bde:	f0 91 29 01 	lds	r31, 0x0129	; 0x800129 <current_state+0x1>
    2be2:	96 81       	ldd	r25, Z+6	; 0x06
    2be4:	99 23       	and	r25, r25
    2be6:	09 f4       	brne	.+2      	; 0x2bea <menuPollButtons+0x10e>
    2be8:	da c0       	rjmp	.+436    	; 0x2d9e <menuPollButtons+0x2c2>
				MENU_ITEM *previous_item = menu_states[current_state->prev_state->level].current_item;
				max_options = previous_item->submenu_length;
			}

			if(current_state->current_item_idx < max_options-1){
    2bea:	44 81       	ldd	r20, Z+4	; 0x04
    2bec:	24 2f       	mov	r18, r20
    2bee:	30 e0       	ldi	r19, 0x00	; 0
			}
			break;
		case MENU_DOWN: {
			uint8_t max_options = menuItemsGetHomeMenuSize();
			if(current_state->level != MENU_LEVEL_1){
				MENU_ITEM *previous_item = menu_states[current_state->prev_state->level].current_item;
    2bf0:	a0 81       	ld	r26, Z
    2bf2:	b1 81       	ldd	r27, Z+1	; 0x01
    2bf4:	16 96       	adiw	r26, 0x06	; 6
    2bf6:	ac 91       	ld	r26, X
    2bf8:	87 e0       	ldi	r24, 0x07	; 7
    2bfa:	a8 9f       	mul	r26, r24
    2bfc:	d0 01       	movw	r26, r0
    2bfe:	11 24       	eor	r1, r1
    2c00:	a6 5d       	subi	r26, 0xD6	; 214
    2c02:	be 4f       	sbci	r27, 0xFE	; 254
				max_options = previous_item->submenu_length;
    2c04:	12 96       	adiw	r26, 0x02	; 2
    2c06:	0d 90       	ld	r0, X+
    2c08:	bc 91       	ld	r27, X
    2c0a:	a0 2d       	mov	r26, r0
			}

			if(current_state->current_item_idx < max_options-1){
    2c0c:	16 96       	adiw	r26, 0x06	; 6
    2c0e:	8c 91       	ld	r24, X
    2c10:	90 e0       	ldi	r25, 0x00	; 0
    2c12:	01 97       	sbiw	r24, 0x01	; 1
    2c14:	28 17       	cp	r18, r24
    2c16:	39 07       	cpc	r19, r25
    2c18:	0c f0       	brlt	.+2      	; 0x2c1c <menuPollButtons+0x140>
    2c1a:	7b c0       	rjmp	.+246    	; 0x2d12 <menuPollButtons+0x236>
				if(current_state->cursor_line == LCD_LINES - 1){
    2c1c:	85 81       	ldd	r24, Z+5	; 0x05
    2c1e:	83 30       	cpi	r24, 0x03	; 3
    2c20:	19 f4       	brne	.+6      	; 0x2c28 <menuPollButtons+0x14c>
					// Move screen
					current_state->current_item_idx += 1;
    2c22:	4f 5f       	subi	r20, 0xFF	; 255
    2c24:	44 83       	std	Z+4, r20	; 0x04
    2c26:	75 c0       	rjmp	.+234    	; 0x2d12 <menuPollButtons+0x236>
				}else{
					// Move cursor
					current_state->cursor_line += 1;
    2c28:	8f 5f       	subi	r24, 0xFF	; 255
    2c2a:	85 83       	std	Z+5, r24	; 0x05
					current_state->current_item_idx += 1;
    2c2c:	4f 5f       	subi	r20, 0xFF	; 255
    2c2e:	44 83       	std	Z+4, r20	; 0x04
    2c30:	70 c0       	rjmp	.+224    	; 0x2d12 <menuPollButtons+0x236>
				}
			}
			break;
		}
		case MENU_CONFIRM:;
			MENU_ITEM *items = menuItemsGetHomeMenu();
    2c32:	0e 94 fb 26 	call	0x4df6	; 0x4df6 <menuItemsGetHomeMenu>
			if(current_state->level != MENU_LEVEL_1){
    2c36:	a0 91 28 01 	lds	r26, 0x0128	; 0x800128 <current_state>
    2c3a:	b0 91 29 01 	lds	r27, 0x0129	; 0x800129 <current_state+0x1>
    2c3e:	16 96       	adiw	r26, 0x06	; 6
    2c40:	4c 91       	ld	r20, X
    2c42:	16 97       	sbiw	r26, 0x06	; 6
    2c44:	44 23       	and	r20, r20
    2c46:	79 f0       	breq	.+30     	; 0x2c66 <menuPollButtons+0x18a>
				MENU_ITEM *previous_item = menu_states[current_state->prev_state->level].current_item;
    2c48:	ed 91       	ld	r30, X+
    2c4a:	fc 91       	ld	r31, X
    2c4c:	11 97       	sbiw	r26, 0x01	; 1
    2c4e:	e6 81       	ldd	r30, Z+6	; 0x06
    2c50:	27 e0       	ldi	r18, 0x07	; 7
    2c52:	e2 9f       	mul	r30, r18
    2c54:	f0 01       	movw	r30, r0
    2c56:	11 24       	eor	r1, r1
    2c58:	e6 5d       	subi	r30, 0xD6	; 214
    2c5a:	fe 4f       	sbci	r31, 0xFE	; 254
				items = previous_item->submenu;
    2c5c:	02 80       	ldd	r0, Z+2	; 0x02
    2c5e:	f3 81       	ldd	r31, Z+3	; 0x03
    2c60:	e0 2d       	mov	r30, r0
    2c62:	87 81       	ldd	r24, Z+7	; 0x07
    2c64:	90 85       	ldd	r25, Z+8	; 0x08
			}

			MENU_ITEM *item = &items[current_state->current_item_idx];
    2c66:	14 96       	adiw	r26, 0x04	; 4
    2c68:	5c 91       	ld	r21, X
    2c6a:	14 97       	sbiw	r26, 0x04	; 4
    2c6c:	25 2f       	mov	r18, r21
    2c6e:	30 e0       	ldi	r19, 0x00	; 0
    2c70:	f9 01       	movw	r30, r18
    2c72:	ee 0f       	add	r30, r30
    2c74:	ff 1f       	adc	r31, r31
    2c76:	ee 0f       	add	r30, r30
    2c78:	ff 1f       	adc	r31, r31
    2c7a:	ee 0f       	add	r30, r30
    2c7c:	ff 1f       	adc	r31, r31
    2c7e:	2e 0f       	add	r18, r30
    2c80:	3f 1f       	adc	r19, r31
    2c82:	28 0f       	add	r18, r24
    2c84:	39 1f       	adc	r19, r25
			MENU_STATE *prev_state = current_state;
			if(item->render_callback){
    2c86:	f9 01       	movw	r30, r18
    2c88:	82 81       	ldd	r24, Z+2	; 0x02
    2c8a:	93 81       	ldd	r25, Z+3	; 0x03
    2c8c:	89 2b       	or	r24, r25
    2c8e:	81 f0       	breq	.+32     	; 0x2cb0 <menuPollButtons+0x1d4>
				prev_state->current_item = item;
    2c90:	13 96       	adiw	r26, 0x03	; 3
    2c92:	3c 93       	st	X, r19
    2c94:	2e 93       	st	-X, r18
    2c96:	12 97       	sbiw	r26, 0x02	; 2
				current_state = &menu_states[MENU_CALLBACK];
    2c98:	b0 92 29 01 	sts	0x0129, r11	; 0x800129 <current_state+0x1>
    2c9c:	a0 92 28 01 	sts	0x0128, r10	; 0x800128 <current_state>
*/
/*************************************************************************
 Helpers for setting the state properties
*************************************************************************/
static void setState(MENU_STATE *state, MENU_STATE *new_prev_state, MENU_ITEM *new_current_item, uint8_t new_current_item_idx, uint8_t new_cursor_line){
	state->prev_state = new_prev_state;
    2ca0:	f6 01       	movw	r30, r12
    2ca2:	b5 8f       	std	Z+29, r27	; 0x1d
    2ca4:	a4 8f       	std	Z+28, r26	; 0x1c
	state->current_item = new_current_item;
    2ca6:	37 8f       	std	Z+31, r19	; 0x1f
    2ca8:	26 8f       	std	Z+30, r18	; 0x1e
	state->current_item_idx = new_current_item_idx;
    2caa:	50 a3       	std	Z+32, r21	; 0x20
	state->cursor_line = new_cursor_line;
    2cac:	11 a2       	std	Z+33, r1	; 0x21
    2cae:	31 c0       	rjmp	.+98     	; 0x2d12 <menuPollButtons+0x236>
			MENU_STATE *prev_state = current_state;
			if(item->render_callback){
				prev_state->current_item = item;
				current_state = &menu_states[MENU_CALLBACK];
				setState(current_state, prev_state, prev_state->current_item, prev_state->current_item_idx, 0);
			}else if(item->submenu){
    2cb0:	f9 01       	movw	r30, r18
    2cb2:	87 81       	ldd	r24, Z+7	; 0x07
    2cb4:	90 85       	ldd	r25, Z+8	; 0x08
    2cb6:	89 2b       	or	r24, r25
    2cb8:	61 f1       	breq	.+88     	; 0x2d12 <menuPollButtons+0x236>
				prev_state->current_item = item;
    2cba:	13 96       	adiw	r26, 0x03	; 3
    2cbc:	3c 93       	st	X, r19
    2cbe:	2e 93       	st	-X, r18
    2cc0:	12 97       	sbiw	r26, 0x02	; 2
				current_state = &menu_states[current_state->level + 1];
    2cc2:	84 2f       	mov	r24, r20
    2cc4:	90 e0       	ldi	r25, 0x00	; 0
    2cc6:	01 96       	adiw	r24, 0x01	; 1
    2cc8:	fc 01       	movw	r30, r24
    2cca:	ee 0f       	add	r30, r30
    2ccc:	ff 1f       	adc	r31, r31
    2cce:	ee 0f       	add	r30, r30
    2cd0:	ff 1f       	adc	r31, r31
    2cd2:	ee 0f       	add	r30, r30
    2cd4:	ff 1f       	adc	r31, r31
    2cd6:	e8 1b       	sub	r30, r24
    2cd8:	f9 0b       	sbc	r31, r25
    2cda:	e6 5d       	subi	r30, 0xD6	; 214
    2cdc:	fe 4f       	sbci	r31, 0xFE	; 254
    2cde:	f0 93 29 01 	sts	0x0129, r31	; 0x800129 <current_state+0x1>
    2ce2:	e0 93 28 01 	sts	0x0128, r30	; 0x800128 <current_state>
*/
/*************************************************************************
 Helpers for setting the state properties
*************************************************************************/
static void setState(MENU_STATE *state, MENU_STATE *new_prev_state, MENU_ITEM *new_current_item, uint8_t new_current_item_idx, uint8_t new_cursor_line){
	state->prev_state = new_prev_state;
    2ce6:	b1 83       	std	Z+1, r27	; 0x01
    2ce8:	a0 83       	st	Z, r26
	state->current_item = new_current_item;
    2cea:	13 82       	std	Z+3, r1	; 0x03
    2cec:	12 82       	std	Z+2, r1	; 0x02
	state->current_item_idx = new_current_item_idx;
    2cee:	14 82       	std	Z+4, r1	; 0x04
	state->cursor_line = new_cursor_line;
    2cf0:	15 82       	std	Z+5, r1	; 0x05
    2cf2:	0f c0       	rjmp	.+30     	; 0x2d12 <menuPollButtons+0x236>
				current_state = &menu_states[current_state->level + 1];
				setState(current_state, prev_state, NULL, 0, 0);
			}
			break;
		case MENU_CANCEL:
			if(current_state->level != MENU_LEVEL_1){
    2cf4:	99 23       	and	r25, r25
    2cf6:	b1 f0       	breq	.+44     	; 0x2d24 <menuPollButtons+0x248>
				current_state = &menu_states[current_state->prev_state->level];
    2cf8:	ed 91       	ld	r30, X+
    2cfa:	fc 91       	ld	r31, X
    2cfc:	86 81       	ldd	r24, Z+6	; 0x06
    2cfe:	f7 e0       	ldi	r31, 0x07	; 7
    2d00:	8f 9f       	mul	r24, r31
    2d02:	c0 01       	movw	r24, r0
    2d04:	11 24       	eor	r1, r1
    2d06:	86 5d       	subi	r24, 0xD6	; 214
    2d08:	9e 4f       	sbci	r25, 0xFE	; 254
    2d0a:	90 93 29 01 	sts	0x0129, r25	; 0x800129 <current_state+0x1>
    2d0e:	80 93 28 01 	sts	0x0128, r24	; 0x800128 <current_state>
			}
			break;
	}
	if(current_state->level != MENU_CALLBACK){
    2d12:	a0 91 28 01 	lds	r26, 0x0128	; 0x800128 <current_state>
    2d16:	b0 91 29 01 	lds	r27, 0x0129	; 0x800129 <current_state+0x1>
    2d1a:	16 96       	adiw	r26, 0x06	; 6
    2d1c:	8c 91       	ld	r24, X
    2d1e:	16 97       	sbiw	r26, 0x06	; 6
    2d20:	84 30       	cpi	r24, 0x04	; 4
    2d22:	19 f0       	breq	.+6      	; 0x2d2a <menuPollButtons+0x24e>
		renderMenu();
    2d24:	0e 94 ef 14 	call	0x29de	; 0x29de <renderMenu>
    2d28:	34 c0       	rjmp	.+104    	; 0x2d92 <menuPollButtons+0x2b6>
	}else{
		current_state->prev_state->current_item->render_callback(current_state->current_item_idx);
    2d2a:	ed 91       	ld	r30, X+
    2d2c:	fc 91       	ld	r31, X
    2d2e:	11 97       	sbiw	r26, 0x01	; 1
    2d30:	02 80       	ldd	r0, Z+2	; 0x02
    2d32:	f3 81       	ldd	r31, Z+3	; 0x03
    2d34:	e0 2d       	mov	r30, r0
    2d36:	02 80       	ldd	r0, Z+2	; 0x02
    2d38:	f3 81       	ldd	r31, Z+3	; 0x03
    2d3a:	e0 2d       	mov	r30, r0
    2d3c:	14 96       	adiw	r26, 0x04	; 4
    2d3e:	8c 91       	ld	r24, X
    2d40:	09 95       	icall
    2d42:	27 c0       	rjmp	.+78     	; 0x2d92 <menuPollButtons+0x2b6>
			MenuTimer = eeprom_read_byte(&eeMenuTimer);
			BUZZER_PORT |= (1 << BUZZER_PIN);
			if(current_state->level != MENU_CALLBACK){
				scrollMenu(b);
			}else{
				bool exited = current_state->prev_state->current_item->btn_handle_callback(b, current_state->current_item_idx);
    2d44:	ed 91       	ld	r30, X+
    2d46:	fc 91       	ld	r31, X
    2d48:	11 97       	sbiw	r26, 0x01	; 1
    2d4a:	02 80       	ldd	r0, Z+2	; 0x02
    2d4c:	f3 81       	ldd	r31, Z+3	; 0x03
    2d4e:	e0 2d       	mov	r30, r0
    2d50:	04 80       	ldd	r0, Z+4	; 0x04
    2d52:	f5 81       	ldd	r31, Z+5	; 0x05
    2d54:	e0 2d       	mov	r30, r0
    2d56:	14 96       	adiw	r26, 0x04	; 4
    2d58:	6c 91       	ld	r22, X
    2d5a:	c8 01       	movw	r24, r16
    2d5c:	09 95       	icall
				if(exited){
    2d5e:	88 23       	and	r24, r24
    2d60:	c1 f0       	breq	.+48     	; 0x2d92 <menuPollButtons+0x2b6>
					current_state = &menu_states[current_state->prev_state->level];
    2d62:	e0 91 28 01 	lds	r30, 0x0128	; 0x800128 <current_state>
    2d66:	f0 91 29 01 	lds	r31, 0x0129	; 0x800129 <current_state+0x1>
    2d6a:	01 90       	ld	r0, Z+
    2d6c:	f0 81       	ld	r31, Z
    2d6e:	e0 2d       	mov	r30, r0
    2d70:	86 81       	ldd	r24, Z+6	; 0x06
    2d72:	27 e0       	ldi	r18, 0x07	; 7
    2d74:	82 9f       	mul	r24, r18
    2d76:	c0 01       	movw	r24, r0
    2d78:	11 24       	eor	r1, r1
    2d7a:	86 5d       	subi	r24, 0xD6	; 214
    2d7c:	9e 4f       	sbci	r25, 0xFE	; 254
    2d7e:	90 93 29 01 	sts	0x0129, r25	; 0x800129 <current_state+0x1>
    2d82:	80 93 28 01 	sts	0x0128, r24	; 0x800128 <current_state>
					renderMenu();
    2d86:	0e 94 ef 14 	call	0x29de	; 0x29de <renderMenu>
    2d8a:	03 c0       	rjmp	.+6      	; 0x2d92 <menuPollButtons+0x2b6>
				}
			}
		}else{
			b->pressed = false;
    2d8c:	f8 01       	movw	r30, r16
    2d8e:	14 82       	std	Z+4, r1	; 0x04
			BUZZER_PORT &= ~(1 << BUZZER_PIN);
    2d90:	a8 98       	cbi	0x15, 0	; 21
    2d92:	25 96       	adiw	r28, 0x05	; 5
	menuPortsioInit();
	menuReset();
}

void menuPollButtons(){
	for(uint8_t i=0; i<MENU_BUTTON_ROLE_COUNT; i++){
    2d94:	ce 15       	cp	r28, r14
    2d96:	df 05       	cpc	r29, r15
    2d98:	09 f0       	breq	.+2      	; 0x2d9c <menuPollButtons+0x2c0>
    2d9a:	ca ce       	rjmp	.-620    	; 0x2b30 <menuPollButtons+0x54>
    2d9c:	0a c0       	rjmp	.+20     	; 0x2db2 <menuPollButtons+0x2d6>
			if(current_state->level != MENU_LEVEL_1){
				MENU_ITEM *previous_item = menu_states[current_state->prev_state->level].current_item;
				max_options = previous_item->submenu_length;
			}

			if(current_state->current_item_idx < max_options-1){
    2d9e:	44 81       	ldd	r20, Z+4	; 0x04
    2da0:	24 2f       	mov	r18, r20
    2da2:	30 e0       	ldi	r19, 0x00	; 0
    2da4:	90 e0       	ldi	r25, 0x00	; 0
    2da6:	01 97       	sbiw	r24, 0x01	; 1
    2da8:	28 17       	cp	r18, r24
    2daa:	39 07       	cpc	r19, r25
    2dac:	0c f4       	brge	.+2      	; 0x2db0 <menuPollButtons+0x2d4>
    2dae:	36 cf       	rjmp	.-404    	; 0x2c1c <menuPollButtons+0x140>
    2db0:	b9 cf       	rjmp	.-142    	; 0x2d24 <menuPollButtons+0x248>
		}else{
			b->pressed = false;
			BUZZER_PORT &= ~(1 << BUZZER_PIN);
		}
	}
}
    2db2:	df 91       	pop	r29
    2db4:	cf 91       	pop	r28
    2db6:	1f 91       	pop	r17
    2db8:	0f 91       	pop	r16
    2dba:	ff 90       	pop	r15
    2dbc:	ef 90       	pop	r14
    2dbe:	df 90       	pop	r13
    2dc0:	cf 90       	pop	r12
    2dc2:	bf 90       	pop	r11
    2dc4:	af 90       	pop	r10
    2dc6:	9f 90       	pop	r9
    2dc8:	8f 90       	pop	r8
    2dca:	7f 90       	pop	r7
    2dcc:	6f 90       	pop	r6
    2dce:	5f 90       	pop	r5
    2dd0:	08 95       	ret

00002dd2 <Simple_Callback>:
#include "../main.h"
#include "avr/eeprom.h"
#include "../main.h"

bool Simple_Callback(MENU_BUTTON *button, uint8_t column){
	switch(button->role){
    2dd2:	fc 01       	movw	r30, r24
    2dd4:	80 81       	ld	r24, Z
    2dd6:	84 30       	cpi	r24, 0x04	; 4
    2dd8:	10 f0       	brcs	.+4      	; 0x2dde <Simple_Callback+0xc>
		case MENU_DOWN:
		case MENU_CONFIRM:
		case MENU_CANCEL:
			return true;
	}
	return false;
    2dda:	80 e0       	ldi	r24, 0x00	; 0
    2ddc:	08 95       	ret
	switch(button->role){
		case MENU_UP:
		case MENU_DOWN:
		case MENU_CONFIRM:
		case MENU_CANCEL:
			return true;
    2dde:	81 e0       	ldi	r24, 0x01	; 1
	}
	return false;
}
    2de0:	08 95       	ret

00002de2 <Mode_CallbackRender>:

/*************************************************************************
 Menu Settings, submenu definition
*************************************************************************/
void Mode_CallbackRender(uint8_t which){
	lcd_clrscr();
    2de2:	0e 94 04 08 	call	0x1008	; 0x1008 <lcd_clrscr>
	lcd_puts_hu(PSTR("Tesztüzem"));
    2de6:	85 e0       	ldi	r24, 0x05	; 5
    2de8:	95 e0       	ldi	r25, 0x05	; 5
    2dea:	0e 94 ef 08 	call	0x11de	; 0x11de <lcd_puts_hu>
	lcd_gotoxy(0,1);
    2dee:	61 e0       	ldi	r22, 0x01	; 1
    2df0:	80 e0       	ldi	r24, 0x00	; 0
    2df2:	0e 94 ee 07 	call	0xfdc	; 0xfdc <lcd_gotoxy>
	switch (Mode)
    2df6:	80 91 11 07 	lds	r24, 0x0711	; 0x800711 <Mode>
    2dfa:	81 30       	cpi	r24, 0x01	; 1
    2dfc:	49 f0       	breq	.+18     	; 0x2e10 <Mode_CallbackRender+0x2e>
    2dfe:	18 f0       	brcs	.+6      	; 0x2e06 <Mode_CallbackRender+0x24>
    2e00:	82 30       	cpi	r24, 0x02	; 2
    2e02:	59 f0       	breq	.+22     	; 0x2e1a <Mode_CallbackRender+0x38>
    2e04:	08 95       	ret
	{
		case 0:
			lcd_puts_hu(PSTR("Automatikus"));
    2e06:	89 ef       	ldi	r24, 0xF9	; 249
    2e08:	94 e0       	ldi	r25, 0x04	; 4
    2e0a:	0e 94 ef 08 	call	0x11de	; 0x11de <lcd_puts_hu>
			break;
    2e0e:	08 95       	ret
		
		case 1:
			lcd_puts_hu(PSTR("Manuális"));
    2e10:	80 ef       	ldi	r24, 0xF0	; 240
    2e12:	94 e0       	ldi	r25, 0x04	; 4
    2e14:	0e 94 ef 08 	call	0x11de	; 0x11de <lcd_puts_hu>
			break;
    2e18:	08 95       	ret
		
		case 2:
			lcd_puts_hu(PSTR("Hibakeresés"));
    2e1a:	84 ee       	ldi	r24, 0xE4	; 228
    2e1c:	94 e0       	ldi	r25, 0x04	; 4
    2e1e:	0e 94 ef 08 	call	0x11de	; 0x11de <lcd_puts_hu>
    2e22:	08 95       	ret

00002e24 <ClockDayName_CallbackRender>:
	ClockDay_CallbackRender(column);
	return false;
}

void ClockDayName_CallbackRender(uint8_t which){
	lcd_clrscr();
    2e24:	0e 94 04 08 	call	0x1008	; 0x1008 <lcd_clrscr>
	lcd_puts_hu(PSTR("nap név"));
    2e28:	88 e8       	ldi	r24, 0x88	; 136
    2e2a:	94 e0       	ldi	r25, 0x04	; 4
    2e2c:	0e 94 ef 08 	call	0x11de	; 0x11de <lcd_puts_hu>
	lcd_gotoxy(0,1);
    2e30:	61 e0       	ldi	r22, 0x01	; 1
    2e32:	80 e0       	ldi	r24, 0x00	; 0
    2e34:	0e 94 ee 07 	call	0xfdc	; 0xfdc <lcd_gotoxy>
	switch (DayName)
    2e38:	e0 91 01 01 	lds	r30, 0x0101	; 0x800101 <DayName>
    2e3c:	8e 2f       	mov	r24, r30
    2e3e:	90 e0       	ldi	r25, 0x00	; 0
    2e40:	fc 01       	movw	r30, r24
    2e42:	31 97       	sbiw	r30, 0x01	; 1
    2e44:	e7 30       	cpi	r30, 0x07	; 7
    2e46:	f1 05       	cpc	r31, r1
    2e48:	30 f5       	brcc	.+76     	; 0x2e96 <ClockDayName_CallbackRender+0x72>
    2e4a:	ec 55       	subi	r30, 0x5C	; 92
    2e4c:	ff 4f       	sbci	r31, 0xFF	; 255
    2e4e:	0c 94 38 2b 	jmp	0x5670	; 0x5670 <__tablejump2__>
	{
		case 1:
			lcd_puts_hu(PSTR("hétfõ"));
    2e52:	82 e8       	ldi	r24, 0x82	; 130
    2e54:	94 e0       	ldi	r25, 0x04	; 4
    2e56:	0e 94 ef 08 	call	0x11de	; 0x11de <lcd_puts_hu>
			break;
    2e5a:	08 95       	ret
		case 2:
			lcd_puts_hu(PSTR("kedd"));
    2e5c:	8d e7       	ldi	r24, 0x7D	; 125
    2e5e:	94 e0       	ldi	r25, 0x04	; 4
    2e60:	0e 94 ef 08 	call	0x11de	; 0x11de <lcd_puts_hu>
			break;
    2e64:	08 95       	ret
		case 3:
			lcd_puts_hu(PSTR("szerda"));
    2e66:	86 e7       	ldi	r24, 0x76	; 118
    2e68:	94 e0       	ldi	r25, 0x04	; 4
    2e6a:	0e 94 ef 08 	call	0x11de	; 0x11de <lcd_puts_hu>
			break;
    2e6e:	08 95       	ret
		case 4:
			lcd_puts_hu(PSTR("csütörtök"));
    2e70:	8c e6       	ldi	r24, 0x6C	; 108
    2e72:	94 e0       	ldi	r25, 0x04	; 4
    2e74:	0e 94 ef 08 	call	0x11de	; 0x11de <lcd_puts_hu>
			break;
    2e78:	08 95       	ret
		case 5:
			lcd_puts_hu(PSTR("péntek"));
    2e7a:	85 e6       	ldi	r24, 0x65	; 101
    2e7c:	94 e0       	ldi	r25, 0x04	; 4
    2e7e:	0e 94 ef 08 	call	0x11de	; 0x11de <lcd_puts_hu>
			break;
    2e82:	08 95       	ret
		case 6:
			lcd_puts_hu(PSTR("szombat"));
    2e84:	8d e5       	ldi	r24, 0x5D	; 93
    2e86:	94 e0       	ldi	r25, 0x04	; 4
    2e88:	0e 94 ef 08 	call	0x11de	; 0x11de <lcd_puts_hu>
			break;
    2e8c:	08 95       	ret
		case 7:
			lcd_puts_hu(PSTR("vasárnap"));
    2e8e:	84 e5       	ldi	r24, 0x54	; 84
    2e90:	94 e0       	ldi	r25, 0x04	; 4
    2e92:	0e 94 ef 08 	call	0x11de	; 0x11de <lcd_puts_hu>
    2e96:	08 95       	ret

00002e98 <ClockDayName_ActionCallback>:
			break;
	}
}

bool ClockDayName_ActionCallback(MENU_BUTTON *button, uint8_t column){
	switch(button->role){
    2e98:	fc 01       	movw	r30, r24
    2e9a:	80 81       	ld	r24, Z
    2e9c:	81 30       	cpi	r24, 0x01	; 1
    2e9e:	81 f0       	breq	.+32     	; 0x2ec0 <ClockDayName_ActionCallback+0x28>
    2ea0:	18 f0       	brcs	.+6      	; 0x2ea8 <ClockDayName_ActionCallback+0x10>
    2ea2:	84 30       	cpi	r24, 0x04	; 4
    2ea4:	b8 f4       	brcc	.+46     	; 0x2ed4 <ClockDayName_ActionCallback+0x3c>
    2ea6:	1b c0       	rjmp	.+54     	; 0x2ede <ClockDayName_ActionCallback+0x46>
		case MENU_UP:
			if (++DayName == 8)
    2ea8:	80 91 01 01 	lds	r24, 0x0101	; 0x800101 <DayName>
    2eac:	8f 5f       	subi	r24, 0xFF	; 255
    2eae:	88 30       	cpi	r24, 0x08	; 8
    2eb0:	19 f0       	breq	.+6      	; 0x2eb8 <ClockDayName_ActionCallback+0x20>
    2eb2:	80 93 01 01 	sts	0x0101, r24	; 0x800101 <DayName>
    2eb6:	0e c0       	rjmp	.+28     	; 0x2ed4 <ClockDayName_ActionCallback+0x3c>
				DayName = 1;
    2eb8:	81 e0       	ldi	r24, 0x01	; 1
    2eba:	80 93 01 01 	sts	0x0101, r24	; 0x800101 <DayName>
    2ebe:	0a c0       	rjmp	.+20     	; 0x2ed4 <ClockDayName_ActionCallback+0x3c>
			break;
		case MENU_DOWN:
			if (--DayName == 0)
    2ec0:	80 91 01 01 	lds	r24, 0x0101	; 0x800101 <DayName>
    2ec4:	81 50       	subi	r24, 0x01	; 1
    2ec6:	19 f0       	breq	.+6      	; 0x2ece <ClockDayName_ActionCallback+0x36>
    2ec8:	80 93 01 01 	sts	0x0101, r24	; 0x800101 <DayName>
    2ecc:	03 c0       	rjmp	.+6      	; 0x2ed4 <ClockDayName_ActionCallback+0x3c>
			DayName = 7;
    2ece:	87 e0       	ldi	r24, 0x07	; 7
    2ed0:	80 93 01 01 	sts	0x0101, r24	; 0x800101 <DayName>
    2ed4:	86 2f       	mov	r24, r22
		case MENU_CONFIRM:
		case MENU_CANCEL:
			return true;
	}

	ClockDayName_CallbackRender(column);
    2ed6:	0e 94 12 17 	call	0x2e24	; 0x2e24 <ClockDayName_CallbackRender>
	return false;
    2eda:	80 e0       	ldi	r24, 0x00	; 0
    2edc:	08 95       	ret
			if (--DayName == 0)
			DayName = 7;
			break;
		case MENU_CONFIRM:
		case MENU_CANCEL:
			return true;
    2ede:	81 e0       	ldi	r24, 0x01	; 1
	}

	ClockDayName_CallbackRender(column);
	return false;
}
    2ee0:	08 95       	ret

00002ee2 <HIHxxxxTemp_CallbackRender>:

/*************************************************************************
 BME 280, submenu definitions
*************************************************************************/
void HIHxxxxTemp_CallbackRender(uint8_t which){
	lcd_clrscr();
    2ee2:	0e 94 04 08 	call	0x1008	; 0x1008 <lcd_clrscr>
	lcd_puts_hu(PSTR("HIHxxxx hõm"));
    2ee6:	85 ee       	ldi	r24, 0xE5	; 229
    2ee8:	97 e0       	ldi	r25, 0x07	; 7
    2eea:	0e 94 ef 08 	call	0x11de	; 0x11de <lcd_puts_hu>
	lcd_gotoxy(0,1);
    2eee:	61 e0       	ldi	r22, 0x01	; 1
    2ef0:	80 e0       	ldi	r24, 0x00	; 0
    2ef2:	0e 94 ee 07 	call	0xfdc	; 0xfdc <lcd_gotoxy>
	lcd_puts(HIHxxxxTempBuf);
    2ef6:	8e ef       	ldi	r24, 0xFE	; 254
    2ef8:	97 e0       	ldi	r25, 0x07	; 7
    2efa:	0e 94 bd 08 	call	0x117a	; 0x117a <lcd_puts>
    2efe:	08 95       	ret

00002f00 <HIHxxxxHumidity_CallbackRender>:
	//ftoa(buffer, HIHxxxxTempMax, 2);
	//lcd_puts(buffer); lcd_puts_p(PSTR(" C"));
}

void HIHxxxxHumidity_CallbackRender(uint8_t which){
	lcd_clrscr();
    2f00:	0e 94 04 08 	call	0x1008	; 0x1008 <lcd_clrscr>
	lcd_puts_hu(PSTR("HIHxxxx pára"));
    2f04:	88 ed       	ldi	r24, 0xD8	; 216
    2f06:	97 e0       	ldi	r25, 0x07	; 7
    2f08:	0e 94 ef 08 	call	0x11de	; 0x11de <lcd_puts_hu>
	lcd_gotoxy(0,1);
    2f0c:	61 e0       	ldi	r22, 0x01	; 1
    2f0e:	80 e0       	ldi	r24, 0x00	; 0
    2f10:	0e 94 ee 07 	call	0xfdc	; 0xfdc <lcd_gotoxy>
	lcd_puts(HIHxxxxHumidBuf);
    2f14:	88 ed       	ldi	r24, 0xD8	; 216
    2f16:	97 e0       	ldi	r25, 0x07	; 7
    2f18:	0e 94 bd 08 	call	0x117a	; 0x117a <lcd_puts>
    2f1c:	08 95       	ret

00002f1e <SwitchOnOutdoorTempMin_CallbackRender>:
}

void SwitchOnOutdoorTempMin_CallbackRender(uint8_t which){
    2f1e:	cf 93       	push	r28
    2f20:	df 93       	push	r29
    2f22:	00 d0       	rcall	.+0      	; 0x2f24 <SwitchOnOutdoorTempMin_CallbackRender+0x6>
    2f24:	00 d0       	rcall	.+0      	; 0x2f26 <SwitchOnOutdoorTempMin_CallbackRender+0x8>
    2f26:	1f 92       	push	r1
    2f28:	cd b7       	in	r28, 0x3d	; 61
    2f2a:	de b7       	in	r29, 0x3e	; 62
	lcd_clrscr();
    2f2c:	0e 94 04 08 	call	0x1008	; 0x1008 <lcd_clrscr>
	lcd_puts_hu(PSTR("Külsõ min hõm"));
    2f30:	8a ec       	ldi	r24, 0xCA	; 202
    2f32:	97 e0       	ldi	r25, 0x07	; 7
    2f34:	0e 94 ef 08 	call	0x11de	; 0x11de <lcd_puts_hu>
	lcd_gotoxy(0,1);
    2f38:	61 e0       	ldi	r22, 0x01	; 1
    2f3a:	80 e0       	ldi	r24, 0x00	; 0
    2f3c:	0e 94 ee 07 	call	0xfdc	; 0xfdc <lcd_gotoxy>
    2f40:	4a e0       	ldi	r20, 0x0A	; 10
    2f42:	be 01       	movw	r22, r28
    2f44:	6f 5f       	subi	r22, 0xFF	; 255
    2f46:	7f 4f       	sbci	r23, 0xFF	; 255
    2f48:	80 91 ca 07 	lds	r24, 0x07CA	; 0x8007ca <SwitchOnOutdoorTempMin>
    2f4c:	90 91 cb 07 	lds	r25, 0x07CB	; 0x8007cb <SwitchOnOutdoorTempMin+0x1>
    2f50:	0e 94 89 2b 	call	0x5712	; 0x5712 <__itoa_ncheck>
	char buf[5];
	itoa(SwitchOnOutdoorTempMin, buf, 10);
	lcd_puts(buf);
    2f54:	ce 01       	movw	r24, r28
    2f56:	01 96       	adiw	r24, 0x01	; 1
    2f58:	0e 94 bd 08 	call	0x117a	; 0x117a <lcd_puts>
}
    2f5c:	0f 90       	pop	r0
    2f5e:	0f 90       	pop	r0
    2f60:	0f 90       	pop	r0
    2f62:	0f 90       	pop	r0
    2f64:	0f 90       	pop	r0
    2f66:	df 91       	pop	r29
    2f68:	cf 91       	pop	r28
    2f6a:	08 95       	ret

00002f6c <DHWTempDesired_CallbackRender>:
	lcd_puts(buffer); lcd_puts_p(PSTR("/"));
	itoa(DHW.MeasuredMaximumTemp, buffer, 10);
	lcd_puts(buffer); lcd_puts_p(PSTR(" C"));
}

void DHWTempDesired_CallbackRender(uint8_t which){
    2f6c:	cf 93       	push	r28
    2f6e:	df 93       	push	r29
    2f70:	00 d0       	rcall	.+0      	; 0x2f72 <DHWTempDesired_CallbackRender+0x6>
    2f72:	00 d0       	rcall	.+0      	; 0x2f74 <DHWTempDesired_CallbackRender+0x8>
    2f74:	cd b7       	in	r28, 0x3d	; 61
    2f76:	de b7       	in	r29, 0x3e	; 62
    2f78:	80 91 de 07 	lds	r24, 0x07DE	; 0x8007de <DHWTempDesired>
    2f7c:	4a e0       	ldi	r20, 0x0A	; 10
    2f7e:	be 01       	movw	r22, r28
    2f80:	6f 5f       	subi	r22, 0xFF	; 255
    2f82:	7f 4f       	sbci	r23, 0xFF	; 255
    2f84:	90 e0       	ldi	r25, 0x00	; 0
    2f86:	0e 94 89 2b 	call	0x5712	; 0x5712 <__itoa_ncheck>
	char buf[4];
	itoa(DHWTempDesired, buf, 10);
	lcd_clrscr();
    2f8a:	0e 94 04 08 	call	0x1008	; 0x1008 <lcd_clrscr>
	lcd_puts_hu(PSTR("HMV kívánt hõm"));
    2f8e:	85 ea       	ldi	r24, 0xA5	; 165
    2f90:	97 e0       	ldi	r25, 0x07	; 7
    2f92:	0e 94 ef 08 	call	0x11de	; 0x11de <lcd_puts_hu>
	lcd_gotoxy(0,1);
    2f96:	61 e0       	ldi	r22, 0x01	; 1
    2f98:	80 e0       	ldi	r24, 0x00	; 0
    2f9a:	0e 94 ee 07 	call	0xfdc	; 0xfdc <lcd_gotoxy>
	lcd_puts(buf);
    2f9e:	ce 01       	movw	r24, r28
    2fa0:	01 96       	adiw	r24, 0x01	; 1
    2fa2:	0e 94 bd 08 	call	0x117a	; 0x117a <lcd_puts>
}
    2fa6:	0f 90       	pop	r0
    2fa8:	0f 90       	pop	r0
    2faa:	0f 90       	pop	r0
    2fac:	0f 90       	pop	r0
    2fae:	df 91       	pop	r29
    2fb0:	cf 91       	pop	r28
    2fb2:	08 95       	ret

00002fb4 <DHWTempMin_CallbackRender>:
	}
	DHWTempDesired_CallbackRender(column);
	return false;
}

void DHWTempMin_CallbackRender(uint8_t which){
    2fb4:	cf 93       	push	r28
    2fb6:	df 93       	push	r29
    2fb8:	00 d0       	rcall	.+0      	; 0x2fba <DHWTempMin_CallbackRender+0x6>
    2fba:	00 d0       	rcall	.+0      	; 0x2fbc <DHWTempMin_CallbackRender+0x8>
    2fbc:	cd b7       	in	r28, 0x3d	; 61
    2fbe:	de b7       	in	r29, 0x3e	; 62
    2fc0:	80 91 cd 07 	lds	r24, 0x07CD	; 0x8007cd <DHWTempMin>
    2fc4:	4a e0       	ldi	r20, 0x0A	; 10
    2fc6:	be 01       	movw	r22, r28
    2fc8:	6f 5f       	subi	r22, 0xFF	; 255
    2fca:	7f 4f       	sbci	r23, 0xFF	; 255
    2fcc:	90 e0       	ldi	r25, 0x00	; 0
    2fce:	0e 94 89 2b 	call	0x5712	; 0x5712 <__itoa_ncheck>
	char buf[4];
	itoa(DHWTempMin, buf, 10);
	lcd_clrscr();
    2fd2:	0e 94 04 08 	call	0x1008	; 0x1008 <lcd_clrscr>
	lcd_puts_hu(PSTR("HMV min hõm"));
    2fd6:	89 e9       	ldi	r24, 0x99	; 153
    2fd8:	97 e0       	ldi	r25, 0x07	; 7
    2fda:	0e 94 ef 08 	call	0x11de	; 0x11de <lcd_puts_hu>
	lcd_gotoxy(0,1);
    2fde:	61 e0       	ldi	r22, 0x01	; 1
    2fe0:	80 e0       	ldi	r24, 0x00	; 0
    2fe2:	0e 94 ee 07 	call	0xfdc	; 0xfdc <lcd_gotoxy>
	lcd_puts(buf);
    2fe6:	ce 01       	movw	r24, r28
    2fe8:	01 96       	adiw	r24, 0x01	; 1
    2fea:	0e 94 bd 08 	call	0x117a	; 0x117a <lcd_puts>
}
    2fee:	0f 90       	pop	r0
    2ff0:	0f 90       	pop	r0
    2ff2:	0f 90       	pop	r0
    2ff4:	0f 90       	pop	r0
    2ff6:	df 91       	pop	r29
    2ff8:	cf 91       	pop	r28
    2ffa:	08 95       	ret

00002ffc <DHWSensor_CallbackRender>:

	DHWTempMin_CallbackRender(column);
	return false;
}

void DHWSensor_CallbackRender(uint8_t which){
    2ffc:	cf 93       	push	r28
    2ffe:	df 93       	push	r29
    3000:	00 d0       	rcall	.+0      	; 0x3002 <DHWSensor_CallbackRender+0x6>
    3002:	00 d0       	rcall	.+0      	; 0x3004 <DHWSensor_CallbackRender+0x8>
    3004:	cd b7       	in	r28, 0x3d	; 61
    3006:	de b7       	in	r29, 0x3e	; 62
	lcd_clrscr();
    3008:	0e 94 04 08 	call	0x1008	; 0x1008 <lcd_clrscr>
	lcd_puts_hu(PSTR("HMV szenzor ID"));
    300c:	8a e8       	ldi	r24, 0x8A	; 138
    300e:	97 e0       	ldi	r25, 0x07	; 7
    3010:	0e 94 ef 08 	call	0x11de	; 0x11de <lcd_puts_hu>
	lcd_gotoxy(0,1);
    3014:	61 e0       	ldi	r22, 0x01	; 1
    3016:	80 e0       	ldi	r24, 0x00	; 0
    3018:	0e 94 ee 07 	call	0xfdc	; 0xfdc <lcd_gotoxy>
    301c:	80 91 1d 08 	lds	r24, 0x081D	; 0x80081d <DHW+0x9>
    3020:	4a e0       	ldi	r20, 0x0A	; 10
    3022:	be 01       	movw	r22, r28
    3024:	6f 5f       	subi	r22, 0xFF	; 255
    3026:	7f 4f       	sbci	r23, 0xFF	; 255
    3028:	90 e0       	ldi	r25, 0x00	; 0
    302a:	0e 94 89 2b 	call	0x5712	; 0x5712 <__itoa_ncheck>
	char buf[4];
	itoa(DHW.SensorID, buf, 10);
	lcd_puts(buf);
    302e:	ce 01       	movw	r24, r28
    3030:	01 96       	adiw	r24, 0x01	; 1
    3032:	0e 94 bd 08 	call	0x117a	; 0x117a <lcd_puts>
}
    3036:	0f 90       	pop	r0
    3038:	0f 90       	pop	r0
    303a:	0f 90       	pop	r0
    303c:	0f 90       	pop	r0
    303e:	df 91       	pop	r29
    3040:	cf 91       	pop	r28
    3042:	08 95       	ret

00003044 <DHWMinTime_CallbackRender>:

	DHWSensor_CallbackRender(column);
	return false;
}

void DHWMinTime_CallbackRender(uint8_t which){
    3044:	cf 93       	push	r28
    3046:	df 93       	push	r29
    3048:	00 d0       	rcall	.+0      	; 0x304a <DHWMinTime_CallbackRender+0x6>
    304a:	00 d0       	rcall	.+0      	; 0x304c <DHWMinTime_CallbackRender+0x8>
    304c:	1f 92       	push	r1
    304e:	cd b7       	in	r28, 0x3d	; 61
    3050:	de b7       	in	r29, 0x3e	; 62
	lcd_clrscr();
    3052:	0e 94 04 08 	call	0x1008	; 0x1008 <lcd_clrscr>
	lcd_puts_hu(PSTR("Min idõ"));
    3056:	82 e8       	ldi	r24, 0x82	; 130
    3058:	97 e0       	ldi	r25, 0x07	; 7
    305a:	0e 94 ef 08 	call	0x11de	; 0x11de <lcd_puts_hu>
	lcd_gotoxy(0,1);
    305e:	61 e0       	ldi	r22, 0x01	; 1
    3060:	80 e0       	ldi	r24, 0x00	; 0
    3062:	0e 94 ee 07 	call	0xfdc	; 0xfdc <lcd_gotoxy>
    3066:	4a e0       	ldi	r20, 0x0A	; 10
    3068:	be 01       	movw	r22, r28
    306a:	6f 5f       	subi	r22, 0xFF	; 255
    306c:	7f 4f       	sbci	r23, 0xFF	; 255
    306e:	80 91 08 08 	lds	r24, 0x0808	; 0x800808 <DHWMinTime>
    3072:	90 91 09 08 	lds	r25, 0x0809	; 0x800809 <DHWMinTime+0x1>
    3076:	0e 94 89 2b 	call	0x5712	; 0x5712 <__itoa_ncheck>
	char buf[5];
	itoa(DHWMinTime, buf, 10);
	lcd_puts(buf);
    307a:	ce 01       	movw	r24, r28
    307c:	01 96       	adiw	r24, 0x01	; 1
    307e:	0e 94 bd 08 	call	0x117a	; 0x117a <lcd_puts>
}
    3082:	0f 90       	pop	r0
    3084:	0f 90       	pop	r0
    3086:	0f 90       	pop	r0
    3088:	0f 90       	pop	r0
    308a:	0f 90       	pop	r0
    308c:	df 91       	pop	r29
    308e:	cf 91       	pop	r28
    3090:	08 95       	ret

00003092 <DHWMaxTime_CallbackRender>:

	DHWMinTime_CallbackRender(column);
	return false;
}

void DHWMaxTime_CallbackRender(uint8_t which){
    3092:	cf 93       	push	r28
    3094:	df 93       	push	r29
    3096:	00 d0       	rcall	.+0      	; 0x3098 <DHWMaxTime_CallbackRender+0x6>
    3098:	00 d0       	rcall	.+0      	; 0x309a <DHWMaxTime_CallbackRender+0x8>
    309a:	1f 92       	push	r1
    309c:	cd b7       	in	r28, 0x3d	; 61
    309e:	de b7       	in	r29, 0x3e	; 62
	lcd_clrscr();
    30a0:	0e 94 04 08 	call	0x1008	; 0x1008 <lcd_clrscr>
	lcd_puts_hu(PSTR("Max idõ"));
    30a4:	8a e7       	ldi	r24, 0x7A	; 122
    30a6:	97 e0       	ldi	r25, 0x07	; 7
    30a8:	0e 94 ef 08 	call	0x11de	; 0x11de <lcd_puts_hu>
	lcd_gotoxy(0,1);
    30ac:	61 e0       	ldi	r22, 0x01	; 1
    30ae:	80 e0       	ldi	r24, 0x00	; 0
    30b0:	0e 94 ee 07 	call	0xfdc	; 0xfdc <lcd_gotoxy>
    30b4:	4a e0       	ldi	r20, 0x0A	; 10
    30b6:	be 01       	movw	r22, r28
    30b8:	6f 5f       	subi	r22, 0xFF	; 255
    30ba:	7f 4f       	sbci	r23, 0xFF	; 255
    30bc:	80 91 34 08 	lds	r24, 0x0834	; 0x800834 <DHWMaxTime>
    30c0:	90 91 35 08 	lds	r25, 0x0835	; 0x800835 <DHWMaxTime+0x1>
    30c4:	0e 94 89 2b 	call	0x5712	; 0x5712 <__itoa_ncheck>
	char buf[5];
	itoa(DHWMaxTime, buf, 10);
	lcd_puts(buf);
    30c8:	ce 01       	movw	r24, r28
    30ca:	01 96       	adiw	r24, 0x01	; 1
    30cc:	0e 94 bd 08 	call	0x117a	; 0x117a <lcd_puts>
}
    30d0:	0f 90       	pop	r0
    30d2:	0f 90       	pop	r0
    30d4:	0f 90       	pop	r0
    30d6:	0f 90       	pop	r0
    30d8:	0f 90       	pop	r0
    30da:	df 91       	pop	r29
    30dc:	cf 91       	pop	r28
    30de:	08 95       	ret

000030e0 <ForwardHeatTemp_CallbackRender>:
	lcd_puts(buffer); lcd_puts_p(PSTR("/"));
	itoa(Buffer.MeasuredMaximumTemp, buffer, 10);
	lcd_puts(buffer); lcd_puts_p(PSTR(" C"));
}

void ForwardHeatTemp_CallbackRender(uint8_t which){
    30e0:	cf 93       	push	r28
    30e2:	df 93       	push	r29
    30e4:	00 d0       	rcall	.+0      	; 0x30e6 <ForwardHeatTemp_CallbackRender+0x6>
    30e6:	00 d0       	rcall	.+0      	; 0x30e8 <ForwardHeatTemp_CallbackRender+0x8>
    30e8:	cd b7       	in	r28, 0x3d	; 61
    30ea:	de b7       	in	r29, 0x3e	; 62
    30ec:	80 91 09 01 	lds	r24, 0x0109	; 0x800109 <ForwardHeatTemp>
    30f0:	4a e0       	ldi	r20, 0x0A	; 10
    30f2:	be 01       	movw	r22, r28
    30f4:	6f 5f       	subi	r22, 0xFF	; 255
    30f6:	7f 4f       	sbci	r23, 0xFF	; 255
    30f8:	90 e0       	ldi	r25, 0x00	; 0
    30fa:	0e 94 89 2b 	call	0x5712	; 0x5712 <__itoa_ncheck>
	char buf[4];
	itoa(ForwardHeatTemp, buf, 10);
	lcd_clrscr();
    30fe:	0e 94 04 08 	call	0x1008	; 0x1008 <lcd_clrscr>
	lcd_puts_hu(PSTR("Elõremenõ hõm"));
    3102:	83 e5       	ldi	r24, 0x53	; 83
    3104:	97 e0       	ldi	r25, 0x07	; 7
    3106:	0e 94 ef 08 	call	0x11de	; 0x11de <lcd_puts_hu>
	lcd_gotoxy(0,1);
    310a:	61 e0       	ldi	r22, 0x01	; 1
    310c:	80 e0       	ldi	r24, 0x00	; 0
    310e:	0e 94 ee 07 	call	0xfdc	; 0xfdc <lcd_gotoxy>
	lcd_puts(buf);
    3112:	ce 01       	movw	r24, r28
    3114:	01 96       	adiw	r24, 0x01	; 1
    3116:	0e 94 bd 08 	call	0x117a	; 0x117a <lcd_puts>
}
    311a:	0f 90       	pop	r0
    311c:	0f 90       	pop	r0
    311e:	0f 90       	pop	r0
    3120:	0f 90       	pop	r0
    3122:	df 91       	pop	r29
    3124:	cf 91       	pop	r28
    3126:	08 95       	ret

00003128 <BufferMaxTemp_CallbackRender>:

	ForwardHeatTemp_CallbackRender(column);
	return false;
}

void BufferMaxTemp_CallbackRender(uint8_t which){
    3128:	cf 93       	push	r28
    312a:	df 93       	push	r29
    312c:	00 d0       	rcall	.+0      	; 0x312e <BufferMaxTemp_CallbackRender+0x6>
    312e:	00 d0       	rcall	.+0      	; 0x3130 <BufferMaxTemp_CallbackRender+0x8>
    3130:	cd b7       	in	r28, 0x3d	; 61
    3132:	de b7       	in	r29, 0x3e	; 62
    3134:	80 91 08 01 	lds	r24, 0x0108	; 0x800108 <BufferMaxTemp>
    3138:	4a e0       	ldi	r20, 0x0A	; 10
    313a:	be 01       	movw	r22, r28
    313c:	6f 5f       	subi	r22, 0xFF	; 255
    313e:	7f 4f       	sbci	r23, 0xFF	; 255
    3140:	90 e0       	ldi	r25, 0x00	; 0
    3142:	0e 94 89 2b 	call	0x5712	; 0x5712 <__itoa_ncheck>
	char buf[4];
	itoa(BufferMaxTemp, buf, 10);
	lcd_clrscr();
    3146:	0e 94 04 08 	call	0x1008	; 0x1008 <lcd_clrscr>
	lcd_puts_hu(PSTR("Puffer max hõm"));
    314a:	84 e4       	ldi	r24, 0x44	; 68
    314c:	97 e0       	ldi	r25, 0x07	; 7
    314e:	0e 94 ef 08 	call	0x11de	; 0x11de <lcd_puts_hu>
	lcd_gotoxy(0,1);
    3152:	61 e0       	ldi	r22, 0x01	; 1
    3154:	80 e0       	ldi	r24, 0x00	; 0
    3156:	0e 94 ee 07 	call	0xfdc	; 0xfdc <lcd_gotoxy>
	lcd_puts(buf);
    315a:	ce 01       	movw	r24, r28
    315c:	01 96       	adiw	r24, 0x01	; 1
    315e:	0e 94 bd 08 	call	0x117a	; 0x117a <lcd_puts>
}
    3162:	0f 90       	pop	r0
    3164:	0f 90       	pop	r0
    3166:	0f 90       	pop	r0
    3168:	0f 90       	pop	r0
    316a:	df 91       	pop	r29
    316c:	cf 91       	pop	r28
    316e:	08 95       	ret

00003170 <BufferSensor_CallbackRender>:

	ForwardHeatTemp_CallbackRender(column);
	return false;
}

void BufferSensor_CallbackRender(uint8_t which){
    3170:	cf 93       	push	r28
    3172:	df 93       	push	r29
    3174:	00 d0       	rcall	.+0      	; 0x3176 <BufferSensor_CallbackRender+0x6>
    3176:	00 d0       	rcall	.+0      	; 0x3178 <BufferSensor_CallbackRender+0x8>
    3178:	cd b7       	in	r28, 0x3d	; 61
    317a:	de b7       	in	r29, 0x3e	; 62
	lcd_clrscr();
    317c:	0e 94 04 08 	call	0x1008	; 0x1008 <lcd_clrscr>
	lcd_puts_hu(PSTR("Puffer szenzor ID"));
    3180:	82 e3       	ldi	r24, 0x32	; 50
    3182:	97 e0       	ldi	r25, 0x07	; 7
    3184:	0e 94 ef 08 	call	0x11de	; 0x11de <lcd_puts_hu>
	lcd_gotoxy(0,1);
    3188:	61 e0       	ldi	r22, 0x01	; 1
    318a:	80 e0       	ldi	r24, 0x00	; 0
    318c:	0e 94 ee 07 	call	0xfdc	; 0xfdc <lcd_gotoxy>
    3190:	80 91 46 08 	lds	r24, 0x0846	; 0x800846 <Buffer+0x9>
    3194:	4a e0       	ldi	r20, 0x0A	; 10
    3196:	be 01       	movw	r22, r28
    3198:	6f 5f       	subi	r22, 0xFF	; 255
    319a:	7f 4f       	sbci	r23, 0xFF	; 255
    319c:	90 e0       	ldi	r25, 0x00	; 0
    319e:	0e 94 89 2b 	call	0x5712	; 0x5712 <__itoa_ncheck>
	char buf[4];
	itoa(Buffer.SensorID, buf, 10);
	lcd_puts(buf);
    31a2:	ce 01       	movw	r24, r28
    31a4:	01 96       	adiw	r24, 0x01	; 1
    31a6:	0e 94 bd 08 	call	0x117a	; 0x117a <lcd_puts>
}
    31aa:	0f 90       	pop	r0
    31ac:	0f 90       	pop	r0
    31ae:	0f 90       	pop	r0
    31b0:	0f 90       	pop	r0
    31b2:	df 91       	pop	r29
    31b4:	cf 91       	pop	r28
    31b6:	08 95       	ret

000031b8 <EngineeringTempMin_CallbackRender>:
	lcd_puts(buffer); lcd_puts_p(PSTR("/"));
	itoa(Engineering.MeasuredMaximumTemp, buffer, 10);
	lcd_puts(buffer); lcd_puts_p(PSTR(" C"));
}

void EngineeringTempMin_CallbackRender(uint8_t which){
    31b8:	cf 93       	push	r28
    31ba:	df 93       	push	r29
    31bc:	00 d0       	rcall	.+0      	; 0x31be <EngineeringTempMin_CallbackRender+0x6>
    31be:	00 d0       	rcall	.+0      	; 0x31c0 <EngineeringTempMin_CallbackRender+0x8>
    31c0:	cd b7       	in	r28, 0x3d	; 61
    31c2:	de b7       	in	r29, 0x3e	; 62
    31c4:	80 91 3a 08 	lds	r24, 0x083A	; 0x80083a <EngineeringTempMin>
    31c8:	4a e0       	ldi	r20, 0x0A	; 10
    31ca:	be 01       	movw	r22, r28
    31cc:	6f 5f       	subi	r22, 0xFF	; 255
    31ce:	7f 4f       	sbci	r23, 0xFF	; 255
    31d0:	90 e0       	ldi	r25, 0x00	; 0
    31d2:	0e 94 89 2b 	call	0x5712	; 0x5712 <__itoa_ncheck>
	char buf[4];
	itoa(EngineeringTempMin, buf, 10);
	lcd_clrscr();
    31d6:	0e 94 04 08 	call	0x1008	; 0x1008 <lcd_clrscr>
	lcd_puts_hu(PSTR("Gépház min hõm"));
    31da:	8a e0       	ldi	r24, 0x0A	; 10
    31dc:	97 e0       	ldi	r25, 0x07	; 7
    31de:	0e 94 ef 08 	call	0x11de	; 0x11de <lcd_puts_hu>
	lcd_gotoxy(0,1);
    31e2:	61 e0       	ldi	r22, 0x01	; 1
    31e4:	80 e0       	ldi	r24, 0x00	; 0
    31e6:	0e 94 ee 07 	call	0xfdc	; 0xfdc <lcd_gotoxy>
	lcd_puts(buf);
    31ea:	ce 01       	movw	r24, r28
    31ec:	01 96       	adiw	r24, 0x01	; 1
    31ee:	0e 94 bd 08 	call	0x117a	; 0x117a <lcd_puts>
}
    31f2:	0f 90       	pop	r0
    31f4:	0f 90       	pop	r0
    31f6:	0f 90       	pop	r0
    31f8:	0f 90       	pop	r0
    31fa:	df 91       	pop	r29
    31fc:	cf 91       	pop	r28
    31fe:	08 95       	ret

00003200 <EngineeringTempDesired_CallbackRender>:

	EngineeringTempMin_CallbackRender(column);
	return false;
}

void EngineeringTempDesired_CallbackRender(uint8_t which){
    3200:	cf 93       	push	r28
    3202:	df 93       	push	r29
    3204:	cd b7       	in	r28, 0x3d	; 61
    3206:	de b7       	in	r29, 0x3e	; 62
    3208:	27 97       	sbiw	r28, 0x07	; 7
    320a:	0f b6       	in	r0, 0x3f	; 63
    320c:	f8 94       	cli
    320e:	de bf       	out	0x3e, r29	; 62
    3210:	0f be       	out	0x3f, r0	; 63
    3212:	cd bf       	out	0x3d, r28	; 61
    3214:	80 91 c1 07 	lds	r24, 0x07C1	; 0x8007c1 <EngineeringTempDesired>
    3218:	4a e0       	ldi	r20, 0x0A	; 10
    321a:	be 01       	movw	r22, r28
    321c:	6f 5f       	subi	r22, 0xFF	; 255
    321e:	7f 4f       	sbci	r23, 0xFF	; 255
    3220:	90 e0       	ldi	r25, 0x00	; 0
    3222:	0e 94 89 2b 	call	0x5712	; 0x5712 <__itoa_ncheck>
	char buf[7];
	itoa(EngineeringTempDesired, buf, 10);
	lcd_clrscr();
    3226:	0e 94 04 08 	call	0x1008	; 0x1008 <lcd_clrscr>
	lcd_puts_hu(PSTR("Gépház kívánt hõm"));
    322a:	88 ef       	ldi	r24, 0xF8	; 248
    322c:	96 e0       	ldi	r25, 0x06	; 6
    322e:	0e 94 ef 08 	call	0x11de	; 0x11de <lcd_puts_hu>
	lcd_gotoxy(0,1);
    3232:	61 e0       	ldi	r22, 0x01	; 1
    3234:	80 e0       	ldi	r24, 0x00	; 0
    3236:	0e 94 ee 07 	call	0xfdc	; 0xfdc <lcd_gotoxy>
	lcd_puts(buf);
    323a:	ce 01       	movw	r24, r28
    323c:	01 96       	adiw	r24, 0x01	; 1
    323e:	0e 94 bd 08 	call	0x117a	; 0x117a <lcd_puts>
}
    3242:	27 96       	adiw	r28, 0x07	; 7
    3244:	0f b6       	in	r0, 0x3f	; 63
    3246:	f8 94       	cli
    3248:	de bf       	out	0x3e, r29	; 62
    324a:	0f be       	out	0x3f, r0	; 63
    324c:	cd bf       	out	0x3d, r28	; 61
    324e:	df 91       	pop	r29
    3250:	cf 91       	pop	r28
    3252:	08 95       	ret

00003254 <EngineeringSensor_CallbackRender>:
	}
	EngineeringTempDesired_CallbackRender(column);
	return false;
}

void EngineeringSensor_CallbackRender(uint8_t which){
    3254:	cf 93       	push	r28
    3256:	df 93       	push	r29
    3258:	00 d0       	rcall	.+0      	; 0x325a <EngineeringSensor_CallbackRender+0x6>
    325a:	00 d0       	rcall	.+0      	; 0x325c <EngineeringSensor_CallbackRender+0x8>
    325c:	cd b7       	in	r28, 0x3d	; 61
    325e:	de b7       	in	r29, 0x3e	; 62
	lcd_clrscr();
    3260:	0e 94 04 08 	call	0x1008	; 0x1008 <lcd_clrscr>
	lcd_puts_hu(PSTR("Gépház szenzor ID"));
    3264:	86 ee       	ldi	r24, 0xE6	; 230
    3266:	96 e0       	ldi	r25, 0x06	; 6
    3268:	0e 94 ef 08 	call	0x11de	; 0x11de <lcd_puts_hu>
	lcd_gotoxy(0,1);
    326c:	61 e0       	ldi	r22, 0x01	; 1
    326e:	80 e0       	ldi	r24, 0x00	; 0
    3270:	0e 94 ee 07 	call	0xfdc	; 0xfdc <lcd_gotoxy>
    3274:	80 91 e8 07 	lds	r24, 0x07E8	; 0x8007e8 <Engineering+0x9>
    3278:	4a e0       	ldi	r20, 0x0A	; 10
    327a:	be 01       	movw	r22, r28
    327c:	6f 5f       	subi	r22, 0xFF	; 255
    327e:	7f 4f       	sbci	r23, 0xFF	; 255
    3280:	90 e0       	ldi	r25, 0x00	; 0
    3282:	0e 94 89 2b 	call	0x5712	; 0x5712 <__itoa_ncheck>
	char buf[4];
	itoa(Engineering.SensorID, buf, 10);
	lcd_puts(buf);
    3286:	ce 01       	movw	r24, r28
    3288:	01 96       	adiw	r24, 0x01	; 1
    328a:	0e 94 bd 08 	call	0x117a	; 0x117a <lcd_puts>
}
    328e:	0f 90       	pop	r0
    3290:	0f 90       	pop	r0
    3292:	0f 90       	pop	r0
    3294:	0f 90       	pop	r0
    3296:	df 91       	pop	r29
    3298:	cf 91       	pop	r28
    329a:	08 95       	ret

0000329c <GarageSensor_CallbackRender>:
	lcd_puts(buffer); lcd_puts_p(PSTR("/"));
	itoa(Garage.MeasuredMaximumTemp, buffer, 10);
	lcd_puts(buffer); lcd_puts_p(PSTR(" C"));
}

void GarageSensor_CallbackRender(uint8_t which){
    329c:	cf 93       	push	r28
    329e:	df 93       	push	r29
    32a0:	00 d0       	rcall	.+0      	; 0x32a2 <GarageSensor_CallbackRender+0x6>
    32a2:	00 d0       	rcall	.+0      	; 0x32a4 <GarageSensor_CallbackRender+0x8>
    32a4:	cd b7       	in	r28, 0x3d	; 61
    32a6:	de b7       	in	r29, 0x3e	; 62
	lcd_clrscr();
    32a8:	0e 94 04 08 	call	0x1008	; 0x1008 <lcd_clrscr>
	lcd_puts_hu(PSTR("Garázs szenzor ID"));
    32ac:	87 e2       	ldi	r24, 0x27	; 39
    32ae:	96 e0       	ldi	r25, 0x06	; 6
    32b0:	0e 94 ef 08 	call	0x11de	; 0x11de <lcd_puts_hu>
	lcd_gotoxy(0,1);
    32b4:	61 e0       	ldi	r22, 0x01	; 1
    32b6:	80 e0       	ldi	r24, 0x00	; 0
    32b8:	0e 94 ee 07 	call	0xfdc	; 0xfdc <lcd_gotoxy>
    32bc:	80 91 d7 07 	lds	r24, 0x07D7	; 0x8007d7 <Garage+0x9>
    32c0:	4a e0       	ldi	r20, 0x0A	; 10
    32c2:	be 01       	movw	r22, r28
    32c4:	6f 5f       	subi	r22, 0xFF	; 255
    32c6:	7f 4f       	sbci	r23, 0xFF	; 255
    32c8:	90 e0       	ldi	r25, 0x00	; 0
    32ca:	0e 94 89 2b 	call	0x5712	; 0x5712 <__itoa_ncheck>
	char buf[4];
	itoa(Garage.SensorID, buf, 10);
	lcd_puts(buf);
    32ce:	ce 01       	movw	r24, r28
    32d0:	01 96       	adiw	r24, 0x01	; 1
    32d2:	0e 94 bd 08 	call	0x117a	; 0x117a <lcd_puts>
}
    32d6:	0f 90       	pop	r0
    32d8:	0f 90       	pop	r0
    32da:	0f 90       	pop	r0
    32dc:	0f 90       	pop	r0
    32de:	df 91       	pop	r29
    32e0:	cf 91       	pop	r28
    32e2:	08 95       	ret

000032e4 <LivingRoomSensor_CallbackRender>:
	lcd_puts(buffer); lcd_puts_p(PSTR("/"));
	itoa(LivingRoomTempMax, buffer, 10);
	lcd_puts(buffer); lcd_puts_p(PSTR(" C"));
}

void LivingRoomSensor_CallbackRender(uint8_t which){
    32e4:	cf 93       	push	r28
    32e6:	df 93       	push	r29
    32e8:	00 d0       	rcall	.+0      	; 0x32ea <LivingRoomSensor_CallbackRender+0x6>
    32ea:	00 d0       	rcall	.+0      	; 0x32ec <LivingRoomSensor_CallbackRender+0x8>
    32ec:	cd b7       	in	r28, 0x3d	; 61
    32ee:	de b7       	in	r29, 0x3e	; 62
	lcd_clrscr();
    32f0:	0e 94 04 08 	call	0x1008	; 0x1008 <lcd_clrscr>
	lcd_puts_hu(PSTR("Nappali szenzor ID"));
    32f4:	8a ef       	ldi	r24, 0xFA	; 250
    32f6:	95 e0       	ldi	r25, 0x05	; 5
    32f8:	0e 94 ef 08 	call	0x11de	; 0x11de <lcd_puts_hu>
	lcd_gotoxy(0,1);
    32fc:	61 e0       	ldi	r22, 0x01	; 1
    32fe:	80 e0       	ldi	r24, 0x00	; 0
    3300:	0e 94 ee 07 	call	0xfdc	; 0xfdc <lcd_gotoxy>
    3304:	80 91 06 01 	lds	r24, 0x0106	; 0x800106 <LivingRoomSensorID>
    3308:	4a e0       	ldi	r20, 0x0A	; 10
    330a:	be 01       	movw	r22, r28
    330c:	6f 5f       	subi	r22, 0xFF	; 255
    330e:	7f 4f       	sbci	r23, 0xFF	; 255
    3310:	90 e0       	ldi	r25, 0x00	; 0
    3312:	0e 94 89 2b 	call	0x5712	; 0x5712 <__itoa_ncheck>
	char buf[4];
	itoa(LivingRoomSensorID, buf, 10);
	lcd_puts(buf);
    3316:	ce 01       	movw	r24, r28
    3318:	01 96       	adiw	r24, 0x01	; 1
    331a:	0e 94 bd 08 	call	0x117a	; 0x117a <lcd_puts>
}
    331e:	0f 90       	pop	r0
    3320:	0f 90       	pop	r0
    3322:	0f 90       	pop	r0
    3324:	0f 90       	pop	r0
    3326:	df 91       	pop	r29
    3328:	cf 91       	pop	r28
    332a:	08 95       	ret

0000332c <FloorSensor_CallbackRender>:
	lcd_puts(buffer); lcd_puts_p(PSTR("/"));
	itoa(Floor.MeasuredMaximumTemp, buffer, 10);
	lcd_puts(buffer); lcd_puts_p(PSTR(" C"));
}

void FloorSensor_CallbackRender(uint8_t which){
    332c:	cf 93       	push	r28
    332e:	df 93       	push	r29
    3330:	00 d0       	rcall	.+0      	; 0x3332 <FloorSensor_CallbackRender+0x6>
    3332:	00 d0       	rcall	.+0      	; 0x3334 <FloorSensor_CallbackRender+0x8>
    3334:	cd b7       	in	r28, 0x3d	; 61
    3336:	de b7       	in	r29, 0x3e	; 62
	lcd_clrscr();
    3338:	0e 94 04 08 	call	0x1008	; 0x1008 <lcd_clrscr>
	lcd_puts_hu(PSTR("Padló szenzor ID"));
    333c:	81 ed       	ldi	r24, 0xD1	; 209
    333e:	95 e0       	ldi	r25, 0x05	; 5
    3340:	0e 94 ef 08 	call	0x11de	; 0x11de <lcd_puts_hu>
	lcd_gotoxy(0,1);
    3344:	61 e0       	ldi	r22, 0x01	; 1
    3346:	80 e0       	ldi	r24, 0x00	; 0
    3348:	0e 94 ee 07 	call	0xfdc	; 0xfdc <lcd_gotoxy>
    334c:	80 91 13 08 	lds	r24, 0x0813	; 0x800813 <Floor+0x9>
    3350:	4a e0       	ldi	r20, 0x0A	; 10
    3352:	be 01       	movw	r22, r28
    3354:	6f 5f       	subi	r22, 0xFF	; 255
    3356:	7f 4f       	sbci	r23, 0xFF	; 255
    3358:	90 e0       	ldi	r25, 0x00	; 0
    335a:	0e 94 89 2b 	call	0x5712	; 0x5712 <__itoa_ncheck>
	char buf[4];
	itoa(Floor.SensorID, buf, 10);
	lcd_puts(buf);
    335e:	ce 01       	movw	r24, r28
    3360:	01 96       	adiw	r24, 0x01	; 1
    3362:	0e 94 bd 08 	call	0x117a	; 0x117a <lcd_puts>
}
    3366:	0f 90       	pop	r0
    3368:	0f 90       	pop	r0
    336a:	0f 90       	pop	r0
    336c:	0f 90       	pop	r0
    336e:	df 91       	pop	r29
    3370:	cf 91       	pop	r28
    3372:	08 95       	ret

00003374 <GasForwardSensor_CallbackRender>:
	lcd_puts_hu(PSTR("Elõre akt hõm"));
	lcd_gotoxy(0,1);
	lcd_puts(GasForward.ActualTempBuffer); lcd_puts_p(PSTR(".")), lcd_puts(GasForward.ActualTempFracBuffer); lcd_puts_p(PSTR(" C"));
}

void GasForwardSensor_CallbackRender(uint8_t which){
    3374:	cf 93       	push	r28
    3376:	df 93       	push	r29
    3378:	00 d0       	rcall	.+0      	; 0x337a <GasForwardSensor_CallbackRender+0x6>
    337a:	00 d0       	rcall	.+0      	; 0x337c <GasForwardSensor_CallbackRender+0x8>
    337c:	cd b7       	in	r28, 0x3d	; 61
    337e:	de b7       	in	r29, 0x3e	; 62
	lcd_clrscr();
    3380:	0e 94 04 08 	call	0x1008	; 0x1008 <lcd_clrscr>
	lcd_puts_hu(PSTR("Elõre szenzor ID"));
    3384:	8d ea       	ldi	r24, 0xAD	; 173
    3386:	95 e0       	ldi	r25, 0x05	; 5
    3388:	0e 94 ef 08 	call	0x11de	; 0x11de <lcd_puts_hu>
	lcd_gotoxy(0,1);
    338c:	61 e0       	ldi	r22, 0x01	; 1
    338e:	80 e0       	ldi	r24, 0x00	; 0
    3390:	0e 94 ee 07 	call	0xfdc	; 0xfdc <lcd_gotoxy>
    3394:	80 91 27 08 	lds	r24, 0x0827	; 0x800827 <GasForward+0x9>
    3398:	4a e0       	ldi	r20, 0x0A	; 10
    339a:	be 01       	movw	r22, r28
    339c:	6f 5f       	subi	r22, 0xFF	; 255
    339e:	7f 4f       	sbci	r23, 0xFF	; 255
    33a0:	90 e0       	ldi	r25, 0x00	; 0
    33a2:	0e 94 89 2b 	call	0x5712	; 0x5712 <__itoa_ncheck>
	char buf[4];
	itoa(GasForward.SensorID, buf, 10);
	lcd_puts(buf);
    33a6:	ce 01       	movw	r24, r28
    33a8:	01 96       	adiw	r24, 0x01	; 1
    33aa:	0e 94 bd 08 	call	0x117a	; 0x117a <lcd_puts>
}
    33ae:	0f 90       	pop	r0
    33b0:	0f 90       	pop	r0
    33b2:	0f 90       	pop	r0
    33b4:	0f 90       	pop	r0
    33b6:	df 91       	pop	r29
    33b8:	cf 91       	pop	r28
    33ba:	08 95       	ret

000033bc <GasReturnSensor_CallbackRender>:
	lcd_puts_hu(PSTR("Visszatérõ akt hõm"));
	lcd_gotoxy(0,1);
	lcd_puts(GasReturn.ActualTempBuffer); lcd_puts_p(PSTR(".")), lcd_puts(GasReturn.ActualTempFracBuffer); lcd_puts_p(PSTR(" C"));
}

void GasReturnSensor_CallbackRender(uint8_t which){
    33bc:	cf 93       	push	r28
    33be:	df 93       	push	r29
    33c0:	00 d0       	rcall	.+0      	; 0x33c2 <GasReturnSensor_CallbackRender+0x6>
    33c2:	00 d0       	rcall	.+0      	; 0x33c4 <GasReturnSensor_CallbackRender+0x8>
    33c4:	cd b7       	in	r28, 0x3d	; 61
    33c6:	de b7       	in	r29, 0x3e	; 62
	lcd_clrscr();
    33c8:	0e 94 04 08 	call	0x1008	; 0x1008 <lcd_clrscr>
	lcd_puts_hu(PSTR("Vissza szenzor ID"));
    33cc:	83 e8       	ldi	r24, 0x83	; 131
    33ce:	95 e0       	ldi	r25, 0x05	; 5
    33d0:	0e 94 ef 08 	call	0x11de	; 0x11de <lcd_puts_hu>
	lcd_gotoxy(0,1);
    33d4:	61 e0       	ldi	r22, 0x01	; 1
    33d6:	80 e0       	ldi	r24, 0x00	; 0
    33d8:	0e 94 ee 07 	call	0xfdc	; 0xfdc <lcd_gotoxy>
    33dc:	80 91 b2 08 	lds	r24, 0x08B2	; 0x8008b2 <GasReturn+0x9>
    33e0:	4a e0       	ldi	r20, 0x0A	; 10
    33e2:	be 01       	movw	r22, r28
    33e4:	6f 5f       	subi	r22, 0xFF	; 255
    33e6:	7f 4f       	sbci	r23, 0xFF	; 255
    33e8:	90 e0       	ldi	r25, 0x00	; 0
    33ea:	0e 94 89 2b 	call	0x5712	; 0x5712 <__itoa_ncheck>
	char buf[4];
	itoa(GasReturn.SensorID, buf, 10);
	lcd_puts(buf);
    33ee:	ce 01       	movw	r24, r28
    33f0:	01 96       	adiw	r24, 0x01	; 1
    33f2:	0e 94 bd 08 	call	0x117a	; 0x117a <lcd_puts>
}
    33f6:	0f 90       	pop	r0
    33f8:	0f 90       	pop	r0
    33fa:	0f 90       	pop	r0
    33fc:	0f 90       	pop	r0
    33fe:	df 91       	pop	r29
    3400:	cf 91       	pop	r28
    3402:	08 95       	ret

00003404 <ForwardSensor_CallbackRender>:
	lcd_puts_hu(PSTR("Elõre akt hõm"));
	lcd_gotoxy(0,1);
	lcd_puts(Forward.ActualTempBuffer); lcd_puts_p(PSTR(".")), lcd_puts(Forward.ActualTempFracBuffer); lcd_puts_p(PSTR(" C"));
}

void ForwardSensor_CallbackRender(uint8_t which){
    3404:	cf 93       	push	r28
    3406:	df 93       	push	r29
    3408:	00 d0       	rcall	.+0      	; 0x340a <ForwardSensor_CallbackRender+0x6>
    340a:	00 d0       	rcall	.+0      	; 0x340c <ForwardSensor_CallbackRender+0x8>
    340c:	cd b7       	in	r28, 0x3d	; 61
    340e:	de b7       	in	r29, 0x3e	; 62
	lcd_clrscr();
    3410:	0e 94 04 08 	call	0x1008	; 0x1008 <lcd_clrscr>
	lcd_puts_hu(PSTR("Elõre szenzor ID"));
    3414:	8f e5       	ldi	r24, 0x5F	; 95
    3416:	95 e0       	ldi	r25, 0x05	; 5
    3418:	0e 94 ef 08 	call	0x11de	; 0x11de <lcd_puts_hu>
	lcd_gotoxy(0,1);
    341c:	61 e0       	ldi	r22, 0x01	; 1
    341e:	80 e0       	ldi	r24, 0x00	; 0
    3420:	0e 94 ee 07 	call	0xfdc	; 0xfdc <lcd_gotoxy>
    3424:	80 91 f2 07 	lds	r24, 0x07F2	; 0x8007f2 <Forward+0x9>
    3428:	4a e0       	ldi	r20, 0x0A	; 10
    342a:	be 01       	movw	r22, r28
    342c:	6f 5f       	subi	r22, 0xFF	; 255
    342e:	7f 4f       	sbci	r23, 0xFF	; 255
    3430:	90 e0       	ldi	r25, 0x00	; 0
    3432:	0e 94 89 2b 	call	0x5712	; 0x5712 <__itoa_ncheck>
	char buf[4];
	itoa(Forward.SensorID, buf, 10);
	lcd_puts(buf);
    3436:	ce 01       	movw	r24, r28
    3438:	01 96       	adiw	r24, 0x01	; 1
    343a:	0e 94 bd 08 	call	0x117a	; 0x117a <lcd_puts>
}
    343e:	0f 90       	pop	r0
    3440:	0f 90       	pop	r0
    3442:	0f 90       	pop	r0
    3444:	0f 90       	pop	r0
    3446:	df 91       	pop	r29
    3448:	cf 91       	pop	r28
    344a:	08 95       	ret

0000344c <ReturnSensor_CallbackRender>:
	lcd_puts_hu(PSTR("Visszatérõ akt hõm"));
	lcd_gotoxy(0,1);
	lcd_puts(Return.ActualTempBuffer); lcd_puts_p(PSTR(".")), lcd_puts(Return.ActualTempFracBuffer); lcd_puts_p(PSTR(" C"));
}

void ReturnSensor_CallbackRender(uint8_t which){
    344c:	cf 93       	push	r28
    344e:	df 93       	push	r29
    3450:	00 d0       	rcall	.+0      	; 0x3452 <ReturnSensor_CallbackRender+0x6>
    3452:	00 d0       	rcall	.+0      	; 0x3454 <ReturnSensor_CallbackRender+0x8>
    3454:	cd b7       	in	r28, 0x3d	; 61
    3456:	de b7       	in	r29, 0x3e	; 62
	lcd_clrscr();
    3458:	0e 94 04 08 	call	0x1008	; 0x1008 <lcd_clrscr>
	lcd_puts_hu(PSTR("Vissza szenzor ID"));
    345c:	85 e3       	ldi	r24, 0x35	; 53
    345e:	95 e0       	ldi	r25, 0x05	; 5
    3460:	0e 94 ef 08 	call	0x11de	; 0x11de <lcd_puts_hu>
	lcd_gotoxy(0,1);
    3464:	61 e0       	ldi	r22, 0x01	; 1
    3466:	80 e0       	ldi	r24, 0x00	; 0
    3468:	0e 94 ee 07 	call	0xfdc	; 0xfdc <lcd_gotoxy>
    346c:	80 91 fc 07 	lds	r24, 0x07FC	; 0x8007fc <Return+0x9>
    3470:	4a e0       	ldi	r20, 0x0A	; 10
    3472:	be 01       	movw	r22, r28
    3474:	6f 5f       	subi	r22, 0xFF	; 255
    3476:	7f 4f       	sbci	r23, 0xFF	; 255
    3478:	90 e0       	ldi	r25, 0x00	; 0
    347a:	0e 94 89 2b 	call	0x5712	; 0x5712 <__itoa_ncheck>
	char buf[4];
	itoa(Return.SensorID, buf, 10);
	lcd_puts(buf);
    347e:	ce 01       	movw	r24, r28
    3480:	01 96       	adiw	r24, 0x01	; 1
    3482:	0e 94 bd 08 	call	0x117a	; 0x117a <lcd_puts>
}
    3486:	0f 90       	pop	r0
    3488:	0f 90       	pop	r0
    348a:	0f 90       	pop	r0
    348c:	0f 90       	pop	r0
    348e:	df 91       	pop	r29
    3490:	cf 91       	pop	r28
    3492:	08 95       	ret

00003494 <MixedSensor_CallbackRender>:
	lcd_puts_hu(PSTR("Kevert akt hõm"));
	lcd_gotoxy(0,1);
	lcd_puts(Mixed.ActualTempBuffer); lcd_puts_p(PSTR(".")), lcd_puts(Mixed.ActualTempFracBuffer); lcd_puts_p(PSTR(" C"));
}

void MixedSensor_CallbackRender(uint8_t which){
    3494:	cf 93       	push	r28
    3496:	df 93       	push	r29
    3498:	00 d0       	rcall	.+0      	; 0x349a <MixedSensor_CallbackRender+0x6>
    349a:	00 d0       	rcall	.+0      	; 0x349c <MixedSensor_CallbackRender+0x8>
    349c:	cd b7       	in	r28, 0x3d	; 61
    349e:	de b7       	in	r29, 0x3e	; 62
	lcd_clrscr();
    34a0:	0e 94 04 08 	call	0x1008	; 0x1008 <lcd_clrscr>
	lcd_puts_hu(PSTR("Kevert szenzor ID"));
    34a4:	8f e0       	ldi	r24, 0x0F	; 15
    34a6:	95 e0       	ldi	r25, 0x05	; 5
    34a8:	0e 94 ef 08 	call	0x11de	; 0x11de <lcd_puts_hu>
	lcd_gotoxy(0,1);
    34ac:	61 e0       	ldi	r22, 0x01	; 1
    34ae:	80 e0       	ldi	r24, 0x00	; 0
    34b0:	0e 94 ee 07 	call	0xfdc	; 0xfdc <lcd_gotoxy>
    34b4:	80 91 bc 08 	lds	r24, 0x08BC	; 0x8008bc <Mixed+0x9>
    34b8:	4a e0       	ldi	r20, 0x0A	; 10
    34ba:	be 01       	movw	r22, r28
    34bc:	6f 5f       	subi	r22, 0xFF	; 255
    34be:	7f 4f       	sbci	r23, 0xFF	; 255
    34c0:	90 e0       	ldi	r25, 0x00	; 0
    34c2:	0e 94 89 2b 	call	0x5712	; 0x5712 <__itoa_ncheck>
	char buf[4];
	itoa(Mixed.SensorID, buf, 10);
	lcd_puts(buf);
    34c6:	ce 01       	movw	r24, r28
    34c8:	01 96       	adiw	r24, 0x01	; 1
    34ca:	0e 94 bd 08 	call	0x117a	; 0x117a <lcd_puts>
}
    34ce:	0f 90       	pop	r0
    34d0:	0f 90       	pop	r0
    34d2:	0f 90       	pop	r0
    34d4:	0f 90       	pop	r0
    34d6:	df 91       	pop	r29
    34d8:	cf 91       	pop	r28
    34da:	08 95       	ret

000034dc <MenuTimer_CallbackRender>:

	Mode_CallbackRender(column);
	return false;
}

void MenuTimer_CallbackRender(uint8_t which){
    34dc:	cf 93       	push	r28
    34de:	df 93       	push	r29
    34e0:	00 d0       	rcall	.+0      	; 0x34e2 <MenuTimer_CallbackRender+0x6>
    34e2:	00 d0       	rcall	.+0      	; 0x34e4 <MenuTimer_CallbackRender+0x8>
    34e4:	cd b7       	in	r28, 0x3d	; 61
    34e6:	de b7       	in	r29, 0x3e	; 62
	lcd_clrscr();
    34e8:	0e 94 04 08 	call	0x1008	; 0x1008 <lcd_clrscr>
	lcd_puts_hu(PSTR("Menü idõzítõ (mp)"));
    34ec:	82 ed       	ldi	r24, 0xD2	; 210
    34ee:	94 e0       	ldi	r25, 0x04	; 4
    34f0:	0e 94 ef 08 	call	0x11de	; 0x11de <lcd_puts_hu>
    34f4:	80 91 13 01 	lds	r24, 0x0113	; 0x800113 <MenuTimer>
    34f8:	4a e0       	ldi	r20, 0x0A	; 10
    34fa:	be 01       	movw	r22, r28
    34fc:	6f 5f       	subi	r22, 0xFF	; 255
    34fe:	7f 4f       	sbci	r23, 0xFF	; 255
    3500:	90 e0       	ldi	r25, 0x00	; 0
    3502:	0e 94 89 2b 	call	0x5712	; 0x5712 <__itoa_ncheck>
	char buf[4];
	itoa(MenuTimer, buf, 10);
	lcd_puts(buf);
    3506:	ce 01       	movw	r24, r28
    3508:	01 96       	adiw	r24, 0x01	; 1
    350a:	0e 94 bd 08 	call	0x117a	; 0x117a <lcd_puts>
}
    350e:	0f 90       	pop	r0
    3510:	0f 90       	pop	r0
    3512:	0f 90       	pop	r0
    3514:	0f 90       	pop	r0
    3516:	df 91       	pop	r29
    3518:	cf 91       	pop	r28
    351a:	08 95       	ret

0000351c <LCDBackLight_CallbackRender>:

	MenuTimer_CallbackRender(column);
	return false;
}

void LCDBackLight_CallbackRender(uint8_t which){
    351c:	cf 93       	push	r28
    351e:	df 93       	push	r29
    3520:	00 d0       	rcall	.+0      	; 0x3522 <LCDBackLight_CallbackRender+0x6>
    3522:	00 d0       	rcall	.+0      	; 0x3524 <LCDBackLight_CallbackRender+0x8>
    3524:	cd b7       	in	r28, 0x3d	; 61
    3526:	de b7       	in	r29, 0x3e	; 62
	lcd_clrscr();
    3528:	0e 94 04 08 	call	0x1008	; 0x1008 <lcd_clrscr>
	lcd_puts_hu(PSTR("LCD háttér"));
    352c:	87 ec       	ldi	r24, 0xC7	; 199
    352e:	94 e0       	ldi	r25, 0x04	; 4
    3530:	0e 94 ef 08 	call	0x11de	; 0x11de <lcd_puts_hu>
	lcd_gotoxy(0,1);
    3534:	61 e0       	ldi	r22, 0x01	; 1
    3536:	80 e0       	ldi	r24, 0x00	; 0
    3538:	0e 94 ee 07 	call	0xfdc	; 0xfdc <lcd_gotoxy>
    353c:	80 91 10 07 	lds	r24, 0x0710	; 0x800710 <LCDBackLight>
    3540:	4a e0       	ldi	r20, 0x0A	; 10
    3542:	be 01       	movw	r22, r28
    3544:	6f 5f       	subi	r22, 0xFF	; 255
    3546:	7f 4f       	sbci	r23, 0xFF	; 255
    3548:	90 e0       	ldi	r25, 0x00	; 0
    354a:	0e 94 89 2b 	call	0x5712	; 0x5712 <__itoa_ncheck>
	char buf[4];
	itoa(LCDBackLight, buf, 10);
	lcd_puts(buf);
    354e:	ce 01       	movw	r24, r28
    3550:	01 96       	adiw	r24, 0x01	; 1
    3552:	0e 94 bd 08 	call	0x117a	; 0x117a <lcd_puts>
}
    3556:	0f 90       	pop	r0
    3558:	0f 90       	pop	r0
    355a:	0f 90       	pop	r0
    355c:	0f 90       	pop	r0
    355e:	df 91       	pop	r29
    3560:	cf 91       	pop	r28
    3562:	08 95       	ret

00003564 <PumpPlusTime_CallbackRender>:

	LCDBackLight_CallbackRender(column);
	return false;
}

void PumpPlusTime_CallbackRender(uint8_t which){
    3564:	cf 93       	push	r28
    3566:	df 93       	push	r29
    3568:	00 d0       	rcall	.+0      	; 0x356a <PumpPlusTime_CallbackRender+0x6>
    356a:	00 d0       	rcall	.+0      	; 0x356c <PumpPlusTime_CallbackRender+0x8>
    356c:	cd b7       	in	r28, 0x3d	; 61
    356e:	de b7       	in	r29, 0x3e	; 62
	lcd_clrscr();
    3570:	0e 94 04 08 	call	0x1008	; 0x1008 <lcd_clrscr>
	lcd_puts_hu(PSTR("Szivattyú utánfutás"));
    3574:	83 eb       	ldi	r24, 0xB3	; 179
    3576:	94 e0       	ldi	r25, 0x04	; 4
    3578:	0e 94 ef 08 	call	0x11de	; 0x11de <lcd_puts_hu>
	lcd_gotoxy(0,1);
    357c:	61 e0       	ldi	r22, 0x01	; 1
    357e:	80 e0       	ldi	r24, 0x00	; 0
    3580:	0e 94 ee 07 	call	0xfdc	; 0xfdc <lcd_gotoxy>
    3584:	4a e0       	ldi	r20, 0x0A	; 10
    3586:	be 01       	movw	r22, r28
    3588:	6f 5f       	subi	r22, 0xFF	; 255
    358a:	7f 4f       	sbci	r23, 0xFF	; 255
    358c:	80 91 11 01 	lds	r24, 0x0111	; 0x800111 <PumpPlusTime>
    3590:	90 91 12 01 	lds	r25, 0x0112	; 0x800112 <PumpPlusTime+0x1>
    3594:	0e 94 89 2b 	call	0x5712	; 0x5712 <__itoa_ncheck>
	char buf[4];
	itoa(PumpPlusTime, buf, 10);
	lcd_puts(buf);
    3598:	ce 01       	movw	r24, r28
    359a:	01 96       	adiw	r24, 0x01	; 1
    359c:	0e 94 bd 08 	call	0x117a	; 0x117a <lcd_puts>
}
    35a0:	0f 90       	pop	r0
    35a2:	0f 90       	pop	r0
    35a4:	0f 90       	pop	r0
    35a6:	0f 90       	pop	r0
    35a8:	df 91       	pop	r29
    35aa:	cf 91       	pop	r28
    35ac:	08 95       	ret

000035ae <GasForwardHeatTemp_CallbackRender>:

	PumpPlusTime_CallbackRender(column);
	return false;
}

void GasForwardHeatTemp_CallbackRender(uint8_t which){
    35ae:	cf 93       	push	r28
    35b0:	df 93       	push	r29
    35b2:	00 d0       	rcall	.+0      	; 0x35b4 <GasForwardHeatTemp_CallbackRender+0x6>
    35b4:	00 d0       	rcall	.+0      	; 0x35b6 <GasForwardHeatTemp_CallbackRender+0x8>
    35b6:	cd b7       	in	r28, 0x3d	; 61
    35b8:	de b7       	in	r29, 0x3e	; 62
	lcd_clrscr();
    35ba:	0e 94 04 08 	call	0x1008	; 0x1008 <lcd_clrscr>
	lcd_puts_hu(PSTR("Gáz OT elõre"));
    35be:	86 ea       	ldi	r24, 0xA6	; 166
    35c0:	94 e0       	ldi	r25, 0x04	; 4
    35c2:	0e 94 ef 08 	call	0x11de	; 0x11de <lcd_puts_hu>
	lcd_gotoxy(0,1);
    35c6:	61 e0       	ldi	r22, 0x01	; 1
    35c8:	80 e0       	ldi	r24, 0x00	; 0
    35ca:	0e 94 ee 07 	call	0xfdc	; 0xfdc <lcd_gotoxy>
    35ce:	80 91 07 01 	lds	r24, 0x0107	; 0x800107 <GasForwardHeatTemp>
    35d2:	4a e0       	ldi	r20, 0x0A	; 10
    35d4:	be 01       	movw	r22, r28
    35d6:	6f 5f       	subi	r22, 0xFF	; 255
    35d8:	7f 4f       	sbci	r23, 0xFF	; 255
    35da:	90 e0       	ldi	r25, 0x00	; 0
    35dc:	0e 94 89 2b 	call	0x5712	; 0x5712 <__itoa_ncheck>
	char buf[4];
	itoa(GasForwardHeatTemp, buf, 10);
	lcd_puts(buf);
    35e0:	ce 01       	movw	r24, r28
    35e2:	01 96       	adiw	r24, 0x01	; 1
    35e4:	0e 94 bd 08 	call	0x117a	; 0x117a <lcd_puts>
}
    35e8:	0f 90       	pop	r0
    35ea:	0f 90       	pop	r0
    35ec:	0f 90       	pop	r0
    35ee:	0f 90       	pop	r0
    35f0:	df 91       	pop	r29
    35f2:	cf 91       	pop	r28
    35f4:	08 95       	ret

000035f6 <ClockHour_CallbackRender>:

	GasForwardHeatTemp_CallbackRender(column);
	return false;
}

void ClockHour_CallbackRender(uint8_t which){
    35f6:	cf 93       	push	r28
    35f8:	df 93       	push	r29
    35fa:	00 d0       	rcall	.+0      	; 0x35fc <ClockHour_CallbackRender+0x6>
    35fc:	1f 92       	push	r1
    35fe:	cd b7       	in	r28, 0x3d	; 61
    3600:	de b7       	in	r29, 0x3e	; 62
	lcd_clrscr();
    3602:	0e 94 04 08 	call	0x1008	; 0x1008 <lcd_clrscr>
	lcd_puts_hu(PSTR("óra"));
    3606:	82 ea       	ldi	r24, 0xA2	; 162
    3608:	94 e0       	ldi	r25, 0x04	; 4
    360a:	0e 94 ef 08 	call	0x11de	; 0x11de <lcd_puts_hu>
	lcd_gotoxy(0,1);
    360e:	61 e0       	ldi	r22, 0x01	; 1
    3610:	80 e0       	ldi	r24, 0x00	; 0
    3612:	0e 94 ee 07 	call	0xfdc	; 0xfdc <lcd_gotoxy>
    3616:	80 91 0b 07 	lds	r24, 0x070B	; 0x80070b <Hour>
    361a:	4a e0       	ldi	r20, 0x0A	; 10
    361c:	be 01       	movw	r22, r28
    361e:	6f 5f       	subi	r22, 0xFF	; 255
    3620:	7f 4f       	sbci	r23, 0xFF	; 255
    3622:	90 e0       	ldi	r25, 0x00	; 0
    3624:	0e 94 89 2b 	call	0x5712	; 0x5712 <__itoa_ncheck>
	char buf[3];
	itoa(Hour, buf, 10);
	lcd_puts(buf);
    3628:	ce 01       	movw	r24, r28
    362a:	01 96       	adiw	r24, 0x01	; 1
    362c:	0e 94 bd 08 	call	0x117a	; 0x117a <lcd_puts>
}
    3630:	0f 90       	pop	r0
    3632:	0f 90       	pop	r0
    3634:	0f 90       	pop	r0
    3636:	df 91       	pop	r29
    3638:	cf 91       	pop	r28
    363a:	08 95       	ret

0000363c <ClockHour_ActionCallback>:

bool ClockHour_ActionCallback(MENU_BUTTON *button, uint8_t column){
	switch(button->role){
    363c:	fc 01       	movw	r30, r24
    363e:	90 81       	ld	r25, Z
    3640:	91 30       	cpi	r25, 0x01	; 1
    3642:	89 f0       	breq	.+34     	; 0x3666 <ClockHour_ActionCallback+0x2a>
    3644:	28 f0       	brcs	.+10     	; 0x3650 <ClockHour_ActionCallback+0x14>
    3646:	92 30       	cpi	r25, 0x02	; 2
    3648:	c9 f0       	breq	.+50     	; 0x367c <ClockHour_ActionCallback+0x40>
    364a:	93 30       	cpi	r25, 0x03	; 3
    364c:	01 f1       	breq	.+64     	; 0x368e <ClockHour_ActionCallback+0x52>
    364e:	1a c0       	rjmp	.+52     	; 0x3684 <ClockHour_ActionCallback+0x48>
		case MENU_UP:
			if (++Hour == 24)
    3650:	80 91 0b 07 	lds	r24, 0x070B	; 0x80070b <Hour>
    3654:	8f 5f       	subi	r24, 0xFF	; 255
    3656:	88 31       	cpi	r24, 0x18	; 24
    3658:	19 f0       	breq	.+6      	; 0x3660 <ClockHour_ActionCallback+0x24>
    365a:	80 93 0b 07 	sts	0x070B, r24	; 0x80070b <Hour>
    365e:	12 c0       	rjmp	.+36     	; 0x3684 <ClockHour_ActionCallback+0x48>
				Hour = 0;
    3660:	10 92 0b 07 	sts	0x070B, r1	; 0x80070b <Hour>
    3664:	0f c0       	rjmp	.+30     	; 0x3684 <ClockHour_ActionCallback+0x48>
			break;
		case MENU_DOWN:
			if (--Hour == 255)
    3666:	80 91 0b 07 	lds	r24, 0x070B	; 0x80070b <Hour>
    366a:	81 50       	subi	r24, 0x01	; 1
    366c:	18 f0       	brcs	.+6      	; 0x3674 <ClockHour_ActionCallback+0x38>
    366e:	80 93 0b 07 	sts	0x070B, r24	; 0x80070b <Hour>
    3672:	08 c0       	rjmp	.+16     	; 0x3684 <ClockHour_ActionCallback+0x48>
				Hour = 23;
    3674:	87 e1       	ldi	r24, 0x17	; 23
    3676:	80 93 0b 07 	sts	0x070B, r24	; 0x80070b <Hour>
    367a:	04 c0       	rjmp	.+8      	; 0x3684 <ClockHour_ActionCallback+0x48>
			break;
		case MENU_CONFIRM:
			ClockInitialized = 1;
    367c:	81 e0       	ldi	r24, 0x01	; 1
    367e:	80 93 08 07 	sts	0x0708, r24	; 0x800708 <ClockInitialized>
			return true;
    3682:	08 95       	ret
    3684:	86 2f       	mov	r24, r22
		case MENU_CANCEL:
			return true;
	}

	ClockHour_CallbackRender(column);
    3686:	0e 94 fb 1a 	call	0x35f6	; 0x35f6 <ClockHour_CallbackRender>
	return false;
    368a:	80 e0       	ldi	r24, 0x00	; 0
    368c:	08 95       	ret
			break;
		case MENU_CONFIRM:
			ClockInitialized = 1;
			return true;
		case MENU_CANCEL:
			return true;
    368e:	81 e0       	ldi	r24, 0x01	; 1
	}

	ClockHour_CallbackRender(column);
	return false;
}
    3690:	08 95       	ret

00003692 <ClockYear_CallbackRender>:

	ClockMinute_CallbackRender(column);
	return false;
}

void ClockYear_CallbackRender(uint8_t which){
    3692:	cf 93       	push	r28
    3694:	df 93       	push	r29
    3696:	00 d0       	rcall	.+0      	; 0x3698 <ClockYear_CallbackRender+0x6>
    3698:	00 d0       	rcall	.+0      	; 0x369a <ClockYear_CallbackRender+0x8>
    369a:	1f 92       	push	r1
    369c:	cd b7       	in	r28, 0x3d	; 61
    369e:	de b7       	in	r29, 0x3e	; 62
	lcd_clrscr();
    36a0:	0e 94 04 08 	call	0x1008	; 0x1008 <lcd_clrscr>
	lcd_puts_hu(PSTR("év"));
    36a4:	8a e9       	ldi	r24, 0x9A	; 154
    36a6:	94 e0       	ldi	r25, 0x04	; 4
    36a8:	0e 94 ef 08 	call	0x11de	; 0x11de <lcd_puts_hu>
	lcd_gotoxy(0,1);
    36ac:	61 e0       	ldi	r22, 0x01	; 1
    36ae:	80 e0       	ldi	r24, 0x00	; 0
    36b0:	0e 94 ee 07 	call	0xfdc	; 0xfdc <lcd_gotoxy>
    36b4:	4a e0       	ldi	r20, 0x0A	; 10
    36b6:	be 01       	movw	r22, r28
    36b8:	6f 5f       	subi	r22, 0xFF	; 255
    36ba:	7f 4f       	sbci	r23, 0xFF	; 255
    36bc:	80 91 04 01 	lds	r24, 0x0104	; 0x800104 <Year>
    36c0:	90 91 05 01 	lds	r25, 0x0105	; 0x800105 <Year+0x1>
    36c4:	0e 94 89 2b 	call	0x5712	; 0x5712 <__itoa_ncheck>
	char buf[5];
	itoa(Year, buf, 10);
	lcd_puts(buf);
    36c8:	ce 01       	movw	r24, r28
    36ca:	01 96       	adiw	r24, 0x01	; 1
    36cc:	0e 94 bd 08 	call	0x117a	; 0x117a <lcd_puts>
}
    36d0:	0f 90       	pop	r0
    36d2:	0f 90       	pop	r0
    36d4:	0f 90       	pop	r0
    36d6:	0f 90       	pop	r0
    36d8:	0f 90       	pop	r0
    36da:	df 91       	pop	r29
    36dc:	cf 91       	pop	r28
    36de:	08 95       	ret

000036e0 <ClockYear_ActionCallback>:

bool ClockYear_ActionCallback(MENU_BUTTON *button, uint8_t column){
	switch(button->role){
    36e0:	fc 01       	movw	r30, r24
    36e2:	80 81       	ld	r24, Z
    36e4:	81 30       	cpi	r24, 0x01	; 1
    36e6:	71 f0       	breq	.+28     	; 0x3704 <ClockYear_ActionCallback+0x24>
    36e8:	18 f0       	brcs	.+6      	; 0x36f0 <ClockYear_ActionCallback+0x10>
    36ea:	84 30       	cpi	r24, 0x04	; 4
    36ec:	a0 f4       	brcc	.+40     	; 0x3716 <ClockYear_ActionCallback+0x36>
    36ee:	18 c0       	rjmp	.+48     	; 0x3720 <ClockYear_ActionCallback+0x40>
		case MENU_UP:
			Year++;
    36f0:	80 91 04 01 	lds	r24, 0x0104	; 0x800104 <Year>
    36f4:	90 91 05 01 	lds	r25, 0x0105	; 0x800105 <Year+0x1>
    36f8:	01 96       	adiw	r24, 0x01	; 1
    36fa:	90 93 05 01 	sts	0x0105, r25	; 0x800105 <Year+0x1>
    36fe:	80 93 04 01 	sts	0x0104, r24	; 0x800104 <Year>
			break;
    3702:	09 c0       	rjmp	.+18     	; 0x3716 <ClockYear_ActionCallback+0x36>
		case MENU_DOWN:
			Year--;
    3704:	80 91 04 01 	lds	r24, 0x0104	; 0x800104 <Year>
    3708:	90 91 05 01 	lds	r25, 0x0105	; 0x800105 <Year+0x1>
    370c:	01 97       	sbiw	r24, 0x01	; 1
    370e:	90 93 05 01 	sts	0x0105, r25	; 0x800105 <Year+0x1>
    3712:	80 93 04 01 	sts	0x0104, r24	; 0x800104 <Year>
    3716:	86 2f       	mov	r24, r22
		case MENU_CONFIRM:
		case MENU_CANCEL:
			return true;
	}

	ClockYear_CallbackRender(column);
    3718:	0e 94 49 1b 	call	0x3692	; 0x3692 <ClockYear_CallbackRender>
	return false;
    371c:	80 e0       	ldi	r24, 0x00	; 0
    371e:	08 95       	ret
		case MENU_DOWN:
			Year--;
			break;
		case MENU_CONFIRM:
		case MENU_CANCEL:
			return true;
    3720:	81 e0       	ldi	r24, 0x01	; 1
	}

	ClockYear_CallbackRender(column);
	return false;
}
    3722:	08 95       	ret

00003724 <ClockMonth_CallbackRender>:

void ClockMonth_CallbackRender(uint8_t which){
    3724:	cf 93       	push	r28
    3726:	df 93       	push	r29
    3728:	00 d0       	rcall	.+0      	; 0x372a <ClockMonth_CallbackRender+0x6>
    372a:	1f 92       	push	r1
    372c:	cd b7       	in	r28, 0x3d	; 61
    372e:	de b7       	in	r29, 0x3e	; 62
	lcd_clrscr();
    3730:	0e 94 04 08 	call	0x1008	; 0x1008 <lcd_clrscr>
	lcd_puts_hu(PSTR("hónap"));
    3734:	84 e9       	ldi	r24, 0x94	; 148
    3736:	94 e0       	ldi	r25, 0x04	; 4
    3738:	0e 94 ef 08 	call	0x11de	; 0x11de <lcd_puts_hu>
	lcd_gotoxy(0,1);
    373c:	61 e0       	ldi	r22, 0x01	; 1
    373e:	80 e0       	ldi	r24, 0x00	; 0
    3740:	0e 94 ee 07 	call	0xfdc	; 0xfdc <lcd_gotoxy>
    3744:	80 91 03 01 	lds	r24, 0x0103	; 0x800103 <Month>
    3748:	4a e0       	ldi	r20, 0x0A	; 10
    374a:	be 01       	movw	r22, r28
    374c:	6f 5f       	subi	r22, 0xFF	; 255
    374e:	7f 4f       	sbci	r23, 0xFF	; 255
    3750:	90 e0       	ldi	r25, 0x00	; 0
    3752:	0e 94 89 2b 	call	0x5712	; 0x5712 <__itoa_ncheck>
	char buf[3];
	itoa(Month, buf, 10);
	lcd_puts(buf);
    3756:	ce 01       	movw	r24, r28
    3758:	01 96       	adiw	r24, 0x01	; 1
    375a:	0e 94 bd 08 	call	0x117a	; 0x117a <lcd_puts>
}
    375e:	0f 90       	pop	r0
    3760:	0f 90       	pop	r0
    3762:	0f 90       	pop	r0
    3764:	df 91       	pop	r29
    3766:	cf 91       	pop	r28
    3768:	08 95       	ret

0000376a <ClockMonth_ActionCallback>:

bool ClockMonth_ActionCallback(MENU_BUTTON *button, uint8_t column){
	switch(button->role){
    376a:	fc 01       	movw	r30, r24
    376c:	80 81       	ld	r24, Z
    376e:	81 30       	cpi	r24, 0x01	; 1
    3770:	81 f0       	breq	.+32     	; 0x3792 <ClockMonth_ActionCallback+0x28>
    3772:	18 f0       	brcs	.+6      	; 0x377a <ClockMonth_ActionCallback+0x10>
    3774:	84 30       	cpi	r24, 0x04	; 4
    3776:	b8 f4       	brcc	.+46     	; 0x37a6 <ClockMonth_ActionCallback+0x3c>
    3778:	1b c0       	rjmp	.+54     	; 0x37b0 <ClockMonth_ActionCallback+0x46>
		case MENU_UP:
			if (++Month == 13)
    377a:	80 91 03 01 	lds	r24, 0x0103	; 0x800103 <Month>
    377e:	8f 5f       	subi	r24, 0xFF	; 255
    3780:	8d 30       	cpi	r24, 0x0D	; 13
    3782:	19 f0       	breq	.+6      	; 0x378a <ClockMonth_ActionCallback+0x20>
    3784:	80 93 03 01 	sts	0x0103, r24	; 0x800103 <Month>
    3788:	0e c0       	rjmp	.+28     	; 0x37a6 <ClockMonth_ActionCallback+0x3c>
				Month = 1;
    378a:	81 e0       	ldi	r24, 0x01	; 1
    378c:	80 93 03 01 	sts	0x0103, r24	; 0x800103 <Month>
    3790:	0a c0       	rjmp	.+20     	; 0x37a6 <ClockMonth_ActionCallback+0x3c>
			break;
		case MENU_DOWN:
			if (--Month == 0)
    3792:	80 91 03 01 	lds	r24, 0x0103	; 0x800103 <Month>
    3796:	81 50       	subi	r24, 0x01	; 1
    3798:	19 f0       	breq	.+6      	; 0x37a0 <ClockMonth_ActionCallback+0x36>
    379a:	80 93 03 01 	sts	0x0103, r24	; 0x800103 <Month>
    379e:	03 c0       	rjmp	.+6      	; 0x37a6 <ClockMonth_ActionCallback+0x3c>
				Month = 12;
    37a0:	8c e0       	ldi	r24, 0x0C	; 12
    37a2:	80 93 03 01 	sts	0x0103, r24	; 0x800103 <Month>
    37a6:	86 2f       	mov	r24, r22
		case MENU_CONFIRM:
		case MENU_CANCEL:
			return true;
	}

	ClockMonth_CallbackRender(column);
    37a8:	0e 94 92 1b 	call	0x3724	; 0x3724 <ClockMonth_CallbackRender>
	return false;
    37ac:	80 e0       	ldi	r24, 0x00	; 0
    37ae:	08 95       	ret
			if (--Month == 0)
				Month = 12;
			break;
		case MENU_CONFIRM:
		case MENU_CANCEL:
			return true;
    37b0:	81 e0       	ldi	r24, 0x01	; 1
	}

	ClockMonth_CallbackRender(column);
	return false;
}
    37b2:	08 95       	ret

000037b4 <ClockDay_CallbackRender>:

void ClockDay_CallbackRender(uint8_t which){
    37b4:	cf 93       	push	r28
    37b6:	df 93       	push	r29
    37b8:	00 d0       	rcall	.+0      	; 0x37ba <ClockDay_CallbackRender+0x6>
    37ba:	1f 92       	push	r1
    37bc:	cd b7       	in	r28, 0x3d	; 61
    37be:	de b7       	in	r29, 0x3e	; 62
	lcd_clrscr();
    37c0:	0e 94 04 08 	call	0x1008	; 0x1008 <lcd_clrscr>
	lcd_puts_hu(PSTR("nap"));
    37c4:	80 e9       	ldi	r24, 0x90	; 144
    37c6:	94 e0       	ldi	r25, 0x04	; 4
    37c8:	0e 94 ef 08 	call	0x11de	; 0x11de <lcd_puts_hu>
	lcd_gotoxy(0,1);
    37cc:	61 e0       	ldi	r22, 0x01	; 1
    37ce:	80 e0       	ldi	r24, 0x00	; 0
    37d0:	0e 94 ee 07 	call	0xfdc	; 0xfdc <lcd_gotoxy>
    37d4:	80 91 02 01 	lds	r24, 0x0102	; 0x800102 <Day>
    37d8:	4a e0       	ldi	r20, 0x0A	; 10
    37da:	be 01       	movw	r22, r28
    37dc:	6f 5f       	subi	r22, 0xFF	; 255
    37de:	7f 4f       	sbci	r23, 0xFF	; 255
    37e0:	90 e0       	ldi	r25, 0x00	; 0
    37e2:	0e 94 89 2b 	call	0x5712	; 0x5712 <__itoa_ncheck>
	char buf[3];
	itoa(Day, buf, 10);
	lcd_puts(buf);
    37e6:	ce 01       	movw	r24, r28
    37e8:	01 96       	adiw	r24, 0x01	; 1
    37ea:	0e 94 bd 08 	call	0x117a	; 0x117a <lcd_puts>
}
    37ee:	0f 90       	pop	r0
    37f0:	0f 90       	pop	r0
    37f2:	0f 90       	pop	r0
    37f4:	df 91       	pop	r29
    37f6:	cf 91       	pop	r28
    37f8:	08 95       	ret

000037fa <ClockDay_ActionCallback>:

bool ClockDay_ActionCallback(MENU_BUTTON *button, uint8_t column){
	switch(button->role){
    37fa:	fc 01       	movw	r30, r24
    37fc:	80 81       	ld	r24, Z
    37fe:	81 30       	cpi	r24, 0x01	; 1
    3800:	81 f0       	breq	.+32     	; 0x3822 <ClockDay_ActionCallback+0x28>
    3802:	18 f0       	brcs	.+6      	; 0x380a <ClockDay_ActionCallback+0x10>
    3804:	84 30       	cpi	r24, 0x04	; 4
    3806:	b8 f4       	brcc	.+46     	; 0x3836 <ClockDay_ActionCallback+0x3c>
    3808:	1b c0       	rjmp	.+54     	; 0x3840 <ClockDay_ActionCallback+0x46>
		case MENU_UP:
			if (++Day == 32)
    380a:	80 91 02 01 	lds	r24, 0x0102	; 0x800102 <Day>
    380e:	8f 5f       	subi	r24, 0xFF	; 255
    3810:	80 32       	cpi	r24, 0x20	; 32
    3812:	19 f0       	breq	.+6      	; 0x381a <ClockDay_ActionCallback+0x20>
    3814:	80 93 02 01 	sts	0x0102, r24	; 0x800102 <Day>
    3818:	0e c0       	rjmp	.+28     	; 0x3836 <ClockDay_ActionCallback+0x3c>
				Day = 1;
    381a:	81 e0       	ldi	r24, 0x01	; 1
    381c:	80 93 02 01 	sts	0x0102, r24	; 0x800102 <Day>
    3820:	0a c0       	rjmp	.+20     	; 0x3836 <ClockDay_ActionCallback+0x3c>
			break;
		case MENU_DOWN:
			if (--Day == 0)
    3822:	80 91 02 01 	lds	r24, 0x0102	; 0x800102 <Day>
    3826:	81 50       	subi	r24, 0x01	; 1
    3828:	19 f0       	breq	.+6      	; 0x3830 <ClockDay_ActionCallback+0x36>
    382a:	80 93 02 01 	sts	0x0102, r24	; 0x800102 <Day>
    382e:	03 c0       	rjmp	.+6      	; 0x3836 <ClockDay_ActionCallback+0x3c>
				Day = 31;
    3830:	8f e1       	ldi	r24, 0x1F	; 31
    3832:	80 93 02 01 	sts	0x0102, r24	; 0x800102 <Day>
    3836:	86 2f       	mov	r24, r22
		case MENU_CONFIRM:
		case MENU_CANCEL:
			return true;
	}

	ClockDay_CallbackRender(column);
    3838:	0e 94 da 1b 	call	0x37b4	; 0x37b4 <ClockDay_CallbackRender>
	return false;
    383c:	80 e0       	ldi	r24, 0x00	; 0
    383e:	08 95       	ret
			if (--Day == 0)
				Day = 31;
			break;
		case MENU_CONFIRM:
		case MENU_CANCEL:
			return true;
    3840:	81 e0       	ldi	r24, 0x01	; 1
	}

	ClockDay_CallbackRender(column);
	return false;
}
    3842:	08 95       	ret

00003844 <ComfortTemp_CallbackRender>:
	
	 ComfortMode_CallbackRender(column);
	 return false;
}

void ComfortTemp_CallbackRender(uint8_t which){
    3844:	cf 93       	push	r28
    3846:	df 93       	push	r29
    3848:	00 d0       	rcall	.+0      	; 0x384a <ComfortTemp_CallbackRender+0x6>
    384a:	00 d0       	rcall	.+0      	; 0x384c <ComfortTemp_CallbackRender+0x8>
    384c:	1f 92       	push	r1
    384e:	cd b7       	in	r28, 0x3d	; 61
    3850:	de b7       	in	r29, 0x3e	; 62
	lcd_clrscr();
    3852:	0e 94 04 08 	call	0x1008	; 0x1008 <lcd_clrscr>
	lcd_puts_hu(PSTR("Komfort hõm"));
    3856:	86 e3       	ldi	r24, 0x36	; 54
    3858:	94 e0       	ldi	r25, 0x04	; 4
    385a:	0e 94 ef 08 	call	0x11de	; 0x11de <lcd_puts_hu>
	lcd_gotoxy(0,1);
    385e:	61 e0       	ldi	r22, 0x01	; 1
    3860:	80 e0       	ldi	r24, 0x00	; 0
    3862:	0e 94 ee 07 	call	0xfdc	; 0xfdc <lcd_gotoxy>
    3866:	4a e0       	ldi	r20, 0x0A	; 10
    3868:	be 01       	movw	r22, r28
    386a:	6f 5f       	subi	r22, 0xFF	; 255
    386c:	7f 4f       	sbci	r23, 0xFF	; 255
    386e:	80 91 0f 01 	lds	r24, 0x010F	; 0x80010f <ComfortTemp>
    3872:	90 91 10 01 	lds	r25, 0x0110	; 0x800110 <ComfortTemp+0x1>
    3876:	0e 94 89 2b 	call	0x5712	; 0x5712 <__itoa_ncheck>
	char buf[5];
	itoa(ComfortTemp, buf, 10);
	lcd_puts(buf);
    387a:	ce 01       	movw	r24, r28
    387c:	01 96       	adiw	r24, 0x01	; 1
    387e:	0e 94 bd 08 	call	0x117a	; 0x117a <lcd_puts>
}
    3882:	0f 90       	pop	r0
    3884:	0f 90       	pop	r0
    3886:	0f 90       	pop	r0
    3888:	0f 90       	pop	r0
    388a:	0f 90       	pop	r0
    388c:	df 91       	pop	r29
    388e:	cf 91       	pop	r28
    3890:	08 95       	ret

00003892 <ComfortForwardTemp_CallbackRender>:

	ComfortTemp_CallbackRender(column);
	return false;
}

void ComfortForwardTemp_CallbackRender(uint8_t which){
    3892:	cf 93       	push	r28
    3894:	df 93       	push	r29
    3896:	00 d0       	rcall	.+0      	; 0x3898 <ComfortForwardTemp_CallbackRender+0x6>
    3898:	00 d0       	rcall	.+0      	; 0x389a <ComfortForwardTemp_CallbackRender+0x8>
    389a:	1f 92       	push	r1
    389c:	cd b7       	in	r28, 0x3d	; 61
    389e:	de b7       	in	r29, 0x3e	; 62
	lcd_clrscr();
    38a0:	0e 94 04 08 	call	0x1008	; 0x1008 <lcd_clrscr>
	lcd_puts_hu(PSTR("Komfort elõremenõ"));
    38a4:	84 e2       	ldi	r24, 0x24	; 36
    38a6:	94 e0       	ldi	r25, 0x04	; 4
    38a8:	0e 94 ef 08 	call	0x11de	; 0x11de <lcd_puts_hu>
	lcd_gotoxy(0,1);
    38ac:	61 e0       	ldi	r22, 0x01	; 1
    38ae:	80 e0       	ldi	r24, 0x00	; 0
    38b0:	0e 94 ee 07 	call	0xfdc	; 0xfdc <lcd_gotoxy>
    38b4:	80 91 0e 01 	lds	r24, 0x010E	; 0x80010e <ComfortForwardTemp>
    38b8:	4a e0       	ldi	r20, 0x0A	; 10
    38ba:	be 01       	movw	r22, r28
    38bc:	6f 5f       	subi	r22, 0xFF	; 255
    38be:	7f 4f       	sbci	r23, 0xFF	; 255
    38c0:	90 e0       	ldi	r25, 0x00	; 0
    38c2:	0e 94 89 2b 	call	0x5712	; 0x5712 <__itoa_ncheck>
	char buf[5];
	itoa(ComfortForwardTemp, buf, 10);
	lcd_puts(buf);
    38c6:	ce 01       	movw	r24, r28
    38c8:	01 96       	adiw	r24, 0x01	; 1
    38ca:	0e 94 bd 08 	call	0x117a	; 0x117a <lcd_puts>
}
    38ce:	0f 90       	pop	r0
    38d0:	0f 90       	pop	r0
    38d2:	0f 90       	pop	r0
    38d4:	0f 90       	pop	r0
    38d6:	0f 90       	pop	r0
    38d8:	df 91       	pop	r29
    38da:	cf 91       	pop	r28
    38dc:	08 95       	ret

000038de <ComfortMinTime_CallbackRender>:

	ComfortForwardTemp_CallbackRender(column);
	return false;
}

void ComfortMinTime_CallbackRender(uint8_t which){
    38de:	cf 93       	push	r28
    38e0:	df 93       	push	r29
    38e2:	00 d0       	rcall	.+0      	; 0x38e4 <ComfortMinTime_CallbackRender+0x6>
    38e4:	00 d0       	rcall	.+0      	; 0x38e6 <ComfortMinTime_CallbackRender+0x8>
    38e6:	1f 92       	push	r1
    38e8:	cd b7       	in	r28, 0x3d	; 61
    38ea:	de b7       	in	r29, 0x3e	; 62
	lcd_clrscr();
    38ec:	0e 94 04 08 	call	0x1008	; 0x1008 <lcd_clrscr>
	lcd_puts_hu(PSTR("Min idõ"));
    38f0:	8c e1       	ldi	r24, 0x1C	; 28
    38f2:	94 e0       	ldi	r25, 0x04	; 4
    38f4:	0e 94 ef 08 	call	0x11de	; 0x11de <lcd_puts_hu>
	lcd_gotoxy(0,1);
    38f8:	61 e0       	ldi	r22, 0x01	; 1
    38fa:	80 e0       	ldi	r24, 0x00	; 0
    38fc:	0e 94 ee 07 	call	0xfdc	; 0xfdc <lcd_gotoxy>
    3900:	4a e0       	ldi	r20, 0x0A	; 10
    3902:	be 01       	movw	r22, r28
    3904:	6f 5f       	subi	r22, 0xFF	; 255
    3906:	7f 4f       	sbci	r23, 0xFF	; 255
    3908:	80 91 0a 01 	lds	r24, 0x010A	; 0x80010a <ComfortMinTime>
    390c:	90 91 0b 01 	lds	r25, 0x010B	; 0x80010b <ComfortMinTime+0x1>
    3910:	0e 94 89 2b 	call	0x5712	; 0x5712 <__itoa_ncheck>
	char buf[5];
	itoa(ComfortMinTime, buf, 10);
	lcd_puts(buf);
    3914:	ce 01       	movw	r24, r28
    3916:	01 96       	adiw	r24, 0x01	; 1
    3918:	0e 94 bd 08 	call	0x117a	; 0x117a <lcd_puts>
}
    391c:	0f 90       	pop	r0
    391e:	0f 90       	pop	r0
    3920:	0f 90       	pop	r0
    3922:	0f 90       	pop	r0
    3924:	0f 90       	pop	r0
    3926:	df 91       	pop	r29
    3928:	cf 91       	pop	r28
    392a:	08 95       	ret

0000392c <ComfortMaxTime_CallbackRender>:

	ComfortMinTime_CallbackRender(column);
	return false;
}

void ComfortMaxTime_CallbackRender(uint8_t which){
    392c:	cf 93       	push	r28
    392e:	df 93       	push	r29
    3930:	00 d0       	rcall	.+0      	; 0x3932 <ComfortMaxTime_CallbackRender+0x6>
    3932:	00 d0       	rcall	.+0      	; 0x3934 <ComfortMaxTime_CallbackRender+0x8>
    3934:	1f 92       	push	r1
    3936:	cd b7       	in	r28, 0x3d	; 61
    3938:	de b7       	in	r29, 0x3e	; 62
	lcd_clrscr();
    393a:	0e 94 04 08 	call	0x1008	; 0x1008 <lcd_clrscr>
	lcd_puts_hu(PSTR("Max idõ"));
    393e:	84 e1       	ldi	r24, 0x14	; 20
    3940:	94 e0       	ldi	r25, 0x04	; 4
    3942:	0e 94 ef 08 	call	0x11de	; 0x11de <lcd_puts_hu>
	lcd_gotoxy(0,1);
    3946:	61 e0       	ldi	r22, 0x01	; 1
    3948:	80 e0       	ldi	r24, 0x00	; 0
    394a:	0e 94 ee 07 	call	0xfdc	; 0xfdc <lcd_gotoxy>
    394e:	4a e0       	ldi	r20, 0x0A	; 10
    3950:	be 01       	movw	r22, r28
    3952:	6f 5f       	subi	r22, 0xFF	; 255
    3954:	7f 4f       	sbci	r23, 0xFF	; 255
    3956:	80 91 0c 01 	lds	r24, 0x010C	; 0x80010c <ComfortMaxTime>
    395a:	90 91 0d 01 	lds	r25, 0x010D	; 0x80010d <ComfortMaxTime+0x1>
    395e:	0e 94 89 2b 	call	0x5712	; 0x5712 <__itoa_ncheck>
	char buf[5];
	itoa(ComfortMaxTime, buf, 10);
	lcd_puts(buf);
    3962:	ce 01       	movw	r24, r28
    3964:	01 96       	adiw	r24, 0x01	; 1
    3966:	0e 94 bd 08 	call	0x117a	; 0x117a <lcd_puts>
}
    396a:	0f 90       	pop	r0
    396c:	0f 90       	pop	r0
    396e:	0f 90       	pop	r0
    3970:	0f 90       	pop	r0
    3972:	0f 90       	pop	r0
    3974:	df 91       	pop	r29
    3976:	cf 91       	pop	r28
    3978:	08 95       	ret

0000397a <Restarts_CallbackRender>:
	{"Komfort elõremenõ", 		ComfortForwardTemp_CallbackRender,	ComfortForwardTemp_ActionCallback,	0,	NULL},
	{"Komfort min idõ", 		ComfortMinTime_CallbackRender,		ComfortMinTime_ActionCallback,		0,	NULL},
	{"Komfort max idõ", 		ComfortMaxTime_CallbackRender,		ComfortMaxTime_ActionCallback,		0,	NULL}
};

void Restarts_CallbackRender(uint8_t which){
    397a:	cf 93       	push	r28
    397c:	df 93       	push	r29
    397e:	00 d0       	rcall	.+0      	; 0x3980 <Restarts_CallbackRender+0x6>
    3980:	00 d0       	rcall	.+0      	; 0x3982 <Restarts_CallbackRender+0x8>
    3982:	00 d0       	rcall	.+0      	; 0x3984 <Restarts_CallbackRender+0xa>
    3984:	cd b7       	in	r28, 0x3d	; 61
    3986:	de b7       	in	r29, 0x3e	; 62
	lcd_clrscr();
    3988:	0e 94 04 08 	call	0x1008	; 0x1008 <lcd_clrscr>
	lcd_puts_hu(PSTR("Újraindulások"));
    398c:	86 e0       	ldi	r24, 0x06	; 6
    398e:	94 e0       	ldi	r25, 0x04	; 4
    3990:	0e 94 ef 08 	call	0x11de	; 0x11de <lcd_puts_hu>
	lcd_gotoxy(0,1);
    3994:	61 e0       	ldi	r22, 0x01	; 1
    3996:	80 e0       	ldi	r24, 0x00	; 0
    3998:	0e 94 ee 07 	call	0xfdc	; 0xfdc <lcd_gotoxy>
    399c:	4a e0       	ldi	r20, 0x0A	; 10
    399e:	be 01       	movw	r22, r28
    39a0:	6f 5f       	subi	r22, 0xFF	; 255
    39a2:	7f 4f       	sbci	r23, 0xFF	; 255
    39a4:	80 91 0d 07 	lds	r24, 0x070D	; 0x80070d <Restarts>
    39a8:	90 91 0e 07 	lds	r25, 0x070E	; 0x80070e <Restarts+0x1>
    39ac:	0e 94 89 2b 	call	0x5712	; 0x5712 <__itoa_ncheck>
	char buf[6];
	itoa(Restarts, buf, 10);
	lcd_puts(buf);
    39b0:	ce 01       	movw	r24, r28
    39b2:	01 96       	adiw	r24, 0x01	; 1
    39b4:	0e 94 bd 08 	call	0x117a	; 0x117a <lcd_puts>
	//lcd_gotoxy(0,2);
	//ftoa(buffer, HIHxxxxTempMin, 2);
	//lcd_puts(buffer); lcd_puts_p(PSTR("/"));
	//ftoa(buffer, HIHxxxxTempMax, 2);
	//lcd_puts(buffer); lcd_puts_p(PSTR(" C"));
}
    39b8:	26 96       	adiw	r28, 0x06	; 6
    39ba:	0f b6       	in	r0, 0x3f	; 63
    39bc:	f8 94       	cli
    39be:	de bf       	out	0x3e, r29	; 62
    39c0:	0f be       	out	0x3f, r0	; 63
    39c2:	cd bf       	out	0x3d, r28	; 61
    39c4:	df 91       	pop	r29
    39c6:	cf 91       	pop	r28
    39c8:	08 95       	ret

000039ca <SwitchOnOutdoorTempMin_ActionCallback>:
	itoa(SwitchOnOutdoorTempMin, buf, 10);
	lcd_puts(buf);
}

bool SwitchOnOutdoorTempMin_ActionCallback(MENU_BUTTON *button, uint8_t column){
	switch(button->role){
    39ca:	fc 01       	movw	r30, r24
    39cc:	90 81       	ld	r25, Z
    39ce:	91 30       	cpi	r25, 0x01	; 1
    39d0:	d9 f0       	breq	.+54     	; 0x3a08 <SwitchOnOutdoorTempMin_ActionCallback+0x3e>
    39d2:	28 f0       	brcs	.+10     	; 0x39de <SwitchOnOutdoorTempMin_ActionCallback+0x14>
    39d4:	92 30       	cpi	r25, 0x02	; 2
    39d6:	69 f1       	breq	.+90     	; 0x3a32 <SwitchOnOutdoorTempMin_ActionCallback+0x68>
    39d8:	93 30       	cpi	r25, 0x03	; 3
    39da:	d1 f1       	breq	.+116    	; 0x3a50 <SwitchOnOutdoorTempMin_ActionCallback+0x86>
    39dc:	34 c0       	rjmp	.+104    	; 0x3a46 <SwitchOnOutdoorTempMin_ActionCallback+0x7c>
		case MENU_UP:
			if (SwitchOnOutdoorTempMin > 3490)
    39de:	80 91 ca 07 	lds	r24, 0x07CA	; 0x8007ca <SwitchOnOutdoorTempMin>
    39e2:	90 91 cb 07 	lds	r25, 0x07CB	; 0x8007cb <SwitchOnOutdoorTempMin+0x1>
    39e6:	83 3a       	cpi	r24, 0xA3	; 163
    39e8:	fd e0       	ldi	r31, 0x0D	; 13
    39ea:	9f 07       	cpc	r25, r31
    39ec:	38 f0       	brcs	.+14     	; 0x39fc <SwitchOnOutdoorTempMin_ActionCallback+0x32>
				SwitchOnOutdoorTempMin = 310;
    39ee:	86 e3       	ldi	r24, 0x36	; 54
    39f0:	91 e0       	ldi	r25, 0x01	; 1
    39f2:	90 93 cb 07 	sts	0x07CB, r25	; 0x8007cb <SwitchOnOutdoorTempMin+0x1>
    39f6:	80 93 ca 07 	sts	0x07CA, r24	; 0x8007ca <SwitchOnOutdoorTempMin>
    39fa:	25 c0       	rjmp	.+74     	; 0x3a46 <SwitchOnOutdoorTempMin_ActionCallback+0x7c>
			else
				SwitchOnOutdoorTempMin += 10;
    39fc:	0a 96       	adiw	r24, 0x0a	; 10
    39fe:	90 93 cb 07 	sts	0x07CB, r25	; 0x8007cb <SwitchOnOutdoorTempMin+0x1>
    3a02:	80 93 ca 07 	sts	0x07CA, r24	; 0x8007ca <SwitchOnOutdoorTempMin>
    3a06:	1f c0       	rjmp	.+62     	; 0x3a46 <SwitchOnOutdoorTempMin_ActionCallback+0x7c>
			break;
		case MENU_DOWN:
			if (SwitchOnOutdoorTempMin > 310)
    3a08:	80 91 ca 07 	lds	r24, 0x07CA	; 0x8007ca <SwitchOnOutdoorTempMin>
    3a0c:	90 91 cb 07 	lds	r25, 0x07CB	; 0x8007cb <SwitchOnOutdoorTempMin+0x1>
    3a10:	87 33       	cpi	r24, 0x37	; 55
    3a12:	21 e0       	ldi	r18, 0x01	; 1
    3a14:	92 07       	cpc	r25, r18
    3a16:	30 f0       	brcs	.+12     	; 0x3a24 <SwitchOnOutdoorTempMin_ActionCallback+0x5a>
				SwitchOnOutdoorTempMin -= 10;
    3a18:	0a 97       	sbiw	r24, 0x0a	; 10
    3a1a:	90 93 cb 07 	sts	0x07CB, r25	; 0x8007cb <SwitchOnOutdoorTempMin+0x1>
    3a1e:	80 93 ca 07 	sts	0x07CA, r24	; 0x8007ca <SwitchOnOutdoorTempMin>
    3a22:	11 c0       	rjmp	.+34     	; 0x3a46 <SwitchOnOutdoorTempMin_ActionCallback+0x7c>
			else
				SwitchOnOutdoorTempMin = 3500;
    3a24:	8c ea       	ldi	r24, 0xAC	; 172
    3a26:	9d e0       	ldi	r25, 0x0D	; 13
    3a28:	90 93 cb 07 	sts	0x07CB, r25	; 0x8007cb <SwitchOnOutdoorTempMin+0x1>
    3a2c:	80 93 ca 07 	sts	0x07CA, r24	; 0x8007ca <SwitchOnOutdoorTempMin>
    3a30:	0a c0       	rjmp	.+20     	; 0x3a46 <SwitchOnOutdoorTempMin_ActionCallback+0x7c>
			break;
		case MENU_CONFIRM:
			eeprom_update_word(&eeSwitchOnOutdoorTempMin, SwitchOnOutdoorTempMin);
    3a32:	60 91 ca 07 	lds	r22, 0x07CA	; 0x8007ca <SwitchOnOutdoorTempMin>
    3a36:	70 91 cb 07 	lds	r23, 0x07CB	; 0x8007cb <SwitchOnOutdoorTempMin+0x1>
    3a3a:	8b e0       	ldi	r24, 0x0B	; 11
    3a3c:	90 e0       	ldi	r25, 0x00	; 0
    3a3e:	0e 94 a7 2e 	call	0x5d4e	; 0x5d4e <eeprom_update_word>
			return true;
    3a42:	81 e0       	ldi	r24, 0x01	; 1
    3a44:	08 95       	ret
		case MENU_CANCEL:
			return true;
	}

	SwitchOnOutdoorTempMin_CallbackRender(column);
    3a46:	86 2f       	mov	r24, r22
    3a48:	0e 94 8f 17 	call	0x2f1e	; 0x2f1e <SwitchOnOutdoorTempMin_CallbackRender>
	return false;
    3a4c:	80 e0       	ldi	r24, 0x00	; 0
    3a4e:	08 95       	ret
			break;
		case MENU_CONFIRM:
			eeprom_update_word(&eeSwitchOnOutdoorTempMin, SwitchOnOutdoorTempMin);
			return true;
		case MENU_CANCEL:
			return true;
    3a50:	81 e0       	ldi	r24, 0x01	; 1
	}

	SwitchOnOutdoorTempMin_CallbackRender(column);
	return false;
}
    3a52:	08 95       	ret

00003a54 <DHWMinTime_ActionCallback>:
	itoa(DHWMinTime, buf, 10);
	lcd_puts(buf);
}

bool DHWMinTime_ActionCallback(MENU_BUTTON *button, uint8_t column){
	switch(button->role){
    3a54:	fc 01       	movw	r30, r24
    3a56:	90 81       	ld	r25, Z
    3a58:	91 30       	cpi	r25, 0x01	; 1
    3a5a:	c9 f0       	breq	.+50     	; 0x3a8e <DHWMinTime_ActionCallback+0x3a>
    3a5c:	28 f0       	brcs	.+10     	; 0x3a68 <DHWMinTime_ActionCallback+0x14>
    3a5e:	92 30       	cpi	r25, 0x02	; 2
    3a60:	59 f1       	breq	.+86     	; 0x3ab8 <DHWMinTime_ActionCallback+0x64>
    3a62:	93 30       	cpi	r25, 0x03	; 3
    3a64:	c1 f1       	breq	.+112    	; 0x3ad6 <DHWMinTime_ActionCallback+0x82>
    3a66:	32 c0       	rjmp	.+100    	; 0x3acc <DHWMinTime_ActionCallback+0x78>
		case MENU_UP:
			if (DHWMinTime < 2340)
    3a68:	80 91 08 08 	lds	r24, 0x0808	; 0x800808 <DHWMinTime>
    3a6c:	90 91 09 08 	lds	r25, 0x0809	; 0x800809 <DHWMinTime+0x1>
    3a70:	84 32       	cpi	r24, 0x24	; 36
    3a72:	f9 e0       	ldi	r31, 0x09	; 9
    3a74:	9f 07       	cpc	r25, r31
    3a76:	30 f4       	brcc	.+12     	; 0x3a84 <DHWMinTime_ActionCallback+0x30>
				DHWMinTime += 10;
    3a78:	0a 96       	adiw	r24, 0x0a	; 10
    3a7a:	90 93 09 08 	sts	0x0809, r25	; 0x800809 <DHWMinTime+0x1>
    3a7e:	80 93 08 08 	sts	0x0808, r24	; 0x800808 <DHWMinTime>
    3a82:	24 c0       	rjmp	.+72     	; 0x3acc <DHWMinTime_ActionCallback+0x78>
			else
				DHWMinTime = 0;
    3a84:	10 92 09 08 	sts	0x0809, r1	; 0x800809 <DHWMinTime+0x1>
    3a88:	10 92 08 08 	sts	0x0808, r1	; 0x800808 <DHWMinTime>
    3a8c:	1f c0       	rjmp	.+62     	; 0x3acc <DHWMinTime_ActionCallback+0x78>
			break;
		case MENU_DOWN:
			if (DHWMinTime > 65525)
    3a8e:	80 91 08 08 	lds	r24, 0x0808	; 0x800808 <DHWMinTime>
    3a92:	90 91 09 08 	lds	r25, 0x0809	; 0x800809 <DHWMinTime+0x1>
    3a96:	86 3f       	cpi	r24, 0xF6	; 246
    3a98:	2f ef       	ldi	r18, 0xFF	; 255
    3a9a:	92 07       	cpc	r25, r18
    3a9c:	38 f0       	brcs	.+14     	; 0x3aac <DHWMinTime_ActionCallback+0x58>
				DHWMinTime = 2350;
    3a9e:	8e e2       	ldi	r24, 0x2E	; 46
    3aa0:	99 e0       	ldi	r25, 0x09	; 9
    3aa2:	90 93 09 08 	sts	0x0809, r25	; 0x800809 <DHWMinTime+0x1>
    3aa6:	80 93 08 08 	sts	0x0808, r24	; 0x800808 <DHWMinTime>
    3aaa:	10 c0       	rjmp	.+32     	; 0x3acc <DHWMinTime_ActionCallback+0x78>
			else
				DHWMinTime -= 10;
    3aac:	0a 97       	sbiw	r24, 0x0a	; 10
    3aae:	90 93 09 08 	sts	0x0809, r25	; 0x800809 <DHWMinTime+0x1>
    3ab2:	80 93 08 08 	sts	0x0808, r24	; 0x800808 <DHWMinTime>
    3ab6:	0a c0       	rjmp	.+20     	; 0x3acc <DHWMinTime_ActionCallback+0x78>
			break;
		case MENU_CONFIRM:
		eeprom_update_word(&eeDHWMinTime, DHWMinTime);
    3ab8:	60 91 08 08 	lds	r22, 0x0808	; 0x800808 <DHWMinTime>
    3abc:	70 91 09 08 	lds	r23, 0x0809	; 0x800809 <DHWMinTime+0x1>
    3ac0:	84 e1       	ldi	r24, 0x14	; 20
    3ac2:	90 e0       	ldi	r25, 0x00	; 0
    3ac4:	0e 94 a7 2e 	call	0x5d4e	; 0x5d4e <eeprom_update_word>
		case MENU_CANCEL:
		return true;
    3ac8:	81 e0       	ldi	r24, 0x01	; 1
    3aca:	08 95       	ret
	}

	DHWMinTime_CallbackRender(column);
    3acc:	86 2f       	mov	r24, r22
    3ace:	0e 94 22 18 	call	0x3044	; 0x3044 <DHWMinTime_CallbackRender>
	return false;
    3ad2:	80 e0       	ldi	r24, 0x00	; 0
    3ad4:	08 95       	ret
				DHWMinTime -= 10;
			break;
		case MENU_CONFIRM:
		eeprom_update_word(&eeDHWMinTime, DHWMinTime);
		case MENU_CANCEL:
		return true;
    3ad6:	81 e0       	ldi	r24, 0x01	; 1
	}

	DHWMinTime_CallbackRender(column);
	return false;
}
    3ad8:	08 95       	ret

00003ada <DHWMaxTime_ActionCallback>:
	itoa(DHWMaxTime, buf, 10);
	lcd_puts(buf);
}

bool DHWMaxTime_ActionCallback(MENU_BUTTON *button, uint8_t column){
	switch(button->role){
    3ada:	fc 01       	movw	r30, r24
    3adc:	90 81       	ld	r25, Z
    3ade:	91 30       	cpi	r25, 0x01	; 1
    3ae0:	c9 f0       	breq	.+50     	; 0x3b14 <DHWMaxTime_ActionCallback+0x3a>
    3ae2:	28 f0       	brcs	.+10     	; 0x3aee <DHWMaxTime_ActionCallback+0x14>
    3ae4:	92 30       	cpi	r25, 0x02	; 2
    3ae6:	59 f1       	breq	.+86     	; 0x3b3e <DHWMaxTime_ActionCallback+0x64>
    3ae8:	93 30       	cpi	r25, 0x03	; 3
    3aea:	c1 f1       	breq	.+112    	; 0x3b5c <DHWMaxTime_ActionCallback+0x82>
    3aec:	32 c0       	rjmp	.+100    	; 0x3b52 <DHWMaxTime_ActionCallback+0x78>
		case MENU_UP:
			if (DHWMaxTime < 2340)
    3aee:	80 91 34 08 	lds	r24, 0x0834	; 0x800834 <DHWMaxTime>
    3af2:	90 91 35 08 	lds	r25, 0x0835	; 0x800835 <DHWMaxTime+0x1>
    3af6:	84 32       	cpi	r24, 0x24	; 36
    3af8:	f9 e0       	ldi	r31, 0x09	; 9
    3afa:	9f 07       	cpc	r25, r31
    3afc:	30 f4       	brcc	.+12     	; 0x3b0a <DHWMaxTime_ActionCallback+0x30>
				DHWMaxTime += 10;
    3afe:	0a 96       	adiw	r24, 0x0a	; 10
    3b00:	90 93 35 08 	sts	0x0835, r25	; 0x800835 <DHWMaxTime+0x1>
    3b04:	80 93 34 08 	sts	0x0834, r24	; 0x800834 <DHWMaxTime>
    3b08:	24 c0       	rjmp	.+72     	; 0x3b52 <DHWMaxTime_ActionCallback+0x78>
			else
				DHWMaxTime = 0;
    3b0a:	10 92 35 08 	sts	0x0835, r1	; 0x800835 <DHWMaxTime+0x1>
    3b0e:	10 92 34 08 	sts	0x0834, r1	; 0x800834 <DHWMaxTime>
    3b12:	1f c0       	rjmp	.+62     	; 0x3b52 <DHWMaxTime_ActionCallback+0x78>
			break;
		case MENU_DOWN:
			if (DHWMaxTime > 65525)
    3b14:	80 91 34 08 	lds	r24, 0x0834	; 0x800834 <DHWMaxTime>
    3b18:	90 91 35 08 	lds	r25, 0x0835	; 0x800835 <DHWMaxTime+0x1>
    3b1c:	86 3f       	cpi	r24, 0xF6	; 246
    3b1e:	2f ef       	ldi	r18, 0xFF	; 255
    3b20:	92 07       	cpc	r25, r18
    3b22:	38 f0       	brcs	.+14     	; 0x3b32 <DHWMaxTime_ActionCallback+0x58>
				DHWMaxTime = 2350;
    3b24:	8e e2       	ldi	r24, 0x2E	; 46
    3b26:	99 e0       	ldi	r25, 0x09	; 9
    3b28:	90 93 35 08 	sts	0x0835, r25	; 0x800835 <DHWMaxTime+0x1>
    3b2c:	80 93 34 08 	sts	0x0834, r24	; 0x800834 <DHWMaxTime>
    3b30:	10 c0       	rjmp	.+32     	; 0x3b52 <DHWMaxTime_ActionCallback+0x78>
			else
				DHWMaxTime -= 10;
    3b32:	0a 97       	sbiw	r24, 0x0a	; 10
    3b34:	90 93 35 08 	sts	0x0835, r25	; 0x800835 <DHWMaxTime+0x1>
    3b38:	80 93 34 08 	sts	0x0834, r24	; 0x800834 <DHWMaxTime>
    3b3c:	0a c0       	rjmp	.+20     	; 0x3b52 <DHWMaxTime_ActionCallback+0x78>
			break;
		case MENU_CONFIRM:
		eeprom_update_word(&eeDHWMaxTime, DHWMaxTime);
    3b3e:	60 91 34 08 	lds	r22, 0x0834	; 0x800834 <DHWMaxTime>
    3b42:	70 91 35 08 	lds	r23, 0x0835	; 0x800835 <DHWMaxTime+0x1>
    3b46:	82 e1       	ldi	r24, 0x12	; 18
    3b48:	90 e0       	ldi	r25, 0x00	; 0
    3b4a:	0e 94 a7 2e 	call	0x5d4e	; 0x5d4e <eeprom_update_word>
		case MENU_CANCEL:
		return true;
    3b4e:	81 e0       	ldi	r24, 0x01	; 1
    3b50:	08 95       	ret
	}

	DHWMaxTime_CallbackRender(column);
    3b52:	86 2f       	mov	r24, r22
    3b54:	0e 94 49 18 	call	0x3092	; 0x3092 <DHWMaxTime_CallbackRender>
	return false;
    3b58:	80 e0       	ldi	r24, 0x00	; 0
    3b5a:	08 95       	ret
				DHWMaxTime -= 10;
			break;
		case MENU_CONFIRM:
		eeprom_update_word(&eeDHWMaxTime, DHWMaxTime);
		case MENU_CANCEL:
		return true;
    3b5c:	81 e0       	ldi	r24, 0x01	; 1
	}

	DHWMaxTime_CallbackRender(column);
	return false;
}
    3b5e:	08 95       	ret

00003b60 <PumpPlusTime_ActionCallback>:
	itoa(PumpPlusTime, buf, 10);
	lcd_puts(buf);
}

bool PumpPlusTime_ActionCallback(MENU_BUTTON *button, uint8_t column){
	switch(button->role){
    3b60:	fc 01       	movw	r30, r24
    3b62:	90 81       	ld	r25, Z
    3b64:	91 30       	cpi	r25, 0x01	; 1
    3b66:	81 f0       	breq	.+32     	; 0x3b88 <PumpPlusTime_ActionCallback+0x28>
    3b68:	28 f0       	brcs	.+10     	; 0x3b74 <PumpPlusTime_ActionCallback+0x14>
    3b6a:	92 30       	cpi	r25, 0x02	; 2
    3b6c:	b9 f0       	breq	.+46     	; 0x3b9c <PumpPlusTime_ActionCallback+0x3c>
    3b6e:	93 30       	cpi	r25, 0x03	; 3
    3b70:	21 f1       	breq	.+72     	; 0x3bba <PumpPlusTime_ActionCallback+0x5a>
    3b72:	1e c0       	rjmp	.+60     	; 0x3bb0 <PumpPlusTime_ActionCallback+0x50>
		case MENU_UP:
			++PumpPlusTime;
    3b74:	80 91 11 01 	lds	r24, 0x0111	; 0x800111 <PumpPlusTime>
    3b78:	90 91 12 01 	lds	r25, 0x0112	; 0x800112 <PumpPlusTime+0x1>
    3b7c:	01 96       	adiw	r24, 0x01	; 1
    3b7e:	90 93 12 01 	sts	0x0112, r25	; 0x800112 <PumpPlusTime+0x1>
    3b82:	80 93 11 01 	sts	0x0111, r24	; 0x800111 <PumpPlusTime>
			break;
    3b86:	14 c0       	rjmp	.+40     	; 0x3bb0 <PumpPlusTime_ActionCallback+0x50>
		case MENU_DOWN:
			--PumpPlusTime;
    3b88:	80 91 11 01 	lds	r24, 0x0111	; 0x800111 <PumpPlusTime>
    3b8c:	90 91 12 01 	lds	r25, 0x0112	; 0x800112 <PumpPlusTime+0x1>
    3b90:	01 97       	sbiw	r24, 0x01	; 1
    3b92:	90 93 12 01 	sts	0x0112, r25	; 0x800112 <PumpPlusTime+0x1>
    3b96:	80 93 11 01 	sts	0x0111, r24	; 0x800111 <PumpPlusTime>
			break;
    3b9a:	0a c0       	rjmp	.+20     	; 0x3bb0 <PumpPlusTime_ActionCallback+0x50>
		case MENU_CONFIRM:
			eeprom_update_word(&eePumpPlusTime, PumpPlusTime);
    3b9c:	60 91 11 01 	lds	r22, 0x0111	; 0x800111 <PumpPlusTime>
    3ba0:	70 91 12 01 	lds	r23, 0x0112	; 0x800112 <PumpPlusTime+0x1>
    3ba4:	82 e2       	ldi	r24, 0x22	; 34
    3ba6:	90 e0       	ldi	r25, 0x00	; 0
    3ba8:	0e 94 a7 2e 	call	0x5d4e	; 0x5d4e <eeprom_update_word>
			return true;
    3bac:	81 e0       	ldi	r24, 0x01	; 1
    3bae:	08 95       	ret
		case MENU_CANCEL:
			return true;
	}

	PumpPlusTime_CallbackRender(column);
    3bb0:	86 2f       	mov	r24, r22
    3bb2:	0e 94 b2 1a 	call	0x3564	; 0x3564 <PumpPlusTime_CallbackRender>
	return false;
    3bb6:	80 e0       	ldi	r24, 0x00	; 0
    3bb8:	08 95       	ret
			break;
		case MENU_CONFIRM:
			eeprom_update_word(&eePumpPlusTime, PumpPlusTime);
			return true;
		case MENU_CANCEL:
			return true;
    3bba:	81 e0       	ldi	r24, 0x01	; 1
	}

	PumpPlusTime_CallbackRender(column);
	return false;
}
    3bbc:	08 95       	ret

00003bbe <ComfortTemp_ActionCallback>:
	itoa(ComfortTemp, buf, 10);
	lcd_puts(buf);
}

bool ComfortTemp_ActionCallback(MENU_BUTTON *button, uint8_t column){
	switch(button->role){
    3bbe:	fc 01       	movw	r30, r24
    3bc0:	90 81       	ld	r25, Z
    3bc2:	91 30       	cpi	r25, 0x01	; 1
    3bc4:	d9 f0       	breq	.+54     	; 0x3bfc <ComfortTemp_ActionCallback+0x3e>
    3bc6:	28 f0       	brcs	.+10     	; 0x3bd2 <ComfortTemp_ActionCallback+0x14>
    3bc8:	92 30       	cpi	r25, 0x02	; 2
    3bca:	69 f1       	breq	.+90     	; 0x3c26 <ComfortTemp_ActionCallback+0x68>
    3bcc:	93 30       	cpi	r25, 0x03	; 3
    3bce:	d1 f1       	breq	.+116    	; 0x3c44 <ComfortTemp_ActionCallback+0x86>
    3bd0:	34 c0       	rjmp	.+104    	; 0x3c3a <ComfortTemp_ActionCallback+0x7c>
		case MENU_UP:
			if ((ComfortTemp += 10) == 3500)
    3bd2:	80 91 0f 01 	lds	r24, 0x010F	; 0x80010f <ComfortTemp>
    3bd6:	90 91 10 01 	lds	r25, 0x0110	; 0x800110 <ComfortTemp+0x1>
    3bda:	0a 96       	adiw	r24, 0x0a	; 10
    3bdc:	8c 3a       	cpi	r24, 0xAC	; 172
    3bde:	fd e0       	ldi	r31, 0x0D	; 13
    3be0:	9f 07       	cpc	r25, r31
    3be2:	29 f0       	breq	.+10     	; 0x3bee <ComfortTemp_ActionCallback+0x30>
    3be4:	90 93 10 01 	sts	0x0110, r25	; 0x800110 <ComfortTemp+0x1>
    3be8:	80 93 0f 01 	sts	0x010F, r24	; 0x80010f <ComfortTemp>
    3bec:	26 c0       	rjmp	.+76     	; 0x3c3a <ComfortTemp_ActionCallback+0x7c>
				ComfortTemp = 1500;
    3bee:	8c ed       	ldi	r24, 0xDC	; 220
    3bf0:	95 e0       	ldi	r25, 0x05	; 5
    3bf2:	90 93 10 01 	sts	0x0110, r25	; 0x800110 <ComfortTemp+0x1>
    3bf6:	80 93 0f 01 	sts	0x010F, r24	; 0x80010f <ComfortTemp>
    3bfa:	1f c0       	rjmp	.+62     	; 0x3c3a <ComfortTemp_ActionCallback+0x7c>
			break;
		case MENU_DOWN:
			if ((ComfortTemp -= 10) == 1000)
    3bfc:	80 91 0f 01 	lds	r24, 0x010F	; 0x80010f <ComfortTemp>
    3c00:	90 91 10 01 	lds	r25, 0x0110	; 0x800110 <ComfortTemp+0x1>
    3c04:	0a 97       	sbiw	r24, 0x0a	; 10
    3c06:	88 3e       	cpi	r24, 0xE8	; 232
    3c08:	23 e0       	ldi	r18, 0x03	; 3
    3c0a:	92 07       	cpc	r25, r18
    3c0c:	29 f0       	breq	.+10     	; 0x3c18 <ComfortTemp_ActionCallback+0x5a>
    3c0e:	90 93 10 01 	sts	0x0110, r25	; 0x800110 <ComfortTemp+0x1>
    3c12:	80 93 0f 01 	sts	0x010F, r24	; 0x80010f <ComfortTemp>
    3c16:	11 c0       	rjmp	.+34     	; 0x3c3a <ComfortTemp_ActionCallback+0x7c>
				ComfortTemp = 3500;
    3c18:	8c ea       	ldi	r24, 0xAC	; 172
    3c1a:	9d e0       	ldi	r25, 0x0D	; 13
    3c1c:	90 93 10 01 	sts	0x0110, r25	; 0x800110 <ComfortTemp+0x1>
    3c20:	80 93 0f 01 	sts	0x010F, r24	; 0x80010f <ComfortTemp>
    3c24:	0a c0       	rjmp	.+20     	; 0x3c3a <ComfortTemp_ActionCallback+0x7c>
			break;
		case MENU_CONFIRM:
			eeprom_update_word(&eeComfortTemp, ComfortTemp);
    3c26:	60 91 0f 01 	lds	r22, 0x010F	; 0x80010f <ComfortTemp>
    3c2a:	70 91 10 01 	lds	r23, 0x0110	; 0x800110 <ComfortTemp+0x1>
    3c2e:	8f e1       	ldi	r24, 0x1F	; 31
    3c30:	90 e0       	ldi	r25, 0x00	; 0
    3c32:	0e 94 a7 2e 	call	0x5d4e	; 0x5d4e <eeprom_update_word>
			return true;
    3c36:	81 e0       	ldi	r24, 0x01	; 1
    3c38:	08 95       	ret
		case MENU_CANCEL:
			return true;
	}

	ComfortTemp_CallbackRender(column);
    3c3a:	86 2f       	mov	r24, r22
    3c3c:	0e 94 22 1c 	call	0x3844	; 0x3844 <ComfortTemp_CallbackRender>
	return false;
    3c40:	80 e0       	ldi	r24, 0x00	; 0
    3c42:	08 95       	ret
			break;
		case MENU_CONFIRM:
			eeprom_update_word(&eeComfortTemp, ComfortTemp);
			return true;
		case MENU_CANCEL:
			return true;
    3c44:	81 e0       	ldi	r24, 0x01	; 1
	}

	ComfortTemp_CallbackRender(column);
	return false;
}
    3c46:	08 95       	ret

00003c48 <ComfortMinTime_ActionCallback>:
	itoa(ComfortMinTime, buf, 10);
	lcd_puts(buf);
}

bool ComfortMinTime_ActionCallback(MENU_BUTTON *button, uint8_t column){
	switch(button->role){
    3c48:	fc 01       	movw	r30, r24
    3c4a:	90 81       	ld	r25, Z
    3c4c:	91 30       	cpi	r25, 0x01	; 1
    3c4e:	c9 f0       	breq	.+50     	; 0x3c82 <ComfortMinTime_ActionCallback+0x3a>
    3c50:	28 f0       	brcs	.+10     	; 0x3c5c <ComfortMinTime_ActionCallback+0x14>
    3c52:	92 30       	cpi	r25, 0x02	; 2
    3c54:	59 f1       	breq	.+86     	; 0x3cac <ComfortMinTime_ActionCallback+0x64>
    3c56:	93 30       	cpi	r25, 0x03	; 3
    3c58:	c1 f1       	breq	.+112    	; 0x3cca <ComfortMinTime_ActionCallback+0x82>
    3c5a:	32 c0       	rjmp	.+100    	; 0x3cc0 <ComfortMinTime_ActionCallback+0x78>
		case MENU_UP:
			if (ComfortMinTime < 2340)
    3c5c:	80 91 0a 01 	lds	r24, 0x010A	; 0x80010a <ComfortMinTime>
    3c60:	90 91 0b 01 	lds	r25, 0x010B	; 0x80010b <ComfortMinTime+0x1>
    3c64:	84 32       	cpi	r24, 0x24	; 36
    3c66:	f9 e0       	ldi	r31, 0x09	; 9
    3c68:	9f 07       	cpc	r25, r31
    3c6a:	30 f4       	brcc	.+12     	; 0x3c78 <ComfortMinTime_ActionCallback+0x30>
				ComfortMinTime += 10;
    3c6c:	0a 96       	adiw	r24, 0x0a	; 10
    3c6e:	90 93 0b 01 	sts	0x010B, r25	; 0x80010b <ComfortMinTime+0x1>
    3c72:	80 93 0a 01 	sts	0x010A, r24	; 0x80010a <ComfortMinTime>
    3c76:	24 c0       	rjmp	.+72     	; 0x3cc0 <ComfortMinTime_ActionCallback+0x78>
			else
				ComfortMinTime = 0;
    3c78:	10 92 0b 01 	sts	0x010B, r1	; 0x80010b <ComfortMinTime+0x1>
    3c7c:	10 92 0a 01 	sts	0x010A, r1	; 0x80010a <ComfortMinTime>
    3c80:	1f c0       	rjmp	.+62     	; 0x3cc0 <ComfortMinTime_ActionCallback+0x78>
			break;
		case MENU_DOWN:
			if (ComfortMinTime > 65525)
    3c82:	80 91 0a 01 	lds	r24, 0x010A	; 0x80010a <ComfortMinTime>
    3c86:	90 91 0b 01 	lds	r25, 0x010B	; 0x80010b <ComfortMinTime+0x1>
    3c8a:	86 3f       	cpi	r24, 0xF6	; 246
    3c8c:	2f ef       	ldi	r18, 0xFF	; 255
    3c8e:	92 07       	cpc	r25, r18
    3c90:	38 f0       	brcs	.+14     	; 0x3ca0 <ComfortMinTime_ActionCallback+0x58>
				ComfortMinTime = 2350;
    3c92:	8e e2       	ldi	r24, 0x2E	; 46
    3c94:	99 e0       	ldi	r25, 0x09	; 9
    3c96:	90 93 0b 01 	sts	0x010B, r25	; 0x80010b <ComfortMinTime+0x1>
    3c9a:	80 93 0a 01 	sts	0x010A, r24	; 0x80010a <ComfortMinTime>
    3c9e:	10 c0       	rjmp	.+32     	; 0x3cc0 <ComfortMinTime_ActionCallback+0x78>
			else
				ComfortMinTime -= 10;
    3ca0:	0a 97       	sbiw	r24, 0x0a	; 10
    3ca2:	90 93 0b 01 	sts	0x010B, r25	; 0x80010b <ComfortMinTime+0x1>
    3ca6:	80 93 0a 01 	sts	0x010A, r24	; 0x80010a <ComfortMinTime>
    3caa:	0a c0       	rjmp	.+20     	; 0x3cc0 <ComfortMinTime_ActionCallback+0x78>
			break;
		case MENU_CONFIRM:
		eeprom_update_word(&eeComfortMinTime, ComfortMinTime);
    3cac:	60 91 0a 01 	lds	r22, 0x010A	; 0x80010a <ComfortMinTime>
    3cb0:	70 91 0b 01 	lds	r23, 0x010B	; 0x80010b <ComfortMinTime+0x1>
    3cb4:	8a e1       	ldi	r24, 0x1A	; 26
    3cb6:	90 e0       	ldi	r25, 0x00	; 0
    3cb8:	0e 94 a7 2e 	call	0x5d4e	; 0x5d4e <eeprom_update_word>
		case MENU_CANCEL:
		return true;
    3cbc:	81 e0       	ldi	r24, 0x01	; 1
    3cbe:	08 95       	ret
	}

	ComfortMinTime_CallbackRender(column);
    3cc0:	86 2f       	mov	r24, r22
    3cc2:	0e 94 6f 1c 	call	0x38de	; 0x38de <ComfortMinTime_CallbackRender>
	return false;
    3cc6:	80 e0       	ldi	r24, 0x00	; 0
    3cc8:	08 95       	ret
				ComfortMinTime -= 10;
			break;
		case MENU_CONFIRM:
		eeprom_update_word(&eeComfortMinTime, ComfortMinTime);
		case MENU_CANCEL:
		return true;
    3cca:	81 e0       	ldi	r24, 0x01	; 1
	}

	ComfortMinTime_CallbackRender(column);
	return false;
}
    3ccc:	08 95       	ret

00003cce <ComfortMaxTime_ActionCallback>:
	itoa(ComfortMaxTime, buf, 10);
	lcd_puts(buf);
}

bool ComfortMaxTime_ActionCallback(MENU_BUTTON *button, uint8_t column){
	switch(button->role){
    3cce:	fc 01       	movw	r30, r24
    3cd0:	90 81       	ld	r25, Z
    3cd2:	91 30       	cpi	r25, 0x01	; 1
    3cd4:	c9 f0       	breq	.+50     	; 0x3d08 <ComfortMaxTime_ActionCallback+0x3a>
    3cd6:	28 f0       	brcs	.+10     	; 0x3ce2 <ComfortMaxTime_ActionCallback+0x14>
    3cd8:	92 30       	cpi	r25, 0x02	; 2
    3cda:	59 f1       	breq	.+86     	; 0x3d32 <ComfortMaxTime_ActionCallback+0x64>
    3cdc:	93 30       	cpi	r25, 0x03	; 3
    3cde:	c1 f1       	breq	.+112    	; 0x3d50 <ComfortMaxTime_ActionCallback+0x82>
    3ce0:	32 c0       	rjmp	.+100    	; 0x3d46 <ComfortMaxTime_ActionCallback+0x78>
		case MENU_UP:
			if (ComfortMaxTime < 2340)
    3ce2:	80 91 0c 01 	lds	r24, 0x010C	; 0x80010c <ComfortMaxTime>
    3ce6:	90 91 0d 01 	lds	r25, 0x010D	; 0x80010d <ComfortMaxTime+0x1>
    3cea:	84 32       	cpi	r24, 0x24	; 36
    3cec:	f9 e0       	ldi	r31, 0x09	; 9
    3cee:	9f 07       	cpc	r25, r31
    3cf0:	30 f4       	brcc	.+12     	; 0x3cfe <ComfortMaxTime_ActionCallback+0x30>
				ComfortMaxTime += 10;
    3cf2:	0a 96       	adiw	r24, 0x0a	; 10
    3cf4:	90 93 0d 01 	sts	0x010D, r25	; 0x80010d <ComfortMaxTime+0x1>
    3cf8:	80 93 0c 01 	sts	0x010C, r24	; 0x80010c <ComfortMaxTime>
    3cfc:	24 c0       	rjmp	.+72     	; 0x3d46 <ComfortMaxTime_ActionCallback+0x78>
			else
				ComfortMaxTime = 0;
    3cfe:	10 92 0d 01 	sts	0x010D, r1	; 0x80010d <ComfortMaxTime+0x1>
    3d02:	10 92 0c 01 	sts	0x010C, r1	; 0x80010c <ComfortMaxTime>
    3d06:	1f c0       	rjmp	.+62     	; 0x3d46 <ComfortMaxTime_ActionCallback+0x78>
			break;
		case MENU_DOWN:
			if (ComfortMaxTime > 65525)
    3d08:	80 91 0c 01 	lds	r24, 0x010C	; 0x80010c <ComfortMaxTime>
    3d0c:	90 91 0d 01 	lds	r25, 0x010D	; 0x80010d <ComfortMaxTime+0x1>
    3d10:	86 3f       	cpi	r24, 0xF6	; 246
    3d12:	2f ef       	ldi	r18, 0xFF	; 255
    3d14:	92 07       	cpc	r25, r18
    3d16:	38 f0       	brcs	.+14     	; 0x3d26 <ComfortMaxTime_ActionCallback+0x58>
				ComfortMaxTime = 2350;
    3d18:	8e e2       	ldi	r24, 0x2E	; 46
    3d1a:	99 e0       	ldi	r25, 0x09	; 9
    3d1c:	90 93 0d 01 	sts	0x010D, r25	; 0x80010d <ComfortMaxTime+0x1>
    3d20:	80 93 0c 01 	sts	0x010C, r24	; 0x80010c <ComfortMaxTime>
    3d24:	10 c0       	rjmp	.+32     	; 0x3d46 <ComfortMaxTime_ActionCallback+0x78>
			else
				ComfortMaxTime -= 10;
    3d26:	0a 97       	sbiw	r24, 0x0a	; 10
    3d28:	90 93 0d 01 	sts	0x010D, r25	; 0x80010d <ComfortMaxTime+0x1>
    3d2c:	80 93 0c 01 	sts	0x010C, r24	; 0x80010c <ComfortMaxTime>
    3d30:	0a c0       	rjmp	.+20     	; 0x3d46 <ComfortMaxTime_ActionCallback+0x78>
			break;
		case MENU_CONFIRM:
		eeprom_update_word(&eeComfortMaxTime, ComfortMaxTime);
    3d32:	60 91 0c 01 	lds	r22, 0x010C	; 0x80010c <ComfortMaxTime>
    3d36:	70 91 0d 01 	lds	r23, 0x010D	; 0x80010d <ComfortMaxTime+0x1>
    3d3a:	8c e1       	ldi	r24, 0x1C	; 28
    3d3c:	90 e0       	ldi	r25, 0x00	; 0
    3d3e:	0e 94 a7 2e 	call	0x5d4e	; 0x5d4e <eeprom_update_word>
		case MENU_CANCEL:
		return true;
    3d42:	81 e0       	ldi	r24, 0x01	; 1
    3d44:	08 95       	ret
	}

	ComfortMaxTime_CallbackRender(column);
    3d46:	86 2f       	mov	r24, r22
    3d48:	0e 94 96 1c 	call	0x392c	; 0x392c <ComfortMaxTime_CallbackRender>
	return false;
    3d4c:	80 e0       	ldi	r24, 0x00	; 0
    3d4e:	08 95       	ret
				ComfortMaxTime -= 10;
			break;
		case MENU_CONFIRM:
		eeprom_update_word(&eeComfortMaxTime, ComfortMaxTime);
		case MENU_CANCEL:
		return true;
    3d50:	81 e0       	ldi	r24, 0x01	; 1
	}

	ComfortMaxTime_CallbackRender(column);
	return false;
}
    3d52:	08 95       	ret

00003d54 <Restarts_ActionCallback>:
	//ftoa(buffer, HIHxxxxTempMax, 2);
	//lcd_puts(buffer); lcd_puts_p(PSTR(" C"));
}

bool Restarts_ActionCallback(MENU_BUTTON *button, uint8_t column){
	switch(button->role){
    3d54:	fc 01       	movw	r30, r24
    3d56:	80 81       	ld	r24, Z
    3d58:	83 30       	cpi	r24, 0x03	; 3
    3d5a:	20 f0       	brcs	.+8      	; 0x3d64 <Restarts_ActionCallback+0x10>
    3d5c:	83 30       	cpi	r24, 0x03	; 3
    3d5e:	71 f0       	breq	.+28     	; 0x3d7c <Restarts_ActionCallback+0x28>
			Restarts = 0;
			break;
		case MENU_CANCEL:
		return true;
	}
	return false;
    3d60:	80 e0       	ldi	r24, 0x00	; 0
    3d62:	08 95       	ret
bool Restarts_ActionCallback(MENU_BUTTON *button, uint8_t column){
	switch(button->role){
		case MENU_UP:
		case MENU_DOWN:
		case MENU_CONFIRM:
			eeprom_update_word(&eeRestarts, 0);
    3d64:	60 e0       	ldi	r22, 0x00	; 0
    3d66:	70 e0       	ldi	r23, 0x00	; 0
    3d68:	88 e1       	ldi	r24, 0x18	; 24
    3d6a:	90 e0       	ldi	r25, 0x00	; 0
    3d6c:	0e 94 a7 2e 	call	0x5d4e	; 0x5d4e <eeprom_update_word>
			Restarts = 0;
    3d70:	10 92 0e 07 	sts	0x070E, r1	; 0x80070e <Restarts+0x1>
    3d74:	10 92 0d 07 	sts	0x070D, r1	; 0x80070d <Restarts>
			break;
		case MENU_CANCEL:
		return true;
	}
	return false;
    3d78:	80 e0       	ldi	r24, 0x00	; 0
		case MENU_UP:
		case MENU_DOWN:
		case MENU_CONFIRM:
			eeprom_update_word(&eeRestarts, 0);
			Restarts = 0;
			break;
    3d7a:	08 95       	ret
		case MENU_CANCEL:
		return true;
    3d7c:	81 e0       	ldi	r24, 0x01	; 1
	}
	return false;
}
    3d7e:	08 95       	ret

00003d80 <DHWTempActual_CallbackRender>:


/*************************************************************************
 Menu DHW, submenu definitions
*************************************************************************/
void DHWTempActual_CallbackRender(uint8_t which){
    3d80:	0f 93       	push	r16
    3d82:	1f 93       	push	r17
    3d84:	cf 93       	push	r28
    3d86:	df 93       	push	r29
    3d88:	cd b7       	in	r28, 0x3d	; 61
    3d8a:	de b7       	in	r29, 0x3e	; 62
    3d8c:	27 97       	sbiw	r28, 0x07	; 7
    3d8e:	0f b6       	in	r0, 0x3f	; 63
    3d90:	f8 94       	cli
    3d92:	de bf       	out	0x3e, r29	; 62
    3d94:	0f be       	out	0x3f, r0	; 63
    3d96:	cd bf       	out	0x3d, r28	; 61
	lcd_clrscr();
    3d98:	0e 94 04 08 	call	0x1008	; 0x1008 <lcd_clrscr>
	lcd_puts_hu(PSTR("HMV akt hõm"));
    3d9c:	8e eb       	ldi	r24, 0xBE	; 190
    3d9e:	97 e0       	ldi	r25, 0x07	; 7
    3da0:	0e 94 ef 08 	call	0x11de	; 0x11de <lcd_puts_hu>
	lcd_gotoxy(0,1);
    3da4:	61 e0       	ldi	r22, 0x01	; 1
    3da6:	80 e0       	ldi	r24, 0x00	; 0
    3da8:	0e 94 ee 07 	call	0xfdc	; 0xfdc <lcd_gotoxy>
	lcd_puts(DHW.ActualTempBuffer); lcd_puts_p(PSTR(".")), lcd_puts(DHW.ActualTempFracBuffer); lcd_puts_p(PSTR(" C"));
    3dac:	87 e1       	ldi	r24, 0x17	; 23
    3dae:	98 e0       	ldi	r25, 0x08	; 8
    3db0:	0e 94 bd 08 	call	0x117a	; 0x117a <lcd_puts>
    3db4:	8c eb       	ldi	r24, 0xBC	; 188
    3db6:	97 e0       	ldi	r25, 0x07	; 7
    3db8:	0e 94 28 08 	call	0x1050	; 0x1050 <lcd_puts_p>
    3dbc:	8b e1       	ldi	r24, 0x1B	; 27
    3dbe:	98 e0       	ldi	r25, 0x08	; 8
    3dc0:	0e 94 bd 08 	call	0x117a	; 0x117a <lcd_puts>
    3dc4:	89 eb       	ldi	r24, 0xB9	; 185
    3dc6:	97 e0       	ldi	r25, 0x07	; 7
    3dc8:	0e 94 28 08 	call	0x1050	; 0x1050 <lcd_puts_p>

	char buffer[7];
	lcd_gotoxy(0,2);
    3dcc:	62 e0       	ldi	r22, 0x02	; 2
    3dce:	80 e0       	ldi	r24, 0x00	; 0
    3dd0:	0e 94 ee 07 	call	0xfdc	; 0xfdc <lcd_gotoxy>
	itoa(DHW.MeasuredMinimumTemp, buffer, 10);
    3dd4:	04 e1       	ldi	r16, 0x14	; 20
    3dd6:	18 e0       	ldi	r17, 0x08	; 8
    3dd8:	f8 01       	movw	r30, r16
    3dda:	81 81       	ldd	r24, Z+1	; 0x01
    3ddc:	4a e0       	ldi	r20, 0x0A	; 10
    3dde:	be 01       	movw	r22, r28
    3de0:	6f 5f       	subi	r22, 0xFF	; 255
    3de2:	7f 4f       	sbci	r23, 0xFF	; 255
    3de4:	90 e0       	ldi	r25, 0x00	; 0
    3de6:	0e 94 89 2b 	call	0x5712	; 0x5712 <__itoa_ncheck>
	lcd_puts(buffer); lcd_puts_p(PSTR("/"));
    3dea:	ce 01       	movw	r24, r28
    3dec:	01 96       	adiw	r24, 0x01	; 1
    3dee:	0e 94 bd 08 	call	0x117a	; 0x117a <lcd_puts>
    3df2:	87 eb       	ldi	r24, 0xB7	; 183
    3df4:	97 e0       	ldi	r25, 0x07	; 7
    3df6:	0e 94 28 08 	call	0x1050	; 0x1050 <lcd_puts_p>
    3dfa:	f8 01       	movw	r30, r16
    3dfc:	82 81       	ldd	r24, Z+2	; 0x02
    3dfe:	4a e0       	ldi	r20, 0x0A	; 10
    3e00:	be 01       	movw	r22, r28
    3e02:	6f 5f       	subi	r22, 0xFF	; 255
    3e04:	7f 4f       	sbci	r23, 0xFF	; 255
    3e06:	90 e0       	ldi	r25, 0x00	; 0
    3e08:	0e 94 89 2b 	call	0x5712	; 0x5712 <__itoa_ncheck>
	itoa(DHW.MeasuredMaximumTemp, buffer, 10);
	lcd_puts(buffer); lcd_puts_p(PSTR(" C"));
    3e0c:	ce 01       	movw	r24, r28
    3e0e:	01 96       	adiw	r24, 0x01	; 1
    3e10:	0e 94 bd 08 	call	0x117a	; 0x117a <lcd_puts>
    3e14:	84 eb       	ldi	r24, 0xB4	; 180
    3e16:	97 e0       	ldi	r25, 0x07	; 7
    3e18:	0e 94 28 08 	call	0x1050	; 0x1050 <lcd_puts_p>
}
    3e1c:	27 96       	adiw	r28, 0x07	; 7
    3e1e:	0f b6       	in	r0, 0x3f	; 63
    3e20:	f8 94       	cli
    3e22:	de bf       	out	0x3e, r29	; 62
    3e24:	0f be       	out	0x3f, r0	; 63
    3e26:	cd bf       	out	0x3d, r28	; 61
    3e28:	df 91       	pop	r29
    3e2a:	cf 91       	pop	r28
    3e2c:	1f 91       	pop	r17
    3e2e:	0f 91       	pop	r16
    3e30:	08 95       	ret

00003e32 <BufferTempActual_CallbackRender>:
};

/*************************************************************************
 Menu Buffer, submenu definitions
*************************************************************************/
void BufferTempActual_CallbackRender(uint8_t which){
    3e32:	0f 93       	push	r16
    3e34:	1f 93       	push	r17
    3e36:	cf 93       	push	r28
    3e38:	df 93       	push	r29
    3e3a:	cd b7       	in	r28, 0x3d	; 61
    3e3c:	de b7       	in	r29, 0x3e	; 62
    3e3e:	27 97       	sbiw	r28, 0x07	; 7
    3e40:	0f b6       	in	r0, 0x3f	; 63
    3e42:	f8 94       	cli
    3e44:	de bf       	out	0x3e, r29	; 62
    3e46:	0f be       	out	0x3f, r0	; 63
    3e48:	cd bf       	out	0x3d, r28	; 61
	lcd_clrscr();
    3e4a:	0e 94 04 08 	call	0x1008	; 0x1008 <lcd_clrscr>
	lcd_puts_hu(PSTR("Puffer akt hõm"));
    3e4e:	8b e6       	ldi	r24, 0x6B	; 107
    3e50:	97 e0       	ldi	r25, 0x07	; 7
    3e52:	0e 94 ef 08 	call	0x11de	; 0x11de <lcd_puts_hu>
	lcd_gotoxy(0,1);
    3e56:	61 e0       	ldi	r22, 0x01	; 1
    3e58:	80 e0       	ldi	r24, 0x00	; 0
    3e5a:	0e 94 ee 07 	call	0xfdc	; 0xfdc <lcd_gotoxy>
	lcd_puts(Buffer.ActualTempBuffer); lcd_puts_p(PSTR(".")), lcd_puts(Buffer.ActualTempFracBuffer); lcd_puts_p(PSTR(" C"));
    3e5e:	80 e4       	ldi	r24, 0x40	; 64
    3e60:	98 e0       	ldi	r25, 0x08	; 8
    3e62:	0e 94 bd 08 	call	0x117a	; 0x117a <lcd_puts>
    3e66:	89 e6       	ldi	r24, 0x69	; 105
    3e68:	97 e0       	ldi	r25, 0x07	; 7
    3e6a:	0e 94 28 08 	call	0x1050	; 0x1050 <lcd_puts_p>
    3e6e:	84 e4       	ldi	r24, 0x44	; 68
    3e70:	98 e0       	ldi	r25, 0x08	; 8
    3e72:	0e 94 bd 08 	call	0x117a	; 0x117a <lcd_puts>
    3e76:	86 e6       	ldi	r24, 0x66	; 102
    3e78:	97 e0       	ldi	r25, 0x07	; 7
    3e7a:	0e 94 28 08 	call	0x1050	; 0x1050 <lcd_puts_p>

	char buffer[7];
	lcd_gotoxy(0,2);
    3e7e:	62 e0       	ldi	r22, 0x02	; 2
    3e80:	80 e0       	ldi	r24, 0x00	; 0
    3e82:	0e 94 ee 07 	call	0xfdc	; 0xfdc <lcd_gotoxy>
	itoa(Buffer.MeasuredMinimumTemp, buffer, 10);
    3e86:	0d e3       	ldi	r16, 0x3D	; 61
    3e88:	18 e0       	ldi	r17, 0x08	; 8
    3e8a:	f8 01       	movw	r30, r16
    3e8c:	81 81       	ldd	r24, Z+1	; 0x01
    3e8e:	4a e0       	ldi	r20, 0x0A	; 10
    3e90:	be 01       	movw	r22, r28
    3e92:	6f 5f       	subi	r22, 0xFF	; 255
    3e94:	7f 4f       	sbci	r23, 0xFF	; 255
    3e96:	90 e0       	ldi	r25, 0x00	; 0
    3e98:	0e 94 89 2b 	call	0x5712	; 0x5712 <__itoa_ncheck>
	lcd_puts(buffer); lcd_puts_p(PSTR("/"));
    3e9c:	ce 01       	movw	r24, r28
    3e9e:	01 96       	adiw	r24, 0x01	; 1
    3ea0:	0e 94 bd 08 	call	0x117a	; 0x117a <lcd_puts>
    3ea4:	84 e6       	ldi	r24, 0x64	; 100
    3ea6:	97 e0       	ldi	r25, 0x07	; 7
    3ea8:	0e 94 28 08 	call	0x1050	; 0x1050 <lcd_puts_p>
    3eac:	f8 01       	movw	r30, r16
    3eae:	82 81       	ldd	r24, Z+2	; 0x02
    3eb0:	4a e0       	ldi	r20, 0x0A	; 10
    3eb2:	be 01       	movw	r22, r28
    3eb4:	6f 5f       	subi	r22, 0xFF	; 255
    3eb6:	7f 4f       	sbci	r23, 0xFF	; 255
    3eb8:	90 e0       	ldi	r25, 0x00	; 0
    3eba:	0e 94 89 2b 	call	0x5712	; 0x5712 <__itoa_ncheck>
	itoa(Buffer.MeasuredMaximumTemp, buffer, 10);
	lcd_puts(buffer); lcd_puts_p(PSTR(" C"));
    3ebe:	ce 01       	movw	r24, r28
    3ec0:	01 96       	adiw	r24, 0x01	; 1
    3ec2:	0e 94 bd 08 	call	0x117a	; 0x117a <lcd_puts>
    3ec6:	81 e6       	ldi	r24, 0x61	; 97
    3ec8:	97 e0       	ldi	r25, 0x07	; 7
    3eca:	0e 94 28 08 	call	0x1050	; 0x1050 <lcd_puts_p>
}
    3ece:	27 96       	adiw	r28, 0x07	; 7
    3ed0:	0f b6       	in	r0, 0x3f	; 63
    3ed2:	f8 94       	cli
    3ed4:	de bf       	out	0x3e, r29	; 62
    3ed6:	0f be       	out	0x3f, r0	; 63
    3ed8:	cd bf       	out	0x3d, r28	; 61
    3eda:	df 91       	pop	r29
    3edc:	cf 91       	pop	r28
    3ede:	1f 91       	pop	r17
    3ee0:	0f 91       	pop	r16
    3ee2:	08 95       	ret

00003ee4 <EngineeringTempActual_CallbackRender>:
};

/*************************************************************************
 Menu Garage, submenu definitions
*************************************************************************/
void EngineeringTempActual_CallbackRender(uint8_t which){
    3ee4:	0f 93       	push	r16
    3ee6:	1f 93       	push	r17
    3ee8:	cf 93       	push	r28
    3eea:	df 93       	push	r29
    3eec:	cd b7       	in	r28, 0x3d	; 61
    3eee:	de b7       	in	r29, 0x3e	; 62
    3ef0:	27 97       	sbiw	r28, 0x07	; 7
    3ef2:	0f b6       	in	r0, 0x3f	; 63
    3ef4:	f8 94       	cli
    3ef6:	de bf       	out	0x3e, r29	; 62
    3ef8:	0f be       	out	0x3f, r0	; 63
    3efa:	cd bf       	out	0x3d, r28	; 61
	lcd_clrscr();
    3efc:	0e 94 04 08 	call	0x1008	; 0x1008 <lcd_clrscr>
	lcd_puts_hu(PSTR("Gépház akt hõm"));
    3f00:	83 e2       	ldi	r24, 0x23	; 35
    3f02:	97 e0       	ldi	r25, 0x07	; 7
    3f04:	0e 94 ef 08 	call	0x11de	; 0x11de <lcd_puts_hu>
	lcd_gotoxy(0,1);
    3f08:	61 e0       	ldi	r22, 0x01	; 1
    3f0a:	80 e0       	ldi	r24, 0x00	; 0
    3f0c:	0e 94 ee 07 	call	0xfdc	; 0xfdc <lcd_gotoxy>
	lcd_puts(Engineering.ActualTempBuffer); lcd_puts_p(PSTR(".")), lcd_puts(Engineering.ActualTempFracBuffer); lcd_puts_p(PSTR(" C"));
    3f10:	82 ee       	ldi	r24, 0xE2	; 226
    3f12:	97 e0       	ldi	r25, 0x07	; 7
    3f14:	0e 94 bd 08 	call	0x117a	; 0x117a <lcd_puts>
    3f18:	81 e2       	ldi	r24, 0x21	; 33
    3f1a:	97 e0       	ldi	r25, 0x07	; 7
    3f1c:	0e 94 28 08 	call	0x1050	; 0x1050 <lcd_puts_p>
    3f20:	86 ee       	ldi	r24, 0xE6	; 230
    3f22:	97 e0       	ldi	r25, 0x07	; 7
    3f24:	0e 94 bd 08 	call	0x117a	; 0x117a <lcd_puts>
    3f28:	8e e1       	ldi	r24, 0x1E	; 30
    3f2a:	97 e0       	ldi	r25, 0x07	; 7
    3f2c:	0e 94 28 08 	call	0x1050	; 0x1050 <lcd_puts_p>

	char buffer[7];
	lcd_gotoxy(0,2);
    3f30:	62 e0       	ldi	r22, 0x02	; 2
    3f32:	80 e0       	ldi	r24, 0x00	; 0
    3f34:	0e 94 ee 07 	call	0xfdc	; 0xfdc <lcd_gotoxy>
	itoa(Engineering.MeasuredMinimumTemp, buffer, 10);
    3f38:	0f ed       	ldi	r16, 0xDF	; 223
    3f3a:	17 e0       	ldi	r17, 0x07	; 7
    3f3c:	f8 01       	movw	r30, r16
    3f3e:	81 81       	ldd	r24, Z+1	; 0x01
    3f40:	4a e0       	ldi	r20, 0x0A	; 10
    3f42:	be 01       	movw	r22, r28
    3f44:	6f 5f       	subi	r22, 0xFF	; 255
    3f46:	7f 4f       	sbci	r23, 0xFF	; 255
    3f48:	90 e0       	ldi	r25, 0x00	; 0
    3f4a:	0e 94 89 2b 	call	0x5712	; 0x5712 <__itoa_ncheck>
	lcd_puts(buffer); lcd_puts_p(PSTR("/"));
    3f4e:	ce 01       	movw	r24, r28
    3f50:	01 96       	adiw	r24, 0x01	; 1
    3f52:	0e 94 bd 08 	call	0x117a	; 0x117a <lcd_puts>
    3f56:	8c e1       	ldi	r24, 0x1C	; 28
    3f58:	97 e0       	ldi	r25, 0x07	; 7
    3f5a:	0e 94 28 08 	call	0x1050	; 0x1050 <lcd_puts_p>
    3f5e:	f8 01       	movw	r30, r16
    3f60:	82 81       	ldd	r24, Z+2	; 0x02
    3f62:	4a e0       	ldi	r20, 0x0A	; 10
    3f64:	be 01       	movw	r22, r28
    3f66:	6f 5f       	subi	r22, 0xFF	; 255
    3f68:	7f 4f       	sbci	r23, 0xFF	; 255
    3f6a:	90 e0       	ldi	r25, 0x00	; 0
    3f6c:	0e 94 89 2b 	call	0x5712	; 0x5712 <__itoa_ncheck>
	itoa(Engineering.MeasuredMaximumTemp, buffer, 10);
	lcd_puts(buffer); lcd_puts_p(PSTR(" C"));
    3f70:	ce 01       	movw	r24, r28
    3f72:	01 96       	adiw	r24, 0x01	; 1
    3f74:	0e 94 bd 08 	call	0x117a	; 0x117a <lcd_puts>
    3f78:	89 e1       	ldi	r24, 0x19	; 25
    3f7a:	97 e0       	ldi	r25, 0x07	; 7
    3f7c:	0e 94 28 08 	call	0x1050	; 0x1050 <lcd_puts_p>
}
    3f80:	27 96       	adiw	r28, 0x07	; 7
    3f82:	0f b6       	in	r0, 0x3f	; 63
    3f84:	f8 94       	cli
    3f86:	de bf       	out	0x3e, r29	; 62
    3f88:	0f be       	out	0x3f, r0	; 63
    3f8a:	cd bf       	out	0x3d, r28	; 61
    3f8c:	df 91       	pop	r29
    3f8e:	cf 91       	pop	r28
    3f90:	1f 91       	pop	r17
    3f92:	0f 91       	pop	r16
    3f94:	08 95       	ret

00003f96 <DHWRelay_CallbackRender>:
/*************************************************************************
 Menu Relays, submenu definitions
*************************************************************************/

void DHWRelay_CallbackRender(uint8_t which){
	lcd_clrscr();
    3f96:	0e 94 04 08 	call	0x1008	; 0x1008 <lcd_clrscr>
	lcd_puts_hu(PSTR("HMV szelep állapot"));
    3f9a:	83 ed       	ldi	r24, 0xD3	; 211
    3f9c:	96 e0       	ldi	r25, 0x06	; 6
    3f9e:	0e 94 ef 08 	call	0x11de	; 0x11de <lcd_puts_hu>
	lcd_gotoxy(0,1);
    3fa2:	61 e0       	ldi	r22, 0x01	; 1
    3fa4:	80 e0       	ldi	r24, 0x00	; 0
    3fa6:	0e 94 ee 07 	call	0xfdc	; 0xfdc <lcd_gotoxy>
	if (Relays & (1 << DHW_VALVE_RELAY))
    3faa:	80 91 0c 07 	lds	r24, 0x070C	; 0x80070c <Relays>
    3fae:	80 ff       	sbrs	r24, 0
    3fb0:	05 c0       	rjmp	.+10     	; 0x3fbc <DHWRelay_CallbackRender+0x26>
		lcd_puts_p(PSTR("Be"));
    3fb2:	80 ed       	ldi	r24, 0xD0	; 208
    3fb4:	96 e0       	ldi	r25, 0x06	; 6
    3fb6:	0e 94 28 08 	call	0x1050	; 0x1050 <lcd_puts_p>
    3fba:	08 95       	ret
	else
		lcd_puts_p(PSTR("Ki"));
    3fbc:	8d ec       	ldi	r24, 0xCD	; 205
    3fbe:	96 e0       	ldi	r25, 0x06	; 6
    3fc0:	0e 94 28 08 	call	0x1050	; 0x1050 <lcd_puts_p>
    3fc4:	08 95       	ret

00003fc6 <ZoneValve1_CallbackRender>:
	DHWRelay_CallbackRender(column);
	return false;
}

void ZoneValve1_CallbackRender(uint8_t which){
	lcd_clrscr();
    3fc6:	0e 94 04 08 	call	0x1008	; 0x1008 <lcd_clrscr>
	lcd_puts_hu(PSTR("Földszinti szivattyú"));
    3fca:	88 eb       	ldi	r24, 0xB8	; 184
    3fcc:	96 e0       	ldi	r25, 0x06	; 6
    3fce:	0e 94 ef 08 	call	0x11de	; 0x11de <lcd_puts_hu>
	lcd_gotoxy(0,1);
    3fd2:	61 e0       	ldi	r22, 0x01	; 1
    3fd4:	80 e0       	ldi	r24, 0x00	; 0
    3fd6:	0e 94 ee 07 	call	0xfdc	; 0xfdc <lcd_gotoxy>
	if (Relays & (1 << FIRST_FLOOR_VALVE))
    3fda:	80 91 0c 07 	lds	r24, 0x070C	; 0x80070c <Relays>
    3fde:	88 23       	and	r24, r24
    3fe0:	2c f4       	brge	.+10     	; 0x3fec <ZoneValve1_CallbackRender+0x26>
		lcd_puts_p(PSTR("Be"));
    3fe2:	85 eb       	ldi	r24, 0xB5	; 181
    3fe4:	96 e0       	ldi	r25, 0x06	; 6
    3fe6:	0e 94 28 08 	call	0x1050	; 0x1050 <lcd_puts_p>
    3fea:	08 95       	ret
	else
		lcd_puts_p(PSTR("Ki"));
    3fec:	82 eb       	ldi	r24, 0xB2	; 178
    3fee:	96 e0       	ldi	r25, 0x06	; 6
    3ff0:	0e 94 28 08 	call	0x1050	; 0x1050 <lcd_puts_p>
    3ff4:	08 95       	ret

00003ff6 <ZoneValve2_CallbackRender>:
	ZoneValve1_CallbackRender(column);
	return false;
}

void ZoneValve2_CallbackRender(uint8_t which){
	lcd_clrscr();
    3ff6:	0e 94 04 08 	call	0x1008	; 0x1008 <lcd_clrscr>
	lcd_puts_p(PSTR("Emeleti szivattyú"));
    3ffa:	80 ea       	ldi	r24, 0xA0	; 160
    3ffc:	96 e0       	ldi	r25, 0x06	; 6
    3ffe:	0e 94 28 08 	call	0x1050	; 0x1050 <lcd_puts_p>
	lcd_gotoxy(0,1);
    4002:	61 e0       	ldi	r22, 0x01	; 1
    4004:	80 e0       	ldi	r24, 0x00	; 0
    4006:	0e 94 ee 07 	call	0xfdc	; 0xfdc <lcd_gotoxy>
	if (Relays & (1 << SECOND_FLOOR_VALVE))
    400a:	80 91 0c 07 	lds	r24, 0x070C	; 0x80070c <Relays>
    400e:	86 ff       	sbrs	r24, 6
    4010:	05 c0       	rjmp	.+10     	; 0x401c <ZoneValve2_CallbackRender+0x26>
			lcd_puts_p(PSTR("Be"));
    4012:	8d e9       	ldi	r24, 0x9D	; 157
    4014:	96 e0       	ldi	r25, 0x06	; 6
    4016:	0e 94 28 08 	call	0x1050	; 0x1050 <lcd_puts_p>
    401a:	08 95       	ret
		else
			lcd_puts_p(PSTR("Ki"));
    401c:	8a e9       	ldi	r24, 0x9A	; 154
    401e:	96 e0       	ldi	r25, 0x06	; 6
    4020:	0e 94 28 08 	call	0x1050	; 0x1050 <lcd_puts_p>
    4024:	08 95       	ret

00004026 <BufferValve_CallbackRender>:
	ZoneValve2_CallbackRender(column);
	return false;
}

void BufferValve_CallbackRender(uint8_t which){
	lcd_clrscr();
    4026:	0e 94 04 08 	call	0x1008	; 0x1008 <lcd_clrscr>
	lcd_puts_hu(PSTR("Puffer / gáz szelep"));
    402a:	86 e8       	ldi	r24, 0x86	; 134
    402c:	96 e0       	ldi	r25, 0x06	; 6
    402e:	0e 94 ef 08 	call	0x11de	; 0x11de <lcd_puts_hu>
	lcd_gotoxy(0,1);
    4032:	61 e0       	ldi	r22, 0x01	; 1
    4034:	80 e0       	ldi	r24, 0x00	; 0
    4036:	0e 94 ee 07 	call	0xfdc	; 0xfdc <lcd_gotoxy>
	if (Relays & (1 << BUFFER_VALVE_RELAY))
    403a:	80 91 0c 07 	lds	r24, 0x070C	; 0x80070c <Relays>
    403e:	85 ff       	sbrs	r24, 5
    4040:	05 c0       	rjmp	.+10     	; 0x404c <BufferValve_CallbackRender+0x26>
		lcd_puts_p(PSTR("Puffer"));
    4042:	8f e7       	ldi	r24, 0x7F	; 127
    4044:	96 e0       	ldi	r25, 0x06	; 6
    4046:	0e 94 28 08 	call	0x1050	; 0x1050 <lcd_puts_p>
    404a:	08 95       	ret
	else
		lcd_puts_hu(PSTR("Gáz"));
    404c:	8b e7       	ldi	r24, 0x7B	; 123
    404e:	96 e0       	ldi	r25, 0x06	; 6
    4050:	0e 94 ef 08 	call	0x11de	; 0x11de <lcd_puts_hu>
    4054:	08 95       	ret

00004056 <BufferPump_CallbackRender>:
	BufferValve_CallbackRender(column);
	return false;
}

void BufferPump_CallbackRender(uint8_t which){
	lcd_clrscr();
    4056:	0e 94 04 08 	call	0x1008	; 0x1008 <lcd_clrscr>
	lcd_puts_hu(PSTR("Puffer szivattyú"));
    405a:	8a e6       	ldi	r24, 0x6A	; 106
    405c:	96 e0       	ldi	r25, 0x06	; 6
    405e:	0e 94 ef 08 	call	0x11de	; 0x11de <lcd_puts_hu>
	lcd_gotoxy(0,1);
    4062:	61 e0       	ldi	r22, 0x01	; 1
    4064:	80 e0       	ldi	r24, 0x00	; 0
    4066:	0e 94 ee 07 	call	0xfdc	; 0xfdc <lcd_gotoxy>
	if (Relays & (1 << BUFFER_PUMP_RELAY))
    406a:	80 91 0c 07 	lds	r24, 0x070C	; 0x80070c <Relays>
    406e:	84 ff       	sbrs	r24, 4
    4070:	05 c0       	rjmp	.+10     	; 0x407c <BufferPump_CallbackRender+0x26>
		lcd_puts_p(PSTR("Be"));
    4072:	87 e6       	ldi	r24, 0x67	; 103
    4074:	96 e0       	ldi	r25, 0x06	; 6
    4076:	0e 94 28 08 	call	0x1050	; 0x1050 <lcd_puts_p>
    407a:	08 95       	ret
	else
		lcd_puts_p(PSTR("Ki"));
    407c:	84 e6       	ldi	r24, 0x64	; 100
    407e:	96 e0       	ldi	r25, 0x06	; 6
    4080:	0e 94 28 08 	call	0x1050	; 0x1050 <lcd_puts_p>
    4084:	08 95       	ret

00004086 <GasRelay_CallbackRender>:
	BufferPump_CallbackRender(column);
	return false;
}

void GasRelay_CallbackRender(uint8_t which){
	lcd_clrscr();
    4086:	0e 94 04 08 	call	0x1008	; 0x1008 <lcd_clrscr>
	lcd_puts_hu(PSTR("Gáz állapot"));
    408a:	88 e5       	ldi	r24, 0x58	; 88
    408c:	96 e0       	ldi	r25, 0x06	; 6
    408e:	0e 94 ef 08 	call	0x11de	; 0x11de <lcd_puts_hu>
	lcd_gotoxy(0,1);
    4092:	61 e0       	ldi	r22, 0x01	; 1
    4094:	80 e0       	ldi	r24, 0x00	; 0
    4096:	0e 94 ee 07 	call	0xfdc	; 0xfdc <lcd_gotoxy>
	if (Relays & (1 << GAS_RELAY))
    409a:	80 91 0c 07 	lds	r24, 0x070C	; 0x80070c <Relays>
    409e:	81 ff       	sbrs	r24, 1
    40a0:	05 c0       	rjmp	.+10     	; 0x40ac <GasRelay_CallbackRender+0x26>
		lcd_puts_p(PSTR("Be"));
    40a2:	85 e5       	ldi	r24, 0x55	; 85
    40a4:	96 e0       	ldi	r25, 0x06	; 6
    40a6:	0e 94 28 08 	call	0x1050	; 0x1050 <lcd_puts_p>
    40aa:	08 95       	ret
	else
		lcd_puts_p(PSTR("Ki"));
    40ac:	82 e5       	ldi	r24, 0x52	; 82
    40ae:	96 e0       	ldi	r25, 0x06	; 6
    40b0:	0e 94 28 08 	call	0x1050	; 0x1050 <lcd_puts_p>
    40b4:	08 95       	ret

000040b6 <GarageTemp_CallbackRender>:

/*************************************************************************
 Sensors, submenu definitions
*************************************************************************/

void GarageTemp_CallbackRender(uint8_t which){
    40b6:	0f 93       	push	r16
    40b8:	1f 93       	push	r17
    40ba:	cf 93       	push	r28
    40bc:	df 93       	push	r29
    40be:	cd b7       	in	r28, 0x3d	; 61
    40c0:	de b7       	in	r29, 0x3e	; 62
    40c2:	27 97       	sbiw	r28, 0x07	; 7
    40c4:	0f b6       	in	r0, 0x3f	; 63
    40c6:	f8 94       	cli
    40c8:	de bf       	out	0x3e, r29	; 62
    40ca:	0f be       	out	0x3f, r0	; 63
    40cc:	cd bf       	out	0x3d, r28	; 61
	lcd_clrscr();
    40ce:	0e 94 04 08 	call	0x1008	; 0x1008 <lcd_clrscr>
	lcd_puts_hu(PSTR("Garázs akt hõm"));
    40d2:	83 e4       	ldi	r24, 0x43	; 67
    40d4:	96 e0       	ldi	r25, 0x06	; 6
    40d6:	0e 94 ef 08 	call	0x11de	; 0x11de <lcd_puts_hu>
	lcd_gotoxy(0,1);
    40da:	61 e0       	ldi	r22, 0x01	; 1
    40dc:	80 e0       	ldi	r24, 0x00	; 0
    40de:	0e 94 ee 07 	call	0xfdc	; 0xfdc <lcd_gotoxy>
	lcd_puts(Garage.ActualTempBuffer); lcd_puts_p(PSTR(".")), lcd_puts(Garage.ActualTempFracBuffer); lcd_puts_p(PSTR(" C"));
    40e2:	81 ed       	ldi	r24, 0xD1	; 209
    40e4:	97 e0       	ldi	r25, 0x07	; 7
    40e6:	0e 94 bd 08 	call	0x117a	; 0x117a <lcd_puts>
    40ea:	81 e4       	ldi	r24, 0x41	; 65
    40ec:	96 e0       	ldi	r25, 0x06	; 6
    40ee:	0e 94 28 08 	call	0x1050	; 0x1050 <lcd_puts_p>
    40f2:	85 ed       	ldi	r24, 0xD5	; 213
    40f4:	97 e0       	ldi	r25, 0x07	; 7
    40f6:	0e 94 bd 08 	call	0x117a	; 0x117a <lcd_puts>
    40fa:	8e e3       	ldi	r24, 0x3E	; 62
    40fc:	96 e0       	ldi	r25, 0x06	; 6
    40fe:	0e 94 28 08 	call	0x1050	; 0x1050 <lcd_puts_p>

	char buffer[7];
	lcd_gotoxy(0,2);
    4102:	62 e0       	ldi	r22, 0x02	; 2
    4104:	80 e0       	ldi	r24, 0x00	; 0
    4106:	0e 94 ee 07 	call	0xfdc	; 0xfdc <lcd_gotoxy>
	itoa(Garage.MeasuredMinimumTemp, buffer, 10);
    410a:	0e ec       	ldi	r16, 0xCE	; 206
    410c:	17 e0       	ldi	r17, 0x07	; 7
    410e:	f8 01       	movw	r30, r16
    4110:	81 81       	ldd	r24, Z+1	; 0x01
    4112:	4a e0       	ldi	r20, 0x0A	; 10
    4114:	be 01       	movw	r22, r28
    4116:	6f 5f       	subi	r22, 0xFF	; 255
    4118:	7f 4f       	sbci	r23, 0xFF	; 255
    411a:	90 e0       	ldi	r25, 0x00	; 0
    411c:	0e 94 89 2b 	call	0x5712	; 0x5712 <__itoa_ncheck>
	lcd_puts(buffer); lcd_puts_p(PSTR("/"));
    4120:	ce 01       	movw	r24, r28
    4122:	01 96       	adiw	r24, 0x01	; 1
    4124:	0e 94 bd 08 	call	0x117a	; 0x117a <lcd_puts>
    4128:	8c e3       	ldi	r24, 0x3C	; 60
    412a:	96 e0       	ldi	r25, 0x06	; 6
    412c:	0e 94 28 08 	call	0x1050	; 0x1050 <lcd_puts_p>
    4130:	f8 01       	movw	r30, r16
    4132:	82 81       	ldd	r24, Z+2	; 0x02
    4134:	4a e0       	ldi	r20, 0x0A	; 10
    4136:	be 01       	movw	r22, r28
    4138:	6f 5f       	subi	r22, 0xFF	; 255
    413a:	7f 4f       	sbci	r23, 0xFF	; 255
    413c:	90 e0       	ldi	r25, 0x00	; 0
    413e:	0e 94 89 2b 	call	0x5712	; 0x5712 <__itoa_ncheck>
	itoa(Garage.MeasuredMaximumTemp, buffer, 10);
	lcd_puts(buffer); lcd_puts_p(PSTR(" C"));
    4142:	ce 01       	movw	r24, r28
    4144:	01 96       	adiw	r24, 0x01	; 1
    4146:	0e 94 bd 08 	call	0x117a	; 0x117a <lcd_puts>
    414a:	89 e3       	ldi	r24, 0x39	; 57
    414c:	96 e0       	ldi	r25, 0x06	; 6
    414e:	0e 94 28 08 	call	0x1050	; 0x1050 <lcd_puts_p>
}
    4152:	27 96       	adiw	r28, 0x07	; 7
    4154:	0f b6       	in	r0, 0x3f	; 63
    4156:	f8 94       	cli
    4158:	de bf       	out	0x3e, r29	; 62
    415a:	0f be       	out	0x3f, r0	; 63
    415c:	cd bf       	out	0x3d, r28	; 61
    415e:	df 91       	pop	r29
    4160:	cf 91       	pop	r28
    4162:	1f 91       	pop	r17
    4164:	0f 91       	pop	r16
    4166:	08 95       	ret

00004168 <LivingRoomTemp_CallbackRender>:

	GarageSensor_CallbackRender(column);
	return false;
}

void LivingRoomTemp_CallbackRender(uint8_t which){
    4168:	cf 93       	push	r28
    416a:	df 93       	push	r29
    416c:	cd b7       	in	r28, 0x3d	; 61
    416e:	de b7       	in	r29, 0x3e	; 62
    4170:	27 97       	sbiw	r28, 0x07	; 7
    4172:	0f b6       	in	r0, 0x3f	; 63
    4174:	f8 94       	cli
    4176:	de bf       	out	0x3e, r29	; 62
    4178:	0f be       	out	0x3f, r0	; 63
    417a:	cd bf       	out	0x3d, r28	; 61
	lcd_clrscr();
    417c:	0e 94 04 08 	call	0x1008	; 0x1008 <lcd_clrscr>
	lcd_puts_hu(PSTR("Nappali akt hõm"));
    4180:	87 e1       	ldi	r24, 0x17	; 23
    4182:	96 e0       	ldi	r25, 0x06	; 6
    4184:	0e 94 ef 08 	call	0x11de	; 0x11de <lcd_puts_hu>
	lcd_gotoxy(0,1);
    4188:	61 e0       	ldi	r22, 0x01	; 1
    418a:	80 e0       	ldi	r24, 0x00	; 0
    418c:	0e 94 ee 07 	call	0xfdc	; 0xfdc <lcd_gotoxy>
	lcd_puts(LivingRoomTempBuf); lcd_puts_p(PSTR(".")), lcd_puts(LivingRoomTempFracBuf); lcd_puts_p(PSTR(" C"));
    4190:	82 ec       	ldi	r24, 0xC2	; 194
    4192:	97 e0       	ldi	r25, 0x07	; 7
    4194:	0e 94 bd 08 	call	0x117a	; 0x117a <lcd_puts>
    4198:	85 e1       	ldi	r24, 0x15	; 21
    419a:	96 e0       	ldi	r25, 0x06	; 6
    419c:	0e 94 28 08 	call	0x1050	; 0x1050 <lcd_puts_p>
    41a0:	86 e3       	ldi	r24, 0x36	; 54
    41a2:	98 e0       	ldi	r25, 0x08	; 8
    41a4:	0e 94 bd 08 	call	0x117a	; 0x117a <lcd_puts>
    41a8:	82 e1       	ldi	r24, 0x12	; 18
    41aa:	96 e0       	ldi	r25, 0x06	; 6
    41ac:	0e 94 28 08 	call	0x1050	; 0x1050 <lcd_puts_p>

	char buffer[7];
	lcd_gotoxy(0,2);
    41b0:	62 e0       	ldi	r22, 0x02	; 2
    41b2:	80 e0       	ldi	r24, 0x00	; 0
    41b4:	0e 94 ee 07 	call	0xfdc	; 0xfdc <lcd_gotoxy>
    41b8:	4a e0       	ldi	r20, 0x0A	; 10
    41ba:	be 01       	movw	r22, r28
    41bc:	6f 5f       	subi	r22, 0xFF	; 255
    41be:	7f 4f       	sbci	r23, 0xFF	; 255
    41c0:	80 91 38 08 	lds	r24, 0x0838	; 0x800838 <LivingRoomTempMin>
    41c4:	90 91 39 08 	lds	r25, 0x0839	; 0x800839 <LivingRoomTempMin+0x1>
    41c8:	0e 94 89 2b 	call	0x5712	; 0x5712 <__itoa_ncheck>
	itoa(LivingRoomTempMin, buffer, 10);
	lcd_puts(buffer); lcd_puts_p(PSTR("/"));
    41cc:	ce 01       	movw	r24, r28
    41ce:	01 96       	adiw	r24, 0x01	; 1
    41d0:	0e 94 bd 08 	call	0x117a	; 0x117a <lcd_puts>
    41d4:	80 e1       	ldi	r24, 0x10	; 16
    41d6:	96 e0       	ldi	r25, 0x06	; 6
    41d8:	0e 94 28 08 	call	0x1050	; 0x1050 <lcd_puts_p>
    41dc:	4a e0       	ldi	r20, 0x0A	; 10
    41de:	be 01       	movw	r22, r28
    41e0:	6f 5f       	subi	r22, 0xFF	; 255
    41e2:	7f 4f       	sbci	r23, 0xFF	; 255
    41e4:	80 91 a7 08 	lds	r24, 0x08A7	; 0x8008a7 <LivingRoomTempMax>
    41e8:	90 91 a8 08 	lds	r25, 0x08A8	; 0x8008a8 <LivingRoomTempMax+0x1>
    41ec:	0e 94 89 2b 	call	0x5712	; 0x5712 <__itoa_ncheck>
	itoa(LivingRoomTempMax, buffer, 10);
	lcd_puts(buffer); lcd_puts_p(PSTR(" C"));
    41f0:	ce 01       	movw	r24, r28
    41f2:	01 96       	adiw	r24, 0x01	; 1
    41f4:	0e 94 bd 08 	call	0x117a	; 0x117a <lcd_puts>
    41f8:	8d e0       	ldi	r24, 0x0D	; 13
    41fa:	96 e0       	ldi	r25, 0x06	; 6
    41fc:	0e 94 28 08 	call	0x1050	; 0x1050 <lcd_puts_p>
}
    4200:	27 96       	adiw	r28, 0x07	; 7
    4202:	0f b6       	in	r0, 0x3f	; 63
    4204:	f8 94       	cli
    4206:	de bf       	out	0x3e, r29	; 62
    4208:	0f be       	out	0x3f, r0	; 63
    420a:	cd bf       	out	0x3d, r28	; 61
    420c:	df 91       	pop	r29
    420e:	cf 91       	pop	r28
    4210:	08 95       	ret

00004212 <FloorTemp_CallbackRender>:

	LivingRoomSensor_CallbackRender(column);
	return false;
}

void FloorTemp_CallbackRender(uint8_t which){
    4212:	0f 93       	push	r16
    4214:	1f 93       	push	r17
    4216:	cf 93       	push	r28
    4218:	df 93       	push	r29
    421a:	cd b7       	in	r28, 0x3d	; 61
    421c:	de b7       	in	r29, 0x3e	; 62
    421e:	27 97       	sbiw	r28, 0x07	; 7
    4220:	0f b6       	in	r0, 0x3f	; 63
    4222:	f8 94       	cli
    4224:	de bf       	out	0x3e, r29	; 62
    4226:	0f be       	out	0x3f, r0	; 63
    4228:	cd bf       	out	0x3d, r28	; 61
	lcd_clrscr();
    422a:	0e 94 04 08 	call	0x1008	; 0x1008 <lcd_clrscr>
	lcd_puts_hu(PSTR("Padló akt hõm"));
    422e:	8c ee       	ldi	r24, 0xEC	; 236
    4230:	95 e0       	ldi	r25, 0x05	; 5
    4232:	0e 94 ef 08 	call	0x11de	; 0x11de <lcd_puts_hu>
	lcd_gotoxy(0,1);
    4236:	61 e0       	ldi	r22, 0x01	; 1
    4238:	80 e0       	ldi	r24, 0x00	; 0
    423a:	0e 94 ee 07 	call	0xfdc	; 0xfdc <lcd_gotoxy>
	lcd_puts(Floor.ActualTempBuffer); lcd_puts_p(PSTR(".")), lcd_puts(Floor.ActualTempFracBuffer); lcd_puts_p(PSTR(" C"));
    423e:	8d e0       	ldi	r24, 0x0D	; 13
    4240:	98 e0       	ldi	r25, 0x08	; 8
    4242:	0e 94 bd 08 	call	0x117a	; 0x117a <lcd_puts>
    4246:	8a ee       	ldi	r24, 0xEA	; 234
    4248:	95 e0       	ldi	r25, 0x05	; 5
    424a:	0e 94 28 08 	call	0x1050	; 0x1050 <lcd_puts_p>
    424e:	81 e1       	ldi	r24, 0x11	; 17
    4250:	98 e0       	ldi	r25, 0x08	; 8
    4252:	0e 94 bd 08 	call	0x117a	; 0x117a <lcd_puts>
    4256:	87 ee       	ldi	r24, 0xE7	; 231
    4258:	95 e0       	ldi	r25, 0x05	; 5
    425a:	0e 94 28 08 	call	0x1050	; 0x1050 <lcd_puts_p>

	char buffer[7];
	lcd_gotoxy(0,2);
    425e:	62 e0       	ldi	r22, 0x02	; 2
    4260:	80 e0       	ldi	r24, 0x00	; 0
    4262:	0e 94 ee 07 	call	0xfdc	; 0xfdc <lcd_gotoxy>
	itoa(Floor.MeasuredMinimumTemp, buffer, 10);
    4266:	0a e0       	ldi	r16, 0x0A	; 10
    4268:	18 e0       	ldi	r17, 0x08	; 8
    426a:	f8 01       	movw	r30, r16
    426c:	81 81       	ldd	r24, Z+1	; 0x01
    426e:	4a e0       	ldi	r20, 0x0A	; 10
    4270:	be 01       	movw	r22, r28
    4272:	6f 5f       	subi	r22, 0xFF	; 255
    4274:	7f 4f       	sbci	r23, 0xFF	; 255
    4276:	90 e0       	ldi	r25, 0x00	; 0
    4278:	0e 94 89 2b 	call	0x5712	; 0x5712 <__itoa_ncheck>
	lcd_puts(buffer); lcd_puts_p(PSTR("/"));
    427c:	ce 01       	movw	r24, r28
    427e:	01 96       	adiw	r24, 0x01	; 1
    4280:	0e 94 bd 08 	call	0x117a	; 0x117a <lcd_puts>
    4284:	85 ee       	ldi	r24, 0xE5	; 229
    4286:	95 e0       	ldi	r25, 0x05	; 5
    4288:	0e 94 28 08 	call	0x1050	; 0x1050 <lcd_puts_p>
    428c:	f8 01       	movw	r30, r16
    428e:	82 81       	ldd	r24, Z+2	; 0x02
    4290:	4a e0       	ldi	r20, 0x0A	; 10
    4292:	be 01       	movw	r22, r28
    4294:	6f 5f       	subi	r22, 0xFF	; 255
    4296:	7f 4f       	sbci	r23, 0xFF	; 255
    4298:	90 e0       	ldi	r25, 0x00	; 0
    429a:	0e 94 89 2b 	call	0x5712	; 0x5712 <__itoa_ncheck>
	itoa(Floor.MeasuredMaximumTemp, buffer, 10);
	lcd_puts(buffer); lcd_puts_p(PSTR(" C"));
    429e:	ce 01       	movw	r24, r28
    42a0:	01 96       	adiw	r24, 0x01	; 1
    42a2:	0e 94 bd 08 	call	0x117a	; 0x117a <lcd_puts>
    42a6:	82 ee       	ldi	r24, 0xE2	; 226
    42a8:	95 e0       	ldi	r25, 0x05	; 5
    42aa:	0e 94 28 08 	call	0x1050	; 0x1050 <lcd_puts_p>
}
    42ae:	27 96       	adiw	r28, 0x07	; 7
    42b0:	0f b6       	in	r0, 0x3f	; 63
    42b2:	f8 94       	cli
    42b4:	de bf       	out	0x3e, r29	; 62
    42b6:	0f be       	out	0x3f, r0	; 63
    42b8:	cd bf       	out	0x3d, r28	; 61
    42ba:	df 91       	pop	r29
    42bc:	cf 91       	pop	r28
    42be:	1f 91       	pop	r17
    42c0:	0f 91       	pop	r16
    42c2:	08 95       	ret

000042c4 <GasForwardTemp_CallbackRender>:
	FloorSensor_CallbackRender(column);
	return false;
}

void GasForwardTemp_CallbackRender(uint8_t which){
	lcd_clrscr();
    42c4:	0e 94 04 08 	call	0x1008	; 0x1008 <lcd_clrscr>
	lcd_puts_hu(PSTR("Elõre akt hõm"));
    42c8:	83 ec       	ldi	r24, 0xC3	; 195
    42ca:	95 e0       	ldi	r25, 0x05	; 5
    42cc:	0e 94 ef 08 	call	0x11de	; 0x11de <lcd_puts_hu>
	lcd_gotoxy(0,1);
    42d0:	61 e0       	ldi	r22, 0x01	; 1
    42d2:	80 e0       	ldi	r24, 0x00	; 0
    42d4:	0e 94 ee 07 	call	0xfdc	; 0xfdc <lcd_gotoxy>
	lcd_puts(GasForward.ActualTempBuffer); lcd_puts_p(PSTR(".")), lcd_puts(GasForward.ActualTempFracBuffer); lcd_puts_p(PSTR(" C"));
    42d8:	81 e2       	ldi	r24, 0x21	; 33
    42da:	98 e0       	ldi	r25, 0x08	; 8
    42dc:	0e 94 bd 08 	call	0x117a	; 0x117a <lcd_puts>
    42e0:	81 ec       	ldi	r24, 0xC1	; 193
    42e2:	95 e0       	ldi	r25, 0x05	; 5
    42e4:	0e 94 28 08 	call	0x1050	; 0x1050 <lcd_puts_p>
    42e8:	85 e2       	ldi	r24, 0x25	; 37
    42ea:	98 e0       	ldi	r25, 0x08	; 8
    42ec:	0e 94 bd 08 	call	0x117a	; 0x117a <lcd_puts>
    42f0:	8e eb       	ldi	r24, 0xBE	; 190
    42f2:	95 e0       	ldi	r25, 0x05	; 5
    42f4:	0e 94 28 08 	call	0x1050	; 0x1050 <lcd_puts_p>
    42f8:	08 95       	ret

000042fa <GasReturnTemp_CallbackRender>:
	GasForwardSensor_CallbackRender(column);
	return false;
}

void GasReturnTemp_CallbackRender(uint8_t which){
	lcd_clrscr();
    42fa:	0e 94 04 08 	call	0x1008	; 0x1008 <lcd_clrscr>
	lcd_puts_hu(PSTR("Visszatérõ akt hõm"));
    42fe:	8a e9       	ldi	r24, 0x9A	; 154
    4300:	95 e0       	ldi	r25, 0x05	; 5
    4302:	0e 94 ef 08 	call	0x11de	; 0x11de <lcd_puts_hu>
	lcd_gotoxy(0,1);
    4306:	61 e0       	ldi	r22, 0x01	; 1
    4308:	80 e0       	ldi	r24, 0x00	; 0
    430a:	0e 94 ee 07 	call	0xfdc	; 0xfdc <lcd_gotoxy>
	lcd_puts(GasReturn.ActualTempBuffer); lcd_puts_p(PSTR(".")), lcd_puts(GasReturn.ActualTempFracBuffer); lcd_puts_p(PSTR(" C"));
    430e:	8c ea       	ldi	r24, 0xAC	; 172
    4310:	98 e0       	ldi	r25, 0x08	; 8
    4312:	0e 94 bd 08 	call	0x117a	; 0x117a <lcd_puts>
    4316:	88 e9       	ldi	r24, 0x98	; 152
    4318:	95 e0       	ldi	r25, 0x05	; 5
    431a:	0e 94 28 08 	call	0x1050	; 0x1050 <lcd_puts_p>
    431e:	80 eb       	ldi	r24, 0xB0	; 176
    4320:	98 e0       	ldi	r25, 0x08	; 8
    4322:	0e 94 bd 08 	call	0x117a	; 0x117a <lcd_puts>
    4326:	85 e9       	ldi	r24, 0x95	; 149
    4328:	95 e0       	ldi	r25, 0x05	; 5
    432a:	0e 94 28 08 	call	0x1050	; 0x1050 <lcd_puts_p>
    432e:	08 95       	ret

00004330 <ForwardTemp_CallbackRender>:
	GasReturnSensor_CallbackRender(column);
	return false;
}

void ForwardTemp_CallbackRender(uint8_t which){
	lcd_clrscr();
    4330:	0e 94 04 08 	call	0x1008	; 0x1008 <lcd_clrscr>
	lcd_puts_hu(PSTR("Elõre akt hõm"));
    4334:	85 e7       	ldi	r24, 0x75	; 117
    4336:	95 e0       	ldi	r25, 0x05	; 5
    4338:	0e 94 ef 08 	call	0x11de	; 0x11de <lcd_puts_hu>
	lcd_gotoxy(0,1);
    433c:	61 e0       	ldi	r22, 0x01	; 1
    433e:	80 e0       	ldi	r24, 0x00	; 0
    4340:	0e 94 ee 07 	call	0xfdc	; 0xfdc <lcd_gotoxy>
	lcd_puts(Forward.ActualTempBuffer); lcd_puts_p(PSTR(".")), lcd_puts(Forward.ActualTempFracBuffer); lcd_puts_p(PSTR(" C"));
    4344:	8c ee       	ldi	r24, 0xEC	; 236
    4346:	97 e0       	ldi	r25, 0x07	; 7
    4348:	0e 94 bd 08 	call	0x117a	; 0x117a <lcd_puts>
    434c:	83 e7       	ldi	r24, 0x73	; 115
    434e:	95 e0       	ldi	r25, 0x05	; 5
    4350:	0e 94 28 08 	call	0x1050	; 0x1050 <lcd_puts_p>
    4354:	80 ef       	ldi	r24, 0xF0	; 240
    4356:	97 e0       	ldi	r25, 0x07	; 7
    4358:	0e 94 bd 08 	call	0x117a	; 0x117a <lcd_puts>
    435c:	80 e7       	ldi	r24, 0x70	; 112
    435e:	95 e0       	ldi	r25, 0x05	; 5
    4360:	0e 94 28 08 	call	0x1050	; 0x1050 <lcd_puts_p>
    4364:	08 95       	ret

00004366 <ReturnTemp_CallbackRender>:
	ForwardSensor_CallbackRender(column);
	return false;
}

void ReturnTemp_CallbackRender(uint8_t which){
	lcd_clrscr();
    4366:	0e 94 04 08 	call	0x1008	; 0x1008 <lcd_clrscr>
	lcd_puts_hu(PSTR("Visszatérõ akt hõm"));
    436a:	8c e4       	ldi	r24, 0x4C	; 76
    436c:	95 e0       	ldi	r25, 0x05	; 5
    436e:	0e 94 ef 08 	call	0x11de	; 0x11de <lcd_puts_hu>
	lcd_gotoxy(0,1);
    4372:	61 e0       	ldi	r22, 0x01	; 1
    4374:	80 e0       	ldi	r24, 0x00	; 0
    4376:	0e 94 ee 07 	call	0xfdc	; 0xfdc <lcd_gotoxy>
	lcd_puts(Return.ActualTempBuffer); lcd_puts_p(PSTR(".")), lcd_puts(Return.ActualTempFracBuffer); lcd_puts_p(PSTR(" C"));
    437a:	86 ef       	ldi	r24, 0xF6	; 246
    437c:	97 e0       	ldi	r25, 0x07	; 7
    437e:	0e 94 bd 08 	call	0x117a	; 0x117a <lcd_puts>
    4382:	8a e4       	ldi	r24, 0x4A	; 74
    4384:	95 e0       	ldi	r25, 0x05	; 5
    4386:	0e 94 28 08 	call	0x1050	; 0x1050 <lcd_puts_p>
    438a:	8a ef       	ldi	r24, 0xFA	; 250
    438c:	97 e0       	ldi	r25, 0x07	; 7
    438e:	0e 94 bd 08 	call	0x117a	; 0x117a <lcd_puts>
    4392:	87 e4       	ldi	r24, 0x47	; 71
    4394:	95 e0       	ldi	r25, 0x05	; 5
    4396:	0e 94 28 08 	call	0x1050	; 0x1050 <lcd_puts_p>
    439a:	08 95       	ret

0000439c <MixedTemp_CallbackRender>:
	ReturnSensor_CallbackRender(column);
	return false;
}

void MixedTemp_CallbackRender(uint8_t which){
	lcd_clrscr();
    439c:	0e 94 04 08 	call	0x1008	; 0x1008 <lcd_clrscr>
	lcd_puts_hu(PSTR("Kevert akt hõm"));
    43a0:	86 e2       	ldi	r24, 0x26	; 38
    43a2:	95 e0       	ldi	r25, 0x05	; 5
    43a4:	0e 94 ef 08 	call	0x11de	; 0x11de <lcd_puts_hu>
	lcd_gotoxy(0,1);
    43a8:	61 e0       	ldi	r22, 0x01	; 1
    43aa:	80 e0       	ldi	r24, 0x00	; 0
    43ac:	0e 94 ee 07 	call	0xfdc	; 0xfdc <lcd_gotoxy>
	lcd_puts(Mixed.ActualTempBuffer); lcd_puts_p(PSTR(".")), lcd_puts(Mixed.ActualTempFracBuffer); lcd_puts_p(PSTR(" C"));
    43b0:	86 eb       	ldi	r24, 0xB6	; 182
    43b2:	98 e0       	ldi	r25, 0x08	; 8
    43b4:	0e 94 bd 08 	call	0x117a	; 0x117a <lcd_puts>
    43b8:	84 e2       	ldi	r24, 0x24	; 36
    43ba:	95 e0       	ldi	r25, 0x05	; 5
    43bc:	0e 94 28 08 	call	0x1050	; 0x1050 <lcd_puts_p>
    43c0:	8a eb       	ldi	r24, 0xBA	; 186
    43c2:	98 e0       	ldi	r25, 0x08	; 8
    43c4:	0e 94 bd 08 	call	0x117a	; 0x117a <lcd_puts>
    43c8:	81 e2       	ldi	r24, 0x21	; 33
    43ca:	95 e0       	ldi	r25, 0x05	; 5
    43cc:	0e 94 28 08 	call	0x1050	; 0x1050 <lcd_puts_p>
    43d0:	08 95       	ret

000043d2 <ClockMinute_CallbackRender>:

	ClockHour_CallbackRender(column);
	return false;
}

void ClockMinute_CallbackRender(uint8_t which){
    43d2:	cf 93       	push	r28
    43d4:	df 93       	push	r29
    43d6:	00 d0       	rcall	.+0      	; 0x43d8 <ClockMinute_CallbackRender+0x6>
    43d8:	1f 92       	push	r1
    43da:	cd b7       	in	r28, 0x3d	; 61
    43dc:	de b7       	in	r29, 0x3e	; 62
	lcd_clrscr();
    43de:	0e 94 04 08 	call	0x1008	; 0x1008 <lcd_clrscr>
	lcd_puts_p(PSTR("perc"));
    43e2:	8d e9       	ldi	r24, 0x9D	; 157
    43e4:	94 e0       	ldi	r25, 0x04	; 4
    43e6:	0e 94 28 08 	call	0x1050	; 0x1050 <lcd_puts_p>
	lcd_gotoxy(0,1);
    43ea:	61 e0       	ldi	r22, 0x01	; 1
    43ec:	80 e0       	ldi	r24, 0x00	; 0
    43ee:	0e 94 ee 07 	call	0xfdc	; 0xfdc <lcd_gotoxy>
    43f2:	80 91 0a 07 	lds	r24, 0x070A	; 0x80070a <Minute>
    43f6:	4a e0       	ldi	r20, 0x0A	; 10
    43f8:	be 01       	movw	r22, r28
    43fa:	6f 5f       	subi	r22, 0xFF	; 255
    43fc:	7f 4f       	sbci	r23, 0xFF	; 255
    43fe:	90 e0       	ldi	r25, 0x00	; 0
    4400:	0e 94 89 2b 	call	0x5712	; 0x5712 <__itoa_ncheck>
	char buf[3];
	itoa(Minute, buf, 10);
	lcd_puts(buf);
    4404:	ce 01       	movw	r24, r28
    4406:	01 96       	adiw	r24, 0x01	; 1
    4408:	0e 94 bd 08 	call	0x117a	; 0x117a <lcd_puts>
}
    440c:	0f 90       	pop	r0
    440e:	0f 90       	pop	r0
    4410:	0f 90       	pop	r0
    4412:	df 91       	pop	r29
    4414:	cf 91       	pop	r28
    4416:	08 95       	ret

00004418 <ClockMinute_ActionCallback>:

bool ClockMinute_ActionCallback(MENU_BUTTON *button, uint8_t column){
	switch(button->role){
    4418:	fc 01       	movw	r30, r24
    441a:	90 81       	ld	r25, Z
    441c:	91 30       	cpi	r25, 0x01	; 1
    441e:	89 f0       	breq	.+34     	; 0x4442 <ClockMinute_ActionCallback+0x2a>
    4420:	28 f0       	brcs	.+10     	; 0x442c <ClockMinute_ActionCallback+0x14>
    4422:	92 30       	cpi	r25, 0x02	; 2
    4424:	c9 f0       	breq	.+50     	; 0x4458 <ClockMinute_ActionCallback+0x40>
    4426:	93 30       	cpi	r25, 0x03	; 3
    4428:	01 f1       	breq	.+64     	; 0x446a <ClockMinute_ActionCallback+0x52>
    442a:	1a c0       	rjmp	.+52     	; 0x4460 <ClockMinute_ActionCallback+0x48>
		case MENU_UP:
			if (++Minute == 60)
    442c:	80 91 0a 07 	lds	r24, 0x070A	; 0x80070a <Minute>
    4430:	8f 5f       	subi	r24, 0xFF	; 255
    4432:	8c 33       	cpi	r24, 0x3C	; 60
    4434:	19 f0       	breq	.+6      	; 0x443c <ClockMinute_ActionCallback+0x24>
    4436:	80 93 0a 07 	sts	0x070A, r24	; 0x80070a <Minute>
    443a:	12 c0       	rjmp	.+36     	; 0x4460 <ClockMinute_ActionCallback+0x48>
				Minute = 0;
    443c:	10 92 0a 07 	sts	0x070A, r1	; 0x80070a <Minute>
    4440:	0f c0       	rjmp	.+30     	; 0x4460 <ClockMinute_ActionCallback+0x48>
			break;
		case MENU_DOWN:
			if (--Minute == 255)
    4442:	80 91 0a 07 	lds	r24, 0x070A	; 0x80070a <Minute>
    4446:	81 50       	subi	r24, 0x01	; 1
    4448:	18 f0       	brcs	.+6      	; 0x4450 <ClockMinute_ActionCallback+0x38>
    444a:	80 93 0a 07 	sts	0x070A, r24	; 0x80070a <Minute>
    444e:	08 c0       	rjmp	.+16     	; 0x4460 <ClockMinute_ActionCallback+0x48>
				Minute = 59;
    4450:	8b e3       	ldi	r24, 0x3B	; 59
    4452:	80 93 0a 07 	sts	0x070A, r24	; 0x80070a <Minute>
    4456:	04 c0       	rjmp	.+8      	; 0x4460 <ClockMinute_ActionCallback+0x48>
			break;
		case MENU_CONFIRM:
			ClockInitialized = 1;
    4458:	81 e0       	ldi	r24, 0x01	; 1
    445a:	80 93 08 07 	sts	0x0708, r24	; 0x800708 <ClockInitialized>
			return true;
    445e:	08 95       	ret
    4460:	86 2f       	mov	r24, r22
		case MENU_CANCEL:
			return true;
	}

	ClockMinute_CallbackRender(column);
    4462:	0e 94 e9 21 	call	0x43d2	; 0x43d2 <ClockMinute_CallbackRender>
	return false;
    4466:	80 e0       	ldi	r24, 0x00	; 0
    4468:	08 95       	ret
			break;
		case MENU_CONFIRM:
			ClockInitialized = 1;
			return true;
		case MENU_CANCEL:
			return true;
    446a:	81 e0       	ldi	r24, 0x01	; 1
	}

	ClockMinute_CallbackRender(column);
	return false;
}
    446c:	08 95       	ret

0000446e <ComfortMode_CallbackRender>:
};


void ComfortMode_CallbackRender(uint8_t which){
	
	lcd_clrscr();
    446e:	0e 94 04 08 	call	0x1008	; 0x1008 <lcd_clrscr>
	lcd_puts_hu(PSTR("Komfort mód"));
    4472:	88 e4       	ldi	r24, 0x48	; 72
    4474:	94 e0       	ldi	r25, 0x04	; 4
    4476:	0e 94 ef 08 	call	0x11de	; 0x11de <lcd_puts_hu>
	lcd_gotoxy(0,1);
    447a:	61 e0       	ldi	r22, 0x01	; 1
    447c:	80 e0       	ldi	r24, 0x00	; 0
    447e:	0e 94 ee 07 	call	0xfdc	; 0xfdc <lcd_gotoxy>
	if (ComfortMode & (1 << 1))
    4482:	80 91 0f 07 	lds	r24, 0x070F	; 0x80070f <ComfortMode>
    4486:	81 ff       	sbrs	r24, 1
    4488:	05 c0       	rjmp	.+10     	; 0x4494 <ComfortMode_CallbackRender+0x26>
		lcd_puts_p(PSTR("Be"));
    448a:	85 e4       	ldi	r24, 0x45	; 69
    448c:	94 e0       	ldi	r25, 0x04	; 4
    448e:	0e 94 28 08 	call	0x1050	; 0x1050 <lcd_puts_p>
    4492:	08 95       	ret
	else
		lcd_puts_p(PSTR("Ki"));
    4494:	82 e4       	ldi	r24, 0x42	; 66
    4496:	94 e0       	ldi	r25, 0x04	; 4
    4498:	0e 94 28 08 	call	0x1050	; 0x1050 <lcd_puts_p>
    449c:	08 95       	ret

0000449e <DHWTempDesired_ActionCallback>:
	lcd_gotoxy(0,1);
	lcd_puts(buf);
}

bool DHWTempDesired_ActionCallback(MENU_BUTTON *button, uint8_t column){
	switch(button->role){
    449e:	fc 01       	movw	r30, r24
    44a0:	90 81       	ld	r25, Z
    44a2:	91 30       	cpi	r25, 0x01	; 1
    44a4:	71 f0       	breq	.+28     	; 0x44c2 <DHWTempDesired_ActionCallback+0x24>
    44a6:	28 f0       	brcs	.+10     	; 0x44b2 <DHWTempDesired_ActionCallback+0x14>
    44a8:	92 30       	cpi	r25, 0x02	; 2
    44aa:	a9 f0       	breq	.+42     	; 0x44d6 <DHWTempDesired_ActionCallback+0x38>
    44ac:	93 30       	cpi	r25, 0x03	; 3
    44ae:	01 f1       	breq	.+64     	; 0x44f0 <DHWTempDesired_ActionCallback+0x52>
    44b0:	1a c0       	rjmp	.+52     	; 0x44e6 <DHWTempDesired_ActionCallback+0x48>
		case MENU_UP:
			if (DHWTempDesired != 90)
    44b2:	80 91 de 07 	lds	r24, 0x07DE	; 0x8007de <DHWTempDesired>
    44b6:	8a 35       	cpi	r24, 0x5A	; 90
    44b8:	b1 f0       	breq	.+44     	; 0x44e6 <DHWTempDesired_ActionCallback+0x48>
				++DHWTempDesired;
    44ba:	8f 5f       	subi	r24, 0xFF	; 255
    44bc:	80 93 de 07 	sts	0x07DE, r24	; 0x8007de <DHWTempDesired>
    44c0:	12 c0       	rjmp	.+36     	; 0x44e6 <DHWTempDesired_ActionCallback+0x48>
			break;
		case MENU_DOWN:
			if (DHWTempDesired > DHWTempMin)
    44c2:	80 91 de 07 	lds	r24, 0x07DE	; 0x8007de <DHWTempDesired>
    44c6:	90 91 cd 07 	lds	r25, 0x07CD	; 0x8007cd <DHWTempMin>
    44ca:	98 17       	cp	r25, r24
    44cc:	60 f4       	brcc	.+24     	; 0x44e6 <DHWTempDesired_ActionCallback+0x48>
				--DHWTempDesired;
    44ce:	81 50       	subi	r24, 0x01	; 1
    44d0:	80 93 de 07 	sts	0x07DE, r24	; 0x8007de <DHWTempDesired>
    44d4:	08 c0       	rjmp	.+16     	; 0x44e6 <DHWTempDesired_ActionCallback+0x48>
			break;
		case MENU_CONFIRM:
			eeprom_update_byte(&eeDHWTempDesired, DHWTempDesired);
    44d6:	60 91 de 07 	lds	r22, 0x07DE	; 0x8007de <DHWTempDesired>
    44da:	87 e1       	ldi	r24, 0x17	; 23
    44dc:	90 e0       	ldi	r25, 0x00	; 0
    44de:	0e 94 96 2e 	call	0x5d2c	; 0x5d2c <eeprom_update_byte>
			return true;
    44e2:	81 e0       	ldi	r24, 0x01	; 1
    44e4:	08 95       	ret
		case MENU_CANCEL:
			return true;
	}
	DHWTempDesired_CallbackRender(column);
    44e6:	86 2f       	mov	r24, r22
    44e8:	0e 94 b6 17 	call	0x2f6c	; 0x2f6c <DHWTempDesired_CallbackRender>
	return false;
    44ec:	80 e0       	ldi	r24, 0x00	; 0
    44ee:	08 95       	ret
			break;
		case MENU_CONFIRM:
			eeprom_update_byte(&eeDHWTempDesired, DHWTempDesired);
			return true;
		case MENU_CANCEL:
			return true;
    44f0:	81 e0       	ldi	r24, 0x01	; 1
	}
	DHWTempDesired_CallbackRender(column);
	return false;
}
    44f2:	08 95       	ret

000044f4 <DHWTempMin_ActionCallback>:
	lcd_gotoxy(0,1);
	lcd_puts(buf);
}

bool DHWTempMin_ActionCallback(MENU_BUTTON *button, uint8_t column){
	switch(button->role){
    44f4:	fc 01       	movw	r30, r24
    44f6:	90 81       	ld	r25, Z
    44f8:	91 30       	cpi	r25, 0x01	; 1
    44fa:	81 f0       	breq	.+32     	; 0x451c <DHWTempMin_ActionCallback+0x28>
    44fc:	28 f0       	brcs	.+10     	; 0x4508 <DHWTempMin_ActionCallback+0x14>
    44fe:	92 30       	cpi	r25, 0x02	; 2
    4500:	a9 f0       	breq	.+42     	; 0x452c <DHWTempMin_ActionCallback+0x38>
    4502:	93 30       	cpi	r25, 0x03	; 3
    4504:	01 f1       	breq	.+64     	; 0x4546 <DHWTempMin_ActionCallback+0x52>
    4506:	1a c0       	rjmp	.+52     	; 0x453c <DHWTempMin_ActionCallback+0x48>
		case MENU_UP:
			if (DHWTempMin < DHWTempDesired)
    4508:	80 91 cd 07 	lds	r24, 0x07CD	; 0x8007cd <DHWTempMin>
    450c:	90 91 de 07 	lds	r25, 0x07DE	; 0x8007de <DHWTempDesired>
    4510:	89 17       	cp	r24, r25
    4512:	a0 f4       	brcc	.+40     	; 0x453c <DHWTempMin_ActionCallback+0x48>
				++DHWTempMin;
    4514:	8f 5f       	subi	r24, 0xFF	; 255
    4516:	80 93 cd 07 	sts	0x07CD, r24	; 0x8007cd <DHWTempMin>
    451a:	10 c0       	rjmp	.+32     	; 0x453c <DHWTempMin_ActionCallback+0x48>
			break;
		case MENU_DOWN:
			if (DHWTempMin > 5)
    451c:	80 91 cd 07 	lds	r24, 0x07CD	; 0x8007cd <DHWTempMin>
    4520:	86 30       	cpi	r24, 0x06	; 6
    4522:	60 f0       	brcs	.+24     	; 0x453c <DHWTempMin_ActionCallback+0x48>
				--DHWTempMin;
    4524:	81 50       	subi	r24, 0x01	; 1
    4526:	80 93 cd 07 	sts	0x07CD, r24	; 0x8007cd <DHWTempMin>
    452a:	08 c0       	rjmp	.+16     	; 0x453c <DHWTempMin_ActionCallback+0x48>
			break;
		case MENU_CONFIRM:
			eeprom_update_byte(&eeDHWTempMin, DHWTempMin);
    452c:	60 91 cd 07 	lds	r22, 0x07CD	; 0x8007cd <DHWTempMin>
    4530:	86 e1       	ldi	r24, 0x16	; 22
    4532:	90 e0       	ldi	r25, 0x00	; 0
    4534:	0e 94 96 2e 	call	0x5d2c	; 0x5d2c <eeprom_update_byte>
			return true;
    4538:	81 e0       	ldi	r24, 0x01	; 1
    453a:	08 95       	ret
		case MENU_CANCEL:
			return true;
	}

	DHWTempMin_CallbackRender(column);
    453c:	86 2f       	mov	r24, r22
    453e:	0e 94 da 17 	call	0x2fb4	; 0x2fb4 <DHWTempMin_CallbackRender>
	return false;
    4542:	80 e0       	ldi	r24, 0x00	; 0
    4544:	08 95       	ret
			break;
		case MENU_CONFIRM:
			eeprom_update_byte(&eeDHWTempMin, DHWTempMin);
			return true;
		case MENU_CANCEL:
			return true;
    4546:	81 e0       	ldi	r24, 0x01	; 1
	}

	DHWTempMin_CallbackRender(column);
	return false;
}
    4548:	08 95       	ret

0000454a <DHWSensor_ActionCallback>:
	itoa(DHW.SensorID, buf, 10);
	lcd_puts(buf);
}

bool DHWSensor_ActionCallback(MENU_BUTTON *button, uint8_t column){
	switch(button->role){
    454a:	fc 01       	movw	r30, r24
    454c:	90 81       	ld	r25, Z
    454e:	91 30       	cpi	r25, 0x01	; 1
    4550:	91 f0       	breq	.+36     	; 0x4576 <DHWSensor_ActionCallback+0x2c>
    4552:	28 f0       	brcs	.+10     	; 0x455e <DHWSensor_ActionCallback+0x14>
    4554:	92 30       	cpi	r25, 0x02	; 2
    4556:	e1 f0       	breq	.+56     	; 0x4590 <DHWSensor_ActionCallback+0x46>
    4558:	93 30       	cpi	r25, 0x03	; 3
    455a:	39 f1       	breq	.+78     	; 0x45aa <DHWSensor_ActionCallback+0x60>
    455c:	21 c0       	rjmp	.+66     	; 0x45a0 <DHWSensor_ActionCallback+0x56>
		case MENU_UP:
			DHW.SensorID++;
    455e:	e4 e1       	ldi	r30, 0x14	; 20
    4560:	f8 e0       	ldi	r31, 0x08	; 8
    4562:	81 85       	ldd	r24, Z+9	; 0x09
    4564:	8f 5f       	subi	r24, 0xFF	; 255
    4566:	81 87       	std	Z+9, r24	; 0x09
			if (DHW.SensorID == nSensors)
    4568:	90 91 cc 07 	lds	r25, 0x07CC	; 0x8007cc <nSensors>
    456c:	89 13       	cpse	r24, r25
    456e:	18 c0       	rjmp	.+48     	; 0x45a0 <DHWSensor_ActionCallback+0x56>
				DHW.SensorID = 0;
    4570:	10 92 1d 08 	sts	0x081D, r1	; 0x80081d <DHW+0x9>
    4574:	15 c0       	rjmp	.+42     	; 0x45a0 <DHWSensor_ActionCallback+0x56>
			break;
		case MENU_DOWN:
			DHW.SensorID--;
    4576:	e4 e1       	ldi	r30, 0x14	; 20
    4578:	f8 e0       	ldi	r31, 0x08	; 8
    457a:	81 85       	ldd	r24, Z+9	; 0x09
    457c:	81 50       	subi	r24, 0x01	; 1
    457e:	81 87       	std	Z+9, r24	; 0x09
			if (DHW.SensorID == 255)
    4580:	8f 3f       	cpi	r24, 0xFF	; 255
    4582:	71 f4       	brne	.+28     	; 0x45a0 <DHWSensor_ActionCallback+0x56>
				DHW.SensorID = nSensors - 1;
    4584:	80 91 cc 07 	lds	r24, 0x07CC	; 0x8007cc <nSensors>
    4588:	81 50       	subi	r24, 0x01	; 1
    458a:	80 93 1d 08 	sts	0x081D, r24	; 0x80081d <DHW+0x9>
    458e:	08 c0       	rjmp	.+16     	; 0x45a0 <DHWSensor_ActionCallback+0x56>
			break;
		case MENU_CONFIRM:
			eeprom_update_byte(&eeDHWSensorID, DHW.SensorID);
    4590:	60 91 1d 08 	lds	r22, 0x081D	; 0x80081d <DHW+0x9>
    4594:	8a e0       	ldi	r24, 0x0A	; 10
    4596:	90 e0       	ldi	r25, 0x00	; 0
    4598:	0e 94 96 2e 	call	0x5d2c	; 0x5d2c <eeprom_update_byte>
			return true;
    459c:	81 e0       	ldi	r24, 0x01	; 1
    459e:	08 95       	ret
		case MENU_CANCEL:
			return true;
	}

	DHWSensor_CallbackRender(column);
    45a0:	86 2f       	mov	r24, r22
    45a2:	0e 94 fe 17 	call	0x2ffc	; 0x2ffc <DHWSensor_CallbackRender>
	return false;
    45a6:	80 e0       	ldi	r24, 0x00	; 0
    45a8:	08 95       	ret
			break;
		case MENU_CONFIRM:
			eeprom_update_byte(&eeDHWSensorID, DHW.SensorID);
			return true;
		case MENU_CANCEL:
			return true;
    45aa:	81 e0       	ldi	r24, 0x01	; 1
	}

	DHWSensor_CallbackRender(column);
	return false;
}
    45ac:	08 95       	ret

000045ae <ForwardHeatTemp_ActionCallback>:
	lcd_gotoxy(0,1);
	lcd_puts(buf);
}

bool ForwardHeatTemp_ActionCallback(MENU_BUTTON *button, uint8_t column){
	switch(button->role){
    45ae:	fc 01       	movw	r30, r24
    45b0:	90 81       	ld	r25, Z
    45b2:	91 30       	cpi	r25, 0x01	; 1
    45b4:	71 f0       	breq	.+28     	; 0x45d2 <ForwardHeatTemp_ActionCallback+0x24>
    45b6:	28 f0       	brcs	.+10     	; 0x45c2 <ForwardHeatTemp_ActionCallback+0x14>
    45b8:	92 30       	cpi	r25, 0x02	; 2
    45ba:	99 f0       	breq	.+38     	; 0x45e2 <ForwardHeatTemp_ActionCallback+0x34>
    45bc:	93 30       	cpi	r25, 0x03	; 3
    45be:	f1 f0       	breq	.+60     	; 0x45fc <ForwardHeatTemp_ActionCallback+0x4e>
    45c0:	18 c0       	rjmp	.+48     	; 0x45f2 <ForwardHeatTemp_ActionCallback+0x44>
		case MENU_UP:
			if (ForwardHeatTemp != 90)
    45c2:	80 91 09 01 	lds	r24, 0x0109	; 0x800109 <ForwardHeatTemp>
    45c6:	8a 35       	cpi	r24, 0x5A	; 90
    45c8:	a1 f0       	breq	.+40     	; 0x45f2 <ForwardHeatTemp_ActionCallback+0x44>
				++ForwardHeatTemp;
    45ca:	8f 5f       	subi	r24, 0xFF	; 255
    45cc:	80 93 09 01 	sts	0x0109, r24	; 0x800109 <ForwardHeatTemp>
    45d0:	10 c0       	rjmp	.+32     	; 0x45f2 <ForwardHeatTemp_ActionCallback+0x44>
			break;
		case MENU_DOWN:
			if (ForwardHeatTemp > 20)
    45d2:	80 91 09 01 	lds	r24, 0x0109	; 0x800109 <ForwardHeatTemp>
    45d6:	85 31       	cpi	r24, 0x15	; 21
    45d8:	60 f0       	brcs	.+24     	; 0x45f2 <ForwardHeatTemp_ActionCallback+0x44>
				--ForwardHeatTemp;
    45da:	81 50       	subi	r24, 0x01	; 1
    45dc:	80 93 09 01 	sts	0x0109, r24	; 0x800109 <ForwardHeatTemp>
    45e0:	08 c0       	rjmp	.+16     	; 0x45f2 <ForwardHeatTemp_ActionCallback+0x44>
			break;
		case MENU_CONFIRM:
			eeprom_update_byte(&eeForwardHeatTemp, ForwardHeatTemp);
    45e2:	60 91 09 01 	lds	r22, 0x0109	; 0x800109 <ForwardHeatTemp>
    45e6:	81 e1       	ldi	r24, 0x11	; 17
    45e8:	90 e0       	ldi	r25, 0x00	; 0
    45ea:	0e 94 96 2e 	call	0x5d2c	; 0x5d2c <eeprom_update_byte>
			return true;
    45ee:	81 e0       	ldi	r24, 0x01	; 1
    45f0:	08 95       	ret
		case MENU_CANCEL:
			return true;
	}

	ForwardHeatTemp_CallbackRender(column);
    45f2:	86 2f       	mov	r24, r22
    45f4:	0e 94 70 18 	call	0x30e0	; 0x30e0 <ForwardHeatTemp_CallbackRender>
	return false;
    45f8:	80 e0       	ldi	r24, 0x00	; 0
    45fa:	08 95       	ret
			break;
		case MENU_CONFIRM:
			eeprom_update_byte(&eeForwardHeatTemp, ForwardHeatTemp);
			return true;
		case MENU_CANCEL:
			return true;
    45fc:	81 e0       	ldi	r24, 0x01	; 1
	}

	ForwardHeatTemp_CallbackRender(column);
	return false;
}
    45fe:	08 95       	ret

00004600 <BufferMaxTemp_ActionCallback>:
	lcd_gotoxy(0,1);
	lcd_puts(buf);
}

bool BufferMaxTemp_ActionCallback(MENU_BUTTON *button, uint8_t column){
	switch(button->role){
    4600:	fc 01       	movw	r30, r24
    4602:	90 81       	ld	r25, Z
    4604:	91 30       	cpi	r25, 0x01	; 1
    4606:	71 f0       	breq	.+28     	; 0x4624 <BufferMaxTemp_ActionCallback+0x24>
    4608:	28 f0       	brcs	.+10     	; 0x4614 <BufferMaxTemp_ActionCallback+0x14>
    460a:	92 30       	cpi	r25, 0x02	; 2
    460c:	99 f0       	breq	.+38     	; 0x4634 <BufferMaxTemp_ActionCallback+0x34>
    460e:	93 30       	cpi	r25, 0x03	; 3
    4610:	f1 f0       	breq	.+60     	; 0x464e <BufferMaxTemp_ActionCallback+0x4e>
    4612:	18 c0       	rjmp	.+48     	; 0x4644 <BufferMaxTemp_ActionCallback+0x44>
		case MENU_UP:
			if (BufferMaxTemp != 99)
    4614:	80 91 08 01 	lds	r24, 0x0108	; 0x800108 <BufferMaxTemp>
    4618:	83 36       	cpi	r24, 0x63	; 99
    461a:	a1 f0       	breq	.+40     	; 0x4644 <BufferMaxTemp_ActionCallback+0x44>
				++BufferMaxTemp;
    461c:	8f 5f       	subi	r24, 0xFF	; 255
    461e:	80 93 08 01 	sts	0x0108, r24	; 0x800108 <BufferMaxTemp>
    4622:	10 c0       	rjmp	.+32     	; 0x4644 <BufferMaxTemp_ActionCallback+0x44>
			break;
		case MENU_DOWN:
			if (BufferMaxTemp > 60)
    4624:	80 91 08 01 	lds	r24, 0x0108	; 0x800108 <BufferMaxTemp>
    4628:	8d 33       	cpi	r24, 0x3D	; 61
    462a:	60 f0       	brcs	.+24     	; 0x4644 <BufferMaxTemp_ActionCallback+0x44>
				--BufferMaxTemp;
    462c:	81 50       	subi	r24, 0x01	; 1
    462e:	80 93 08 01 	sts	0x0108, r24	; 0x800108 <BufferMaxTemp>
    4632:	08 c0       	rjmp	.+16     	; 0x4644 <BufferMaxTemp_ActionCallback+0x44>
			break;
		case MENU_CONFIRM:
			eeprom_update_byte(&eeBufferMaxTemp, BufferMaxTemp);
    4634:	60 91 08 01 	lds	r22, 0x0108	; 0x800108 <BufferMaxTemp>
    4638:	80 e1       	ldi	r24, 0x10	; 16
    463a:	90 e0       	ldi	r25, 0x00	; 0
    463c:	0e 94 96 2e 	call	0x5d2c	; 0x5d2c <eeprom_update_byte>
			return true;
    4640:	81 e0       	ldi	r24, 0x01	; 1
    4642:	08 95       	ret
		case MENU_CANCEL:
			return true;
	}

	ForwardHeatTemp_CallbackRender(column);
    4644:	86 2f       	mov	r24, r22
    4646:	0e 94 70 18 	call	0x30e0	; 0x30e0 <ForwardHeatTemp_CallbackRender>
	return false;
    464a:	80 e0       	ldi	r24, 0x00	; 0
    464c:	08 95       	ret
			break;
		case MENU_CONFIRM:
			eeprom_update_byte(&eeBufferMaxTemp, BufferMaxTemp);
			return true;
		case MENU_CANCEL:
			return true;
    464e:	81 e0       	ldi	r24, 0x01	; 1
	}

	ForwardHeatTemp_CallbackRender(column);
	return false;
}
    4650:	08 95       	ret

00004652 <BufferSensor_ActionCallback>:
	itoa(Buffer.SensorID, buf, 10);
	lcd_puts(buf);
}

bool BufferSensor_ActionCallback(MENU_BUTTON *button, uint8_t column){
	switch(button->role){
    4652:	fc 01       	movw	r30, r24
    4654:	90 81       	ld	r25, Z
    4656:	91 30       	cpi	r25, 0x01	; 1
    4658:	91 f0       	breq	.+36     	; 0x467e <BufferSensor_ActionCallback+0x2c>
    465a:	28 f0       	brcs	.+10     	; 0x4666 <BufferSensor_ActionCallback+0x14>
    465c:	92 30       	cpi	r25, 0x02	; 2
    465e:	e1 f0       	breq	.+56     	; 0x4698 <BufferSensor_ActionCallback+0x46>
    4660:	93 30       	cpi	r25, 0x03	; 3
    4662:	39 f1       	breq	.+78     	; 0x46b2 <BufferSensor_ActionCallback+0x60>
    4664:	21 c0       	rjmp	.+66     	; 0x46a8 <BufferSensor_ActionCallback+0x56>
		case MENU_UP:
			Buffer.SensorID++;
    4666:	ed e3       	ldi	r30, 0x3D	; 61
    4668:	f8 e0       	ldi	r31, 0x08	; 8
    466a:	81 85       	ldd	r24, Z+9	; 0x09
    466c:	8f 5f       	subi	r24, 0xFF	; 255
    466e:	81 87       	std	Z+9, r24	; 0x09
			if (Buffer.SensorID == nSensors)
    4670:	90 91 cc 07 	lds	r25, 0x07CC	; 0x8007cc <nSensors>
    4674:	89 13       	cpse	r24, r25
    4676:	18 c0       	rjmp	.+48     	; 0x46a8 <BufferSensor_ActionCallback+0x56>
				Buffer.SensorID = 0;
    4678:	10 92 46 08 	sts	0x0846, r1	; 0x800846 <Buffer+0x9>
    467c:	15 c0       	rjmp	.+42     	; 0x46a8 <BufferSensor_ActionCallback+0x56>
			break;
		case MENU_DOWN:
			Buffer.SensorID--;
    467e:	ed e3       	ldi	r30, 0x3D	; 61
    4680:	f8 e0       	ldi	r31, 0x08	; 8
    4682:	81 85       	ldd	r24, Z+9	; 0x09
    4684:	81 50       	subi	r24, 0x01	; 1
    4686:	81 87       	std	Z+9, r24	; 0x09
			if (Buffer.SensorID == 255)
    4688:	8f 3f       	cpi	r24, 0xFF	; 255
    468a:	71 f4       	brne	.+28     	; 0x46a8 <BufferSensor_ActionCallback+0x56>
				Buffer.SensorID = nSensors - 1;
    468c:	80 91 cc 07 	lds	r24, 0x07CC	; 0x8007cc <nSensors>
    4690:	81 50       	subi	r24, 0x01	; 1
    4692:	80 93 46 08 	sts	0x0846, r24	; 0x800846 <Buffer+0x9>
    4696:	08 c0       	rjmp	.+16     	; 0x46a8 <BufferSensor_ActionCallback+0x56>
			break;
		case MENU_CONFIRM:
			eeprom_update_byte(&eeBufferSensorID, Buffer.SensorID);
    4698:	60 91 46 08 	lds	r22, 0x0846	; 0x800846 <Buffer+0x9>
    469c:	89 e0       	ldi	r24, 0x09	; 9
    469e:	90 e0       	ldi	r25, 0x00	; 0
    46a0:	0e 94 96 2e 	call	0x5d2c	; 0x5d2c <eeprom_update_byte>
			return true;
    46a4:	81 e0       	ldi	r24, 0x01	; 1
    46a6:	08 95       	ret
		case MENU_CANCEL:
			return true;
	}

	BufferSensor_CallbackRender(column);
    46a8:	86 2f       	mov	r24, r22
    46aa:	0e 94 b8 18 	call	0x3170	; 0x3170 <BufferSensor_CallbackRender>
	return false;
    46ae:	80 e0       	ldi	r24, 0x00	; 0
    46b0:	08 95       	ret
			break;
		case MENU_CONFIRM:
			eeprom_update_byte(&eeBufferSensorID, Buffer.SensorID);
			return true;
		case MENU_CANCEL:
			return true;
    46b2:	81 e0       	ldi	r24, 0x01	; 1
	}

	BufferSensor_CallbackRender(column);
	return false;
}
    46b4:	08 95       	ret

000046b6 <EngineeringTempMin_ActionCallback>:
	lcd_gotoxy(0,1);
	lcd_puts(buf);
}

bool EngineeringTempMin_ActionCallback(MENU_BUTTON *button, uint8_t column){
	switch(button->role){
    46b6:	fc 01       	movw	r30, r24
    46b8:	90 81       	ld	r25, Z
    46ba:	91 30       	cpi	r25, 0x01	; 1
    46bc:	81 f0       	breq	.+32     	; 0x46de <EngineeringTempMin_ActionCallback+0x28>
    46be:	28 f0       	brcs	.+10     	; 0x46ca <EngineeringTempMin_ActionCallback+0x14>
    46c0:	92 30       	cpi	r25, 0x02	; 2
    46c2:	a9 f0       	breq	.+42     	; 0x46ee <EngineeringTempMin_ActionCallback+0x38>
    46c4:	93 30       	cpi	r25, 0x03	; 3
    46c6:	01 f1       	breq	.+64     	; 0x4708 <EngineeringTempMin_ActionCallback+0x52>
    46c8:	1a c0       	rjmp	.+52     	; 0x46fe <EngineeringTempMin_ActionCallback+0x48>
		case MENU_UP:
			if (EngineeringTempMin < EngineeringTempDesired)
    46ca:	80 91 3a 08 	lds	r24, 0x083A	; 0x80083a <EngineeringTempMin>
    46ce:	90 91 c1 07 	lds	r25, 0x07C1	; 0x8007c1 <EngineeringTempDesired>
    46d2:	89 17       	cp	r24, r25
    46d4:	a0 f4       	brcc	.+40     	; 0x46fe <EngineeringTempMin_ActionCallback+0x48>
				++EngineeringTempMin;
    46d6:	8f 5f       	subi	r24, 0xFF	; 255
    46d8:	80 93 3a 08 	sts	0x083A, r24	; 0x80083a <EngineeringTempMin>
    46dc:	10 c0       	rjmp	.+32     	; 0x46fe <EngineeringTempMin_ActionCallback+0x48>
			break;
		case MENU_DOWN:
			if (EngineeringTempMin > 5)
    46de:	80 91 3a 08 	lds	r24, 0x083A	; 0x80083a <EngineeringTempMin>
    46e2:	86 30       	cpi	r24, 0x06	; 6
    46e4:	60 f0       	brcs	.+24     	; 0x46fe <EngineeringTempMin_ActionCallback+0x48>
				--EngineeringTempMin;
    46e6:	81 50       	subi	r24, 0x01	; 1
    46e8:	80 93 3a 08 	sts	0x083A, r24	; 0x80083a <EngineeringTempMin>
    46ec:	08 c0       	rjmp	.+16     	; 0x46fe <EngineeringTempMin_ActionCallback+0x48>
			break;
		case MENU_CONFIRM:
			eeprom_update_byte(&eeEngineeringTempMin, EngineeringTempMin);
    46ee:	60 91 3a 08 	lds	r22, 0x083A	; 0x80083a <EngineeringTempMin>
    46f2:	8d e0       	ldi	r24, 0x0D	; 13
    46f4:	90 e0       	ldi	r25, 0x00	; 0
    46f6:	0e 94 96 2e 	call	0x5d2c	; 0x5d2c <eeprom_update_byte>
			return true;
    46fa:	81 e0       	ldi	r24, 0x01	; 1
    46fc:	08 95       	ret
		case MENU_CANCEL:
			return true;
	}

	EngineeringTempMin_CallbackRender(column);
    46fe:	86 2f       	mov	r24, r22
    4700:	0e 94 dc 18 	call	0x31b8	; 0x31b8 <EngineeringTempMin_CallbackRender>
	return false;
    4704:	80 e0       	ldi	r24, 0x00	; 0
    4706:	08 95       	ret
			break;
		case MENU_CONFIRM:
			eeprom_update_byte(&eeEngineeringTempMin, EngineeringTempMin);
			return true;
		case MENU_CANCEL:
			return true;
    4708:	81 e0       	ldi	r24, 0x01	; 1
	}

	EngineeringTempMin_CallbackRender(column);
	return false;
}
    470a:	08 95       	ret

0000470c <EngineeringTempDesired_ActionCallback>:
	lcd_gotoxy(0,1);
	lcd_puts(buf);
}

bool EngineeringTempDesired_ActionCallback(MENU_BUTTON *button, uint8_t column){
	switch(button->role){
    470c:	fc 01       	movw	r30, r24
    470e:	90 81       	ld	r25, Z
    4710:	91 30       	cpi	r25, 0x01	; 1
    4712:	71 f0       	breq	.+28     	; 0x4730 <EngineeringTempDesired_ActionCallback+0x24>
    4714:	28 f0       	brcs	.+10     	; 0x4720 <EngineeringTempDesired_ActionCallback+0x14>
    4716:	92 30       	cpi	r25, 0x02	; 2
    4718:	a9 f0       	breq	.+42     	; 0x4744 <EngineeringTempDesired_ActionCallback+0x38>
    471a:	93 30       	cpi	r25, 0x03	; 3
    471c:	01 f1       	breq	.+64     	; 0x475e <EngineeringTempDesired_ActionCallback+0x52>
    471e:	1a c0       	rjmp	.+52     	; 0x4754 <EngineeringTempDesired_ActionCallback+0x48>
		case MENU_UP:
			if (EngineeringTempDesired < 35)
    4720:	80 91 c1 07 	lds	r24, 0x07C1	; 0x8007c1 <EngineeringTempDesired>
    4724:	83 32       	cpi	r24, 0x23	; 35
    4726:	b0 f4       	brcc	.+44     	; 0x4754 <EngineeringTempDesired_ActionCallback+0x48>
				++EngineeringTempDesired;
    4728:	8f 5f       	subi	r24, 0xFF	; 255
    472a:	80 93 c1 07 	sts	0x07C1, r24	; 0x8007c1 <EngineeringTempDesired>
    472e:	12 c0       	rjmp	.+36     	; 0x4754 <EngineeringTempDesired_ActionCallback+0x48>
			break;
		case MENU_DOWN:
			if (EngineeringTempDesired > EngineeringTempMin)
    4730:	80 91 c1 07 	lds	r24, 0x07C1	; 0x8007c1 <EngineeringTempDesired>
    4734:	90 91 3a 08 	lds	r25, 0x083A	; 0x80083a <EngineeringTempMin>
    4738:	98 17       	cp	r25, r24
    473a:	60 f4       	brcc	.+24     	; 0x4754 <EngineeringTempDesired_ActionCallback+0x48>
				--EngineeringTempDesired;
    473c:	81 50       	subi	r24, 0x01	; 1
    473e:	80 93 c1 07 	sts	0x07C1, r24	; 0x8007c1 <EngineeringTempDesired>
    4742:	08 c0       	rjmp	.+16     	; 0x4754 <EngineeringTempDesired_ActionCallback+0x48>
			break;
		case MENU_CONFIRM:
			eeprom_update_byte(&eeEngineeringTempDesired, EngineeringTempDesired);
    4744:	60 91 c1 07 	lds	r22, 0x07C1	; 0x8007c1 <EngineeringTempDesired>
    4748:	8e e0       	ldi	r24, 0x0E	; 14
    474a:	90 e0       	ldi	r25, 0x00	; 0
    474c:	0e 94 96 2e 	call	0x5d2c	; 0x5d2c <eeprom_update_byte>
			return true;
    4750:	81 e0       	ldi	r24, 0x01	; 1
    4752:	08 95       	ret
		case MENU_CANCEL:
			return true;
	}
	EngineeringTempDesired_CallbackRender(column);
    4754:	86 2f       	mov	r24, r22
    4756:	0e 94 00 19 	call	0x3200	; 0x3200 <EngineeringTempDesired_CallbackRender>
	return false;
    475a:	80 e0       	ldi	r24, 0x00	; 0
    475c:	08 95       	ret
			break;
		case MENU_CONFIRM:
			eeprom_update_byte(&eeEngineeringTempDesired, EngineeringTempDesired);
			return true;
		case MENU_CANCEL:
			return true;
    475e:	81 e0       	ldi	r24, 0x01	; 1
	}
	EngineeringTempDesired_CallbackRender(column);
	return false;
}
    4760:	08 95       	ret

00004762 <EngineeringSensor_ActionCallback>:
	itoa(Engineering.SensorID, buf, 10);
	lcd_puts(buf);
}

bool EngineeringSensor_ActionCallback(MENU_BUTTON *button, uint8_t column){
	switch(button->role){
    4762:	fc 01       	movw	r30, r24
    4764:	90 81       	ld	r25, Z
    4766:	91 30       	cpi	r25, 0x01	; 1
    4768:	91 f0       	breq	.+36     	; 0x478e <EngineeringSensor_ActionCallback+0x2c>
    476a:	28 f0       	brcs	.+10     	; 0x4776 <EngineeringSensor_ActionCallback+0x14>
    476c:	92 30       	cpi	r25, 0x02	; 2
    476e:	e1 f0       	breq	.+56     	; 0x47a8 <EngineeringSensor_ActionCallback+0x46>
    4770:	93 30       	cpi	r25, 0x03	; 3
    4772:	39 f1       	breq	.+78     	; 0x47c2 <EngineeringSensor_ActionCallback+0x60>
    4774:	21 c0       	rjmp	.+66     	; 0x47b8 <EngineeringSensor_ActionCallback+0x56>
		case MENU_UP:
			Engineering.SensorID++;
    4776:	ef ed       	ldi	r30, 0xDF	; 223
    4778:	f7 e0       	ldi	r31, 0x07	; 7
    477a:	81 85       	ldd	r24, Z+9	; 0x09
    477c:	8f 5f       	subi	r24, 0xFF	; 255
    477e:	81 87       	std	Z+9, r24	; 0x09
			if (Engineering.SensorID == nSensors)
    4780:	90 91 cc 07 	lds	r25, 0x07CC	; 0x8007cc <nSensors>
    4784:	89 13       	cpse	r24, r25
    4786:	18 c0       	rjmp	.+48     	; 0x47b8 <EngineeringSensor_ActionCallback+0x56>
				Engineering.SensorID = 0;
    4788:	10 92 e8 07 	sts	0x07E8, r1	; 0x8007e8 <Engineering+0x9>
    478c:	15 c0       	rjmp	.+42     	; 0x47b8 <EngineeringSensor_ActionCallback+0x56>
			break;
		case MENU_DOWN:
			Engineering.SensorID--;
    478e:	ef ed       	ldi	r30, 0xDF	; 223
    4790:	f7 e0       	ldi	r31, 0x07	; 7
    4792:	81 85       	ldd	r24, Z+9	; 0x09
    4794:	81 50       	subi	r24, 0x01	; 1
    4796:	81 87       	std	Z+9, r24	; 0x09
			if (Engineering.SensorID == 255)
    4798:	8f 3f       	cpi	r24, 0xFF	; 255
    479a:	71 f4       	brne	.+28     	; 0x47b8 <EngineeringSensor_ActionCallback+0x56>
				Engineering.SensorID = nSensors - 1;
    479c:	80 91 cc 07 	lds	r24, 0x07CC	; 0x8007cc <nSensors>
    47a0:	81 50       	subi	r24, 0x01	; 1
    47a2:	80 93 e8 07 	sts	0x07E8, r24	; 0x8007e8 <Engineering+0x9>
    47a6:	08 c0       	rjmp	.+16     	; 0x47b8 <EngineeringSensor_ActionCallback+0x56>
			break;
		case MENU_CONFIRM:
			eeprom_update_byte(&eeEngineeringSensorID, Engineering.SensorID);
    47a8:	60 91 e8 07 	lds	r22, 0x07E8	; 0x8007e8 <Engineering+0x9>
    47ac:	87 e0       	ldi	r24, 0x07	; 7
    47ae:	90 e0       	ldi	r25, 0x00	; 0
    47b0:	0e 94 96 2e 	call	0x5d2c	; 0x5d2c <eeprom_update_byte>
			return true;
    47b4:	81 e0       	ldi	r24, 0x01	; 1
    47b6:	08 95       	ret
		case MENU_CANCEL:
			return true;
	}

	EngineeringSensor_CallbackRender(column);
    47b8:	86 2f       	mov	r24, r22
    47ba:	0e 94 2a 19 	call	0x3254	; 0x3254 <EngineeringSensor_CallbackRender>
	return false;
    47be:	80 e0       	ldi	r24, 0x00	; 0
    47c0:	08 95       	ret
			break;
		case MENU_CONFIRM:
			eeprom_update_byte(&eeEngineeringSensorID, Engineering.SensorID);
			return true;
		case MENU_CANCEL:
			return true;
    47c2:	81 e0       	ldi	r24, 0x01	; 1
	}

	EngineeringSensor_CallbackRender(column);
	return false;
}
    47c4:	08 95       	ret

000047c6 <GarageSensor_ActionCallback>:
	itoa(Garage.SensorID, buf, 10);
	lcd_puts(buf);
}

bool GarageSensor_ActionCallback(MENU_BUTTON *button, uint8_t column){
	switch(button->role){
    47c6:	fc 01       	movw	r30, r24
    47c8:	90 81       	ld	r25, Z
    47ca:	91 30       	cpi	r25, 0x01	; 1
    47cc:	91 f0       	breq	.+36     	; 0x47f2 <GarageSensor_ActionCallback+0x2c>
    47ce:	28 f0       	brcs	.+10     	; 0x47da <GarageSensor_ActionCallback+0x14>
    47d0:	92 30       	cpi	r25, 0x02	; 2
    47d2:	e1 f0       	breq	.+56     	; 0x480c <GarageSensor_ActionCallback+0x46>
    47d4:	93 30       	cpi	r25, 0x03	; 3
    47d6:	39 f1       	breq	.+78     	; 0x4826 <GarageSensor_ActionCallback+0x60>
    47d8:	21 c0       	rjmp	.+66     	; 0x481c <GarageSensor_ActionCallback+0x56>
		case MENU_UP:
			Garage.SensorID++;
    47da:	ee ec       	ldi	r30, 0xCE	; 206
    47dc:	f7 e0       	ldi	r31, 0x07	; 7
    47de:	81 85       	ldd	r24, Z+9	; 0x09
    47e0:	8f 5f       	subi	r24, 0xFF	; 255
    47e2:	81 87       	std	Z+9, r24	; 0x09
			if (Garage.SensorID == nSensors)
    47e4:	90 91 cc 07 	lds	r25, 0x07CC	; 0x8007cc <nSensors>
    47e8:	89 13       	cpse	r24, r25
    47ea:	18 c0       	rjmp	.+48     	; 0x481c <GarageSensor_ActionCallback+0x56>
				Garage.SensorID = 0;
    47ec:	10 92 d7 07 	sts	0x07D7, r1	; 0x8007d7 <Garage+0x9>
    47f0:	15 c0       	rjmp	.+42     	; 0x481c <GarageSensor_ActionCallback+0x56>
			break;
		case MENU_DOWN:
			Garage.SensorID--;
    47f2:	ee ec       	ldi	r30, 0xCE	; 206
    47f4:	f7 e0       	ldi	r31, 0x07	; 7
    47f6:	81 85       	ldd	r24, Z+9	; 0x09
    47f8:	81 50       	subi	r24, 0x01	; 1
    47fa:	81 87       	std	Z+9, r24	; 0x09
			if (Garage.SensorID == 255)
    47fc:	8f 3f       	cpi	r24, 0xFF	; 255
    47fe:	71 f4       	brne	.+28     	; 0x481c <GarageSensor_ActionCallback+0x56>
				Garage.SensorID = nSensors - 1;
    4800:	80 91 cc 07 	lds	r24, 0x07CC	; 0x8007cc <nSensors>
    4804:	81 50       	subi	r24, 0x01	; 1
    4806:	80 93 d7 07 	sts	0x07D7, r24	; 0x8007d7 <Garage+0x9>
    480a:	08 c0       	rjmp	.+16     	; 0x481c <GarageSensor_ActionCallback+0x56>
			break;
		case MENU_CONFIRM:
			eeprom_update_byte(&eeGarageSensorID, Garage.SensorID);
    480c:	60 91 d7 07 	lds	r22, 0x07D7	; 0x8007d7 <Garage+0x9>
    4810:	88 e0       	ldi	r24, 0x08	; 8
    4812:	90 e0       	ldi	r25, 0x00	; 0
    4814:	0e 94 96 2e 	call	0x5d2c	; 0x5d2c <eeprom_update_byte>
			return true;
    4818:	81 e0       	ldi	r24, 0x01	; 1
    481a:	08 95       	ret
		case MENU_CANCEL:
			return true;
	}

	GarageSensor_CallbackRender(column);
    481c:	86 2f       	mov	r24, r22
    481e:	0e 94 4e 19 	call	0x329c	; 0x329c <GarageSensor_CallbackRender>
	return false;
    4822:	80 e0       	ldi	r24, 0x00	; 0
    4824:	08 95       	ret
			break;
		case MENU_CONFIRM:
			eeprom_update_byte(&eeGarageSensorID, Garage.SensorID);
			return true;
		case MENU_CANCEL:
			return true;
    4826:	81 e0       	ldi	r24, 0x01	; 1
	}

	GarageSensor_CallbackRender(column);
	return false;
}
    4828:	08 95       	ret

0000482a <LivingRoomSensor_ActionCallback>:
	itoa(LivingRoomSensorID, buf, 10);
	lcd_puts(buf);
}

bool LivingRoomSensor_ActionCallback(MENU_BUTTON *button, uint8_t column){
	switch(button->role){
    482a:	fc 01       	movw	r30, r24
    482c:	90 81       	ld	r25, Z
    482e:	91 30       	cpi	r25, 0x01	; 1
    4830:	91 f0       	breq	.+36     	; 0x4856 <LivingRoomSensor_ActionCallback+0x2c>
    4832:	28 f0       	brcs	.+10     	; 0x483e <LivingRoomSensor_ActionCallback+0x14>
    4834:	92 30       	cpi	r25, 0x02	; 2
    4836:	e1 f0       	breq	.+56     	; 0x4870 <LivingRoomSensor_ActionCallback+0x46>
    4838:	93 30       	cpi	r25, 0x03	; 3
    483a:	39 f1       	breq	.+78     	; 0x488a <LivingRoomSensor_ActionCallback+0x60>
    483c:	21 c0       	rjmp	.+66     	; 0x4880 <LivingRoomSensor_ActionCallback+0x56>
		case MENU_UP:
			LivingRoomSensorID++;
    483e:	80 91 06 01 	lds	r24, 0x0106	; 0x800106 <LivingRoomSensorID>
    4842:	8f 5f       	subi	r24, 0xFF	; 255
    4844:	80 93 06 01 	sts	0x0106, r24	; 0x800106 <LivingRoomSensorID>
			if (LivingRoomSensorID == nSensors)
    4848:	90 91 cc 07 	lds	r25, 0x07CC	; 0x8007cc <nSensors>
    484c:	89 13       	cpse	r24, r25
    484e:	18 c0       	rjmp	.+48     	; 0x4880 <LivingRoomSensor_ActionCallback+0x56>
				LivingRoomSensorID = 0;
    4850:	10 92 06 01 	sts	0x0106, r1	; 0x800106 <LivingRoomSensorID>
    4854:	15 c0       	rjmp	.+42     	; 0x4880 <LivingRoomSensor_ActionCallback+0x56>
			break;
		case MENU_DOWN:
			LivingRoomSensorID--;
    4856:	80 91 06 01 	lds	r24, 0x0106	; 0x800106 <LivingRoomSensorID>
    485a:	81 50       	subi	r24, 0x01	; 1
    485c:	80 93 06 01 	sts	0x0106, r24	; 0x800106 <LivingRoomSensorID>
			if (LivingRoomSensorID == 255)
    4860:	8f 3f       	cpi	r24, 0xFF	; 255
    4862:	71 f4       	brne	.+28     	; 0x4880 <LivingRoomSensor_ActionCallback+0x56>
				LivingRoomSensorID = nSensors - 1;
    4864:	80 91 cc 07 	lds	r24, 0x07CC	; 0x8007cc <nSensors>
    4868:	81 50       	subi	r24, 0x01	; 1
    486a:	80 93 06 01 	sts	0x0106, r24	; 0x800106 <LivingRoomSensorID>
    486e:	08 c0       	rjmp	.+16     	; 0x4880 <LivingRoomSensor_ActionCallback+0x56>
			break;
		case MENU_CONFIRM:
			eeprom_update_byte(&eeLivingRoomSensorID, LivingRoomSensorID);
    4870:	60 91 06 01 	lds	r22, 0x0106	; 0x800106 <LivingRoomSensorID>
    4874:	86 e0       	ldi	r24, 0x06	; 6
    4876:	90 e0       	ldi	r25, 0x00	; 0
    4878:	0e 94 96 2e 	call	0x5d2c	; 0x5d2c <eeprom_update_byte>
			return true;
    487c:	81 e0       	ldi	r24, 0x01	; 1
    487e:	08 95       	ret
		case MENU_CANCEL:
			return true;
	}

	LivingRoomSensor_CallbackRender(column);
    4880:	86 2f       	mov	r24, r22
    4882:	0e 94 72 19 	call	0x32e4	; 0x32e4 <LivingRoomSensor_CallbackRender>
	return false;
    4886:	80 e0       	ldi	r24, 0x00	; 0
    4888:	08 95       	ret
			break;
		case MENU_CONFIRM:
			eeprom_update_byte(&eeLivingRoomSensorID, LivingRoomSensorID);
			return true;
		case MENU_CANCEL:
			return true;
    488a:	81 e0       	ldi	r24, 0x01	; 1
	}

	LivingRoomSensor_CallbackRender(column);
	return false;
}
    488c:	08 95       	ret

0000488e <FloorSensor_ActionCallback>:
	itoa(Floor.SensorID, buf, 10);
	lcd_puts(buf);
}

bool FloorSensor_ActionCallback(MENU_BUTTON *button, uint8_t column){
	switch(button->role){
    488e:	fc 01       	movw	r30, r24
    4890:	90 81       	ld	r25, Z
    4892:	91 30       	cpi	r25, 0x01	; 1
    4894:	91 f0       	breq	.+36     	; 0x48ba <FloorSensor_ActionCallback+0x2c>
    4896:	28 f0       	brcs	.+10     	; 0x48a2 <FloorSensor_ActionCallback+0x14>
    4898:	92 30       	cpi	r25, 0x02	; 2
    489a:	e1 f0       	breq	.+56     	; 0x48d4 <FloorSensor_ActionCallback+0x46>
    489c:	93 30       	cpi	r25, 0x03	; 3
    489e:	39 f1       	breq	.+78     	; 0x48ee <FloorSensor_ActionCallback+0x60>
    48a0:	21 c0       	rjmp	.+66     	; 0x48e4 <FloorSensor_ActionCallback+0x56>
		case MENU_UP:
			Floor.SensorID++;
    48a2:	ea e0       	ldi	r30, 0x0A	; 10
    48a4:	f8 e0       	ldi	r31, 0x08	; 8
    48a6:	81 85       	ldd	r24, Z+9	; 0x09
    48a8:	8f 5f       	subi	r24, 0xFF	; 255
    48aa:	81 87       	std	Z+9, r24	; 0x09
			if (Floor.SensorID == nSensors)
    48ac:	90 91 cc 07 	lds	r25, 0x07CC	; 0x8007cc <nSensors>
    48b0:	89 13       	cpse	r24, r25
    48b2:	18 c0       	rjmp	.+48     	; 0x48e4 <FloorSensor_ActionCallback+0x56>
				Floor.SensorID = 0;
    48b4:	10 92 13 08 	sts	0x0813, r1	; 0x800813 <Floor+0x9>
    48b8:	15 c0       	rjmp	.+42     	; 0x48e4 <FloorSensor_ActionCallback+0x56>
			break;
		case MENU_DOWN:
			Floor.SensorID--;
    48ba:	ea e0       	ldi	r30, 0x0A	; 10
    48bc:	f8 e0       	ldi	r31, 0x08	; 8
    48be:	81 85       	ldd	r24, Z+9	; 0x09
    48c0:	81 50       	subi	r24, 0x01	; 1
    48c2:	81 87       	std	Z+9, r24	; 0x09
			if (Floor.SensorID == 255)
    48c4:	8f 3f       	cpi	r24, 0xFF	; 255
    48c6:	71 f4       	brne	.+28     	; 0x48e4 <FloorSensor_ActionCallback+0x56>
				Floor.SensorID = nSensors - 1;
    48c8:	80 91 cc 07 	lds	r24, 0x07CC	; 0x8007cc <nSensors>
    48cc:	81 50       	subi	r24, 0x01	; 1
    48ce:	80 93 13 08 	sts	0x0813, r24	; 0x800813 <Floor+0x9>
    48d2:	08 c0       	rjmp	.+16     	; 0x48e4 <FloorSensor_ActionCallback+0x56>
			break;
		case MENU_CONFIRM:
			eeprom_update_byte(&eeFloorSensorID, Floor.SensorID);
    48d4:	60 91 13 08 	lds	r22, 0x0813	; 0x800813 <Floor+0x9>
    48d8:	85 e0       	ldi	r24, 0x05	; 5
    48da:	90 e0       	ldi	r25, 0x00	; 0
    48dc:	0e 94 96 2e 	call	0x5d2c	; 0x5d2c <eeprom_update_byte>
			return true;
    48e0:	81 e0       	ldi	r24, 0x01	; 1
    48e2:	08 95       	ret
		case MENU_CANCEL:
			return true;
	}

	FloorSensor_CallbackRender(column);
    48e4:	86 2f       	mov	r24, r22
    48e6:	0e 94 96 19 	call	0x332c	; 0x332c <FloorSensor_CallbackRender>
	return false;
    48ea:	80 e0       	ldi	r24, 0x00	; 0
    48ec:	08 95       	ret
			break;
		case MENU_CONFIRM:
			eeprom_update_byte(&eeFloorSensorID, Floor.SensorID);
			return true;
		case MENU_CANCEL:
			return true;
    48ee:	81 e0       	ldi	r24, 0x01	; 1
	}

	FloorSensor_CallbackRender(column);
	return false;
}
    48f0:	08 95       	ret

000048f2 <GasForwardSensor_ActionCallback>:
	itoa(GasForward.SensorID, buf, 10);
	lcd_puts(buf);
}

bool GasForwardSensor_ActionCallback(MENU_BUTTON *button, uint8_t column){
	switch(button->role){
    48f2:	fc 01       	movw	r30, r24
    48f4:	90 81       	ld	r25, Z
    48f6:	91 30       	cpi	r25, 0x01	; 1
    48f8:	91 f0       	breq	.+36     	; 0x491e <GasForwardSensor_ActionCallback+0x2c>
    48fa:	28 f0       	brcs	.+10     	; 0x4906 <GasForwardSensor_ActionCallback+0x14>
    48fc:	92 30       	cpi	r25, 0x02	; 2
    48fe:	e1 f0       	breq	.+56     	; 0x4938 <GasForwardSensor_ActionCallback+0x46>
    4900:	93 30       	cpi	r25, 0x03	; 3
    4902:	39 f1       	breq	.+78     	; 0x4952 <GasForwardSensor_ActionCallback+0x60>
    4904:	21 c0       	rjmp	.+66     	; 0x4948 <GasForwardSensor_ActionCallback+0x56>
		case MENU_UP:
			GasForward.SensorID++;
    4906:	ee e1       	ldi	r30, 0x1E	; 30
    4908:	f8 e0       	ldi	r31, 0x08	; 8
    490a:	81 85       	ldd	r24, Z+9	; 0x09
    490c:	8f 5f       	subi	r24, 0xFF	; 255
    490e:	81 87       	std	Z+9, r24	; 0x09
			if (GasForward.SensorID == nSensors)
    4910:	90 91 cc 07 	lds	r25, 0x07CC	; 0x8007cc <nSensors>
    4914:	89 13       	cpse	r24, r25
    4916:	18 c0       	rjmp	.+48     	; 0x4948 <GasForwardSensor_ActionCallback+0x56>
				GasForward.SensorID = 0;
    4918:	10 92 27 08 	sts	0x0827, r1	; 0x800827 <GasForward+0x9>
    491c:	15 c0       	rjmp	.+42     	; 0x4948 <GasForwardSensor_ActionCallback+0x56>
			break;
		case MENU_DOWN:
			GasForward.SensorID--;
    491e:	ee e1       	ldi	r30, 0x1E	; 30
    4920:	f8 e0       	ldi	r31, 0x08	; 8
    4922:	81 85       	ldd	r24, Z+9	; 0x09
    4924:	81 50       	subi	r24, 0x01	; 1
    4926:	81 87       	std	Z+9, r24	; 0x09
			if (GasForward.SensorID == 255)
    4928:	8f 3f       	cpi	r24, 0xFF	; 255
    492a:	71 f4       	brne	.+28     	; 0x4948 <GasForwardSensor_ActionCallback+0x56>
				GasForward.SensorID = nSensors - 1;
    492c:	80 91 cc 07 	lds	r24, 0x07CC	; 0x8007cc <nSensors>
    4930:	81 50       	subi	r24, 0x01	; 1
    4932:	80 93 27 08 	sts	0x0827, r24	; 0x800827 <GasForward+0x9>
    4936:	08 c0       	rjmp	.+16     	; 0x4948 <GasForwardSensor_ActionCallback+0x56>
			break;
		case MENU_CONFIRM:
			eeprom_update_byte(&eeGasForwardTempSensorID, GasForward.SensorID);
    4938:	60 91 27 08 	lds	r22, 0x0827	; 0x800827 <GasForward+0x9>
    493c:	84 e0       	ldi	r24, 0x04	; 4
    493e:	90 e0       	ldi	r25, 0x00	; 0
    4940:	0e 94 96 2e 	call	0x5d2c	; 0x5d2c <eeprom_update_byte>
			return true;
    4944:	81 e0       	ldi	r24, 0x01	; 1
    4946:	08 95       	ret
		case MENU_CANCEL:
			return true;
	}

	GasForwardSensor_CallbackRender(column);
    4948:	86 2f       	mov	r24, r22
    494a:	0e 94 ba 19 	call	0x3374	; 0x3374 <GasForwardSensor_CallbackRender>
	return false;
    494e:	80 e0       	ldi	r24, 0x00	; 0
    4950:	08 95       	ret
			break;
		case MENU_CONFIRM:
			eeprom_update_byte(&eeGasForwardTempSensorID, GasForward.SensorID);
			return true;
		case MENU_CANCEL:
			return true;
    4952:	81 e0       	ldi	r24, 0x01	; 1
	}

	GasForwardSensor_CallbackRender(column);
	return false;
}
    4954:	08 95       	ret

00004956 <GasReturnSensor_ActionCallback>:
	itoa(GasReturn.SensorID, buf, 10);
	lcd_puts(buf);
}

bool GasReturnSensor_ActionCallback(MENU_BUTTON *button, uint8_t column){
	switch(button->role){
    4956:	fc 01       	movw	r30, r24
    4958:	90 81       	ld	r25, Z
    495a:	91 30       	cpi	r25, 0x01	; 1
    495c:	91 f0       	breq	.+36     	; 0x4982 <GasReturnSensor_ActionCallback+0x2c>
    495e:	28 f0       	brcs	.+10     	; 0x496a <GasReturnSensor_ActionCallback+0x14>
    4960:	92 30       	cpi	r25, 0x02	; 2
    4962:	e1 f0       	breq	.+56     	; 0x499c <GasReturnSensor_ActionCallback+0x46>
    4964:	93 30       	cpi	r25, 0x03	; 3
    4966:	39 f1       	breq	.+78     	; 0x49b6 <GasReturnSensor_ActionCallback+0x60>
    4968:	21 c0       	rjmp	.+66     	; 0x49ac <GasReturnSensor_ActionCallback+0x56>
		case MENU_UP:
			GasReturn.SensorID++;
    496a:	e9 ea       	ldi	r30, 0xA9	; 169
    496c:	f8 e0       	ldi	r31, 0x08	; 8
    496e:	81 85       	ldd	r24, Z+9	; 0x09
    4970:	8f 5f       	subi	r24, 0xFF	; 255
    4972:	81 87       	std	Z+9, r24	; 0x09
			if (GasReturn.SensorID == nSensors)
    4974:	90 91 cc 07 	lds	r25, 0x07CC	; 0x8007cc <nSensors>
    4978:	89 13       	cpse	r24, r25
    497a:	18 c0       	rjmp	.+48     	; 0x49ac <GasReturnSensor_ActionCallback+0x56>
				GasReturn.SensorID = 0;
    497c:	10 92 b2 08 	sts	0x08B2, r1	; 0x8008b2 <GasReturn+0x9>
    4980:	15 c0       	rjmp	.+42     	; 0x49ac <GasReturnSensor_ActionCallback+0x56>
			break;
		case MENU_DOWN:
			GasReturn.SensorID--;
    4982:	e9 ea       	ldi	r30, 0xA9	; 169
    4984:	f8 e0       	ldi	r31, 0x08	; 8
    4986:	81 85       	ldd	r24, Z+9	; 0x09
    4988:	81 50       	subi	r24, 0x01	; 1
    498a:	81 87       	std	Z+9, r24	; 0x09
			if (GasReturn.SensorID == 255)
    498c:	8f 3f       	cpi	r24, 0xFF	; 255
    498e:	71 f4       	brne	.+28     	; 0x49ac <GasReturnSensor_ActionCallback+0x56>
				GasReturn.SensorID = nSensors - 1;
    4990:	80 91 cc 07 	lds	r24, 0x07CC	; 0x8007cc <nSensors>
    4994:	81 50       	subi	r24, 0x01	; 1
    4996:	80 93 b2 08 	sts	0x08B2, r24	; 0x8008b2 <GasReturn+0x9>
    499a:	08 c0       	rjmp	.+16     	; 0x49ac <GasReturnSensor_ActionCallback+0x56>
			break;
		case MENU_CONFIRM:
			eeprom_update_byte(&eeGasReturnTempSensorID, GasReturn.SensorID);
    499c:	60 91 b2 08 	lds	r22, 0x08B2	; 0x8008b2 <GasReturn+0x9>
    49a0:	83 e0       	ldi	r24, 0x03	; 3
    49a2:	90 e0       	ldi	r25, 0x00	; 0
    49a4:	0e 94 96 2e 	call	0x5d2c	; 0x5d2c <eeprom_update_byte>
			return true;
    49a8:	81 e0       	ldi	r24, 0x01	; 1
    49aa:	08 95       	ret
		case MENU_CANCEL:
			return true;
	}

	GasReturnSensor_CallbackRender(column);
    49ac:	86 2f       	mov	r24, r22
    49ae:	0e 94 de 19 	call	0x33bc	; 0x33bc <GasReturnSensor_CallbackRender>
	return false;
    49b2:	80 e0       	ldi	r24, 0x00	; 0
    49b4:	08 95       	ret
			break;
		case MENU_CONFIRM:
			eeprom_update_byte(&eeGasReturnTempSensorID, GasReturn.SensorID);
			return true;
		case MENU_CANCEL:
			return true;
    49b6:	81 e0       	ldi	r24, 0x01	; 1
	}

	GasReturnSensor_CallbackRender(column);
	return false;
}
    49b8:	08 95       	ret

000049ba <ForwardSensor_ActionCallback>:
	itoa(Forward.SensorID, buf, 10);
	lcd_puts(buf);
}

bool ForwardSensor_ActionCallback(MENU_BUTTON *button, uint8_t column){
	switch(button->role){
    49ba:	fc 01       	movw	r30, r24
    49bc:	90 81       	ld	r25, Z
    49be:	91 30       	cpi	r25, 0x01	; 1
    49c0:	91 f0       	breq	.+36     	; 0x49e6 <ForwardSensor_ActionCallback+0x2c>
    49c2:	28 f0       	brcs	.+10     	; 0x49ce <ForwardSensor_ActionCallback+0x14>
    49c4:	92 30       	cpi	r25, 0x02	; 2
    49c6:	e1 f0       	breq	.+56     	; 0x4a00 <ForwardSensor_ActionCallback+0x46>
    49c8:	93 30       	cpi	r25, 0x03	; 3
    49ca:	39 f1       	breq	.+78     	; 0x4a1a <ForwardSensor_ActionCallback+0x60>
    49cc:	21 c0       	rjmp	.+66     	; 0x4a10 <ForwardSensor_ActionCallback+0x56>
		case MENU_UP:
		Forward.SensorID++;
    49ce:	e9 ee       	ldi	r30, 0xE9	; 233
    49d0:	f7 e0       	ldi	r31, 0x07	; 7
    49d2:	81 85       	ldd	r24, Z+9	; 0x09
    49d4:	8f 5f       	subi	r24, 0xFF	; 255
    49d6:	81 87       	std	Z+9, r24	; 0x09
		if (Forward.SensorID == nSensors)
    49d8:	90 91 cc 07 	lds	r25, 0x07CC	; 0x8007cc <nSensors>
    49dc:	89 13       	cpse	r24, r25
    49de:	18 c0       	rjmp	.+48     	; 0x4a10 <ForwardSensor_ActionCallback+0x56>
		Forward.SensorID = 0;
    49e0:	10 92 f2 07 	sts	0x07F2, r1	; 0x8007f2 <Forward+0x9>
    49e4:	15 c0       	rjmp	.+42     	; 0x4a10 <ForwardSensor_ActionCallback+0x56>
		break;
		case MENU_DOWN:
		Forward.SensorID--;
    49e6:	e9 ee       	ldi	r30, 0xE9	; 233
    49e8:	f7 e0       	ldi	r31, 0x07	; 7
    49ea:	81 85       	ldd	r24, Z+9	; 0x09
    49ec:	81 50       	subi	r24, 0x01	; 1
    49ee:	81 87       	std	Z+9, r24	; 0x09
		if (Forward.SensorID == 255)
    49f0:	8f 3f       	cpi	r24, 0xFF	; 255
    49f2:	71 f4       	brne	.+28     	; 0x4a10 <ForwardSensor_ActionCallback+0x56>
		Forward.SensorID = nSensors - 1;
    49f4:	80 91 cc 07 	lds	r24, 0x07CC	; 0x8007cc <nSensors>
    49f8:	81 50       	subi	r24, 0x01	; 1
    49fa:	80 93 f2 07 	sts	0x07F2, r24	; 0x8007f2 <Forward+0x9>
    49fe:	08 c0       	rjmp	.+16     	; 0x4a10 <ForwardSensor_ActionCallback+0x56>
		break;
		case MENU_CONFIRM:
		eeprom_update_byte(&eeForwardTempSensorID, Forward.SensorID);
    4a00:	60 91 f2 07 	lds	r22, 0x07F2	; 0x8007f2 <Forward+0x9>
    4a04:	82 e0       	ldi	r24, 0x02	; 2
    4a06:	90 e0       	ldi	r25, 0x00	; 0
    4a08:	0e 94 96 2e 	call	0x5d2c	; 0x5d2c <eeprom_update_byte>
		return true;
    4a0c:	81 e0       	ldi	r24, 0x01	; 1
    4a0e:	08 95       	ret
		case MENU_CANCEL:
		return true;
	}

	ForwardSensor_CallbackRender(column);
    4a10:	86 2f       	mov	r24, r22
    4a12:	0e 94 02 1a 	call	0x3404	; 0x3404 <ForwardSensor_CallbackRender>
	return false;
    4a16:	80 e0       	ldi	r24, 0x00	; 0
    4a18:	08 95       	ret
		break;
		case MENU_CONFIRM:
		eeprom_update_byte(&eeForwardTempSensorID, Forward.SensorID);
		return true;
		case MENU_CANCEL:
		return true;
    4a1a:	81 e0       	ldi	r24, 0x01	; 1
	}

	ForwardSensor_CallbackRender(column);
	return false;
}
    4a1c:	08 95       	ret

00004a1e <ReturnSensor_ActionCallback>:
	itoa(Return.SensorID, buf, 10);
	lcd_puts(buf);
}

bool ReturnSensor_ActionCallback(MENU_BUTTON *button, uint8_t column){
	switch(button->role){
    4a1e:	fc 01       	movw	r30, r24
    4a20:	90 81       	ld	r25, Z
    4a22:	91 30       	cpi	r25, 0x01	; 1
    4a24:	91 f0       	breq	.+36     	; 0x4a4a <ReturnSensor_ActionCallback+0x2c>
    4a26:	28 f0       	brcs	.+10     	; 0x4a32 <ReturnSensor_ActionCallback+0x14>
    4a28:	92 30       	cpi	r25, 0x02	; 2
    4a2a:	e1 f0       	breq	.+56     	; 0x4a64 <ReturnSensor_ActionCallback+0x46>
    4a2c:	93 30       	cpi	r25, 0x03	; 3
    4a2e:	39 f1       	breq	.+78     	; 0x4a7e <ReturnSensor_ActionCallback+0x60>
    4a30:	21 c0       	rjmp	.+66     	; 0x4a74 <ReturnSensor_ActionCallback+0x56>
		case MENU_UP:
		Return.SensorID++;
    4a32:	e3 ef       	ldi	r30, 0xF3	; 243
    4a34:	f7 e0       	ldi	r31, 0x07	; 7
    4a36:	81 85       	ldd	r24, Z+9	; 0x09
    4a38:	8f 5f       	subi	r24, 0xFF	; 255
    4a3a:	81 87       	std	Z+9, r24	; 0x09
		if (Return.SensorID == nSensors)
    4a3c:	90 91 cc 07 	lds	r25, 0x07CC	; 0x8007cc <nSensors>
    4a40:	89 13       	cpse	r24, r25
    4a42:	18 c0       	rjmp	.+48     	; 0x4a74 <ReturnSensor_ActionCallback+0x56>
		Return.SensorID = 0;
    4a44:	10 92 fc 07 	sts	0x07FC, r1	; 0x8007fc <Return+0x9>
    4a48:	15 c0       	rjmp	.+42     	; 0x4a74 <ReturnSensor_ActionCallback+0x56>
		break;
		case MENU_DOWN:
		Return.SensorID--;
    4a4a:	e3 ef       	ldi	r30, 0xF3	; 243
    4a4c:	f7 e0       	ldi	r31, 0x07	; 7
    4a4e:	81 85       	ldd	r24, Z+9	; 0x09
    4a50:	81 50       	subi	r24, 0x01	; 1
    4a52:	81 87       	std	Z+9, r24	; 0x09
		if (Return.SensorID == 255)
    4a54:	8f 3f       	cpi	r24, 0xFF	; 255
    4a56:	71 f4       	brne	.+28     	; 0x4a74 <ReturnSensor_ActionCallback+0x56>
		Return.SensorID = nSensors - 1;
    4a58:	80 91 cc 07 	lds	r24, 0x07CC	; 0x8007cc <nSensors>
    4a5c:	81 50       	subi	r24, 0x01	; 1
    4a5e:	80 93 fc 07 	sts	0x07FC, r24	; 0x8007fc <Return+0x9>
    4a62:	08 c0       	rjmp	.+16     	; 0x4a74 <ReturnSensor_ActionCallback+0x56>
		break;
		case MENU_CONFIRM:
		eeprom_update_byte(&eeReturnTempSensorID, Return.SensorID);
    4a64:	60 91 fc 07 	lds	r22, 0x07FC	; 0x8007fc <Return+0x9>
    4a68:	81 e0       	ldi	r24, 0x01	; 1
    4a6a:	90 e0       	ldi	r25, 0x00	; 0
    4a6c:	0e 94 96 2e 	call	0x5d2c	; 0x5d2c <eeprom_update_byte>
		return true;
    4a70:	81 e0       	ldi	r24, 0x01	; 1
    4a72:	08 95       	ret
		case MENU_CANCEL:
		return true;
	}

	ReturnSensor_CallbackRender(column);
    4a74:	86 2f       	mov	r24, r22
    4a76:	0e 94 26 1a 	call	0x344c	; 0x344c <ReturnSensor_CallbackRender>
	return false;
    4a7a:	80 e0       	ldi	r24, 0x00	; 0
    4a7c:	08 95       	ret
		break;
		case MENU_CONFIRM:
		eeprom_update_byte(&eeReturnTempSensorID, Return.SensorID);
		return true;
		case MENU_CANCEL:
		return true;
    4a7e:	81 e0       	ldi	r24, 0x01	; 1
	}

	ReturnSensor_CallbackRender(column);
	return false;
}
    4a80:	08 95       	ret

00004a82 <MixedSensor_ActionCallback>:
	itoa(Mixed.SensorID, buf, 10);
	lcd_puts(buf);
}

bool MixedSensor_ActionCallback(MENU_BUTTON *button, uint8_t column){
	switch(button->role){
    4a82:	fc 01       	movw	r30, r24
    4a84:	90 81       	ld	r25, Z
    4a86:	91 30       	cpi	r25, 0x01	; 1
    4a88:	91 f0       	breq	.+36     	; 0x4aae <MixedSensor_ActionCallback+0x2c>
    4a8a:	28 f0       	brcs	.+10     	; 0x4a96 <MixedSensor_ActionCallback+0x14>
    4a8c:	92 30       	cpi	r25, 0x02	; 2
    4a8e:	e1 f0       	breq	.+56     	; 0x4ac8 <MixedSensor_ActionCallback+0x46>
    4a90:	93 30       	cpi	r25, 0x03	; 3
    4a92:	39 f1       	breq	.+78     	; 0x4ae2 <MixedSensor_ActionCallback+0x60>
    4a94:	21 c0       	rjmp	.+66     	; 0x4ad8 <MixedSensor_ActionCallback+0x56>
		case MENU_UP:
		Mixed.SensorID++;
    4a96:	e3 eb       	ldi	r30, 0xB3	; 179
    4a98:	f8 e0       	ldi	r31, 0x08	; 8
    4a9a:	81 85       	ldd	r24, Z+9	; 0x09
    4a9c:	8f 5f       	subi	r24, 0xFF	; 255
    4a9e:	81 87       	std	Z+9, r24	; 0x09
		if (Mixed.SensorID == nSensors)
    4aa0:	90 91 cc 07 	lds	r25, 0x07CC	; 0x8007cc <nSensors>
    4aa4:	89 13       	cpse	r24, r25
    4aa6:	18 c0       	rjmp	.+48     	; 0x4ad8 <MixedSensor_ActionCallback+0x56>
		Mixed.SensorID = 0;
    4aa8:	10 92 bc 08 	sts	0x08BC, r1	; 0x8008bc <Mixed+0x9>
    4aac:	15 c0       	rjmp	.+42     	; 0x4ad8 <MixedSensor_ActionCallback+0x56>
		break;
		case MENU_DOWN:
		Mixed.SensorID--;
    4aae:	e3 eb       	ldi	r30, 0xB3	; 179
    4ab0:	f8 e0       	ldi	r31, 0x08	; 8
    4ab2:	81 85       	ldd	r24, Z+9	; 0x09
    4ab4:	81 50       	subi	r24, 0x01	; 1
    4ab6:	81 87       	std	Z+9, r24	; 0x09
		if (Mixed.SensorID == 255)
    4ab8:	8f 3f       	cpi	r24, 0xFF	; 255
    4aba:	71 f4       	brne	.+28     	; 0x4ad8 <MixedSensor_ActionCallback+0x56>
		Mixed.SensorID = nSensors - 1;
    4abc:	80 91 cc 07 	lds	r24, 0x07CC	; 0x8007cc <nSensors>
    4ac0:	81 50       	subi	r24, 0x01	; 1
    4ac2:	80 93 bc 08 	sts	0x08BC, r24	; 0x8008bc <Mixed+0x9>
    4ac6:	08 c0       	rjmp	.+16     	; 0x4ad8 <MixedSensor_ActionCallback+0x56>
		break;
		case MENU_CONFIRM:
		eeprom_update_byte(&eeMixedTempSensorID, Mixed.SensorID);
    4ac8:	60 91 bc 08 	lds	r22, 0x08BC	; 0x8008bc <Mixed+0x9>
    4acc:	80 e0       	ldi	r24, 0x00	; 0
    4ace:	90 e0       	ldi	r25, 0x00	; 0
    4ad0:	0e 94 96 2e 	call	0x5d2c	; 0x5d2c <eeprom_update_byte>
		return true;
    4ad4:	81 e0       	ldi	r24, 0x01	; 1
    4ad6:	08 95       	ret
		case MENU_CANCEL:
		return true;
	}

	MixedSensor_CallbackRender(column);
    4ad8:	86 2f       	mov	r24, r22
    4ada:	0e 94 4a 1a 	call	0x3494	; 0x3494 <MixedSensor_CallbackRender>
	return false;
    4ade:	80 e0       	ldi	r24, 0x00	; 0
    4ae0:	08 95       	ret
		break;
		case MENU_CONFIRM:
		eeprom_update_byte(&eeMixedTempSensorID, Mixed.SensorID);
		return true;
		case MENU_CANCEL:
		return true;
    4ae2:	81 e0       	ldi	r24, 0x01	; 1
	}

	MixedSensor_CallbackRender(column);
	return false;
}
    4ae4:	08 95       	ret

00004ae6 <Mode_ActionCallback>:
			break;		
	}
}

bool Mode_ActionCallback(MENU_BUTTON *button, uint8_t column){
	switch(button->role){
    4ae6:	fc 01       	movw	r30, r24
    4ae8:	90 81       	ld	r25, Z
    4aea:	91 30       	cpi	r25, 0x01	; 1
    4aec:	89 f0       	breq	.+34     	; 0x4b10 <Mode_ActionCallback+0x2a>
    4aee:	28 f0       	brcs	.+10     	; 0x4afa <Mode_ActionCallback+0x14>
    4af0:	92 30       	cpi	r25, 0x02	; 2
    4af2:	c9 f0       	breq	.+50     	; 0x4b26 <Mode_ActionCallback+0x40>
    4af4:	93 30       	cpi	r25, 0x03	; 3
    4af6:	21 f1       	breq	.+72     	; 0x4b40 <Mode_ActionCallback+0x5a>
    4af8:	1e c0       	rjmp	.+60     	; 0x4b36 <Mode_ActionCallback+0x50>
		case MENU_UP:
			if (++Mode == 3)
    4afa:	80 91 11 07 	lds	r24, 0x0711	; 0x800711 <Mode>
    4afe:	8f 5f       	subi	r24, 0xFF	; 255
    4b00:	83 30       	cpi	r24, 0x03	; 3
    4b02:	19 f0       	breq	.+6      	; 0x4b0a <Mode_ActionCallback+0x24>
    4b04:	80 93 11 07 	sts	0x0711, r24	; 0x800711 <Mode>
    4b08:	16 c0       	rjmp	.+44     	; 0x4b36 <Mode_ActionCallback+0x50>
				Mode = 0;
    4b0a:	10 92 11 07 	sts	0x0711, r1	; 0x800711 <Mode>
    4b0e:	13 c0       	rjmp	.+38     	; 0x4b36 <Mode_ActionCallback+0x50>
			break;
		case MENU_DOWN:
			if (--Mode == 255)
    4b10:	80 91 11 07 	lds	r24, 0x0711	; 0x800711 <Mode>
    4b14:	81 50       	subi	r24, 0x01	; 1
    4b16:	18 f0       	brcs	.+6      	; 0x4b1e <Mode_ActionCallback+0x38>
    4b18:	80 93 11 07 	sts	0x0711, r24	; 0x800711 <Mode>
    4b1c:	0c c0       	rjmp	.+24     	; 0x4b36 <Mode_ActionCallback+0x50>
				Mode = 2;
    4b1e:	82 e0       	ldi	r24, 0x02	; 2
    4b20:	80 93 11 07 	sts	0x0711, r24	; 0x800711 <Mode>
    4b24:	08 c0       	rjmp	.+16     	; 0x4b36 <Mode_ActionCallback+0x50>
			break;
		case MENU_CONFIRM:
			eeprom_update_byte(&eeMode, Mode);
    4b26:	60 91 11 07 	lds	r22, 0x0711	; 0x800711 <Mode>
    4b2a:	86 e2       	ldi	r24, 0x26	; 38
    4b2c:	90 e0       	ldi	r25, 0x00	; 0
    4b2e:	0e 94 96 2e 	call	0x5d2c	; 0x5d2c <eeprom_update_byte>
			return true;
    4b32:	81 e0       	ldi	r24, 0x01	; 1
    4b34:	08 95       	ret
		case MENU_CANCEL:
			return true;
	}

	Mode_CallbackRender(column);
    4b36:	86 2f       	mov	r24, r22
    4b38:	0e 94 f1 16 	call	0x2de2	; 0x2de2 <Mode_CallbackRender>
	return false;
    4b3c:	80 e0       	ldi	r24, 0x00	; 0
    4b3e:	08 95       	ret
			break;
		case MENU_CONFIRM:
			eeprom_update_byte(&eeMode, Mode);
			return true;
		case MENU_CANCEL:
			return true;
    4b40:	81 e0       	ldi	r24, 0x01	; 1
	}

	Mode_CallbackRender(column);
	return false;
}
    4b42:	08 95       	ret

00004b44 <MenuTimer_ActionCallback>:
	itoa(MenuTimer, buf, 10);
	lcd_puts(buf);
}

bool MenuTimer_ActionCallback(MENU_BUTTON *button, uint8_t column){
	switch(button->role){
    4b44:	fc 01       	movw	r30, r24
    4b46:	90 81       	ld	r25, Z
    4b48:	91 30       	cpi	r25, 0x01	; 1
    4b4a:	61 f0       	breq	.+24     	; 0x4b64 <MenuTimer_ActionCallback+0x20>
    4b4c:	28 f0       	brcs	.+10     	; 0x4b58 <MenuTimer_ActionCallback+0x14>
    4b4e:	92 30       	cpi	r25, 0x02	; 2
    4b50:	79 f0       	breq	.+30     	; 0x4b70 <MenuTimer_ActionCallback+0x2c>
    4b52:	93 30       	cpi	r25, 0x03	; 3
    4b54:	d1 f0       	breq	.+52     	; 0x4b8a <MenuTimer_ActionCallback+0x46>
    4b56:	14 c0       	rjmp	.+40     	; 0x4b80 <MenuTimer_ActionCallback+0x3c>
		case MENU_UP:
			++MenuTimer;
    4b58:	80 91 13 01 	lds	r24, 0x0113	; 0x800113 <MenuTimer>
    4b5c:	8f 5f       	subi	r24, 0xFF	; 255
    4b5e:	80 93 13 01 	sts	0x0113, r24	; 0x800113 <MenuTimer>
			break;
    4b62:	0e c0       	rjmp	.+28     	; 0x4b80 <MenuTimer_ActionCallback+0x3c>
		case MENU_DOWN:
			--MenuTimer;
    4b64:	80 91 13 01 	lds	r24, 0x0113	; 0x800113 <MenuTimer>
    4b68:	81 50       	subi	r24, 0x01	; 1
    4b6a:	80 93 13 01 	sts	0x0113, r24	; 0x800113 <MenuTimer>
			break;
    4b6e:	08 c0       	rjmp	.+16     	; 0x4b80 <MenuTimer_ActionCallback+0x3c>
		case MENU_CONFIRM:
			eeprom_update_byte(&eeMenuTimer, MenuTimer);
    4b70:	60 91 13 01 	lds	r22, 0x0113	; 0x800113 <MenuTimer>
    4b74:	85 e2       	ldi	r24, 0x25	; 37
    4b76:	90 e0       	ldi	r25, 0x00	; 0
    4b78:	0e 94 96 2e 	call	0x5d2c	; 0x5d2c <eeprom_update_byte>
			return true;
    4b7c:	81 e0       	ldi	r24, 0x01	; 1
    4b7e:	08 95       	ret
		case MENU_CANCEL:
			return true;
	}

	MenuTimer_CallbackRender(column);
    4b80:	86 2f       	mov	r24, r22
    4b82:	0e 94 6e 1a 	call	0x34dc	; 0x34dc <MenuTimer_CallbackRender>
	return false;
    4b86:	80 e0       	ldi	r24, 0x00	; 0
    4b88:	08 95       	ret
			break;
		case MENU_CONFIRM:
			eeprom_update_byte(&eeMenuTimer, MenuTimer);
			return true;
		case MENU_CANCEL:
			return true;
    4b8a:	81 e0       	ldi	r24, 0x01	; 1
	}

	MenuTimer_CallbackRender(column);
	return false;
}
    4b8c:	08 95       	ret

00004b8e <LCDBackLight_ActionCallback>:
	itoa(LCDBackLight, buf, 10);
	lcd_puts(buf);
}

bool LCDBackLight_ActionCallback(MENU_BUTTON *button, uint8_t column){
	switch(button->role){
    4b8e:	fc 01       	movw	r30, r24
    4b90:	90 81       	ld	r25, Z
    4b92:	91 30       	cpi	r25, 0x01	; 1
    4b94:	61 f0       	breq	.+24     	; 0x4bae <LCDBackLight_ActionCallback+0x20>
    4b96:	28 f0       	brcs	.+10     	; 0x4ba2 <LCDBackLight_ActionCallback+0x14>
    4b98:	92 30       	cpi	r25, 0x02	; 2
    4b9a:	79 f0       	breq	.+30     	; 0x4bba <LCDBackLight_ActionCallback+0x2c>
    4b9c:	93 30       	cpi	r25, 0x03	; 3
    4b9e:	19 f1       	breq	.+70     	; 0x4be6 <LCDBackLight_ActionCallback+0x58>
    4ba0:	14 c0       	rjmp	.+40     	; 0x4bca <LCDBackLight_ActionCallback+0x3c>
		case MENU_UP:
			++LCDBackLight;
    4ba2:	80 91 10 07 	lds	r24, 0x0710	; 0x800710 <LCDBackLight>
    4ba6:	8f 5f       	subi	r24, 0xFF	; 255
    4ba8:	80 93 10 07 	sts	0x0710, r24	; 0x800710 <LCDBackLight>
			break;
    4bac:	0e c0       	rjmp	.+28     	; 0x4bca <LCDBackLight_ActionCallback+0x3c>
		case MENU_DOWN:
			--LCDBackLight;
    4bae:	80 91 10 07 	lds	r24, 0x0710	; 0x800710 <LCDBackLight>
    4bb2:	81 50       	subi	r24, 0x01	; 1
    4bb4:	80 93 10 07 	sts	0x0710, r24	; 0x800710 <LCDBackLight>
			break;
    4bb8:	08 c0       	rjmp	.+16     	; 0x4bca <LCDBackLight_ActionCallback+0x3c>
		case MENU_CONFIRM:
			eeprom_update_byte(&eeLCDBackLight, LCDBackLight);
    4bba:	60 91 10 07 	lds	r22, 0x0710	; 0x800710 <LCDBackLight>
    4bbe:	84 e2       	ldi	r24, 0x24	; 36
    4bc0:	90 e0       	ldi	r25, 0x00	; 0
    4bc2:	0e 94 96 2e 	call	0x5d2c	; 0x5d2c <eeprom_update_byte>
			return true;
    4bc6:	81 e0       	ldi	r24, 0x01	; 1
    4bc8:	08 95       	ret
		case MENU_CANCEL:
			return true;
	}
	if (LCDBackLight != 0)
    4bca:	20 91 10 07 	lds	r18, 0x0710	; 0x800710 <LCDBackLight>
    4bce:	22 23       	and	r18, r18
    4bd0:	29 f0       	breq	.+10     	; 0x4bdc <LCDBackLight_ActionCallback+0x4e>
		OCR3C = LCDBackLight;
    4bd2:	30 e0       	ldi	r19, 0x00	; 0
    4bd4:	30 93 83 00 	sts	0x0083, r19	; 0x800083 <__TEXT_REGION_LENGTH__+0x7e0083>
    4bd8:	20 93 82 00 	sts	0x0082, r18	; 0x800082 <__TEXT_REGION_LENGTH__+0x7e0082>

	LCDBackLight_CallbackRender(column);
    4bdc:	86 2f       	mov	r24, r22
    4bde:	0e 94 8e 1a 	call	0x351c	; 0x351c <LCDBackLight_CallbackRender>
	return false;
    4be2:	80 e0       	ldi	r24, 0x00	; 0
    4be4:	08 95       	ret
			break;
		case MENU_CONFIRM:
			eeprom_update_byte(&eeLCDBackLight, LCDBackLight);
			return true;
		case MENU_CANCEL:
			return true;
    4be6:	81 e0       	ldi	r24, 0x01	; 1
	if (LCDBackLight != 0)
		OCR3C = LCDBackLight;

	LCDBackLight_CallbackRender(column);
	return false;
}
    4be8:	08 95       	ret

00004bea <GasForwardHeatTemp_ActionCallback>:
	itoa(GasForwardHeatTemp, buf, 10);
	lcd_puts(buf);
}

bool GasForwardHeatTemp_ActionCallback(MENU_BUTTON *button, uint8_t column){
	switch(button->role){
    4bea:	fc 01       	movw	r30, r24
    4bec:	90 81       	ld	r25, Z
    4bee:	91 30       	cpi	r25, 0x01	; 1
    4bf0:	61 f0       	breq	.+24     	; 0x4c0a <GasForwardHeatTemp_ActionCallback+0x20>
    4bf2:	28 f0       	brcs	.+10     	; 0x4bfe <GasForwardHeatTemp_ActionCallback+0x14>
    4bf4:	92 30       	cpi	r25, 0x02	; 2
    4bf6:	79 f0       	breq	.+30     	; 0x4c16 <GasForwardHeatTemp_ActionCallback+0x2c>
    4bf8:	93 30       	cpi	r25, 0x03	; 3
    4bfa:	d1 f0       	breq	.+52     	; 0x4c30 <GasForwardHeatTemp_ActionCallback+0x46>
    4bfc:	14 c0       	rjmp	.+40     	; 0x4c26 <GasForwardHeatTemp_ActionCallback+0x3c>
		case MENU_UP:
		++GasForwardHeatTemp;
    4bfe:	80 91 07 01 	lds	r24, 0x0107	; 0x800107 <GasForwardHeatTemp>
    4c02:	8f 5f       	subi	r24, 0xFF	; 255
    4c04:	80 93 07 01 	sts	0x0107, r24	; 0x800107 <GasForwardHeatTemp>
		break;
    4c08:	0e c0       	rjmp	.+28     	; 0x4c26 <GasForwardHeatTemp_ActionCallback+0x3c>
		case MENU_DOWN:
		--GasForwardHeatTemp;
    4c0a:	80 91 07 01 	lds	r24, 0x0107	; 0x800107 <GasForwardHeatTemp>
    4c0e:	81 50       	subi	r24, 0x01	; 1
    4c10:	80 93 07 01 	sts	0x0107, r24	; 0x800107 <GasForwardHeatTemp>
		break;
    4c14:	08 c0       	rjmp	.+16     	; 0x4c26 <GasForwardHeatTemp_ActionCallback+0x3c>
		case MENU_CONFIRM:
		eeprom_update_byte(&eeGasForwardHeatTemp, GasForwardHeatTemp);
    4c16:	60 91 07 01 	lds	r22, 0x0107	; 0x800107 <GasForwardHeatTemp>
    4c1a:	8f e0       	ldi	r24, 0x0F	; 15
    4c1c:	90 e0       	ldi	r25, 0x00	; 0
    4c1e:	0e 94 96 2e 	call	0x5d2c	; 0x5d2c <eeprom_update_byte>
		return true;
    4c22:	81 e0       	ldi	r24, 0x01	; 1
    4c24:	08 95       	ret
		case MENU_CANCEL:
		return true;
	}

	GasForwardHeatTemp_CallbackRender(column);
    4c26:	86 2f       	mov	r24, r22
    4c28:	0e 94 d7 1a 	call	0x35ae	; 0x35ae <GasForwardHeatTemp_CallbackRender>
	return false;
    4c2c:	80 e0       	ldi	r24, 0x00	; 0
    4c2e:	08 95       	ret
		break;
		case MENU_CONFIRM:
		eeprom_update_byte(&eeGasForwardHeatTemp, GasForwardHeatTemp);
		return true;
		case MENU_CANCEL:
		return true;
    4c30:	81 e0       	ldi	r24, 0x01	; 1
	}

	GasForwardHeatTemp_CallbackRender(column);
	return false;
}
    4c32:	08 95       	ret

00004c34 <ComfortMode_ActionCallback>:
	else
		lcd_puts_p(PSTR("Ki"));
}

bool ComfortMode_ActionCallback(MENU_BUTTON *button, uint8_t column){
	switch(button->role){
    4c34:	fc 01       	movw	r30, r24
    4c36:	90 81       	ld	r25, Z
    4c38:	92 30       	cpi	r25, 0x02	; 2
    4c3a:	59 f0       	breq	.+22     	; 0x4c52 <ComfortMode_ActionCallback+0x1e>
    4c3c:	18 f0       	brcs	.+6      	; 0x4c44 <ComfortMode_ActionCallback+0x10>
    4c3e:	93 30       	cpi	r25, 0x03	; 3
    4c40:	a9 f0       	breq	.+42     	; 0x4c6c <ComfortMode_ActionCallback+0x38>
    4c42:	0f c0       	rjmp	.+30     	; 0x4c62 <ComfortMode_ActionCallback+0x2e>
		case MENU_UP:
		case MENU_DOWN:
			ComfortMode ^= (1 << 1);
    4c44:	90 91 0f 07 	lds	r25, 0x070F	; 0x80070f <ComfortMode>
    4c48:	82 e0       	ldi	r24, 0x02	; 2
    4c4a:	89 27       	eor	r24, r25
    4c4c:	80 93 0f 07 	sts	0x070F, r24	; 0x80070f <ComfortMode>
			break;
    4c50:	08 c0       	rjmp	.+16     	; 0x4c62 <ComfortMode_ActionCallback+0x2e>
		case MENU_CONFIRM:
			eeprom_update_byte(&eeComfortMode, ComfortMode);
    4c52:	60 91 0f 07 	lds	r22, 0x070F	; 0x80070f <ComfortMode>
    4c56:	81 e2       	ldi	r24, 0x21	; 33
    4c58:	90 e0       	ldi	r25, 0x00	; 0
    4c5a:	0e 94 96 2e 	call	0x5d2c	; 0x5d2c <eeprom_update_byte>
			return true;
    4c5e:	81 e0       	ldi	r24, 0x01	; 1
    4c60:	08 95       	ret
		case MENU_CANCEL:
		return true;
	}
	
	 ComfortMode_CallbackRender(column);
    4c62:	86 2f       	mov	r24, r22
    4c64:	0e 94 37 22 	call	0x446e	; 0x446e <ComfortMode_CallbackRender>
	 return false;
    4c68:	80 e0       	ldi	r24, 0x00	; 0
    4c6a:	08 95       	ret
			break;
		case MENU_CONFIRM:
			eeprom_update_byte(&eeComfortMode, ComfortMode);
			return true;
		case MENU_CANCEL:
		return true;
    4c6c:	81 e0       	ldi	r24, 0x01	; 1
	}
	
	 ComfortMode_CallbackRender(column);
	 return false;
}
    4c6e:	08 95       	ret

00004c70 <ComfortForwardTemp_ActionCallback>:
	itoa(ComfortForwardTemp, buf, 10);
	lcd_puts(buf);
}

bool ComfortForwardTemp_ActionCallback(MENU_BUTTON *button, uint8_t column){
	switch(button->role){
    4c70:	fc 01       	movw	r30, r24
    4c72:	90 81       	ld	r25, Z
    4c74:	91 30       	cpi	r25, 0x01	; 1
    4c76:	99 f0       	breq	.+38     	; 0x4c9e <ComfortForwardTemp_ActionCallback+0x2e>
    4c78:	28 f0       	brcs	.+10     	; 0x4c84 <ComfortForwardTemp_ActionCallback+0x14>
    4c7a:	92 30       	cpi	r25, 0x02	; 2
    4c7c:	c1 f0       	breq	.+48     	; 0x4cae <ComfortForwardTemp_ActionCallback+0x3e>
    4c7e:	93 30       	cpi	r25, 0x03	; 3
    4c80:	19 f1       	breq	.+70     	; 0x4cc8 <ComfortForwardTemp_ActionCallback+0x58>
    4c82:	1d c0       	rjmp	.+58     	; 0x4cbe <ComfortForwardTemp_ActionCallback+0x4e>
		case MENU_UP:
			if (++ComfortForwardTemp == ForwardHeatTemp)
    4c84:	90 91 0e 01 	lds	r25, 0x010E	; 0x80010e <ComfortForwardTemp>
    4c88:	81 e0       	ldi	r24, 0x01	; 1
    4c8a:	89 0f       	add	r24, r25
    4c8c:	80 93 0e 01 	sts	0x010E, r24	; 0x80010e <ComfortForwardTemp>
    4c90:	20 91 09 01 	lds	r18, 0x0109	; 0x800109 <ForwardHeatTemp>
    4c94:	82 13       	cpse	r24, r18
    4c96:	13 c0       	rjmp	.+38     	; 0x4cbe <ComfortForwardTemp_ActionCallback+0x4e>
				ComfortForwardTemp--;
    4c98:	90 93 0e 01 	sts	0x010E, r25	; 0x80010e <ComfortForwardTemp>
    4c9c:	10 c0       	rjmp	.+32     	; 0x4cbe <ComfortForwardTemp_ActionCallback+0x4e>
			break;
		case MENU_DOWN:
			if (--ComfortForwardTemp == 10)
    4c9e:	80 91 0e 01 	lds	r24, 0x010E	; 0x80010e <ComfortForwardTemp>
    4ca2:	81 50       	subi	r24, 0x01	; 1
    4ca4:	8a 30       	cpi	r24, 0x0A	; 10
    4ca6:	59 f0       	breq	.+22     	; 0x4cbe <ComfortForwardTemp_ActionCallback+0x4e>
    4ca8:	80 93 0e 01 	sts	0x010E, r24	; 0x80010e <ComfortForwardTemp>
    4cac:	08 c0       	rjmp	.+16     	; 0x4cbe <ComfortForwardTemp_ActionCallback+0x4e>
				ComfortForwardTemp++;
			break;
		case MENU_CONFIRM:
			eeprom_update_byte(&eeComfortForwardTemp, ComfortForwardTemp);
    4cae:	60 91 0e 01 	lds	r22, 0x010E	; 0x80010e <ComfortForwardTemp>
    4cb2:	8e e1       	ldi	r24, 0x1E	; 30
    4cb4:	90 e0       	ldi	r25, 0x00	; 0
    4cb6:	0e 94 96 2e 	call	0x5d2c	; 0x5d2c <eeprom_update_byte>
			return true;
    4cba:	81 e0       	ldi	r24, 0x01	; 1
    4cbc:	08 95       	ret
		case MENU_CANCEL:
			return true;
	}

	ComfortForwardTemp_CallbackRender(column);
    4cbe:	86 2f       	mov	r24, r22
    4cc0:	0e 94 49 1c 	call	0x3892	; 0x3892 <ComfortForwardTemp_CallbackRender>
	return false;
    4cc4:	80 e0       	ldi	r24, 0x00	; 0
    4cc6:	08 95       	ret
			break;
		case MENU_CONFIRM:
			eeprom_update_byte(&eeComfortForwardTemp, ComfortForwardTemp);
			return true;
		case MENU_CANCEL:
			return true;
    4cc8:	81 e0       	ldi	r24, 0x01	; 1
	}

	ComfortForwardTemp_CallbackRender(column);
	return false;
}
    4cca:	08 95       	ret

00004ccc <DHWRelay_ActionCallback>:
		lcd_puts_p(PSTR("Be"));
	else
		lcd_puts_p(PSTR("Ki"));
}

bool DHWRelay_ActionCallback(MENU_BUTTON *button, uint8_t column){
    4ccc:	cf 93       	push	r28
    4cce:	c6 2f       	mov	r28, r22
	switch(button->role){
    4cd0:	fc 01       	movw	r30, r24
    4cd2:	80 81       	ld	r24, Z
    4cd4:	82 30       	cpi	r24, 0x02	; 2
    4cd6:	18 f0       	brcs	.+6      	; 0x4cde <DHWRelay_ActionCallback+0x12>
    4cd8:	84 30       	cpi	r24, 0x04	; 4
    4cda:	48 f4       	brcc	.+18     	; 0x4cee <DHWRelay_ActionCallback+0x22>
    4cdc:	0d c0       	rjmp	.+26     	; 0x4cf8 <DHWRelay_ActionCallback+0x2c>
		case MENU_UP:
		case MENU_DOWN:
		{
			Relays ^= (1 << DHW_VALVE_RELAY);
    4cde:	90 91 0c 07 	lds	r25, 0x070C	; 0x80070c <Relays>
    4ce2:	81 e0       	ldi	r24, 0x01	; 1
    4ce4:	89 27       	eor	r24, r25
    4ce6:	80 93 0c 07 	sts	0x070C, r24	; 0x80070c <Relays>
			SwitchRelays();
    4cea:	0e 94 49 0f 	call	0x1e92	; 0x1e92 <SwitchRelays>
			return true;
		case MENU_CANCEL:
			return true;
	}

	DHWRelay_CallbackRender(column);
    4cee:	8c 2f       	mov	r24, r28
    4cf0:	0e 94 cb 1f 	call	0x3f96	; 0x3f96 <DHWRelay_CallbackRender>
	return false;
    4cf4:	80 e0       	ldi	r24, 0x00	; 0
    4cf6:	01 c0       	rjmp	.+2      	; 0x4cfa <DHWRelay_ActionCallback+0x2e>
			Relays ^= (1 << DHW_VALVE_RELAY);
			SwitchRelays();
			break;
		}
		case MENU_CONFIRM:
			return true;
    4cf8:	81 e0       	ldi	r24, 0x01	; 1
			return true;
	}

	DHWRelay_CallbackRender(column);
	return false;
}
    4cfa:	cf 91       	pop	r28
    4cfc:	08 95       	ret

00004cfe <ZoneValve1_ActionCallback>:
		lcd_puts_p(PSTR("Be"));
	else
		lcd_puts_p(PSTR("Ki"));
}

bool ZoneValve1_ActionCallback(MENU_BUTTON *button, uint8_t column){
    4cfe:	cf 93       	push	r28
    4d00:	c6 2f       	mov	r28, r22
	switch(button->role){
    4d02:	fc 01       	movw	r30, r24
    4d04:	80 81       	ld	r24, Z
    4d06:	82 30       	cpi	r24, 0x02	; 2
    4d08:	18 f0       	brcs	.+6      	; 0x4d10 <ZoneValve1_ActionCallback+0x12>
    4d0a:	84 30       	cpi	r24, 0x04	; 4
    4d0c:	40 f4       	brcc	.+16     	; 0x4d1e <ZoneValve1_ActionCallback+0x20>
    4d0e:	0c c0       	rjmp	.+24     	; 0x4d28 <ZoneValve1_ActionCallback+0x2a>
		case MENU_UP:
		case MENU_DOWN:
			Relays ^= (1 << FIRST_FLOOR_VALVE);
    4d10:	80 91 0c 07 	lds	r24, 0x070C	; 0x80070c <Relays>
    4d14:	80 58       	subi	r24, 0x80	; 128
    4d16:	80 93 0c 07 	sts	0x070C, r24	; 0x80070c <Relays>
			SwitchRelays();
    4d1a:	0e 94 49 0f 	call	0x1e92	; 0x1e92 <SwitchRelays>
		return true;
		case MENU_CANCEL:
		return true;
	}

	ZoneValve1_CallbackRender(column);
    4d1e:	8c 2f       	mov	r24, r28
    4d20:	0e 94 e3 1f 	call	0x3fc6	; 0x3fc6 <ZoneValve1_CallbackRender>
	return false;
    4d24:	80 e0       	ldi	r24, 0x00	; 0
    4d26:	01 c0       	rjmp	.+2      	; 0x4d2a <ZoneValve1_ActionCallback+0x2c>
		case MENU_DOWN:
			Relays ^= (1 << FIRST_FLOOR_VALVE);
			SwitchRelays();
			break;
		case MENU_CONFIRM:
		return true;
    4d28:	81 e0       	ldi	r24, 0x01	; 1
		return true;
	}

	ZoneValve1_CallbackRender(column);
	return false;
}
    4d2a:	cf 91       	pop	r28
    4d2c:	08 95       	ret

00004d2e <ZoneValve2_ActionCallback>:
			lcd_puts_p(PSTR("Be"));
		else
			lcd_puts_p(PSTR("Ki"));
}

bool ZoneValve2_ActionCallback(MENU_BUTTON *button, uint8_t column){
    4d2e:	cf 93       	push	r28
    4d30:	c6 2f       	mov	r28, r22
	switch(button->role){
    4d32:	fc 01       	movw	r30, r24
    4d34:	80 81       	ld	r24, Z
    4d36:	82 30       	cpi	r24, 0x02	; 2
    4d38:	18 f0       	brcs	.+6      	; 0x4d40 <ZoneValve2_ActionCallback+0x12>
    4d3a:	84 30       	cpi	r24, 0x04	; 4
    4d3c:	48 f4       	brcc	.+18     	; 0x4d50 <ZoneValve2_ActionCallback+0x22>
    4d3e:	0d c0       	rjmp	.+26     	; 0x4d5a <ZoneValve2_ActionCallback+0x2c>
		case MENU_UP:
		case MENU_DOWN:
			Relays ^= (1 << SECOND_FLOOR_VALVE);
    4d40:	90 91 0c 07 	lds	r25, 0x070C	; 0x80070c <Relays>
    4d44:	80 e4       	ldi	r24, 0x40	; 64
    4d46:	89 27       	eor	r24, r25
    4d48:	80 93 0c 07 	sts	0x070C, r24	; 0x80070c <Relays>
			SwitchRelays();
    4d4c:	0e 94 49 0f 	call	0x1e92	; 0x1e92 <SwitchRelays>
		return true;
		case MENU_CANCEL:
		return true;
	}

	ZoneValve2_CallbackRender(column);
    4d50:	8c 2f       	mov	r24, r28
    4d52:	0e 94 fb 1f 	call	0x3ff6	; 0x3ff6 <ZoneValve2_CallbackRender>
	return false;
    4d56:	80 e0       	ldi	r24, 0x00	; 0
    4d58:	01 c0       	rjmp	.+2      	; 0x4d5c <ZoneValve2_ActionCallback+0x2e>
		case MENU_DOWN:
			Relays ^= (1 << SECOND_FLOOR_VALVE);
			SwitchRelays();
			break;
		case MENU_CONFIRM:
		return true;
    4d5a:	81 e0       	ldi	r24, 0x01	; 1
		return true;
	}

	ZoneValve2_CallbackRender(column);
	return false;
}
    4d5c:	cf 91       	pop	r28
    4d5e:	08 95       	ret

00004d60 <BufferValve_ActionCallback>:
		lcd_puts_p(PSTR("Puffer"));
	else
		lcd_puts_hu(PSTR("Gáz"));
}

bool BufferValve_ActionCallback(MENU_BUTTON *button, uint8_t column){
    4d60:	cf 93       	push	r28
    4d62:	c6 2f       	mov	r28, r22
	switch(button->role){
    4d64:	fc 01       	movw	r30, r24
    4d66:	80 81       	ld	r24, Z
    4d68:	82 30       	cpi	r24, 0x02	; 2
    4d6a:	18 f0       	brcs	.+6      	; 0x4d72 <BufferValve_ActionCallback+0x12>
    4d6c:	84 30       	cpi	r24, 0x04	; 4
    4d6e:	48 f4       	brcc	.+18     	; 0x4d82 <BufferValve_ActionCallback+0x22>
    4d70:	0d c0       	rjmp	.+26     	; 0x4d8c <BufferValve_ActionCallback+0x2c>
		case MENU_UP:
		case MENU_DOWN:
			Relays ^= (1 << BUFFER_VALVE_RELAY);
    4d72:	90 91 0c 07 	lds	r25, 0x070C	; 0x80070c <Relays>
    4d76:	80 e2       	ldi	r24, 0x20	; 32
    4d78:	89 27       	eor	r24, r25
    4d7a:	80 93 0c 07 	sts	0x070C, r24	; 0x80070c <Relays>
			SwitchRelays();
    4d7e:	0e 94 49 0f 	call	0x1e92	; 0x1e92 <SwitchRelays>
		return true;
		case MENU_CANCEL:
		return true;
	}

	BufferValve_CallbackRender(column);
    4d82:	8c 2f       	mov	r24, r28
    4d84:	0e 94 13 20 	call	0x4026	; 0x4026 <BufferValve_CallbackRender>
	return false;
    4d88:	80 e0       	ldi	r24, 0x00	; 0
    4d8a:	01 c0       	rjmp	.+2      	; 0x4d8e <BufferValve_ActionCallback+0x2e>
		case MENU_DOWN:
			Relays ^= (1 << BUFFER_VALVE_RELAY);
			SwitchRelays();
			break;
		case MENU_CONFIRM:
		return true;
    4d8c:	81 e0       	ldi	r24, 0x01	; 1
		return true;
	}

	BufferValve_CallbackRender(column);
	return false;
}
    4d8e:	cf 91       	pop	r28
    4d90:	08 95       	ret

00004d92 <BufferPump_ActionCallback>:
		lcd_puts_p(PSTR("Be"));
	else
		lcd_puts_p(PSTR("Ki"));
}

bool BufferPump_ActionCallback(MENU_BUTTON *button, uint8_t column){
    4d92:	cf 93       	push	r28
    4d94:	c6 2f       	mov	r28, r22
	switch(button->role){
    4d96:	fc 01       	movw	r30, r24
    4d98:	80 81       	ld	r24, Z
    4d9a:	82 30       	cpi	r24, 0x02	; 2
    4d9c:	18 f0       	brcs	.+6      	; 0x4da4 <BufferPump_ActionCallback+0x12>
    4d9e:	84 30       	cpi	r24, 0x04	; 4
    4da0:	48 f4       	brcc	.+18     	; 0x4db4 <BufferPump_ActionCallback+0x22>
    4da2:	0d c0       	rjmp	.+26     	; 0x4dbe <BufferPump_ActionCallback+0x2c>
		case MENU_UP:
		case MENU_DOWN:
			Relays ^= (1 << BUFFER_PUMP_RELAY);
    4da4:	90 91 0c 07 	lds	r25, 0x070C	; 0x80070c <Relays>
    4da8:	80 e1       	ldi	r24, 0x10	; 16
    4daa:	89 27       	eor	r24, r25
    4dac:	80 93 0c 07 	sts	0x070C, r24	; 0x80070c <Relays>
			SwitchRelays();
    4db0:	0e 94 49 0f 	call	0x1e92	; 0x1e92 <SwitchRelays>
		return true;
		case MENU_CANCEL:
		return true;
	}

	BufferPump_CallbackRender(column);
    4db4:	8c 2f       	mov	r24, r28
    4db6:	0e 94 2b 20 	call	0x4056	; 0x4056 <BufferPump_CallbackRender>
	return false;
    4dba:	80 e0       	ldi	r24, 0x00	; 0
    4dbc:	01 c0       	rjmp	.+2      	; 0x4dc0 <BufferPump_ActionCallback+0x2e>
		case MENU_DOWN:
			Relays ^= (1 << BUFFER_PUMP_RELAY);
			SwitchRelays();
			break;
		case MENU_CONFIRM:
		return true;
    4dbe:	81 e0       	ldi	r24, 0x01	; 1
		return true;
	}

	BufferPump_CallbackRender(column);
	return false;
}
    4dc0:	cf 91       	pop	r28
    4dc2:	08 95       	ret

00004dc4 <GasRelay_ActionCallback>:
		lcd_puts_p(PSTR("Be"));
	else
		lcd_puts_p(PSTR("Ki"));
}

bool GasRelay_ActionCallback(MENU_BUTTON *button, uint8_t column){
    4dc4:	cf 93       	push	r28
    4dc6:	c6 2f       	mov	r28, r22
	switch(button->role){
    4dc8:	fc 01       	movw	r30, r24
    4dca:	80 81       	ld	r24, Z
    4dcc:	82 30       	cpi	r24, 0x02	; 2
    4dce:	18 f0       	brcs	.+6      	; 0x4dd6 <GasRelay_ActionCallback+0x12>
    4dd0:	84 30       	cpi	r24, 0x04	; 4
    4dd2:	48 f4       	brcc	.+18     	; 0x4de6 <GasRelay_ActionCallback+0x22>
    4dd4:	0d c0       	rjmp	.+26     	; 0x4df0 <GasRelay_ActionCallback+0x2c>
		case MENU_UP:
		case MENU_DOWN:
			Relays ^= (1 << GAS_RELAY);
    4dd6:	90 91 0c 07 	lds	r25, 0x070C	; 0x80070c <Relays>
    4dda:	82 e0       	ldi	r24, 0x02	; 2
    4ddc:	89 27       	eor	r24, r25
    4dde:	80 93 0c 07 	sts	0x070C, r24	; 0x80070c <Relays>
			SwitchRelays();
    4de2:	0e 94 49 0f 	call	0x1e92	; 0x1e92 <SwitchRelays>
		return true;
		case MENU_CANCEL:
		return true;
	}

	GasRelay_CallbackRender(column);
    4de6:	8c 2f       	mov	r24, r28
    4de8:	0e 94 43 20 	call	0x4086	; 0x4086 <GasRelay_CallbackRender>
	return false;
    4dec:	80 e0       	ldi	r24, 0x00	; 0
    4dee:	01 c0       	rjmp	.+2      	; 0x4df2 <GasRelay_ActionCallback+0x2e>
		case MENU_DOWN:
			Relays ^= (1 << GAS_RELAY);
			SwitchRelays();
			break;
		case MENU_CONFIRM:
		return true;
    4df0:	81 e0       	ldi	r24, 0x01	; 1
		return true;
	}

	GasRelay_CallbackRender(column);
	return false;
}
    4df2:	cf 91       	pop	r28
    4df4:	08 95       	ret

00004df6 <menuItemsGetHomeMenu>:
** Public methods to access home view and home view size
*/

MENU_ITEM *menuItemsGetHomeMenu(){
	return home_items;
}
    4df6:	8d e4       	ldi	r24, 0x4D	; 77
    4df8:	91 e0       	ldi	r25, 0x01	; 1
    4dfa:	08 95       	ret

00004dfc <menuItemsGetHomeMenuSize>:

uint8_t menuItemsGetHomeMenuSize(){
	return MENU_HOME_ITEMS;
    4dfc:	87 e0       	ldi	r24, 0x07	; 7
    4dfe:	08 95       	ret

00004e00 <menuPortsioInit>:
#include "menu_portsio.h"


static void setupPortsForControlButtons(){
	// Set buttons as input
	MENU_PORTSIO_DDR &= ~(_BV(MENU_PORTSIO_BTN_UP)     |
    4e00:	81 b3       	in	r24, 0x11	; 17
    4e02:	8f 70       	andi	r24, 0x0F	; 15
    4e04:	81 bb       	out	0x11, r24	; 17
					     _BV(MENU_PORTSIO_BTN_DOWN)    |
					     _BV(MENU_PORTSIO_BTN_CONFIRM) |
					     _BV(MENU_PORTSIO_BTN_CANCEL));

	// with active low
	MENU_PORTSIO_PORT |= _BV(MENU_PORTSIO_BTN_UP)      |
    4e06:	82 b3       	in	r24, 0x12	; 18
    4e08:	80 6f       	ori	r24, 0xF0	; 240
    4e0a:	82 bb       	out	0x12, r24	; 18
    4e0c:	08 95       	ret

00004e0e <SPIInit>:
#include "spi.h"

void SPIInit()
{
	//Set up SPI I/O Ports
	SPI_DDR |= (1<<MOSI_POS)|(1<<SCK_POS)|(1<<SS_POS);
    4e0e:	87 b3       	in	r24, 0x17	; 23
    4e10:	87 60       	ori	r24, 0x07	; 7
    4e12:	87 bb       	out	0x17, r24	; 23
	
	SPI_PORT |= (1<<SS_POS)|(1 << MISO_POS);
    4e14:	88 b3       	in	r24, 0x18	; 24
    4e16:	89 60       	ori	r24, 0x09	; 9
    4e18:	88 bb       	out	0x18, r24	; 24

	SPI_CS_PORT |= 0xFF;
    4e1a:	8b b3       	in	r24, 0x1b	; 27
    4e1c:	8f ef       	ldi	r24, 0xFF	; 255
    4e1e:	8b bb       	out	0x1b, r24	; 27
	SPI_CS_DDR |= 0xFF;
    4e20:	9a b3       	in	r25, 0x1a	; 26
    4e22:	8a bb       	out	0x1a, r24	; 26

	SPCR |= (1 << SPE)|(1 << MSTR)|(1 << SPR0)|(1 << SPR1);
    4e24:	8d b1       	in	r24, 0x0d	; 13
    4e26:	83 65       	ori	r24, 0x53	; 83
    4e28:	8d b9       	out	0x0d, r24	; 13
    4e2a:	08 95       	ret

00004e2c <SPIClose>:
}

void SPIClose()
{
	SPCR&=(~(1<<SPE));
    4e2c:	6e 98       	cbi	0x0d, 6	; 13
	SPI_DDR&=(~((1<<MOSI_POS)|(1<<SCK_POS)));
    4e2e:	87 b3       	in	r24, 0x17	; 23
    4e30:	89 7f       	andi	r24, 0xF9	; 249
    4e32:	87 bb       	out	0x17, r24	; 23
    4e34:	08 95       	ret

00004e36 <SPIWrite>:
}

unsigned char SPIWrite(unsigned char address, unsigned char data)
{
	SPI_CS_PORT &= ~(1 << address);
    4e36:	4b b3       	in	r20, 0x1b	; 27
    4e38:	21 e0       	ldi	r18, 0x01	; 1
    4e3a:	30 e0       	ldi	r19, 0x00	; 0
    4e3c:	f9 01       	movw	r30, r18
    4e3e:	02 c0       	rjmp	.+4      	; 0x4e44 <SPIWrite+0xe>
    4e40:	ee 0f       	add	r30, r30
    4e42:	ff 1f       	adc	r31, r31
    4e44:	8a 95       	dec	r24
    4e46:	e2 f7       	brpl	.-8      	; 0x4e40 <SPIWrite+0xa>
    4e48:	cf 01       	movw	r24, r30
    4e4a:	2e 2f       	mov	r18, r30
    4e4c:	20 95       	com	r18
    4e4e:	42 23       	and	r20, r18
    4e50:	4b bb       	out	0x1b, r20	; 27
	SPDR = data;
    4e52:	6f b9       	out	0x0f, r22	; 15
	while(!(SPSR & (1 << SPIF)));
    4e54:	77 9b       	sbis	0x0e, 7	; 14
    4e56:	fe cf       	rjmp	.-4      	; 0x4e54 <SPIWrite+0x1e>
	SPI_CS_PORT |= (1 << address);
    4e58:	9b b3       	in	r25, 0x1b	; 27
    4e5a:	89 2b       	or	r24, r25
    4e5c:	8b bb       	out	0x1b, r24	; 27
	return SPDR;
    4e5e:	8f b1       	in	r24, 0x0f	; 15
}
    4e60:	08 95       	ret

00004e62 <__vector_18>:
    register char c;
    
    while ( (c = pgm_read_byte(progmem_s++)) ) 
      uart1_putc(c);

}/* uart1_puts_p */
    4e62:	1f 92       	push	r1
    4e64:	0f 92       	push	r0
    4e66:	0f b6       	in	r0, 0x3f	; 63
    4e68:	0f 92       	push	r0
    4e6a:	11 24       	eor	r1, r1
    4e6c:	2f 93       	push	r18
    4e6e:	8f 93       	push	r24
    4e70:	9f 93       	push	r25
    4e72:	ef 93       	push	r30
    4e74:	ff 93       	push	r31
    4e76:	8b b1       	in	r24, 0x0b	; 11
    4e78:	2c b1       	in	r18, 0x0c	; 12
    4e7a:	8c 71       	andi	r24, 0x1C	; 28
    4e7c:	e0 91 5a 07 	lds	r30, 0x075A	; 0x80075a <UART_RxHead>
    4e80:	ef 5f       	subi	r30, 0xFF	; 255
    4e82:	ef 71       	andi	r30, 0x1F	; 31
    4e84:	90 91 59 07 	lds	r25, 0x0759	; 0x800759 <UART_RxTail>
    4e88:	e9 17       	cp	r30, r25
    4e8a:	39 f0       	breq	.+14     	; 0x4e9a <__vector_18+0x38>
    4e8c:	e0 93 5a 07 	sts	0x075A, r30	; 0x80075a <UART_RxHead>
    4e90:	f0 e0       	ldi	r31, 0x00	; 0
    4e92:	e3 5a       	subi	r30, 0xA3	; 163
    4e94:	f8 4f       	sbci	r31, 0xF8	; 248
    4e96:	20 83       	st	Z, r18
    4e98:	01 c0       	rjmp	.+2      	; 0x4e9c <__vector_18+0x3a>
    4e9a:	82 e0       	ldi	r24, 0x02	; 2
    4e9c:	90 91 58 07 	lds	r25, 0x0758	; 0x800758 <UART_LastRxError>
    4ea0:	89 2b       	or	r24, r25
    4ea2:	80 93 58 07 	sts	0x0758, r24	; 0x800758 <UART_LastRxError>
    4ea6:	ff 91       	pop	r31
    4ea8:	ef 91       	pop	r30
    4eaa:	9f 91       	pop	r25
    4eac:	8f 91       	pop	r24
    4eae:	2f 91       	pop	r18
    4eb0:	0f 90       	pop	r0
    4eb2:	0f be       	out	0x3f, r0	; 63
    4eb4:	0f 90       	pop	r0
    4eb6:	1f 90       	pop	r1
    4eb8:	18 95       	reti

00004eba <__vector_19>:
    4eba:	1f 92       	push	r1
    4ebc:	0f 92       	push	r0
    4ebe:	0f b6       	in	r0, 0x3f	; 63
    4ec0:	0f 92       	push	r0
    4ec2:	11 24       	eor	r1, r1
    4ec4:	8f 93       	push	r24
    4ec6:	9f 93       	push	r25
    4ec8:	ef 93       	push	r30
    4eca:	ff 93       	push	r31
    4ecc:	90 91 5c 07 	lds	r25, 0x075C	; 0x80075c <UART_TxHead>
    4ed0:	80 91 5b 07 	lds	r24, 0x075B	; 0x80075b <UART_TxTail>
    4ed4:	98 17       	cp	r25, r24
    4ed6:	61 f0       	breq	.+24     	; 0x4ef0 <__vector_19+0x36>
    4ed8:	e0 91 5b 07 	lds	r30, 0x075B	; 0x80075b <UART_TxTail>
    4edc:	ef 5f       	subi	r30, 0xFF	; 255
    4ede:	ef 71       	andi	r30, 0x1F	; 31
    4ee0:	e0 93 5b 07 	sts	0x075B, r30	; 0x80075b <UART_TxTail>
    4ee4:	f0 e0       	ldi	r31, 0x00	; 0
    4ee6:	e3 58       	subi	r30, 0x83	; 131
    4ee8:	f8 4f       	sbci	r31, 0xF8	; 248
    4eea:	80 81       	ld	r24, Z
    4eec:	8c b9       	out	0x0c, r24	; 12
    4eee:	01 c0       	rjmp	.+2      	; 0x4ef2 <__vector_19+0x38>
    4ef0:	55 98       	cbi	0x0a, 5	; 10
    4ef2:	ff 91       	pop	r31
    4ef4:	ef 91       	pop	r30
    4ef6:	9f 91       	pop	r25
    4ef8:	8f 91       	pop	r24
    4efa:	0f 90       	pop	r0
    4efc:	0f be       	out	0x3f, r0	; 63
    4efe:	0f 90       	pop	r0
    4f00:	1f 90       	pop	r1
    4f02:	18 95       	reti

00004f04 <uart_init>:
    4f04:	10 92 5c 07 	sts	0x075C, r1	; 0x80075c <UART_TxHead>
    4f08:	10 92 5b 07 	sts	0x075B, r1	; 0x80075b <UART_TxTail>
    4f0c:	10 92 5a 07 	sts	0x075A, r1	; 0x80075a <UART_RxHead>
    4f10:	10 92 59 07 	sts	0x0759, r1	; 0x800759 <UART_RxTail>
    4f14:	99 23       	and	r25, r25
    4f16:	14 f4       	brge	.+4      	; 0x4f1c <uart_init+0x18>
    4f18:	22 e0       	ldi	r18, 0x02	; 2
    4f1a:	2b b9       	out	0x0b, r18	; 11
    4f1c:	90 78       	andi	r25, 0x80	; 128
    4f1e:	90 93 90 00 	sts	0x0090, r25	; 0x800090 <__TEXT_REGION_LENGTH__+0x7e0090>
    4f22:	89 b9       	out	0x09, r24	; 9
    4f24:	88 e9       	ldi	r24, 0x98	; 152
    4f26:	8a b9       	out	0x0a, r24	; 10
    4f28:	86 e0       	ldi	r24, 0x06	; 6
    4f2a:	80 93 95 00 	sts	0x0095, r24	; 0x800095 <__TEXT_REGION_LENGTH__+0x7e0095>
    4f2e:	08 95       	ret

00004f30 <uart_getc>:
    4f30:	90 91 5a 07 	lds	r25, 0x075A	; 0x80075a <UART_RxHead>
    4f34:	80 91 59 07 	lds	r24, 0x0759	; 0x800759 <UART_RxTail>
    4f38:	98 17       	cp	r25, r24
    4f3a:	a9 f0       	breq	.+42     	; 0x4f66 <uart_getc+0x36>
    4f3c:	90 91 59 07 	lds	r25, 0x0759	; 0x800759 <UART_RxTail>
    4f40:	9f 5f       	subi	r25, 0xFF	; 255
    4f42:	9f 71       	andi	r25, 0x1F	; 31
    4f44:	e9 2f       	mov	r30, r25
    4f46:	f0 e0       	ldi	r31, 0x00	; 0
    4f48:	e3 5a       	subi	r30, 0xA3	; 163
    4f4a:	f8 4f       	sbci	r31, 0xF8	; 248
    4f4c:	20 81       	ld	r18, Z
    4f4e:	80 91 58 07 	lds	r24, 0x0758	; 0x800758 <UART_LastRxError>
    4f52:	90 93 59 07 	sts	0x0759, r25	; 0x800759 <UART_RxTail>
    4f56:	10 92 58 07 	sts	0x0758, r1	; 0x800758 <UART_LastRxError>
    4f5a:	90 e0       	ldi	r25, 0x00	; 0
    4f5c:	98 2f       	mov	r25, r24
    4f5e:	88 27       	eor	r24, r24
    4f60:	82 0f       	add	r24, r18
    4f62:	91 1d       	adc	r25, r1
    4f64:	08 95       	ret
    4f66:	80 e0       	ldi	r24, 0x00	; 0
    4f68:	91 e0       	ldi	r25, 0x01	; 1
    4f6a:	08 95       	ret

00004f6c <uart_putc>:
    4f6c:	20 91 5c 07 	lds	r18, 0x075C	; 0x80075c <UART_TxHead>
    4f70:	2f 5f       	subi	r18, 0xFF	; 255
    4f72:	2f 71       	andi	r18, 0x1F	; 31
    4f74:	90 91 5b 07 	lds	r25, 0x075B	; 0x80075b <UART_TxTail>
    4f78:	29 17       	cp	r18, r25
    4f7a:	e1 f3       	breq	.-8      	; 0x4f74 <uart_putc+0x8>
    4f7c:	e2 2f       	mov	r30, r18
    4f7e:	f0 e0       	ldi	r31, 0x00	; 0
    4f80:	e3 58       	subi	r30, 0x83	; 131
    4f82:	f8 4f       	sbci	r31, 0xF8	; 248
    4f84:	80 83       	st	Z, r24
    4f86:	20 93 5c 07 	sts	0x075C, r18	; 0x80075c <UART_TxHead>
    4f8a:	55 9a       	sbi	0x0a, 5	; 10
    4f8c:	08 95       	ret

00004f8e <uart_puts>:
    4f8e:	cf 93       	push	r28
    4f90:	df 93       	push	r29
    4f92:	ec 01       	movw	r28, r24
    4f94:	88 81       	ld	r24, Y
    4f96:	88 23       	and	r24, r24
    4f98:	31 f0       	breq	.+12     	; 0x4fa6 <uart_puts+0x18>
    4f9a:	21 96       	adiw	r28, 0x01	; 1
    4f9c:	0e 94 b6 27 	call	0x4f6c	; 0x4f6c <uart_putc>
    4fa0:	89 91       	ld	r24, Y+
    4fa2:	81 11       	cpse	r24, r1
    4fa4:	fb cf       	rjmp	.-10     	; 0x4f9c <uart_puts+0xe>
    4fa6:	df 91       	pop	r29
    4fa8:	cf 91       	pop	r28
    4faa:	08 95       	ret

00004fac <uart_puts_p>:
    4fac:	cf 93       	push	r28
    4fae:	df 93       	push	r29
    4fb0:	ec 01       	movw	r28, r24
    4fb2:	21 96       	adiw	r28, 0x01	; 1
    4fb4:	fc 01       	movw	r30, r24
    4fb6:	84 91       	lpm	r24, Z
    4fb8:	88 23       	and	r24, r24
    4fba:	39 f0       	breq	.+14     	; 0x4fca <uart_puts_p+0x1e>
    4fbc:	0e 94 b6 27 	call	0x4f6c	; 0x4f6c <uart_putc>
    4fc0:	fe 01       	movw	r30, r28
    4fc2:	84 91       	lpm	r24, Z
    4fc4:	21 96       	adiw	r28, 0x01	; 1
    4fc6:	81 11       	cpse	r24, r1
    4fc8:	f9 cf       	rjmp	.-14     	; 0x4fbc <uart_puts_p+0x10>
    4fca:	df 91       	pop	r29
    4fcc:	cf 91       	pop	r28
    4fce:	08 95       	ret

00004fd0 <__vector_30>:
    4fd0:	1f 92       	push	r1
    4fd2:	0f 92       	push	r0
    4fd4:	0f b6       	in	r0, 0x3f	; 63
    4fd6:	0f 92       	push	r0
    4fd8:	11 24       	eor	r1, r1
    4fda:	2f 93       	push	r18
    4fdc:	8f 93       	push	r24
    4fde:	9f 93       	push	r25
    4fe0:	ef 93       	push	r30
    4fe2:	ff 93       	push	r31
    4fe4:	80 91 9b 00 	lds	r24, 0x009B	; 0x80009b <__TEXT_REGION_LENGTH__+0x7e009b>
    4fe8:	20 91 9c 00 	lds	r18, 0x009C	; 0x80009c <__TEXT_REGION_LENGTH__+0x7e009c>
    4fec:	8c 71       	andi	r24, 0x1C	; 28
    4fee:	e0 91 15 07 	lds	r30, 0x0715	; 0x800715 <UART1_RxHead>
    4ff2:	ef 5f       	subi	r30, 0xFF	; 255
    4ff4:	ef 71       	andi	r30, 0x1F	; 31
    4ff6:	90 91 14 07 	lds	r25, 0x0714	; 0x800714 <UART1_RxTail>
    4ffa:	e9 17       	cp	r30, r25
    4ffc:	39 f0       	breq	.+14     	; 0x500c <__vector_30+0x3c>
    4ffe:	e0 93 15 07 	sts	0x0715, r30	; 0x800715 <UART1_RxHead>
    5002:	f0 e0       	ldi	r31, 0x00	; 0
    5004:	e8 5e       	subi	r30, 0xE8	; 232
    5006:	f8 4f       	sbci	r31, 0xF8	; 248
    5008:	20 83       	st	Z, r18
    500a:	01 c0       	rjmp	.+2      	; 0x500e <__vector_30+0x3e>
    500c:	82 e0       	ldi	r24, 0x02	; 2
    500e:	90 91 13 07 	lds	r25, 0x0713	; 0x800713 <UART1_LastRxError>
    5012:	89 2b       	or	r24, r25
    5014:	80 93 13 07 	sts	0x0713, r24	; 0x800713 <UART1_LastRxError>
    5018:	ff 91       	pop	r31
    501a:	ef 91       	pop	r30
    501c:	9f 91       	pop	r25
    501e:	8f 91       	pop	r24
    5020:	2f 91       	pop	r18
    5022:	0f 90       	pop	r0
    5024:	0f be       	out	0x3f, r0	; 63
    5026:	0f 90       	pop	r0
    5028:	1f 90       	pop	r1
    502a:	18 95       	reti

0000502c <__vector_31>:
    502c:	1f 92       	push	r1
    502e:	0f 92       	push	r0
    5030:	0f b6       	in	r0, 0x3f	; 63
    5032:	0f 92       	push	r0
    5034:	11 24       	eor	r1, r1
    5036:	8f 93       	push	r24
    5038:	9f 93       	push	r25
    503a:	ef 93       	push	r30
    503c:	ff 93       	push	r31
    503e:	90 91 17 07 	lds	r25, 0x0717	; 0x800717 <UART1_TxHead>
    5042:	80 91 16 07 	lds	r24, 0x0716	; 0x800716 <UART1_TxTail>
    5046:	98 17       	cp	r25, r24
    5048:	69 f0       	breq	.+26     	; 0x5064 <__vector_31+0x38>
    504a:	e0 91 16 07 	lds	r30, 0x0716	; 0x800716 <UART1_TxTail>
    504e:	ef 5f       	subi	r30, 0xFF	; 255
    5050:	ef 71       	andi	r30, 0x1F	; 31
    5052:	e0 93 16 07 	sts	0x0716, r30	; 0x800716 <UART1_TxTail>
    5056:	f0 e0       	ldi	r31, 0x00	; 0
    5058:	e8 5c       	subi	r30, 0xC8	; 200
    505a:	f8 4f       	sbci	r31, 0xF8	; 248
    505c:	80 81       	ld	r24, Z
    505e:	80 93 9c 00 	sts	0x009C, r24	; 0x80009c <__TEXT_REGION_LENGTH__+0x7e009c>
    5062:	05 c0       	rjmp	.+10     	; 0x506e <__vector_31+0x42>
    5064:	ea e9       	ldi	r30, 0x9A	; 154
    5066:	f0 e0       	ldi	r31, 0x00	; 0
    5068:	80 81       	ld	r24, Z
    506a:	8f 7d       	andi	r24, 0xDF	; 223
    506c:	80 83       	st	Z, r24
    506e:	ff 91       	pop	r31
    5070:	ef 91       	pop	r30
    5072:	9f 91       	pop	r25
    5074:	8f 91       	pop	r24
    5076:	0f 90       	pop	r0
    5078:	0f be       	out	0x3f, r0	; 63
    507a:	0f 90       	pop	r0
    507c:	1f 90       	pop	r1
    507e:	18 95       	reti

00005080 <uart_puthex_nibble>:
This functions has been added by Martin Thomas <eversmith@heizung-thomas.de>
Don't blame P. Fleury if it doesn't work ;-)
**************************************************************************/
void uart_puthex_nibble(const unsigned char b)
{
	unsigned char  c = b & 0x0f;
    5080:	8f 70       	andi	r24, 0x0F	; 15
	if (c>9) c += 'A'-10;
    5082:	8a 30       	cpi	r24, 0x0A	; 10
    5084:	10 f0       	brcs	.+4      	; 0x508a <uart_puthex_nibble+0xa>
    5086:	89 5c       	subi	r24, 0xC9	; 201
    5088:	01 c0       	rjmp	.+2      	; 0x508c <uart_puthex_nibble+0xc>
	else c += '0';
    508a:	80 5d       	subi	r24, 0xD0	; 208
	uart_putc(c);
    508c:	0e 94 b6 27 	call	0x4f6c	; 0x4f6c <uart_putc>
    5090:	08 95       	ret

00005092 <uart_puthex_byte>:
Returns:  none
This functions has been added by Martin Thomas <eversmith@heizung-thomas.de>
Don't blame P. Fleury if it doesn't work ;-)
**************************************************************************/
void uart_puthex_byte(const unsigned char  b)
{
    5092:	cf 93       	push	r28
    5094:	c8 2f       	mov	r28, r24
	uart_puthex_nibble(b>>4);
    5096:	82 95       	swap	r24
    5098:	8f 70       	andi	r24, 0x0F	; 15
    509a:	0e 94 40 28 	call	0x5080	; 0x5080 <uart_puthex_nibble>
	uart_puthex_nibble(b);
    509e:	8c 2f       	mov	r24, r28
    50a0:	0e 94 40 28 	call	0x5080	; 0x5080 <uart_puthex_nibble>
} /* uart_puthex_byte */
    50a4:	cf 91       	pop	r28
    50a6:	08 95       	ret

000050a8 <uart_puti>:
Returns:  none
This functions has been added by Martin Thomas <eversmith@heizung-thomas.de>
Don't blame P. Fleury if it doesn't work ;-)
**************************************************************************/
void uart_puti( const int val )
{
    50a8:	cf 93       	push	r28
    50aa:	df 93       	push	r29
    50ac:	cd b7       	in	r28, 0x3d	; 61
    50ae:	de b7       	in	r29, 0x3e	; 62
    50b0:	61 97       	sbiw	r28, 0x11	; 17
    50b2:	0f b6       	in	r0, 0x3f	; 63
    50b4:	f8 94       	cli
    50b6:	de bf       	out	0x3e, r29	; 62
    50b8:	0f be       	out	0x3f, r0	; 63
    50ba:	cd bf       	out	0x3d, r28	; 61
    50bc:	4a e0       	ldi	r20, 0x0A	; 10
    50be:	be 01       	movw	r22, r28
    50c0:	6f 5f       	subi	r22, 0xFF	; 255
    50c2:	7f 4f       	sbci	r23, 0xFF	; 255
    50c4:	0e 94 89 2b 	call	0x5712	; 0x5712 <__itoa_ncheck>
	char buffer[sizeof(int)*8+1];
	
	uart_puts( itoa(val, buffer, 10) );
    50c8:	0e 94 c7 27 	call	0x4f8e	; 0x4f8e <uart_puts>

}/* uart_puti */
    50cc:	61 96       	adiw	r28, 0x11	; 17
    50ce:	0f b6       	in	r0, 0x3f	; 63
    50d0:	f8 94       	cli
    50d2:	de bf       	out	0x3e, r29	; 62
    50d4:	0f be       	out	0x3f, r0	; 63
    50d6:	cd bf       	out	0x3d, r28	; 61
    50d8:	df 91       	pop	r29
    50da:	cf 91       	pop	r28
    50dc:	08 95       	ret

000050de <ftoa>:
ï»¿#include "ftoa.h"


char *ftoa(char *a, double f, int precision)
{
    50de:	2f 92       	push	r2
    50e0:	3f 92       	push	r3
    50e2:	4f 92       	push	r4
    50e4:	5f 92       	push	r5
    50e6:	6f 92       	push	r6
    50e8:	7f 92       	push	r7
    50ea:	8f 92       	push	r8
    50ec:	9f 92       	push	r9
    50ee:	af 92       	push	r10
    50f0:	bf 92       	push	r11
    50f2:	cf 92       	push	r12
    50f4:	df 92       	push	r13
    50f6:	ef 92       	push	r14
    50f8:	ff 92       	push	r15
    50fa:	0f 93       	push	r16
    50fc:	1f 93       	push	r17
    50fe:	cf 93       	push	r28
    5100:	df 93       	push	r29
    5102:	cd b7       	in	r28, 0x3d	; 61
    5104:	de b7       	in	r29, 0x3e	; 62
    5106:	a4 97       	sbiw	r28, 0x24	; 36
    5108:	0f b6       	in	r0, 0x3f	; 63
    510a:	f8 94       	cli
    510c:	de bf       	out	0x3e, r29	; 62
    510e:	0f be       	out	0x3f, r0	; 63
    5110:	cd bf       	out	0x3d, r28	; 61
    5112:	8c 01       	movw	r16, r24
    5114:	6a 01       	movw	r12, r20
    5116:	7b 01       	movw	r14, r22
    5118:	39 01       	movw	r6, r18
	long p[] = {0,10,100,1000,10000,100000,1000000,10000000,100000000};
    511a:	84 e2       	ldi	r24, 0x24	; 36
    511c:	ef e9       	ldi	r30, 0x9F	; 159
    511e:	f3 e0       	ldi	r31, 0x03	; 3
    5120:	de 01       	movw	r26, r28
    5122:	11 96       	adiw	r26, 0x01	; 1
    5124:	01 90       	ld	r0, Z+
    5126:	0d 92       	st	X+, r0
    5128:	8a 95       	dec	r24
    512a:	e1 f7       	brne	.-8      	; 0x5124 <ftoa+0x46>
	
	char *ret = a;
	long heiltal = (long)f;
    512c:	cb 01       	movw	r24, r22
    512e:	ba 01       	movw	r22, r20
    5130:	0e 94 de 29 	call	0x53bc	; 0x53bc <__fixsfsi>
    5134:	4b 01       	movw	r8, r22
    5136:	5c 01       	movw	r10, r24
    } else if (__radix < 2 || __radix > 36) {
	*__s = 0;
	return __s;
    } else {
	extern char *__ltoa_ncheck (long, char *, unsigned char);
	return __ltoa_ncheck (__val, __s, __radix);
    5138:	2a e0       	ldi	r18, 0x0A	; 10
    513a:	a8 01       	movw	r20, r16
    513c:	0e 94 94 2b 	call	0x5728	; 0x5728 <__ltoa_ncheck>
	ltoa(heiltal, a, 10);
	while (*a != '\0') a++;
    5140:	f8 01       	movw	r30, r16
    5142:	80 81       	ld	r24, Z
    5144:	88 23       	and	r24, r24
    5146:	41 f0       	breq	.+16     	; 0x5158 <ftoa+0x7a>
    5148:	c8 01       	movw	r24, r16
    514a:	01 96       	adiw	r24, 0x01	; 1
    514c:	fc 01       	movw	r30, r24
    514e:	01 96       	adiw	r24, 0x01	; 1
    5150:	20 81       	ld	r18, Z
    5152:	21 11       	cpse	r18, r1
    5154:	fb cf       	rjmp	.-10     	; 0x514c <ftoa+0x6e>
    5156:	01 c0       	rjmp	.+2      	; 0x515a <ftoa+0x7c>
    5158:	f8 01       	movw	r30, r16
	*a++ = '.';
    515a:	8e e2       	ldi	r24, 0x2E	; 46
    515c:	81 93       	st	Z+, r24
    515e:	1f 01       	movw	r2, r30
	long desimal = abs((long)((f - heiltal) * p[precision]));
    5160:	66 0c       	add	r6, r6
    5162:	77 1c       	adc	r7, r7
    5164:	66 0c       	add	r6, r6
    5166:	77 1c       	adc	r7, r7
    5168:	fe 01       	movw	r30, r28
    516a:	e6 0d       	add	r30, r6
    516c:	f7 1d       	adc	r31, r7
    516e:	61 81       	ldd	r22, Z+1	; 0x01
    5170:	72 81       	ldd	r23, Z+2	; 0x02
    5172:	83 81       	ldd	r24, Z+3	; 0x03
    5174:	94 81       	ldd	r25, Z+4	; 0x04
    5176:	0e 94 16 2a 	call	0x542c	; 0x542c <__floatsisf>
    517a:	2b 01       	movw	r4, r22
    517c:	3c 01       	movw	r6, r24
    517e:	c5 01       	movw	r24, r10
    5180:	b4 01       	movw	r22, r8
    5182:	0e 94 16 2a 	call	0x542c	; 0x542c <__floatsisf>
    5186:	9b 01       	movw	r18, r22
    5188:	ac 01       	movw	r20, r24
    518a:	c7 01       	movw	r24, r14
    518c:	b6 01       	movw	r22, r12
    518e:	0e 94 fa 28 	call	0x51f4	; 0x51f4 <__subsf3>
    5192:	9b 01       	movw	r18, r22
    5194:	ac 01       	movw	r20, r24
    5196:	c3 01       	movw	r24, r6
    5198:	b2 01       	movw	r22, r4
    519a:	0e 94 cb 2a 	call	0x5596	; 0x5596 <__mulsf3>
    519e:	0e 94 de 29 	call	0x53bc	; 0x53bc <__fixsfsi>
    51a2:	9b 01       	movw	r18, r22
    51a4:	77 23       	and	r23, r23
    51a6:	24 f4       	brge	.+8      	; 0x51b0 <ftoa+0xd2>
    51a8:	22 27       	eor	r18, r18
    51aa:	33 27       	eor	r19, r19
    51ac:	26 1b       	sub	r18, r22
    51ae:	37 0b       	sbc	r19, r23
    51b0:	b9 01       	movw	r22, r18
    51b2:	33 0f       	add	r19, r19
    51b4:	88 0b       	sbc	r24, r24
    51b6:	99 0b       	sbc	r25, r25
    51b8:	2a e0       	ldi	r18, 0x0A	; 10
    51ba:	a1 01       	movw	r20, r2
    51bc:	0e 94 94 2b 	call	0x5728	; 0x5728 <__ltoa_ncheck>
	ltoa(desimal, a, 10);
	return ret;
    51c0:	c8 01       	movw	r24, r16
    51c2:	a4 96       	adiw	r28, 0x24	; 36
    51c4:	0f b6       	in	r0, 0x3f	; 63
    51c6:	f8 94       	cli
    51c8:	de bf       	out	0x3e, r29	; 62
    51ca:	0f be       	out	0x3f, r0	; 63
    51cc:	cd bf       	out	0x3d, r28	; 61
    51ce:	df 91       	pop	r29
    51d0:	cf 91       	pop	r28
    51d2:	1f 91       	pop	r17
    51d4:	0f 91       	pop	r16
    51d6:	ff 90       	pop	r15
    51d8:	ef 90       	pop	r14
    51da:	df 90       	pop	r13
    51dc:	cf 90       	pop	r12
    51de:	bf 90       	pop	r11
    51e0:	af 90       	pop	r10
    51e2:	9f 90       	pop	r9
    51e4:	8f 90       	pop	r8
    51e6:	7f 90       	pop	r7
    51e8:	6f 90       	pop	r6
    51ea:	5f 90       	pop	r5
    51ec:	4f 90       	pop	r4
    51ee:	3f 90       	pop	r3
    51f0:	2f 90       	pop	r2
    51f2:	08 95       	ret

000051f4 <__subsf3>:
    51f4:	50 58       	subi	r21, 0x80	; 128

000051f6 <__addsf3>:
    51f6:	bb 27       	eor	r27, r27
    51f8:	aa 27       	eor	r26, r26
    51fa:	0e 94 12 29 	call	0x5224	; 0x5224 <__addsf3x>
    51fe:	0c 94 8c 2a 	jmp	0x5518	; 0x5518 <__fp_round>
    5202:	0e 94 7e 2a 	call	0x54fc	; 0x54fc <__fp_pscA>
    5206:	38 f0       	brcs	.+14     	; 0x5216 <__addsf3+0x20>
    5208:	0e 94 85 2a 	call	0x550a	; 0x550a <__fp_pscB>
    520c:	20 f0       	brcs	.+8      	; 0x5216 <__addsf3+0x20>
    520e:	39 f4       	brne	.+14     	; 0x521e <__addsf3+0x28>
    5210:	9f 3f       	cpi	r25, 0xFF	; 255
    5212:	19 f4       	brne	.+6      	; 0x521a <__addsf3+0x24>
    5214:	26 f4       	brtc	.+8      	; 0x521e <__addsf3+0x28>
    5216:	0c 94 7b 2a 	jmp	0x54f6	; 0x54f6 <__fp_nan>
    521a:	0e f4       	brtc	.+2      	; 0x521e <__addsf3+0x28>
    521c:	e0 95       	com	r30
    521e:	e7 fb       	bst	r30, 7
    5220:	0c 94 75 2a 	jmp	0x54ea	; 0x54ea <__fp_inf>

00005224 <__addsf3x>:
    5224:	e9 2f       	mov	r30, r25
    5226:	0e 94 9d 2a 	call	0x553a	; 0x553a <__fp_split3>
    522a:	58 f3       	brcs	.-42     	; 0x5202 <__addsf3+0xc>
    522c:	ba 17       	cp	r27, r26
    522e:	62 07       	cpc	r22, r18
    5230:	73 07       	cpc	r23, r19
    5232:	84 07       	cpc	r24, r20
    5234:	95 07       	cpc	r25, r21
    5236:	20 f0       	brcs	.+8      	; 0x5240 <__addsf3x+0x1c>
    5238:	79 f4       	brne	.+30     	; 0x5258 <__addsf3x+0x34>
    523a:	a6 f5       	brtc	.+104    	; 0x52a4 <__addsf3x+0x80>
    523c:	0c 94 bf 2a 	jmp	0x557e	; 0x557e <__fp_zero>
    5240:	0e f4       	brtc	.+2      	; 0x5244 <__addsf3x+0x20>
    5242:	e0 95       	com	r30
    5244:	0b 2e       	mov	r0, r27
    5246:	ba 2f       	mov	r27, r26
    5248:	a0 2d       	mov	r26, r0
    524a:	0b 01       	movw	r0, r22
    524c:	b9 01       	movw	r22, r18
    524e:	90 01       	movw	r18, r0
    5250:	0c 01       	movw	r0, r24
    5252:	ca 01       	movw	r24, r20
    5254:	a0 01       	movw	r20, r0
    5256:	11 24       	eor	r1, r1
    5258:	ff 27       	eor	r31, r31
    525a:	59 1b       	sub	r21, r25
    525c:	99 f0       	breq	.+38     	; 0x5284 <__addsf3x+0x60>
    525e:	59 3f       	cpi	r21, 0xF9	; 249
    5260:	50 f4       	brcc	.+20     	; 0x5276 <__addsf3x+0x52>
    5262:	50 3e       	cpi	r21, 0xE0	; 224
    5264:	68 f1       	brcs	.+90     	; 0x52c0 <__addsf3x+0x9c>
    5266:	1a 16       	cp	r1, r26
    5268:	f0 40       	sbci	r31, 0x00	; 0
    526a:	a2 2f       	mov	r26, r18
    526c:	23 2f       	mov	r18, r19
    526e:	34 2f       	mov	r19, r20
    5270:	44 27       	eor	r20, r20
    5272:	58 5f       	subi	r21, 0xF8	; 248
    5274:	f3 cf       	rjmp	.-26     	; 0x525c <__addsf3x+0x38>
    5276:	46 95       	lsr	r20
    5278:	37 95       	ror	r19
    527a:	27 95       	ror	r18
    527c:	a7 95       	ror	r26
    527e:	f0 40       	sbci	r31, 0x00	; 0
    5280:	53 95       	inc	r21
    5282:	c9 f7       	brne	.-14     	; 0x5276 <__addsf3x+0x52>
    5284:	7e f4       	brtc	.+30     	; 0x52a4 <__addsf3x+0x80>
    5286:	1f 16       	cp	r1, r31
    5288:	ba 0b       	sbc	r27, r26
    528a:	62 0b       	sbc	r22, r18
    528c:	73 0b       	sbc	r23, r19
    528e:	84 0b       	sbc	r24, r20
    5290:	ba f0       	brmi	.+46     	; 0x52c0 <__addsf3x+0x9c>
    5292:	91 50       	subi	r25, 0x01	; 1
    5294:	a1 f0       	breq	.+40     	; 0x52be <__addsf3x+0x9a>
    5296:	ff 0f       	add	r31, r31
    5298:	bb 1f       	adc	r27, r27
    529a:	66 1f       	adc	r22, r22
    529c:	77 1f       	adc	r23, r23
    529e:	88 1f       	adc	r24, r24
    52a0:	c2 f7       	brpl	.-16     	; 0x5292 <__addsf3x+0x6e>
    52a2:	0e c0       	rjmp	.+28     	; 0x52c0 <__addsf3x+0x9c>
    52a4:	ba 0f       	add	r27, r26
    52a6:	62 1f       	adc	r22, r18
    52a8:	73 1f       	adc	r23, r19
    52aa:	84 1f       	adc	r24, r20
    52ac:	48 f4       	brcc	.+18     	; 0x52c0 <__addsf3x+0x9c>
    52ae:	87 95       	ror	r24
    52b0:	77 95       	ror	r23
    52b2:	67 95       	ror	r22
    52b4:	b7 95       	ror	r27
    52b6:	f7 95       	ror	r31
    52b8:	9e 3f       	cpi	r25, 0xFE	; 254
    52ba:	08 f0       	brcs	.+2      	; 0x52be <__addsf3x+0x9a>
    52bc:	b0 cf       	rjmp	.-160    	; 0x521e <__addsf3+0x28>
    52be:	93 95       	inc	r25
    52c0:	88 0f       	add	r24, r24
    52c2:	08 f0       	brcs	.+2      	; 0x52c6 <__addsf3x+0xa2>
    52c4:	99 27       	eor	r25, r25
    52c6:	ee 0f       	add	r30, r30
    52c8:	97 95       	ror	r25
    52ca:	87 95       	ror	r24
    52cc:	08 95       	ret

000052ce <__cmpsf2>:
    52ce:	0e 94 51 2a 	call	0x54a2	; 0x54a2 <__fp_cmp>
    52d2:	08 f4       	brcc	.+2      	; 0x52d6 <__cmpsf2+0x8>
    52d4:	81 e0       	ldi	r24, 0x01	; 1
    52d6:	08 95       	ret

000052d8 <__divsf3>:
    52d8:	0e 94 80 29 	call	0x5300	; 0x5300 <__divsf3x>
    52dc:	0c 94 8c 2a 	jmp	0x5518	; 0x5518 <__fp_round>
    52e0:	0e 94 85 2a 	call	0x550a	; 0x550a <__fp_pscB>
    52e4:	58 f0       	brcs	.+22     	; 0x52fc <__divsf3+0x24>
    52e6:	0e 94 7e 2a 	call	0x54fc	; 0x54fc <__fp_pscA>
    52ea:	40 f0       	brcs	.+16     	; 0x52fc <__divsf3+0x24>
    52ec:	29 f4       	brne	.+10     	; 0x52f8 <__divsf3+0x20>
    52ee:	5f 3f       	cpi	r21, 0xFF	; 255
    52f0:	29 f0       	breq	.+10     	; 0x52fc <__divsf3+0x24>
    52f2:	0c 94 75 2a 	jmp	0x54ea	; 0x54ea <__fp_inf>
    52f6:	51 11       	cpse	r21, r1
    52f8:	0c 94 c0 2a 	jmp	0x5580	; 0x5580 <__fp_szero>
    52fc:	0c 94 7b 2a 	jmp	0x54f6	; 0x54f6 <__fp_nan>

00005300 <__divsf3x>:
    5300:	0e 94 9d 2a 	call	0x553a	; 0x553a <__fp_split3>
    5304:	68 f3       	brcs	.-38     	; 0x52e0 <__divsf3+0x8>

00005306 <__divsf3_pse>:
    5306:	99 23       	and	r25, r25
    5308:	b1 f3       	breq	.-20     	; 0x52f6 <__divsf3+0x1e>
    530a:	55 23       	and	r21, r21
    530c:	91 f3       	breq	.-28     	; 0x52f2 <__divsf3+0x1a>
    530e:	95 1b       	sub	r25, r21
    5310:	55 0b       	sbc	r21, r21
    5312:	bb 27       	eor	r27, r27
    5314:	aa 27       	eor	r26, r26
    5316:	62 17       	cp	r22, r18
    5318:	73 07       	cpc	r23, r19
    531a:	84 07       	cpc	r24, r20
    531c:	38 f0       	brcs	.+14     	; 0x532c <__divsf3_pse+0x26>
    531e:	9f 5f       	subi	r25, 0xFF	; 255
    5320:	5f 4f       	sbci	r21, 0xFF	; 255
    5322:	22 0f       	add	r18, r18
    5324:	33 1f       	adc	r19, r19
    5326:	44 1f       	adc	r20, r20
    5328:	aa 1f       	adc	r26, r26
    532a:	a9 f3       	breq	.-22     	; 0x5316 <__divsf3_pse+0x10>
    532c:	35 d0       	rcall	.+106    	; 0x5398 <__divsf3_pse+0x92>
    532e:	0e 2e       	mov	r0, r30
    5330:	3a f0       	brmi	.+14     	; 0x5340 <__divsf3_pse+0x3a>
    5332:	e0 e8       	ldi	r30, 0x80	; 128
    5334:	32 d0       	rcall	.+100    	; 0x539a <__divsf3_pse+0x94>
    5336:	91 50       	subi	r25, 0x01	; 1
    5338:	50 40       	sbci	r21, 0x00	; 0
    533a:	e6 95       	lsr	r30
    533c:	00 1c       	adc	r0, r0
    533e:	ca f7       	brpl	.-14     	; 0x5332 <__divsf3_pse+0x2c>
    5340:	2b d0       	rcall	.+86     	; 0x5398 <__divsf3_pse+0x92>
    5342:	fe 2f       	mov	r31, r30
    5344:	29 d0       	rcall	.+82     	; 0x5398 <__divsf3_pse+0x92>
    5346:	66 0f       	add	r22, r22
    5348:	77 1f       	adc	r23, r23
    534a:	88 1f       	adc	r24, r24
    534c:	bb 1f       	adc	r27, r27
    534e:	26 17       	cp	r18, r22
    5350:	37 07       	cpc	r19, r23
    5352:	48 07       	cpc	r20, r24
    5354:	ab 07       	cpc	r26, r27
    5356:	b0 e8       	ldi	r27, 0x80	; 128
    5358:	09 f0       	breq	.+2      	; 0x535c <__divsf3_pse+0x56>
    535a:	bb 0b       	sbc	r27, r27
    535c:	80 2d       	mov	r24, r0
    535e:	bf 01       	movw	r22, r30
    5360:	ff 27       	eor	r31, r31
    5362:	93 58       	subi	r25, 0x83	; 131
    5364:	5f 4f       	sbci	r21, 0xFF	; 255
    5366:	3a f0       	brmi	.+14     	; 0x5376 <__divsf3_pse+0x70>
    5368:	9e 3f       	cpi	r25, 0xFE	; 254
    536a:	51 05       	cpc	r21, r1
    536c:	78 f0       	brcs	.+30     	; 0x538c <__divsf3_pse+0x86>
    536e:	0c 94 75 2a 	jmp	0x54ea	; 0x54ea <__fp_inf>
    5372:	0c 94 c0 2a 	jmp	0x5580	; 0x5580 <__fp_szero>
    5376:	5f 3f       	cpi	r21, 0xFF	; 255
    5378:	e4 f3       	brlt	.-8      	; 0x5372 <__divsf3_pse+0x6c>
    537a:	98 3e       	cpi	r25, 0xE8	; 232
    537c:	d4 f3       	brlt	.-12     	; 0x5372 <__divsf3_pse+0x6c>
    537e:	86 95       	lsr	r24
    5380:	77 95       	ror	r23
    5382:	67 95       	ror	r22
    5384:	b7 95       	ror	r27
    5386:	f7 95       	ror	r31
    5388:	9f 5f       	subi	r25, 0xFF	; 255
    538a:	c9 f7       	brne	.-14     	; 0x537e <__divsf3_pse+0x78>
    538c:	88 0f       	add	r24, r24
    538e:	91 1d       	adc	r25, r1
    5390:	96 95       	lsr	r25
    5392:	87 95       	ror	r24
    5394:	97 f9       	bld	r25, 7
    5396:	08 95       	ret
    5398:	e1 e0       	ldi	r30, 0x01	; 1
    539a:	66 0f       	add	r22, r22
    539c:	77 1f       	adc	r23, r23
    539e:	88 1f       	adc	r24, r24
    53a0:	bb 1f       	adc	r27, r27
    53a2:	62 17       	cp	r22, r18
    53a4:	73 07       	cpc	r23, r19
    53a6:	84 07       	cpc	r24, r20
    53a8:	ba 07       	cpc	r27, r26
    53aa:	20 f0       	brcs	.+8      	; 0x53b4 <__divsf3_pse+0xae>
    53ac:	62 1b       	sub	r22, r18
    53ae:	73 0b       	sbc	r23, r19
    53b0:	84 0b       	sbc	r24, r20
    53b2:	ba 0b       	sbc	r27, r26
    53b4:	ee 1f       	adc	r30, r30
    53b6:	88 f7       	brcc	.-30     	; 0x539a <__divsf3_pse+0x94>
    53b8:	e0 95       	com	r30
    53ba:	08 95       	ret

000053bc <__fixsfsi>:
    53bc:	0e 94 e5 29 	call	0x53ca	; 0x53ca <__fixunssfsi>
    53c0:	68 94       	set
    53c2:	b1 11       	cpse	r27, r1
    53c4:	0c 94 c0 2a 	jmp	0x5580	; 0x5580 <__fp_szero>
    53c8:	08 95       	ret

000053ca <__fixunssfsi>:
    53ca:	0e 94 a5 2a 	call	0x554a	; 0x554a <__fp_splitA>
    53ce:	88 f0       	brcs	.+34     	; 0x53f2 <__fixunssfsi+0x28>
    53d0:	9f 57       	subi	r25, 0x7F	; 127
    53d2:	98 f0       	brcs	.+38     	; 0x53fa <__fixunssfsi+0x30>
    53d4:	b9 2f       	mov	r27, r25
    53d6:	99 27       	eor	r25, r25
    53d8:	b7 51       	subi	r27, 0x17	; 23
    53da:	b0 f0       	brcs	.+44     	; 0x5408 <__fixunssfsi+0x3e>
    53dc:	e1 f0       	breq	.+56     	; 0x5416 <__fixunssfsi+0x4c>
    53de:	66 0f       	add	r22, r22
    53e0:	77 1f       	adc	r23, r23
    53e2:	88 1f       	adc	r24, r24
    53e4:	99 1f       	adc	r25, r25
    53e6:	1a f0       	brmi	.+6      	; 0x53ee <__fixunssfsi+0x24>
    53e8:	ba 95       	dec	r27
    53ea:	c9 f7       	brne	.-14     	; 0x53de <__fixunssfsi+0x14>
    53ec:	14 c0       	rjmp	.+40     	; 0x5416 <__fixunssfsi+0x4c>
    53ee:	b1 30       	cpi	r27, 0x01	; 1
    53f0:	91 f0       	breq	.+36     	; 0x5416 <__fixunssfsi+0x4c>
    53f2:	0e 94 bf 2a 	call	0x557e	; 0x557e <__fp_zero>
    53f6:	b1 e0       	ldi	r27, 0x01	; 1
    53f8:	08 95       	ret
    53fa:	0c 94 bf 2a 	jmp	0x557e	; 0x557e <__fp_zero>
    53fe:	67 2f       	mov	r22, r23
    5400:	78 2f       	mov	r23, r24
    5402:	88 27       	eor	r24, r24
    5404:	b8 5f       	subi	r27, 0xF8	; 248
    5406:	39 f0       	breq	.+14     	; 0x5416 <__fixunssfsi+0x4c>
    5408:	b9 3f       	cpi	r27, 0xF9	; 249
    540a:	cc f3       	brlt	.-14     	; 0x53fe <__fixunssfsi+0x34>
    540c:	86 95       	lsr	r24
    540e:	77 95       	ror	r23
    5410:	67 95       	ror	r22
    5412:	b3 95       	inc	r27
    5414:	d9 f7       	brne	.-10     	; 0x540c <__fixunssfsi+0x42>
    5416:	3e f4       	brtc	.+14     	; 0x5426 <__fixunssfsi+0x5c>
    5418:	90 95       	com	r25
    541a:	80 95       	com	r24
    541c:	70 95       	com	r23
    541e:	61 95       	neg	r22
    5420:	7f 4f       	sbci	r23, 0xFF	; 255
    5422:	8f 4f       	sbci	r24, 0xFF	; 255
    5424:	9f 4f       	sbci	r25, 0xFF	; 255
    5426:	08 95       	ret

00005428 <__floatunsisf>:
    5428:	e8 94       	clt
    542a:	09 c0       	rjmp	.+18     	; 0x543e <__floatsisf+0x12>

0000542c <__floatsisf>:
    542c:	97 fb       	bst	r25, 7
    542e:	3e f4       	brtc	.+14     	; 0x543e <__floatsisf+0x12>
    5430:	90 95       	com	r25
    5432:	80 95       	com	r24
    5434:	70 95       	com	r23
    5436:	61 95       	neg	r22
    5438:	7f 4f       	sbci	r23, 0xFF	; 255
    543a:	8f 4f       	sbci	r24, 0xFF	; 255
    543c:	9f 4f       	sbci	r25, 0xFF	; 255
    543e:	99 23       	and	r25, r25
    5440:	a9 f0       	breq	.+42     	; 0x546c <__floatsisf+0x40>
    5442:	f9 2f       	mov	r31, r25
    5444:	96 e9       	ldi	r25, 0x96	; 150
    5446:	bb 27       	eor	r27, r27
    5448:	93 95       	inc	r25
    544a:	f6 95       	lsr	r31
    544c:	87 95       	ror	r24
    544e:	77 95       	ror	r23
    5450:	67 95       	ror	r22
    5452:	b7 95       	ror	r27
    5454:	f1 11       	cpse	r31, r1
    5456:	f8 cf       	rjmp	.-16     	; 0x5448 <__floatsisf+0x1c>
    5458:	fa f4       	brpl	.+62     	; 0x5498 <__floatsisf+0x6c>
    545a:	bb 0f       	add	r27, r27
    545c:	11 f4       	brne	.+4      	; 0x5462 <__floatsisf+0x36>
    545e:	60 ff       	sbrs	r22, 0
    5460:	1b c0       	rjmp	.+54     	; 0x5498 <__floatsisf+0x6c>
    5462:	6f 5f       	subi	r22, 0xFF	; 255
    5464:	7f 4f       	sbci	r23, 0xFF	; 255
    5466:	8f 4f       	sbci	r24, 0xFF	; 255
    5468:	9f 4f       	sbci	r25, 0xFF	; 255
    546a:	16 c0       	rjmp	.+44     	; 0x5498 <__floatsisf+0x6c>
    546c:	88 23       	and	r24, r24
    546e:	11 f0       	breq	.+4      	; 0x5474 <__floatsisf+0x48>
    5470:	96 e9       	ldi	r25, 0x96	; 150
    5472:	11 c0       	rjmp	.+34     	; 0x5496 <__floatsisf+0x6a>
    5474:	77 23       	and	r23, r23
    5476:	21 f0       	breq	.+8      	; 0x5480 <__floatsisf+0x54>
    5478:	9e e8       	ldi	r25, 0x8E	; 142
    547a:	87 2f       	mov	r24, r23
    547c:	76 2f       	mov	r23, r22
    547e:	05 c0       	rjmp	.+10     	; 0x548a <__floatsisf+0x5e>
    5480:	66 23       	and	r22, r22
    5482:	71 f0       	breq	.+28     	; 0x54a0 <__floatsisf+0x74>
    5484:	96 e8       	ldi	r25, 0x86	; 134
    5486:	86 2f       	mov	r24, r22
    5488:	70 e0       	ldi	r23, 0x00	; 0
    548a:	60 e0       	ldi	r22, 0x00	; 0
    548c:	2a f0       	brmi	.+10     	; 0x5498 <__floatsisf+0x6c>
    548e:	9a 95       	dec	r25
    5490:	66 0f       	add	r22, r22
    5492:	77 1f       	adc	r23, r23
    5494:	88 1f       	adc	r24, r24
    5496:	da f7       	brpl	.-10     	; 0x548e <__floatsisf+0x62>
    5498:	88 0f       	add	r24, r24
    549a:	96 95       	lsr	r25
    549c:	87 95       	ror	r24
    549e:	97 f9       	bld	r25, 7
    54a0:	08 95       	ret

000054a2 <__fp_cmp>:
    54a2:	99 0f       	add	r25, r25
    54a4:	00 08       	sbc	r0, r0
    54a6:	55 0f       	add	r21, r21
    54a8:	aa 0b       	sbc	r26, r26
    54aa:	e0 e8       	ldi	r30, 0x80	; 128
    54ac:	fe ef       	ldi	r31, 0xFE	; 254
    54ae:	16 16       	cp	r1, r22
    54b0:	17 06       	cpc	r1, r23
    54b2:	e8 07       	cpc	r30, r24
    54b4:	f9 07       	cpc	r31, r25
    54b6:	c0 f0       	brcs	.+48     	; 0x54e8 <__fp_cmp+0x46>
    54b8:	12 16       	cp	r1, r18
    54ba:	13 06       	cpc	r1, r19
    54bc:	e4 07       	cpc	r30, r20
    54be:	f5 07       	cpc	r31, r21
    54c0:	98 f0       	brcs	.+38     	; 0x54e8 <__fp_cmp+0x46>
    54c2:	62 1b       	sub	r22, r18
    54c4:	73 0b       	sbc	r23, r19
    54c6:	84 0b       	sbc	r24, r20
    54c8:	95 0b       	sbc	r25, r21
    54ca:	39 f4       	brne	.+14     	; 0x54da <__fp_cmp+0x38>
    54cc:	0a 26       	eor	r0, r26
    54ce:	61 f0       	breq	.+24     	; 0x54e8 <__fp_cmp+0x46>
    54d0:	23 2b       	or	r18, r19
    54d2:	24 2b       	or	r18, r20
    54d4:	25 2b       	or	r18, r21
    54d6:	21 f4       	brne	.+8      	; 0x54e0 <__fp_cmp+0x3e>
    54d8:	08 95       	ret
    54da:	0a 26       	eor	r0, r26
    54dc:	09 f4       	brne	.+2      	; 0x54e0 <__fp_cmp+0x3e>
    54de:	a1 40       	sbci	r26, 0x01	; 1
    54e0:	a6 95       	lsr	r26
    54e2:	8f ef       	ldi	r24, 0xFF	; 255
    54e4:	81 1d       	adc	r24, r1
    54e6:	81 1d       	adc	r24, r1
    54e8:	08 95       	ret

000054ea <__fp_inf>:
    54ea:	97 f9       	bld	r25, 7
    54ec:	9f 67       	ori	r25, 0x7F	; 127
    54ee:	80 e8       	ldi	r24, 0x80	; 128
    54f0:	70 e0       	ldi	r23, 0x00	; 0
    54f2:	60 e0       	ldi	r22, 0x00	; 0
    54f4:	08 95       	ret

000054f6 <__fp_nan>:
    54f6:	9f ef       	ldi	r25, 0xFF	; 255
    54f8:	80 ec       	ldi	r24, 0xC0	; 192
    54fa:	08 95       	ret

000054fc <__fp_pscA>:
    54fc:	00 24       	eor	r0, r0
    54fe:	0a 94       	dec	r0
    5500:	16 16       	cp	r1, r22
    5502:	17 06       	cpc	r1, r23
    5504:	18 06       	cpc	r1, r24
    5506:	09 06       	cpc	r0, r25
    5508:	08 95       	ret

0000550a <__fp_pscB>:
    550a:	00 24       	eor	r0, r0
    550c:	0a 94       	dec	r0
    550e:	12 16       	cp	r1, r18
    5510:	13 06       	cpc	r1, r19
    5512:	14 06       	cpc	r1, r20
    5514:	05 06       	cpc	r0, r21
    5516:	08 95       	ret

00005518 <__fp_round>:
    5518:	09 2e       	mov	r0, r25
    551a:	03 94       	inc	r0
    551c:	00 0c       	add	r0, r0
    551e:	11 f4       	brne	.+4      	; 0x5524 <__fp_round+0xc>
    5520:	88 23       	and	r24, r24
    5522:	52 f0       	brmi	.+20     	; 0x5538 <__fp_round+0x20>
    5524:	bb 0f       	add	r27, r27
    5526:	40 f4       	brcc	.+16     	; 0x5538 <__fp_round+0x20>
    5528:	bf 2b       	or	r27, r31
    552a:	11 f4       	brne	.+4      	; 0x5530 <__fp_round+0x18>
    552c:	60 ff       	sbrs	r22, 0
    552e:	04 c0       	rjmp	.+8      	; 0x5538 <__fp_round+0x20>
    5530:	6f 5f       	subi	r22, 0xFF	; 255
    5532:	7f 4f       	sbci	r23, 0xFF	; 255
    5534:	8f 4f       	sbci	r24, 0xFF	; 255
    5536:	9f 4f       	sbci	r25, 0xFF	; 255
    5538:	08 95       	ret

0000553a <__fp_split3>:
    553a:	57 fd       	sbrc	r21, 7
    553c:	90 58       	subi	r25, 0x80	; 128
    553e:	44 0f       	add	r20, r20
    5540:	55 1f       	adc	r21, r21
    5542:	59 f0       	breq	.+22     	; 0x555a <__fp_splitA+0x10>
    5544:	5f 3f       	cpi	r21, 0xFF	; 255
    5546:	71 f0       	breq	.+28     	; 0x5564 <__fp_splitA+0x1a>
    5548:	47 95       	ror	r20

0000554a <__fp_splitA>:
    554a:	88 0f       	add	r24, r24
    554c:	97 fb       	bst	r25, 7
    554e:	99 1f       	adc	r25, r25
    5550:	61 f0       	breq	.+24     	; 0x556a <__fp_splitA+0x20>
    5552:	9f 3f       	cpi	r25, 0xFF	; 255
    5554:	79 f0       	breq	.+30     	; 0x5574 <__fp_splitA+0x2a>
    5556:	87 95       	ror	r24
    5558:	08 95       	ret
    555a:	12 16       	cp	r1, r18
    555c:	13 06       	cpc	r1, r19
    555e:	14 06       	cpc	r1, r20
    5560:	55 1f       	adc	r21, r21
    5562:	f2 cf       	rjmp	.-28     	; 0x5548 <__fp_split3+0xe>
    5564:	46 95       	lsr	r20
    5566:	f1 df       	rcall	.-30     	; 0x554a <__fp_splitA>
    5568:	08 c0       	rjmp	.+16     	; 0x557a <__fp_splitA+0x30>
    556a:	16 16       	cp	r1, r22
    556c:	17 06       	cpc	r1, r23
    556e:	18 06       	cpc	r1, r24
    5570:	99 1f       	adc	r25, r25
    5572:	f1 cf       	rjmp	.-30     	; 0x5556 <__fp_splitA+0xc>
    5574:	86 95       	lsr	r24
    5576:	71 05       	cpc	r23, r1
    5578:	61 05       	cpc	r22, r1
    557a:	08 94       	sec
    557c:	08 95       	ret

0000557e <__fp_zero>:
    557e:	e8 94       	clt

00005580 <__fp_szero>:
    5580:	bb 27       	eor	r27, r27
    5582:	66 27       	eor	r22, r22
    5584:	77 27       	eor	r23, r23
    5586:	cb 01       	movw	r24, r22
    5588:	97 f9       	bld	r25, 7
    558a:	08 95       	ret

0000558c <__gesf2>:
    558c:	0e 94 51 2a 	call	0x54a2	; 0x54a2 <__fp_cmp>
    5590:	08 f4       	brcc	.+2      	; 0x5594 <__gesf2+0x8>
    5592:	8f ef       	ldi	r24, 0xFF	; 255
    5594:	08 95       	ret

00005596 <__mulsf3>:
    5596:	0e 94 de 2a 	call	0x55bc	; 0x55bc <__mulsf3x>
    559a:	0c 94 8c 2a 	jmp	0x5518	; 0x5518 <__fp_round>
    559e:	0e 94 7e 2a 	call	0x54fc	; 0x54fc <__fp_pscA>
    55a2:	38 f0       	brcs	.+14     	; 0x55b2 <__mulsf3+0x1c>
    55a4:	0e 94 85 2a 	call	0x550a	; 0x550a <__fp_pscB>
    55a8:	20 f0       	brcs	.+8      	; 0x55b2 <__mulsf3+0x1c>
    55aa:	95 23       	and	r25, r21
    55ac:	11 f0       	breq	.+4      	; 0x55b2 <__mulsf3+0x1c>
    55ae:	0c 94 75 2a 	jmp	0x54ea	; 0x54ea <__fp_inf>
    55b2:	0c 94 7b 2a 	jmp	0x54f6	; 0x54f6 <__fp_nan>
    55b6:	11 24       	eor	r1, r1
    55b8:	0c 94 c0 2a 	jmp	0x5580	; 0x5580 <__fp_szero>

000055bc <__mulsf3x>:
    55bc:	0e 94 9d 2a 	call	0x553a	; 0x553a <__fp_split3>
    55c0:	70 f3       	brcs	.-36     	; 0x559e <__mulsf3+0x8>

000055c2 <__mulsf3_pse>:
    55c2:	95 9f       	mul	r25, r21
    55c4:	c1 f3       	breq	.-16     	; 0x55b6 <__mulsf3+0x20>
    55c6:	95 0f       	add	r25, r21
    55c8:	50 e0       	ldi	r21, 0x00	; 0
    55ca:	55 1f       	adc	r21, r21
    55cc:	62 9f       	mul	r22, r18
    55ce:	f0 01       	movw	r30, r0
    55d0:	72 9f       	mul	r23, r18
    55d2:	bb 27       	eor	r27, r27
    55d4:	f0 0d       	add	r31, r0
    55d6:	b1 1d       	adc	r27, r1
    55d8:	63 9f       	mul	r22, r19
    55da:	aa 27       	eor	r26, r26
    55dc:	f0 0d       	add	r31, r0
    55de:	b1 1d       	adc	r27, r1
    55e0:	aa 1f       	adc	r26, r26
    55e2:	64 9f       	mul	r22, r20
    55e4:	66 27       	eor	r22, r22
    55e6:	b0 0d       	add	r27, r0
    55e8:	a1 1d       	adc	r26, r1
    55ea:	66 1f       	adc	r22, r22
    55ec:	82 9f       	mul	r24, r18
    55ee:	22 27       	eor	r18, r18
    55f0:	b0 0d       	add	r27, r0
    55f2:	a1 1d       	adc	r26, r1
    55f4:	62 1f       	adc	r22, r18
    55f6:	73 9f       	mul	r23, r19
    55f8:	b0 0d       	add	r27, r0
    55fa:	a1 1d       	adc	r26, r1
    55fc:	62 1f       	adc	r22, r18
    55fe:	83 9f       	mul	r24, r19
    5600:	a0 0d       	add	r26, r0
    5602:	61 1d       	adc	r22, r1
    5604:	22 1f       	adc	r18, r18
    5606:	74 9f       	mul	r23, r20
    5608:	33 27       	eor	r19, r19
    560a:	a0 0d       	add	r26, r0
    560c:	61 1d       	adc	r22, r1
    560e:	23 1f       	adc	r18, r19
    5610:	84 9f       	mul	r24, r20
    5612:	60 0d       	add	r22, r0
    5614:	21 1d       	adc	r18, r1
    5616:	82 2f       	mov	r24, r18
    5618:	76 2f       	mov	r23, r22
    561a:	6a 2f       	mov	r22, r26
    561c:	11 24       	eor	r1, r1
    561e:	9f 57       	subi	r25, 0x7F	; 127
    5620:	50 40       	sbci	r21, 0x00	; 0
    5622:	9a f0       	brmi	.+38     	; 0x564a <__mulsf3_pse+0x88>
    5624:	f1 f0       	breq	.+60     	; 0x5662 <__mulsf3_pse+0xa0>
    5626:	88 23       	and	r24, r24
    5628:	4a f0       	brmi	.+18     	; 0x563c <__mulsf3_pse+0x7a>
    562a:	ee 0f       	add	r30, r30
    562c:	ff 1f       	adc	r31, r31
    562e:	bb 1f       	adc	r27, r27
    5630:	66 1f       	adc	r22, r22
    5632:	77 1f       	adc	r23, r23
    5634:	88 1f       	adc	r24, r24
    5636:	91 50       	subi	r25, 0x01	; 1
    5638:	50 40       	sbci	r21, 0x00	; 0
    563a:	a9 f7       	brne	.-22     	; 0x5626 <__mulsf3_pse+0x64>
    563c:	9e 3f       	cpi	r25, 0xFE	; 254
    563e:	51 05       	cpc	r21, r1
    5640:	80 f0       	brcs	.+32     	; 0x5662 <__mulsf3_pse+0xa0>
    5642:	0c 94 75 2a 	jmp	0x54ea	; 0x54ea <__fp_inf>
    5646:	0c 94 c0 2a 	jmp	0x5580	; 0x5580 <__fp_szero>
    564a:	5f 3f       	cpi	r21, 0xFF	; 255
    564c:	e4 f3       	brlt	.-8      	; 0x5646 <__mulsf3_pse+0x84>
    564e:	98 3e       	cpi	r25, 0xE8	; 232
    5650:	d4 f3       	brlt	.-12     	; 0x5646 <__mulsf3_pse+0x84>
    5652:	86 95       	lsr	r24
    5654:	77 95       	ror	r23
    5656:	67 95       	ror	r22
    5658:	b7 95       	ror	r27
    565a:	f7 95       	ror	r31
    565c:	e7 95       	ror	r30
    565e:	9f 5f       	subi	r25, 0xFF	; 255
    5660:	c1 f7       	brne	.-16     	; 0x5652 <__mulsf3_pse+0x90>
    5662:	fe 2b       	or	r31, r30
    5664:	88 0f       	add	r24, r24
    5666:	91 1d       	adc	r25, r1
    5668:	96 95       	lsr	r25
    566a:	87 95       	ror	r24
    566c:	97 f9       	bld	r25, 7
    566e:	08 95       	ret

00005670 <__tablejump2__>:
    5670:	ee 0f       	add	r30, r30
    5672:	ff 1f       	adc	r31, r31
    5674:	05 90       	lpm	r0, Z+
    5676:	f4 91       	lpm	r31, Z
    5678:	e0 2d       	mov	r30, r0
    567a:	09 94       	ijmp

0000567c <atoi>:
    567c:	fc 01       	movw	r30, r24
    567e:	88 27       	eor	r24, r24
    5680:	99 27       	eor	r25, r25
    5682:	e8 94       	clt
    5684:	21 91       	ld	r18, Z+
    5686:	20 32       	cpi	r18, 0x20	; 32
    5688:	e9 f3       	breq	.-6      	; 0x5684 <atoi+0x8>
    568a:	29 30       	cpi	r18, 0x09	; 9
    568c:	10 f0       	brcs	.+4      	; 0x5692 <atoi+0x16>
    568e:	2e 30       	cpi	r18, 0x0E	; 14
    5690:	c8 f3       	brcs	.-14     	; 0x5684 <atoi+0x8>
    5692:	2b 32       	cpi	r18, 0x2B	; 43
    5694:	41 f0       	breq	.+16     	; 0x56a6 <atoi+0x2a>
    5696:	2d 32       	cpi	r18, 0x2D	; 45
    5698:	39 f4       	brne	.+14     	; 0x56a8 <atoi+0x2c>
    569a:	68 94       	set
    569c:	04 c0       	rjmp	.+8      	; 0x56a6 <atoi+0x2a>
    569e:	0e 94 a3 2b 	call	0x5746	; 0x5746 <__mulhi_const_10>
    56a2:	82 0f       	add	r24, r18
    56a4:	91 1d       	adc	r25, r1
    56a6:	21 91       	ld	r18, Z+
    56a8:	20 53       	subi	r18, 0x30	; 48
    56aa:	2a 30       	cpi	r18, 0x0A	; 10
    56ac:	c0 f3       	brcs	.-16     	; 0x569e <atoi+0x22>
    56ae:	1e f4       	brtc	.+6      	; 0x56b6 <atoi+0x3a>
    56b0:	90 95       	com	r25
    56b2:	81 95       	neg	r24
    56b4:	9f 4f       	sbci	r25, 0xFF	; 255
    56b6:	08 95       	ret

000056b8 <strcpy_P>:
    56b8:	fb 01       	movw	r30, r22
    56ba:	dc 01       	movw	r26, r24
    56bc:	05 90       	lpm	r0, Z+
    56be:	0d 92       	st	X+, r0
    56c0:	00 20       	and	r0, r0
    56c2:	e1 f7       	brne	.-8      	; 0x56bc <strcpy_P+0x4>
    56c4:	08 95       	ret

000056c6 <strchr>:
    56c6:	fc 01       	movw	r30, r24
    56c8:	81 91       	ld	r24, Z+
    56ca:	86 17       	cp	r24, r22
    56cc:	21 f0       	breq	.+8      	; 0x56d6 <strchr+0x10>
    56ce:	88 23       	and	r24, r24
    56d0:	d9 f7       	brne	.-10     	; 0x56c8 <strchr+0x2>
    56d2:	99 27       	eor	r25, r25
    56d4:	08 95       	ret
    56d6:	31 97       	sbiw	r30, 0x01	; 1
    56d8:	cf 01       	movw	r24, r30
    56da:	08 95       	ret

000056dc <strcpy>:
    56dc:	fb 01       	movw	r30, r22
    56de:	dc 01       	movw	r26, r24
    56e0:	01 90       	ld	r0, Z+
    56e2:	0d 92       	st	X+, r0
    56e4:	00 20       	and	r0, r0
    56e6:	e1 f7       	brne	.-8      	; 0x56e0 <strcpy+0x4>
    56e8:	08 95       	ret

000056ea <strlcpy>:
    56ea:	dc 01       	movw	r26, r24
    56ec:	fb 01       	movw	r30, r22
    56ee:	41 50       	subi	r20, 0x01	; 1
    56f0:	50 40       	sbci	r21, 0x00	; 0
    56f2:	58 f0       	brcs	.+22     	; 0x570a <strlcpy+0x20>
    56f4:	49 f0       	breq	.+18     	; 0x5708 <strlcpy+0x1e>
    56f6:	01 90       	ld	r0, Z+
    56f8:	0d 92       	st	X+, r0
    56fa:	00 20       	and	r0, r0
    56fc:	c1 f7       	brne	.-16     	; 0x56ee <strlcpy+0x4>
    56fe:	e6 1b       	sub	r30, r22
    5700:	f7 0b       	sbc	r31, r23
    5702:	31 97       	sbiw	r30, 0x01	; 1
    5704:	cf 01       	movw	r24, r30
    5706:	08 95       	ret
    5708:	1c 92       	st	X, r1
    570a:	01 90       	ld	r0, Z+
    570c:	00 20       	and	r0, r0
    570e:	e9 f7       	brne	.-6      	; 0x570a <strlcpy+0x20>
    5710:	f6 cf       	rjmp	.-20     	; 0x56fe <strlcpy+0x14>

00005712 <__itoa_ncheck>:
    5712:	bb 27       	eor	r27, r27
    5714:	4a 30       	cpi	r20, 0x0A	; 10
    5716:	31 f4       	brne	.+12     	; 0x5724 <__itoa_ncheck+0x12>
    5718:	99 23       	and	r25, r25
    571a:	22 f4       	brpl	.+8      	; 0x5724 <__itoa_ncheck+0x12>
    571c:	bd e2       	ldi	r27, 0x2D	; 45
    571e:	90 95       	com	r25
    5720:	81 95       	neg	r24
    5722:	9f 4f       	sbci	r25, 0xFF	; 255
    5724:	0c 94 ce 2b 	jmp	0x579c	; 0x579c <__utoa_common>

00005728 <__ltoa_ncheck>:
    5728:	bb 27       	eor	r27, r27
    572a:	2a 30       	cpi	r18, 0x0A	; 10
    572c:	51 f4       	brne	.+20     	; 0x5742 <__ltoa_ncheck+0x1a>
    572e:	99 23       	and	r25, r25
    5730:	42 f4       	brpl	.+16     	; 0x5742 <__ltoa_ncheck+0x1a>
    5732:	bd e2       	ldi	r27, 0x2D	; 45
    5734:	90 95       	com	r25
    5736:	80 95       	com	r24
    5738:	70 95       	com	r23
    573a:	61 95       	neg	r22
    573c:	7f 4f       	sbci	r23, 0xFF	; 255
    573e:	8f 4f       	sbci	r24, 0xFF	; 255
    5740:	9f 4f       	sbci	r25, 0xFF	; 255
    5742:	0c 94 ac 2b 	jmp	0x5758	; 0x5758 <__ultoa_common>

00005746 <__mulhi_const_10>:
    5746:	7a e0       	ldi	r23, 0x0A	; 10
    5748:	97 9f       	mul	r25, r23
    574a:	90 2d       	mov	r25, r0
    574c:	87 9f       	mul	r24, r23
    574e:	80 2d       	mov	r24, r0
    5750:	91 0d       	add	r25, r1
    5752:	11 24       	eor	r1, r1
    5754:	08 95       	ret

00005756 <__ultoa_ncheck>:
    5756:	bb 27       	eor	r27, r27

00005758 <__ultoa_common>:
    5758:	fa 01       	movw	r30, r20
    575a:	a6 2f       	mov	r26, r22
    575c:	62 17       	cp	r22, r18
    575e:	71 05       	cpc	r23, r1
    5760:	81 05       	cpc	r24, r1
    5762:	91 05       	cpc	r25, r1
    5764:	33 0b       	sbc	r19, r19
    5766:	30 fb       	bst	r19, 0
    5768:	66 f0       	brts	.+24     	; 0x5782 <__ultoa_common+0x2a>
    576a:	aa 27       	eor	r26, r26
    576c:	66 0f       	add	r22, r22
    576e:	77 1f       	adc	r23, r23
    5770:	88 1f       	adc	r24, r24
    5772:	99 1f       	adc	r25, r25
    5774:	aa 1f       	adc	r26, r26
    5776:	a2 17       	cp	r26, r18
    5778:	10 f0       	brcs	.+4      	; 0x577e <__ultoa_common+0x26>
    577a:	a2 1b       	sub	r26, r18
    577c:	63 95       	inc	r22
    577e:	38 50       	subi	r19, 0x08	; 8
    5780:	a9 f7       	brne	.-22     	; 0x576c <__ultoa_common+0x14>
    5782:	a0 5d       	subi	r26, 0xD0	; 208
    5784:	aa 33       	cpi	r26, 0x3A	; 58
    5786:	08 f0       	brcs	.+2      	; 0x578a <__ultoa_common+0x32>
    5788:	a9 5d       	subi	r26, 0xD9	; 217
    578a:	a1 93       	st	Z+, r26
    578c:	36 f7       	brtc	.-52     	; 0x575a <__ultoa_common+0x2>
    578e:	b1 11       	cpse	r27, r1
    5790:	b1 93       	st	Z+, r27
    5792:	10 82       	st	Z, r1
    5794:	ca 01       	movw	r24, r20
    5796:	0c 94 de 2d 	jmp	0x5bbc	; 0x5bbc <strrev>

0000579a <__utoa_ncheck>:
    579a:	bb 27       	eor	r27, r27

0000579c <__utoa_common>:
    579c:	fb 01       	movw	r30, r22
    579e:	55 27       	eor	r21, r21
    57a0:	aa 27       	eor	r26, r26
    57a2:	88 0f       	add	r24, r24
    57a4:	99 1f       	adc	r25, r25
    57a6:	aa 1f       	adc	r26, r26
    57a8:	a4 17       	cp	r26, r20
    57aa:	10 f0       	brcs	.+4      	; 0x57b0 <__utoa_common+0x14>
    57ac:	a4 1b       	sub	r26, r20
    57ae:	83 95       	inc	r24
    57b0:	50 51       	subi	r21, 0x10	; 16
    57b2:	b9 f7       	brne	.-18     	; 0x57a2 <__utoa_common+0x6>
    57b4:	a0 5d       	subi	r26, 0xD0	; 208
    57b6:	aa 33       	cpi	r26, 0x3A	; 58
    57b8:	08 f0       	brcs	.+2      	; 0x57bc <__utoa_common+0x20>
    57ba:	a9 5d       	subi	r26, 0xD9	; 217
    57bc:	a1 93       	st	Z+, r26
    57be:	00 97       	sbiw	r24, 0x00	; 0
    57c0:	79 f7       	brne	.-34     	; 0x57a0 <__utoa_common+0x4>
    57c2:	b1 11       	cpse	r27, r1
    57c4:	b1 93       	st	Z+, r27
    57c6:	11 92       	st	Z+, r1
    57c8:	cb 01       	movw	r24, r22
    57ca:	0c 94 de 2d 	jmp	0x5bbc	; 0x5bbc <strrev>

000057ce <vfprintf>:
    57ce:	ab e0       	ldi	r26, 0x0B	; 11
    57d0:	b0 e0       	ldi	r27, 0x00	; 0
    57d2:	ed ee       	ldi	r30, 0xED	; 237
    57d4:	fb e2       	ldi	r31, 0x2B	; 43
    57d6:	0c 94 bd 2e 	jmp	0x5d7a	; 0x5d7a <__prologue_saves__>
    57da:	6c 01       	movw	r12, r24
    57dc:	7b 01       	movw	r14, r22
    57de:	8a 01       	movw	r16, r20
    57e0:	fc 01       	movw	r30, r24
    57e2:	17 82       	std	Z+7, r1	; 0x07
    57e4:	16 82       	std	Z+6, r1	; 0x06
    57e6:	83 81       	ldd	r24, Z+3	; 0x03
    57e8:	81 ff       	sbrs	r24, 1
    57ea:	cc c1       	rjmp	.+920    	; 0x5b84 <vfprintf+0x3b6>
    57ec:	ce 01       	movw	r24, r28
    57ee:	01 96       	adiw	r24, 0x01	; 1
    57f0:	3c 01       	movw	r6, r24
    57f2:	f6 01       	movw	r30, r12
    57f4:	93 81       	ldd	r25, Z+3	; 0x03
    57f6:	f7 01       	movw	r30, r14
    57f8:	93 fd       	sbrc	r25, 3
    57fa:	85 91       	lpm	r24, Z+
    57fc:	93 ff       	sbrs	r25, 3
    57fe:	81 91       	ld	r24, Z+
    5800:	7f 01       	movw	r14, r30
    5802:	88 23       	and	r24, r24
    5804:	09 f4       	brne	.+2      	; 0x5808 <vfprintf+0x3a>
    5806:	ba c1       	rjmp	.+884    	; 0x5b7c <vfprintf+0x3ae>
    5808:	85 32       	cpi	r24, 0x25	; 37
    580a:	39 f4       	brne	.+14     	; 0x581a <vfprintf+0x4c>
    580c:	93 fd       	sbrc	r25, 3
    580e:	85 91       	lpm	r24, Z+
    5810:	93 ff       	sbrs	r25, 3
    5812:	81 91       	ld	r24, Z+
    5814:	7f 01       	movw	r14, r30
    5816:	85 32       	cpi	r24, 0x25	; 37
    5818:	29 f4       	brne	.+10     	; 0x5824 <vfprintf+0x56>
    581a:	b6 01       	movw	r22, r12
    581c:	90 e0       	ldi	r25, 0x00	; 0
    581e:	0e 94 ee 2d 	call	0x5bdc	; 0x5bdc <fputc>
    5822:	e7 cf       	rjmp	.-50     	; 0x57f2 <vfprintf+0x24>
    5824:	91 2c       	mov	r9, r1
    5826:	21 2c       	mov	r2, r1
    5828:	31 2c       	mov	r3, r1
    582a:	ff e1       	ldi	r31, 0x1F	; 31
    582c:	f3 15       	cp	r31, r3
    582e:	d8 f0       	brcs	.+54     	; 0x5866 <vfprintf+0x98>
    5830:	8b 32       	cpi	r24, 0x2B	; 43
    5832:	79 f0       	breq	.+30     	; 0x5852 <vfprintf+0x84>
    5834:	38 f4       	brcc	.+14     	; 0x5844 <vfprintf+0x76>
    5836:	80 32       	cpi	r24, 0x20	; 32
    5838:	79 f0       	breq	.+30     	; 0x5858 <vfprintf+0x8a>
    583a:	83 32       	cpi	r24, 0x23	; 35
    583c:	a1 f4       	brne	.+40     	; 0x5866 <vfprintf+0x98>
    583e:	23 2d       	mov	r18, r3
    5840:	20 61       	ori	r18, 0x10	; 16
    5842:	1d c0       	rjmp	.+58     	; 0x587e <vfprintf+0xb0>
    5844:	8d 32       	cpi	r24, 0x2D	; 45
    5846:	61 f0       	breq	.+24     	; 0x5860 <vfprintf+0x92>
    5848:	80 33       	cpi	r24, 0x30	; 48
    584a:	69 f4       	brne	.+26     	; 0x5866 <vfprintf+0x98>
    584c:	23 2d       	mov	r18, r3
    584e:	21 60       	ori	r18, 0x01	; 1
    5850:	16 c0       	rjmp	.+44     	; 0x587e <vfprintf+0xb0>
    5852:	83 2d       	mov	r24, r3
    5854:	82 60       	ori	r24, 0x02	; 2
    5856:	38 2e       	mov	r3, r24
    5858:	e3 2d       	mov	r30, r3
    585a:	e4 60       	ori	r30, 0x04	; 4
    585c:	3e 2e       	mov	r3, r30
    585e:	2a c0       	rjmp	.+84     	; 0x58b4 <vfprintf+0xe6>
    5860:	f3 2d       	mov	r31, r3
    5862:	f8 60       	ori	r31, 0x08	; 8
    5864:	1d c0       	rjmp	.+58     	; 0x58a0 <vfprintf+0xd2>
    5866:	37 fc       	sbrc	r3, 7
    5868:	2d c0       	rjmp	.+90     	; 0x58c4 <vfprintf+0xf6>
    586a:	20 ed       	ldi	r18, 0xD0	; 208
    586c:	28 0f       	add	r18, r24
    586e:	2a 30       	cpi	r18, 0x0A	; 10
    5870:	40 f0       	brcs	.+16     	; 0x5882 <vfprintf+0xb4>
    5872:	8e 32       	cpi	r24, 0x2E	; 46
    5874:	b9 f4       	brne	.+46     	; 0x58a4 <vfprintf+0xd6>
    5876:	36 fc       	sbrc	r3, 6
    5878:	81 c1       	rjmp	.+770    	; 0x5b7c <vfprintf+0x3ae>
    587a:	23 2d       	mov	r18, r3
    587c:	20 64       	ori	r18, 0x40	; 64
    587e:	32 2e       	mov	r3, r18
    5880:	19 c0       	rjmp	.+50     	; 0x58b4 <vfprintf+0xe6>
    5882:	36 fe       	sbrs	r3, 6
    5884:	06 c0       	rjmp	.+12     	; 0x5892 <vfprintf+0xc4>
    5886:	8a e0       	ldi	r24, 0x0A	; 10
    5888:	98 9e       	mul	r9, r24
    588a:	20 0d       	add	r18, r0
    588c:	11 24       	eor	r1, r1
    588e:	92 2e       	mov	r9, r18
    5890:	11 c0       	rjmp	.+34     	; 0x58b4 <vfprintf+0xe6>
    5892:	ea e0       	ldi	r30, 0x0A	; 10
    5894:	2e 9e       	mul	r2, r30
    5896:	20 0d       	add	r18, r0
    5898:	11 24       	eor	r1, r1
    589a:	22 2e       	mov	r2, r18
    589c:	f3 2d       	mov	r31, r3
    589e:	f0 62       	ori	r31, 0x20	; 32
    58a0:	3f 2e       	mov	r3, r31
    58a2:	08 c0       	rjmp	.+16     	; 0x58b4 <vfprintf+0xe6>
    58a4:	8c 36       	cpi	r24, 0x6C	; 108
    58a6:	21 f4       	brne	.+8      	; 0x58b0 <vfprintf+0xe2>
    58a8:	83 2d       	mov	r24, r3
    58aa:	80 68       	ori	r24, 0x80	; 128
    58ac:	38 2e       	mov	r3, r24
    58ae:	02 c0       	rjmp	.+4      	; 0x58b4 <vfprintf+0xe6>
    58b0:	88 36       	cpi	r24, 0x68	; 104
    58b2:	41 f4       	brne	.+16     	; 0x58c4 <vfprintf+0xf6>
    58b4:	f7 01       	movw	r30, r14
    58b6:	93 fd       	sbrc	r25, 3
    58b8:	85 91       	lpm	r24, Z+
    58ba:	93 ff       	sbrs	r25, 3
    58bc:	81 91       	ld	r24, Z+
    58be:	7f 01       	movw	r14, r30
    58c0:	81 11       	cpse	r24, r1
    58c2:	b3 cf       	rjmp	.-154    	; 0x582a <vfprintf+0x5c>
    58c4:	98 2f       	mov	r25, r24
    58c6:	9f 7d       	andi	r25, 0xDF	; 223
    58c8:	95 54       	subi	r25, 0x45	; 69
    58ca:	93 30       	cpi	r25, 0x03	; 3
    58cc:	28 f4       	brcc	.+10     	; 0x58d8 <vfprintf+0x10a>
    58ce:	0c 5f       	subi	r16, 0xFC	; 252
    58d0:	1f 4f       	sbci	r17, 0xFF	; 255
    58d2:	9f e3       	ldi	r25, 0x3F	; 63
    58d4:	99 83       	std	Y+1, r25	; 0x01
    58d6:	0d c0       	rjmp	.+26     	; 0x58f2 <vfprintf+0x124>
    58d8:	83 36       	cpi	r24, 0x63	; 99
    58da:	31 f0       	breq	.+12     	; 0x58e8 <vfprintf+0x11a>
    58dc:	83 37       	cpi	r24, 0x73	; 115
    58de:	71 f0       	breq	.+28     	; 0x58fc <vfprintf+0x12e>
    58e0:	83 35       	cpi	r24, 0x53	; 83
    58e2:	09 f0       	breq	.+2      	; 0x58e6 <vfprintf+0x118>
    58e4:	59 c0       	rjmp	.+178    	; 0x5998 <vfprintf+0x1ca>
    58e6:	21 c0       	rjmp	.+66     	; 0x592a <vfprintf+0x15c>
    58e8:	f8 01       	movw	r30, r16
    58ea:	80 81       	ld	r24, Z
    58ec:	89 83       	std	Y+1, r24	; 0x01
    58ee:	0e 5f       	subi	r16, 0xFE	; 254
    58f0:	1f 4f       	sbci	r17, 0xFF	; 255
    58f2:	88 24       	eor	r8, r8
    58f4:	83 94       	inc	r8
    58f6:	91 2c       	mov	r9, r1
    58f8:	53 01       	movw	r10, r6
    58fa:	13 c0       	rjmp	.+38     	; 0x5922 <vfprintf+0x154>
    58fc:	28 01       	movw	r4, r16
    58fe:	f2 e0       	ldi	r31, 0x02	; 2
    5900:	4f 0e       	add	r4, r31
    5902:	51 1c       	adc	r5, r1
    5904:	f8 01       	movw	r30, r16
    5906:	a0 80       	ld	r10, Z
    5908:	b1 80       	ldd	r11, Z+1	; 0x01
    590a:	36 fe       	sbrs	r3, 6
    590c:	03 c0       	rjmp	.+6      	; 0x5914 <vfprintf+0x146>
    590e:	69 2d       	mov	r22, r9
    5910:	70 e0       	ldi	r23, 0x00	; 0
    5912:	02 c0       	rjmp	.+4      	; 0x5918 <vfprintf+0x14a>
    5914:	6f ef       	ldi	r22, 0xFF	; 255
    5916:	7f ef       	ldi	r23, 0xFF	; 255
    5918:	c5 01       	movw	r24, r10
    591a:	0e 94 d3 2d 	call	0x5ba6	; 0x5ba6 <strnlen>
    591e:	4c 01       	movw	r8, r24
    5920:	82 01       	movw	r16, r4
    5922:	f3 2d       	mov	r31, r3
    5924:	ff 77       	andi	r31, 0x7F	; 127
    5926:	3f 2e       	mov	r3, r31
    5928:	16 c0       	rjmp	.+44     	; 0x5956 <vfprintf+0x188>
    592a:	28 01       	movw	r4, r16
    592c:	22 e0       	ldi	r18, 0x02	; 2
    592e:	42 0e       	add	r4, r18
    5930:	51 1c       	adc	r5, r1
    5932:	f8 01       	movw	r30, r16
    5934:	a0 80       	ld	r10, Z
    5936:	b1 80       	ldd	r11, Z+1	; 0x01
    5938:	36 fe       	sbrs	r3, 6
    593a:	03 c0       	rjmp	.+6      	; 0x5942 <vfprintf+0x174>
    593c:	69 2d       	mov	r22, r9
    593e:	70 e0       	ldi	r23, 0x00	; 0
    5940:	02 c0       	rjmp	.+4      	; 0x5946 <vfprintf+0x178>
    5942:	6f ef       	ldi	r22, 0xFF	; 255
    5944:	7f ef       	ldi	r23, 0xFF	; 255
    5946:	c5 01       	movw	r24, r10
    5948:	0e 94 c8 2d 	call	0x5b90	; 0x5b90 <strnlen_P>
    594c:	4c 01       	movw	r8, r24
    594e:	f3 2d       	mov	r31, r3
    5950:	f0 68       	ori	r31, 0x80	; 128
    5952:	3f 2e       	mov	r3, r31
    5954:	82 01       	movw	r16, r4
    5956:	33 fc       	sbrc	r3, 3
    5958:	1b c0       	rjmp	.+54     	; 0x5990 <vfprintf+0x1c2>
    595a:	82 2d       	mov	r24, r2
    595c:	90 e0       	ldi	r25, 0x00	; 0
    595e:	88 16       	cp	r8, r24
    5960:	99 06       	cpc	r9, r25
    5962:	b0 f4       	brcc	.+44     	; 0x5990 <vfprintf+0x1c2>
    5964:	b6 01       	movw	r22, r12
    5966:	80 e2       	ldi	r24, 0x20	; 32
    5968:	90 e0       	ldi	r25, 0x00	; 0
    596a:	0e 94 ee 2d 	call	0x5bdc	; 0x5bdc <fputc>
    596e:	2a 94       	dec	r2
    5970:	f4 cf       	rjmp	.-24     	; 0x595a <vfprintf+0x18c>
    5972:	f5 01       	movw	r30, r10
    5974:	37 fc       	sbrc	r3, 7
    5976:	85 91       	lpm	r24, Z+
    5978:	37 fe       	sbrs	r3, 7
    597a:	81 91       	ld	r24, Z+
    597c:	5f 01       	movw	r10, r30
    597e:	b6 01       	movw	r22, r12
    5980:	90 e0       	ldi	r25, 0x00	; 0
    5982:	0e 94 ee 2d 	call	0x5bdc	; 0x5bdc <fputc>
    5986:	21 10       	cpse	r2, r1
    5988:	2a 94       	dec	r2
    598a:	21 e0       	ldi	r18, 0x01	; 1
    598c:	82 1a       	sub	r8, r18
    598e:	91 08       	sbc	r9, r1
    5990:	81 14       	cp	r8, r1
    5992:	91 04       	cpc	r9, r1
    5994:	71 f7       	brne	.-36     	; 0x5972 <vfprintf+0x1a4>
    5996:	e8 c0       	rjmp	.+464    	; 0x5b68 <vfprintf+0x39a>
    5998:	84 36       	cpi	r24, 0x64	; 100
    599a:	11 f0       	breq	.+4      	; 0x59a0 <vfprintf+0x1d2>
    599c:	89 36       	cpi	r24, 0x69	; 105
    599e:	41 f5       	brne	.+80     	; 0x59f0 <vfprintf+0x222>
    59a0:	f8 01       	movw	r30, r16
    59a2:	37 fe       	sbrs	r3, 7
    59a4:	07 c0       	rjmp	.+14     	; 0x59b4 <vfprintf+0x1e6>
    59a6:	60 81       	ld	r22, Z
    59a8:	71 81       	ldd	r23, Z+1	; 0x01
    59aa:	82 81       	ldd	r24, Z+2	; 0x02
    59ac:	93 81       	ldd	r25, Z+3	; 0x03
    59ae:	0c 5f       	subi	r16, 0xFC	; 252
    59b0:	1f 4f       	sbci	r17, 0xFF	; 255
    59b2:	08 c0       	rjmp	.+16     	; 0x59c4 <vfprintf+0x1f6>
    59b4:	60 81       	ld	r22, Z
    59b6:	71 81       	ldd	r23, Z+1	; 0x01
    59b8:	07 2e       	mov	r0, r23
    59ba:	00 0c       	add	r0, r0
    59bc:	88 0b       	sbc	r24, r24
    59be:	99 0b       	sbc	r25, r25
    59c0:	0e 5f       	subi	r16, 0xFE	; 254
    59c2:	1f 4f       	sbci	r17, 0xFF	; 255
    59c4:	f3 2d       	mov	r31, r3
    59c6:	ff 76       	andi	r31, 0x6F	; 111
    59c8:	3f 2e       	mov	r3, r31
    59ca:	97 ff       	sbrs	r25, 7
    59cc:	09 c0       	rjmp	.+18     	; 0x59e0 <vfprintf+0x212>
    59ce:	90 95       	com	r25
    59d0:	80 95       	com	r24
    59d2:	70 95       	com	r23
    59d4:	61 95       	neg	r22
    59d6:	7f 4f       	sbci	r23, 0xFF	; 255
    59d8:	8f 4f       	sbci	r24, 0xFF	; 255
    59da:	9f 4f       	sbci	r25, 0xFF	; 255
    59dc:	f0 68       	ori	r31, 0x80	; 128
    59de:	3f 2e       	mov	r3, r31
    59e0:	2a e0       	ldi	r18, 0x0A	; 10
    59e2:	30 e0       	ldi	r19, 0x00	; 0
    59e4:	a3 01       	movw	r20, r6
    59e6:	0e 94 2a 2e 	call	0x5c54	; 0x5c54 <__ultoa_invert>
    59ea:	88 2e       	mov	r8, r24
    59ec:	86 18       	sub	r8, r6
    59ee:	45 c0       	rjmp	.+138    	; 0x5a7a <vfprintf+0x2ac>
    59f0:	85 37       	cpi	r24, 0x75	; 117
    59f2:	31 f4       	brne	.+12     	; 0x5a00 <vfprintf+0x232>
    59f4:	23 2d       	mov	r18, r3
    59f6:	2f 7e       	andi	r18, 0xEF	; 239
    59f8:	b2 2e       	mov	r11, r18
    59fa:	2a e0       	ldi	r18, 0x0A	; 10
    59fc:	30 e0       	ldi	r19, 0x00	; 0
    59fe:	25 c0       	rjmp	.+74     	; 0x5a4a <vfprintf+0x27c>
    5a00:	93 2d       	mov	r25, r3
    5a02:	99 7f       	andi	r25, 0xF9	; 249
    5a04:	b9 2e       	mov	r11, r25
    5a06:	8f 36       	cpi	r24, 0x6F	; 111
    5a08:	c1 f0       	breq	.+48     	; 0x5a3a <vfprintf+0x26c>
    5a0a:	18 f4       	brcc	.+6      	; 0x5a12 <vfprintf+0x244>
    5a0c:	88 35       	cpi	r24, 0x58	; 88
    5a0e:	79 f0       	breq	.+30     	; 0x5a2e <vfprintf+0x260>
    5a10:	b5 c0       	rjmp	.+362    	; 0x5b7c <vfprintf+0x3ae>
    5a12:	80 37       	cpi	r24, 0x70	; 112
    5a14:	19 f0       	breq	.+6      	; 0x5a1c <vfprintf+0x24e>
    5a16:	88 37       	cpi	r24, 0x78	; 120
    5a18:	21 f0       	breq	.+8      	; 0x5a22 <vfprintf+0x254>
    5a1a:	b0 c0       	rjmp	.+352    	; 0x5b7c <vfprintf+0x3ae>
    5a1c:	e9 2f       	mov	r30, r25
    5a1e:	e0 61       	ori	r30, 0x10	; 16
    5a20:	be 2e       	mov	r11, r30
    5a22:	b4 fe       	sbrs	r11, 4
    5a24:	0d c0       	rjmp	.+26     	; 0x5a40 <vfprintf+0x272>
    5a26:	fb 2d       	mov	r31, r11
    5a28:	f4 60       	ori	r31, 0x04	; 4
    5a2a:	bf 2e       	mov	r11, r31
    5a2c:	09 c0       	rjmp	.+18     	; 0x5a40 <vfprintf+0x272>
    5a2e:	34 fe       	sbrs	r3, 4
    5a30:	0a c0       	rjmp	.+20     	; 0x5a46 <vfprintf+0x278>
    5a32:	29 2f       	mov	r18, r25
    5a34:	26 60       	ori	r18, 0x06	; 6
    5a36:	b2 2e       	mov	r11, r18
    5a38:	06 c0       	rjmp	.+12     	; 0x5a46 <vfprintf+0x278>
    5a3a:	28 e0       	ldi	r18, 0x08	; 8
    5a3c:	30 e0       	ldi	r19, 0x00	; 0
    5a3e:	05 c0       	rjmp	.+10     	; 0x5a4a <vfprintf+0x27c>
    5a40:	20 e1       	ldi	r18, 0x10	; 16
    5a42:	30 e0       	ldi	r19, 0x00	; 0
    5a44:	02 c0       	rjmp	.+4      	; 0x5a4a <vfprintf+0x27c>
    5a46:	20 e1       	ldi	r18, 0x10	; 16
    5a48:	32 e0       	ldi	r19, 0x02	; 2
    5a4a:	f8 01       	movw	r30, r16
    5a4c:	b7 fe       	sbrs	r11, 7
    5a4e:	07 c0       	rjmp	.+14     	; 0x5a5e <vfprintf+0x290>
    5a50:	60 81       	ld	r22, Z
    5a52:	71 81       	ldd	r23, Z+1	; 0x01
    5a54:	82 81       	ldd	r24, Z+2	; 0x02
    5a56:	93 81       	ldd	r25, Z+3	; 0x03
    5a58:	0c 5f       	subi	r16, 0xFC	; 252
    5a5a:	1f 4f       	sbci	r17, 0xFF	; 255
    5a5c:	06 c0       	rjmp	.+12     	; 0x5a6a <vfprintf+0x29c>
    5a5e:	60 81       	ld	r22, Z
    5a60:	71 81       	ldd	r23, Z+1	; 0x01
    5a62:	80 e0       	ldi	r24, 0x00	; 0
    5a64:	90 e0       	ldi	r25, 0x00	; 0
    5a66:	0e 5f       	subi	r16, 0xFE	; 254
    5a68:	1f 4f       	sbci	r17, 0xFF	; 255
    5a6a:	a3 01       	movw	r20, r6
    5a6c:	0e 94 2a 2e 	call	0x5c54	; 0x5c54 <__ultoa_invert>
    5a70:	88 2e       	mov	r8, r24
    5a72:	86 18       	sub	r8, r6
    5a74:	fb 2d       	mov	r31, r11
    5a76:	ff 77       	andi	r31, 0x7F	; 127
    5a78:	3f 2e       	mov	r3, r31
    5a7a:	36 fe       	sbrs	r3, 6
    5a7c:	0d c0       	rjmp	.+26     	; 0x5a98 <vfprintf+0x2ca>
    5a7e:	23 2d       	mov	r18, r3
    5a80:	2e 7f       	andi	r18, 0xFE	; 254
    5a82:	a2 2e       	mov	r10, r18
    5a84:	89 14       	cp	r8, r9
    5a86:	58 f4       	brcc	.+22     	; 0x5a9e <vfprintf+0x2d0>
    5a88:	34 fe       	sbrs	r3, 4
    5a8a:	0b c0       	rjmp	.+22     	; 0x5aa2 <vfprintf+0x2d4>
    5a8c:	32 fc       	sbrc	r3, 2
    5a8e:	09 c0       	rjmp	.+18     	; 0x5aa2 <vfprintf+0x2d4>
    5a90:	83 2d       	mov	r24, r3
    5a92:	8e 7e       	andi	r24, 0xEE	; 238
    5a94:	a8 2e       	mov	r10, r24
    5a96:	05 c0       	rjmp	.+10     	; 0x5aa2 <vfprintf+0x2d4>
    5a98:	b8 2c       	mov	r11, r8
    5a9a:	a3 2c       	mov	r10, r3
    5a9c:	03 c0       	rjmp	.+6      	; 0x5aa4 <vfprintf+0x2d6>
    5a9e:	b8 2c       	mov	r11, r8
    5aa0:	01 c0       	rjmp	.+2      	; 0x5aa4 <vfprintf+0x2d6>
    5aa2:	b9 2c       	mov	r11, r9
    5aa4:	a4 fe       	sbrs	r10, 4
    5aa6:	0f c0       	rjmp	.+30     	; 0x5ac6 <vfprintf+0x2f8>
    5aa8:	fe 01       	movw	r30, r28
    5aaa:	e8 0d       	add	r30, r8
    5aac:	f1 1d       	adc	r31, r1
    5aae:	80 81       	ld	r24, Z
    5ab0:	80 33       	cpi	r24, 0x30	; 48
    5ab2:	21 f4       	brne	.+8      	; 0x5abc <vfprintf+0x2ee>
    5ab4:	9a 2d       	mov	r25, r10
    5ab6:	99 7e       	andi	r25, 0xE9	; 233
    5ab8:	a9 2e       	mov	r10, r25
    5aba:	09 c0       	rjmp	.+18     	; 0x5ace <vfprintf+0x300>
    5abc:	a2 fe       	sbrs	r10, 2
    5abe:	06 c0       	rjmp	.+12     	; 0x5acc <vfprintf+0x2fe>
    5ac0:	b3 94       	inc	r11
    5ac2:	b3 94       	inc	r11
    5ac4:	04 c0       	rjmp	.+8      	; 0x5ace <vfprintf+0x300>
    5ac6:	8a 2d       	mov	r24, r10
    5ac8:	86 78       	andi	r24, 0x86	; 134
    5aca:	09 f0       	breq	.+2      	; 0x5ace <vfprintf+0x300>
    5acc:	b3 94       	inc	r11
    5ace:	a3 fc       	sbrc	r10, 3
    5ad0:	11 c0       	rjmp	.+34     	; 0x5af4 <vfprintf+0x326>
    5ad2:	a0 fe       	sbrs	r10, 0
    5ad4:	06 c0       	rjmp	.+12     	; 0x5ae2 <vfprintf+0x314>
    5ad6:	b2 14       	cp	r11, r2
    5ad8:	88 f4       	brcc	.+34     	; 0x5afc <vfprintf+0x32e>
    5ada:	28 0c       	add	r2, r8
    5adc:	92 2c       	mov	r9, r2
    5ade:	9b 18       	sub	r9, r11
    5ae0:	0e c0       	rjmp	.+28     	; 0x5afe <vfprintf+0x330>
    5ae2:	b2 14       	cp	r11, r2
    5ae4:	60 f4       	brcc	.+24     	; 0x5afe <vfprintf+0x330>
    5ae6:	b6 01       	movw	r22, r12
    5ae8:	80 e2       	ldi	r24, 0x20	; 32
    5aea:	90 e0       	ldi	r25, 0x00	; 0
    5aec:	0e 94 ee 2d 	call	0x5bdc	; 0x5bdc <fputc>
    5af0:	b3 94       	inc	r11
    5af2:	f7 cf       	rjmp	.-18     	; 0x5ae2 <vfprintf+0x314>
    5af4:	b2 14       	cp	r11, r2
    5af6:	18 f4       	brcc	.+6      	; 0x5afe <vfprintf+0x330>
    5af8:	2b 18       	sub	r2, r11
    5afa:	02 c0       	rjmp	.+4      	; 0x5b00 <vfprintf+0x332>
    5afc:	98 2c       	mov	r9, r8
    5afe:	21 2c       	mov	r2, r1
    5b00:	a4 fe       	sbrs	r10, 4
    5b02:	10 c0       	rjmp	.+32     	; 0x5b24 <vfprintf+0x356>
    5b04:	b6 01       	movw	r22, r12
    5b06:	80 e3       	ldi	r24, 0x30	; 48
    5b08:	90 e0       	ldi	r25, 0x00	; 0
    5b0a:	0e 94 ee 2d 	call	0x5bdc	; 0x5bdc <fputc>
    5b0e:	a2 fe       	sbrs	r10, 2
    5b10:	17 c0       	rjmp	.+46     	; 0x5b40 <vfprintf+0x372>
    5b12:	a1 fc       	sbrc	r10, 1
    5b14:	03 c0       	rjmp	.+6      	; 0x5b1c <vfprintf+0x34e>
    5b16:	88 e7       	ldi	r24, 0x78	; 120
    5b18:	90 e0       	ldi	r25, 0x00	; 0
    5b1a:	02 c0       	rjmp	.+4      	; 0x5b20 <vfprintf+0x352>
    5b1c:	88 e5       	ldi	r24, 0x58	; 88
    5b1e:	90 e0       	ldi	r25, 0x00	; 0
    5b20:	b6 01       	movw	r22, r12
    5b22:	0c c0       	rjmp	.+24     	; 0x5b3c <vfprintf+0x36e>
    5b24:	8a 2d       	mov	r24, r10
    5b26:	86 78       	andi	r24, 0x86	; 134
    5b28:	59 f0       	breq	.+22     	; 0x5b40 <vfprintf+0x372>
    5b2a:	a1 fe       	sbrs	r10, 1
    5b2c:	02 c0       	rjmp	.+4      	; 0x5b32 <vfprintf+0x364>
    5b2e:	8b e2       	ldi	r24, 0x2B	; 43
    5b30:	01 c0       	rjmp	.+2      	; 0x5b34 <vfprintf+0x366>
    5b32:	80 e2       	ldi	r24, 0x20	; 32
    5b34:	a7 fc       	sbrc	r10, 7
    5b36:	8d e2       	ldi	r24, 0x2D	; 45
    5b38:	b6 01       	movw	r22, r12
    5b3a:	90 e0       	ldi	r25, 0x00	; 0
    5b3c:	0e 94 ee 2d 	call	0x5bdc	; 0x5bdc <fputc>
    5b40:	89 14       	cp	r8, r9
    5b42:	38 f4       	brcc	.+14     	; 0x5b52 <vfprintf+0x384>
    5b44:	b6 01       	movw	r22, r12
    5b46:	80 e3       	ldi	r24, 0x30	; 48
    5b48:	90 e0       	ldi	r25, 0x00	; 0
    5b4a:	0e 94 ee 2d 	call	0x5bdc	; 0x5bdc <fputc>
    5b4e:	9a 94       	dec	r9
    5b50:	f7 cf       	rjmp	.-18     	; 0x5b40 <vfprintf+0x372>
    5b52:	8a 94       	dec	r8
    5b54:	f3 01       	movw	r30, r6
    5b56:	e8 0d       	add	r30, r8
    5b58:	f1 1d       	adc	r31, r1
    5b5a:	80 81       	ld	r24, Z
    5b5c:	b6 01       	movw	r22, r12
    5b5e:	90 e0       	ldi	r25, 0x00	; 0
    5b60:	0e 94 ee 2d 	call	0x5bdc	; 0x5bdc <fputc>
    5b64:	81 10       	cpse	r8, r1
    5b66:	f5 cf       	rjmp	.-22     	; 0x5b52 <vfprintf+0x384>
    5b68:	22 20       	and	r2, r2
    5b6a:	09 f4       	brne	.+2      	; 0x5b6e <vfprintf+0x3a0>
    5b6c:	42 ce       	rjmp	.-892    	; 0x57f2 <vfprintf+0x24>
    5b6e:	b6 01       	movw	r22, r12
    5b70:	80 e2       	ldi	r24, 0x20	; 32
    5b72:	90 e0       	ldi	r25, 0x00	; 0
    5b74:	0e 94 ee 2d 	call	0x5bdc	; 0x5bdc <fputc>
    5b78:	2a 94       	dec	r2
    5b7a:	f6 cf       	rjmp	.-20     	; 0x5b68 <vfprintf+0x39a>
    5b7c:	f6 01       	movw	r30, r12
    5b7e:	86 81       	ldd	r24, Z+6	; 0x06
    5b80:	97 81       	ldd	r25, Z+7	; 0x07
    5b82:	02 c0       	rjmp	.+4      	; 0x5b88 <vfprintf+0x3ba>
    5b84:	8f ef       	ldi	r24, 0xFF	; 255
    5b86:	9f ef       	ldi	r25, 0xFF	; 255
    5b88:	2b 96       	adiw	r28, 0x0b	; 11
    5b8a:	e2 e1       	ldi	r30, 0x12	; 18
    5b8c:	0c 94 d9 2e 	jmp	0x5db2	; 0x5db2 <__epilogue_restores__>

00005b90 <strnlen_P>:
    5b90:	fc 01       	movw	r30, r24
    5b92:	05 90       	lpm	r0, Z+
    5b94:	61 50       	subi	r22, 0x01	; 1
    5b96:	70 40       	sbci	r23, 0x00	; 0
    5b98:	01 10       	cpse	r0, r1
    5b9a:	d8 f7       	brcc	.-10     	; 0x5b92 <strnlen_P+0x2>
    5b9c:	80 95       	com	r24
    5b9e:	90 95       	com	r25
    5ba0:	8e 0f       	add	r24, r30
    5ba2:	9f 1f       	adc	r25, r31
    5ba4:	08 95       	ret

00005ba6 <strnlen>:
    5ba6:	fc 01       	movw	r30, r24
    5ba8:	61 50       	subi	r22, 0x01	; 1
    5baa:	70 40       	sbci	r23, 0x00	; 0
    5bac:	01 90       	ld	r0, Z+
    5bae:	01 10       	cpse	r0, r1
    5bb0:	d8 f7       	brcc	.-10     	; 0x5ba8 <strnlen+0x2>
    5bb2:	80 95       	com	r24
    5bb4:	90 95       	com	r25
    5bb6:	8e 0f       	add	r24, r30
    5bb8:	9f 1f       	adc	r25, r31
    5bba:	08 95       	ret

00005bbc <strrev>:
    5bbc:	dc 01       	movw	r26, r24
    5bbe:	fc 01       	movw	r30, r24
    5bc0:	67 2f       	mov	r22, r23
    5bc2:	71 91       	ld	r23, Z+
    5bc4:	77 23       	and	r23, r23
    5bc6:	e1 f7       	brne	.-8      	; 0x5bc0 <strrev+0x4>
    5bc8:	32 97       	sbiw	r30, 0x02	; 2
    5bca:	04 c0       	rjmp	.+8      	; 0x5bd4 <strrev+0x18>
    5bcc:	7c 91       	ld	r23, X
    5bce:	6d 93       	st	X+, r22
    5bd0:	70 83       	st	Z, r23
    5bd2:	62 91       	ld	r22, -Z
    5bd4:	ae 17       	cp	r26, r30
    5bd6:	bf 07       	cpc	r27, r31
    5bd8:	c8 f3       	brcs	.-14     	; 0x5bcc <strrev+0x10>
    5bda:	08 95       	ret

00005bdc <fputc>:
    5bdc:	0f 93       	push	r16
    5bde:	1f 93       	push	r17
    5be0:	cf 93       	push	r28
    5be2:	df 93       	push	r29
    5be4:	fb 01       	movw	r30, r22
    5be6:	23 81       	ldd	r18, Z+3	; 0x03
    5be8:	21 fd       	sbrc	r18, 1
    5bea:	03 c0       	rjmp	.+6      	; 0x5bf2 <fputc+0x16>
    5bec:	8f ef       	ldi	r24, 0xFF	; 255
    5bee:	9f ef       	ldi	r25, 0xFF	; 255
    5bf0:	2c c0       	rjmp	.+88     	; 0x5c4a <fputc+0x6e>
    5bf2:	22 ff       	sbrs	r18, 2
    5bf4:	16 c0       	rjmp	.+44     	; 0x5c22 <fputc+0x46>
    5bf6:	46 81       	ldd	r20, Z+6	; 0x06
    5bf8:	57 81       	ldd	r21, Z+7	; 0x07
    5bfa:	24 81       	ldd	r18, Z+4	; 0x04
    5bfc:	35 81       	ldd	r19, Z+5	; 0x05
    5bfe:	42 17       	cp	r20, r18
    5c00:	53 07       	cpc	r21, r19
    5c02:	44 f4       	brge	.+16     	; 0x5c14 <fputc+0x38>
    5c04:	a0 81       	ld	r26, Z
    5c06:	b1 81       	ldd	r27, Z+1	; 0x01
    5c08:	9d 01       	movw	r18, r26
    5c0a:	2f 5f       	subi	r18, 0xFF	; 255
    5c0c:	3f 4f       	sbci	r19, 0xFF	; 255
    5c0e:	31 83       	std	Z+1, r19	; 0x01
    5c10:	20 83       	st	Z, r18
    5c12:	8c 93       	st	X, r24
    5c14:	26 81       	ldd	r18, Z+6	; 0x06
    5c16:	37 81       	ldd	r19, Z+7	; 0x07
    5c18:	2f 5f       	subi	r18, 0xFF	; 255
    5c1a:	3f 4f       	sbci	r19, 0xFF	; 255
    5c1c:	37 83       	std	Z+7, r19	; 0x07
    5c1e:	26 83       	std	Z+6, r18	; 0x06
    5c20:	14 c0       	rjmp	.+40     	; 0x5c4a <fputc+0x6e>
    5c22:	8b 01       	movw	r16, r22
    5c24:	ec 01       	movw	r28, r24
    5c26:	fb 01       	movw	r30, r22
    5c28:	00 84       	ldd	r0, Z+8	; 0x08
    5c2a:	f1 85       	ldd	r31, Z+9	; 0x09
    5c2c:	e0 2d       	mov	r30, r0
    5c2e:	09 95       	icall
    5c30:	89 2b       	or	r24, r25
    5c32:	e1 f6       	brne	.-72     	; 0x5bec <fputc+0x10>
    5c34:	d8 01       	movw	r26, r16
    5c36:	16 96       	adiw	r26, 0x06	; 6
    5c38:	8d 91       	ld	r24, X+
    5c3a:	9c 91       	ld	r25, X
    5c3c:	17 97       	sbiw	r26, 0x07	; 7
    5c3e:	01 96       	adiw	r24, 0x01	; 1
    5c40:	17 96       	adiw	r26, 0x07	; 7
    5c42:	9c 93       	st	X, r25
    5c44:	8e 93       	st	-X, r24
    5c46:	16 97       	sbiw	r26, 0x06	; 6
    5c48:	ce 01       	movw	r24, r28
    5c4a:	df 91       	pop	r29
    5c4c:	cf 91       	pop	r28
    5c4e:	1f 91       	pop	r17
    5c50:	0f 91       	pop	r16
    5c52:	08 95       	ret

00005c54 <__ultoa_invert>:
    5c54:	fa 01       	movw	r30, r20
    5c56:	aa 27       	eor	r26, r26
    5c58:	28 30       	cpi	r18, 0x08	; 8
    5c5a:	51 f1       	breq	.+84     	; 0x5cb0 <__ultoa_invert+0x5c>
    5c5c:	20 31       	cpi	r18, 0x10	; 16
    5c5e:	81 f1       	breq	.+96     	; 0x5cc0 <__ultoa_invert+0x6c>
    5c60:	e8 94       	clt
    5c62:	6f 93       	push	r22
    5c64:	6e 7f       	andi	r22, 0xFE	; 254
    5c66:	6e 5f       	subi	r22, 0xFE	; 254
    5c68:	7f 4f       	sbci	r23, 0xFF	; 255
    5c6a:	8f 4f       	sbci	r24, 0xFF	; 255
    5c6c:	9f 4f       	sbci	r25, 0xFF	; 255
    5c6e:	af 4f       	sbci	r26, 0xFF	; 255
    5c70:	b1 e0       	ldi	r27, 0x01	; 1
    5c72:	3e d0       	rcall	.+124    	; 0x5cf0 <__ultoa_invert+0x9c>
    5c74:	b4 e0       	ldi	r27, 0x04	; 4
    5c76:	3c d0       	rcall	.+120    	; 0x5cf0 <__ultoa_invert+0x9c>
    5c78:	67 0f       	add	r22, r23
    5c7a:	78 1f       	adc	r23, r24
    5c7c:	89 1f       	adc	r24, r25
    5c7e:	9a 1f       	adc	r25, r26
    5c80:	a1 1d       	adc	r26, r1
    5c82:	68 0f       	add	r22, r24
    5c84:	79 1f       	adc	r23, r25
    5c86:	8a 1f       	adc	r24, r26
    5c88:	91 1d       	adc	r25, r1
    5c8a:	a1 1d       	adc	r26, r1
    5c8c:	6a 0f       	add	r22, r26
    5c8e:	71 1d       	adc	r23, r1
    5c90:	81 1d       	adc	r24, r1
    5c92:	91 1d       	adc	r25, r1
    5c94:	a1 1d       	adc	r26, r1
    5c96:	20 d0       	rcall	.+64     	; 0x5cd8 <__ultoa_invert+0x84>
    5c98:	09 f4       	brne	.+2      	; 0x5c9c <__ultoa_invert+0x48>
    5c9a:	68 94       	set
    5c9c:	3f 91       	pop	r19
    5c9e:	2a e0       	ldi	r18, 0x0A	; 10
    5ca0:	26 9f       	mul	r18, r22
    5ca2:	11 24       	eor	r1, r1
    5ca4:	30 19       	sub	r19, r0
    5ca6:	30 5d       	subi	r19, 0xD0	; 208
    5ca8:	31 93       	st	Z+, r19
    5caa:	de f6       	brtc	.-74     	; 0x5c62 <__ultoa_invert+0xe>
    5cac:	cf 01       	movw	r24, r30
    5cae:	08 95       	ret
    5cb0:	46 2f       	mov	r20, r22
    5cb2:	47 70       	andi	r20, 0x07	; 7
    5cb4:	40 5d       	subi	r20, 0xD0	; 208
    5cb6:	41 93       	st	Z+, r20
    5cb8:	b3 e0       	ldi	r27, 0x03	; 3
    5cba:	0f d0       	rcall	.+30     	; 0x5cda <__ultoa_invert+0x86>
    5cbc:	c9 f7       	brne	.-14     	; 0x5cb0 <__ultoa_invert+0x5c>
    5cbe:	f6 cf       	rjmp	.-20     	; 0x5cac <__ultoa_invert+0x58>
    5cc0:	46 2f       	mov	r20, r22
    5cc2:	4f 70       	andi	r20, 0x0F	; 15
    5cc4:	40 5d       	subi	r20, 0xD0	; 208
    5cc6:	4a 33       	cpi	r20, 0x3A	; 58
    5cc8:	18 f0       	brcs	.+6      	; 0x5cd0 <__ultoa_invert+0x7c>
    5cca:	49 5d       	subi	r20, 0xD9	; 217
    5ccc:	31 fd       	sbrc	r19, 1
    5cce:	40 52       	subi	r20, 0x20	; 32
    5cd0:	41 93       	st	Z+, r20
    5cd2:	02 d0       	rcall	.+4      	; 0x5cd8 <__ultoa_invert+0x84>
    5cd4:	a9 f7       	brne	.-22     	; 0x5cc0 <__ultoa_invert+0x6c>
    5cd6:	ea cf       	rjmp	.-44     	; 0x5cac <__ultoa_invert+0x58>
    5cd8:	b4 e0       	ldi	r27, 0x04	; 4
    5cda:	a6 95       	lsr	r26
    5cdc:	97 95       	ror	r25
    5cde:	87 95       	ror	r24
    5ce0:	77 95       	ror	r23
    5ce2:	67 95       	ror	r22
    5ce4:	ba 95       	dec	r27
    5ce6:	c9 f7       	brne	.-14     	; 0x5cda <__ultoa_invert+0x86>
    5ce8:	00 97       	sbiw	r24, 0x00	; 0
    5cea:	61 05       	cpc	r22, r1
    5cec:	71 05       	cpc	r23, r1
    5cee:	08 95       	ret
    5cf0:	9b 01       	movw	r18, r22
    5cf2:	ac 01       	movw	r20, r24
    5cf4:	0a 2e       	mov	r0, r26
    5cf6:	06 94       	lsr	r0
    5cf8:	57 95       	ror	r21
    5cfa:	47 95       	ror	r20
    5cfc:	37 95       	ror	r19
    5cfe:	27 95       	ror	r18
    5d00:	ba 95       	dec	r27
    5d02:	c9 f7       	brne	.-14     	; 0x5cf6 <__ultoa_invert+0xa2>
    5d04:	62 0f       	add	r22, r18
    5d06:	73 1f       	adc	r23, r19
    5d08:	84 1f       	adc	r24, r20
    5d0a:	95 1f       	adc	r25, r21
    5d0c:	a0 1d       	adc	r26, r0
    5d0e:	08 95       	ret

00005d10 <eeprom_read_byte>:
    5d10:	e1 99       	sbic	0x1c, 1	; 28
    5d12:	fe cf       	rjmp	.-4      	; 0x5d10 <eeprom_read_byte>
    5d14:	9f bb       	out	0x1f, r25	; 31
    5d16:	8e bb       	out	0x1e, r24	; 30
    5d18:	e0 9a       	sbi	0x1c, 0	; 28
    5d1a:	99 27       	eor	r25, r25
    5d1c:	8d b3       	in	r24, 0x1d	; 29
    5d1e:	08 95       	ret

00005d20 <eeprom_read_word>:
    5d20:	a8 e1       	ldi	r26, 0x18	; 24
    5d22:	b0 e0       	ldi	r27, 0x00	; 0
    5d24:	42 e0       	ldi	r20, 0x02	; 2
    5d26:	50 e0       	ldi	r21, 0x00	; 0
    5d28:	0c 94 af 2e 	jmp	0x5d5e	; 0x5d5e <eeprom_read_blraw>

00005d2c <eeprom_update_byte>:
    5d2c:	26 2f       	mov	r18, r22

00005d2e <eeprom_update_r18>:
    5d2e:	e1 99       	sbic	0x1c, 1	; 28
    5d30:	fe cf       	rjmp	.-4      	; 0x5d2e <eeprom_update_r18>
    5d32:	9f bb       	out	0x1f, r25	; 31
    5d34:	8e bb       	out	0x1e, r24	; 30
    5d36:	e0 9a       	sbi	0x1c, 0	; 28
    5d38:	01 97       	sbiw	r24, 0x01	; 1
    5d3a:	0d b2       	in	r0, 0x1d	; 29
    5d3c:	02 16       	cp	r0, r18
    5d3e:	31 f0       	breq	.+12     	; 0x5d4c <eeprom_update_r18+0x1e>
    5d40:	2d bb       	out	0x1d, r18	; 29
    5d42:	0f b6       	in	r0, 0x3f	; 63
    5d44:	f8 94       	cli
    5d46:	e2 9a       	sbi	0x1c, 2	; 28
    5d48:	e1 9a       	sbi	0x1c, 1	; 28
    5d4a:	0f be       	out	0x3f, r0	; 63
    5d4c:	08 95       	ret

00005d4e <eeprom_update_word>:
    5d4e:	01 96       	adiw	r24, 0x01	; 1
    5d50:	27 2f       	mov	r18, r23
    5d52:	0e 94 97 2e 	call	0x5d2e	; 0x5d2e <eeprom_update_r18>
    5d56:	0c 94 96 2e 	jmp	0x5d2c	; 0x5d2c <eeprom_update_byte>

00005d5a <eeprom_read_block>:
    5d5a:	dc 01       	movw	r26, r24
    5d5c:	cb 01       	movw	r24, r22

00005d5e <eeprom_read_blraw>:
    5d5e:	fc 01       	movw	r30, r24
    5d60:	e1 99       	sbic	0x1c, 1	; 28
    5d62:	fe cf       	rjmp	.-4      	; 0x5d60 <eeprom_read_blraw+0x2>
    5d64:	06 c0       	rjmp	.+12     	; 0x5d72 <eeprom_read_blraw+0x14>
    5d66:	ff bb       	out	0x1f, r31	; 31
    5d68:	ee bb       	out	0x1e, r30	; 30
    5d6a:	e0 9a       	sbi	0x1c, 0	; 28
    5d6c:	31 96       	adiw	r30, 0x01	; 1
    5d6e:	0d b2       	in	r0, 0x1d	; 29
    5d70:	0d 92       	st	X+, r0
    5d72:	41 50       	subi	r20, 0x01	; 1
    5d74:	50 40       	sbci	r21, 0x00	; 0
    5d76:	b8 f7       	brcc	.-18     	; 0x5d66 <eeprom_read_blraw+0x8>
    5d78:	08 95       	ret

00005d7a <__prologue_saves__>:
    5d7a:	2f 92       	push	r2
    5d7c:	3f 92       	push	r3
    5d7e:	4f 92       	push	r4
    5d80:	5f 92       	push	r5
    5d82:	6f 92       	push	r6
    5d84:	7f 92       	push	r7
    5d86:	8f 92       	push	r8
    5d88:	9f 92       	push	r9
    5d8a:	af 92       	push	r10
    5d8c:	bf 92       	push	r11
    5d8e:	cf 92       	push	r12
    5d90:	df 92       	push	r13
    5d92:	ef 92       	push	r14
    5d94:	ff 92       	push	r15
    5d96:	0f 93       	push	r16
    5d98:	1f 93       	push	r17
    5d9a:	cf 93       	push	r28
    5d9c:	df 93       	push	r29
    5d9e:	cd b7       	in	r28, 0x3d	; 61
    5da0:	de b7       	in	r29, 0x3e	; 62
    5da2:	ca 1b       	sub	r28, r26
    5da4:	db 0b       	sbc	r29, r27
    5da6:	0f b6       	in	r0, 0x3f	; 63
    5da8:	f8 94       	cli
    5daa:	de bf       	out	0x3e, r29	; 62
    5dac:	0f be       	out	0x3f, r0	; 63
    5dae:	cd bf       	out	0x3d, r28	; 61
    5db0:	09 94       	ijmp

00005db2 <__epilogue_restores__>:
    5db2:	2a 88       	ldd	r2, Y+18	; 0x12
    5db4:	39 88       	ldd	r3, Y+17	; 0x11
    5db6:	48 88       	ldd	r4, Y+16	; 0x10
    5db8:	5f 84       	ldd	r5, Y+15	; 0x0f
    5dba:	6e 84       	ldd	r6, Y+14	; 0x0e
    5dbc:	7d 84       	ldd	r7, Y+13	; 0x0d
    5dbe:	8c 84       	ldd	r8, Y+12	; 0x0c
    5dc0:	9b 84       	ldd	r9, Y+11	; 0x0b
    5dc2:	aa 84       	ldd	r10, Y+10	; 0x0a
    5dc4:	b9 84       	ldd	r11, Y+9	; 0x09
    5dc6:	c8 84       	ldd	r12, Y+8	; 0x08
    5dc8:	df 80       	ldd	r13, Y+7	; 0x07
    5dca:	ee 80       	ldd	r14, Y+6	; 0x06
    5dcc:	fd 80       	ldd	r15, Y+5	; 0x05
    5dce:	0c 81       	ldd	r16, Y+4	; 0x04
    5dd0:	1b 81       	ldd	r17, Y+3	; 0x03
    5dd2:	aa 81       	ldd	r26, Y+2	; 0x02
    5dd4:	b9 81       	ldd	r27, Y+1	; 0x01
    5dd6:	ce 0f       	add	r28, r30
    5dd8:	d1 1d       	adc	r29, r1
    5dda:	0f b6       	in	r0, 0x3f	; 63
    5ddc:	f8 94       	cli
    5dde:	de bf       	out	0x3e, r29	; 62
    5de0:	0f be       	out	0x3f, r0	; 63
    5de2:	cd bf       	out	0x3d, r28	; 61
    5de4:	ed 01       	movw	r28, r26
    5de6:	08 95       	ret

00005de8 <_exit>:
    5de8:	f8 94       	cli

00005dea <__stop_program>:
    5dea:	ff cf       	rjmp	.-2      	; 0x5dea <__stop_program>
