
futes_vezerlo.elf:     file format elf32-avr

Sections:
Idx Name          Size      VMA       LMA       File off  Algn
  0 .data         000001d4  00800100  00002aca  00002b7e  2**0
                  CONTENTS, ALLOC, LOAD, DATA
  1 .text         00002aca  00000000  00000000  000000b4  2**1
                  CONTENTS, ALLOC, LOAD, READONLY, CODE
  2 .bss          00000125  008002d4  008002d4  00002d52  2**0
                  ALLOC
  3 .eeprom       00000002  00810000  00810000  00002d52  2**0
                  CONTENTS, ALLOC, LOAD, DATA
  4 .comment      00000030  00000000  00000000  00002d54  2**0
                  CONTENTS, READONLY
  5 .note.gnu.avr.deviceinfo 0000003c  00000000  00000000  00002d84  2**2
                  CONTENTS, READONLY
  6 .debug_aranges 00000540  00000000  00000000  00002dc0  2**3
                  CONTENTS, READONLY, DEBUGGING
  7 .debug_info   00006372  00000000  00000000  00003300  2**0
                  CONTENTS, READONLY, DEBUGGING
  8 .debug_abbrev 00001cff  00000000  00000000  00009672  2**0
                  CONTENTS, READONLY, DEBUGGING
  9 .debug_line   00003306  00000000  00000000  0000b371  2**0
                  CONTENTS, READONLY, DEBUGGING
 10 .debug_frame  00000f9c  00000000  00000000  0000e678  2**2
                  CONTENTS, READONLY, DEBUGGING
 11 .debug_str    000016da  00000000  00000000  0000f614  2**0
                  CONTENTS, READONLY, DEBUGGING
 12 .debug_loc    00004c8b  00000000  00000000  00010cee  2**0
                  CONTENTS, READONLY, DEBUGGING
 13 .debug_ranges 00000570  00000000  00000000  00015979  2**0
                  CONTENTS, READONLY, DEBUGGING

Disassembly of section .text:

00000000 <__vectors>:
       0:	0c 94 b8 01 	jmp	0x370	; 0x370 <__ctors_end>
       4:	0c 94 d5 01 	jmp	0x3aa	; 0x3aa <__bad_interrupt>
       8:	0c 94 d5 01 	jmp	0x3aa	; 0x3aa <__bad_interrupt>
       c:	0c 94 d5 01 	jmp	0x3aa	; 0x3aa <__bad_interrupt>
      10:	0c 94 d5 01 	jmp	0x3aa	; 0x3aa <__bad_interrupt>
      14:	0c 94 d5 01 	jmp	0x3aa	; 0x3aa <__bad_interrupt>
      18:	0c 94 d5 01 	jmp	0x3aa	; 0x3aa <__bad_interrupt>
      1c:	0c 94 d5 01 	jmp	0x3aa	; 0x3aa <__bad_interrupt>
      20:	0c 94 d5 01 	jmp	0x3aa	; 0x3aa <__bad_interrupt>
      24:	0c 94 d5 01 	jmp	0x3aa	; 0x3aa <__bad_interrupt>
      28:	0c 94 d5 01 	jmp	0x3aa	; 0x3aa <__bad_interrupt>
      2c:	0c 94 d5 01 	jmp	0x3aa	; 0x3aa <__bad_interrupt>
      30:	0c 94 db 09 	jmp	0x13b6	; 0x13b6 <__vector_12>
      34:	0c 94 d5 01 	jmp	0x3aa	; 0x3aa <__bad_interrupt>
      38:	0c 94 d5 01 	jmp	0x3aa	; 0x3aa <__bad_interrupt>
      3c:	0c 94 d5 01 	jmp	0x3aa	; 0x3aa <__bad_interrupt>
      40:	0c 94 d5 01 	jmp	0x3aa	; 0x3aa <__bad_interrupt>
      44:	0c 94 d5 01 	jmp	0x3aa	; 0x3aa <__bad_interrupt>
      48:	0c 94 37 11 	jmp	0x226e	; 0x226e <__vector_18>
      4c:	0c 94 63 11 	jmp	0x22c6	; 0x22c6 <__vector_19>
      50:	0c 94 d5 01 	jmp	0x3aa	; 0x3aa <__bad_interrupt>
      54:	0c 94 8d 08 	jmp	0x111a	; 0x111a <__vector_21>
      58:	0c 94 d5 01 	jmp	0x3aa	; 0x3aa <__bad_interrupt>
      5c:	0c 94 d5 01 	jmp	0x3aa	; 0x3aa <__bad_interrupt>
      60:	0c 94 d5 01 	jmp	0x3aa	; 0x3aa <__bad_interrupt>
      64:	0c 94 d5 01 	jmp	0x3aa	; 0x3aa <__bad_interrupt>
      68:	0c 94 d5 01 	jmp	0x3aa	; 0x3aa <__bad_interrupt>
      6c:	0c 94 d5 01 	jmp	0x3aa	; 0x3aa <__bad_interrupt>
      70:	0c 94 d5 01 	jmp	0x3aa	; 0x3aa <__bad_interrupt>
      74:	0c 94 d5 01 	jmp	0x3aa	; 0x3aa <__bad_interrupt>
      78:	0c 94 d0 11 	jmp	0x23a0	; 0x23a0 <__vector_30>
      7c:	0c 94 fe 11 	jmp	0x23fc	; 0x23fc <__vector_31>
      80:	0c 94 d5 01 	jmp	0x3aa	; 0x3aa <__bad_interrupt>
      84:	0c 94 d5 01 	jmp	0x3aa	; 0x3aa <__bad_interrupt>
      88:	0c 94 d5 01 	jmp	0x3aa	; 0x3aa <__bad_interrupt>
      8c:	6b 08       	sbc	r6, r11
      8e:	78 08       	sbc	r7, r8
      90:	78 08       	sbc	r7, r8
      92:	78 08       	sbc	r7, r8
      94:	78 08       	sbc	r7, r8
      96:	78 08       	sbc	r7, r8
      98:	78 08       	sbc	r7, r8
      9a:	78 08       	sbc	r7, r8
      9c:	6d 08       	sbc	r6, r13
      9e:	78 08       	sbc	r7, r8
      a0:	78 08       	sbc	r7, r8
      a2:	78 08       	sbc	r7, r8
      a4:	6f 08       	sbc	r6, r15
      a6:	78 08       	sbc	r7, r8
      a8:	78 08       	sbc	r7, r8
      aa:	78 08       	sbc	r7, r8
      ac:	78 08       	sbc	r7, r8
      ae:	78 08       	sbc	r7, r8
      b0:	71 08       	sbc	r7, r1
      b2:	78 08       	sbc	r7, r8
      b4:	73 08       	sbc	r7, r3
      b6:	67 08       	sbc	r6, r7
      b8:	78 08       	sbc	r7, r8
      ba:	78 08       	sbc	r7, r8
      bc:	78 08       	sbc	r7, r8
      be:	75 08       	sbc	r7, r5
      c0:	77 08       	sbc	r7, r7
      c2:	69 08       	sbc	r6, r9
      c4:	78 08       	sbc	r7, r8
      c6:	78 08       	sbc	r7, r8
      c8:	78 08       	sbc	r7, r8
      ca:	78 08       	sbc	r7, r8
      cc:	6b 08       	sbc	r6, r11
      ce:	78 08       	sbc	r7, r8
      d0:	78 08       	sbc	r7, r8
      d2:	78 08       	sbc	r7, r8
      d4:	78 08       	sbc	r7, r8
      d6:	78 08       	sbc	r7, r8
      d8:	78 08       	sbc	r7, r8
      da:	78 08       	sbc	r7, r8
      dc:	6d 08       	sbc	r6, r13
      de:	78 08       	sbc	r7, r8
      e0:	78 08       	sbc	r7, r8
      e2:	78 08       	sbc	r7, r8
      e4:	6f 08       	sbc	r6, r15
      e6:	78 08       	sbc	r7, r8
      e8:	78 08       	sbc	r7, r8
      ea:	78 08       	sbc	r7, r8
      ec:	78 08       	sbc	r7, r8
      ee:	78 08       	sbc	r7, r8
      f0:	71 08       	sbc	r7, r1
      f2:	78 08       	sbc	r7, r8
      f4:	73 08       	sbc	r7, r3
      f6:	67 08       	sbc	r6, r7
      f8:	78 08       	sbc	r7, r8
      fa:	78 08       	sbc	r7, r8
      fc:	78 08       	sbc	r7, r8
      fe:	75 08       	sbc	r7, r5
     100:	77 08       	sbc	r7, r7
     102:	69 08       	sbc	r6, r9

00000104 <__trampolines_end>:
     104:	43 6f       	ori	r20, 0xF3	; 243
     106:	75 6c       	ori	r23, 0xC5	; 197
     108:	64 20       	and	r6, r4
     10a:	6e 6f       	ori	r22, 0xFE	; 254
     10c:	74 20       	and	r7, r4
     10e:	63 6f       	ori	r22, 0xF3	; 243
     110:	6e 6e       	ori	r22, 0xEE	; 238
     112:	65 63       	ori	r22, 0x35	; 53
     114:	74 20       	and	r7, r4
     116:	74 6f       	ori	r23, 0xF4	; 244
     118:	20 73       	andi	r18, 0x30	; 48
     11a:	65 6e       	ori	r22, 0xE5	; 229
     11c:	73 6f       	ori	r23, 0xF3	; 243
     11e:	72 00       	.word	0x0072	; ????

00000120 <__c.2903>:
     120:	0a 00                                               ..

00000122 <__c.2901>:
     122:	4d 41 58 3a 20 00                                   MAX: .

00000128 <__c.2897>:
     128:	20 44 53 31 38 42 32 30 20 73 65 6e 73 6f 72 73      DS18B20 sensors
     138:	0a 00                                               ..

0000013a <__c.2895>:
     13a:	46 6f 75 6e 64 20 00                                Found .

00000141 <__c.2893>:
     141:	49 6e 74 65 72 72 75 70 74 20 65 6e 61 62 6c 65     Interrupt enable
     151:	64 0a 00                                            d..

00000154 <__c.2891>:
     154:	54 69 6d 65 72 20 69 6e 69 74 69 61 74 65 64 0a     Timer initiated.
	...

00000165 <__c.2871>:
     165:	42 75 73 20 65 72 72 6f 72 0a 00                    Bus error..

00000170 <__c.2868>:
     170:	4e 6f 20 73 65 6e 73 6f 72 20 66 6f 75 6e 64 0a     No sensor found.
	...

00000181 <__c.2866>:
     181:	42 75 73 20 73 63 61 6e 6e 69 6e 67 20 2e 2e 2e     Bus scanning ...
     191:	0a 00                                               ..

00000193 <__c.2853>:
     193:	48 4d 56 20 68 f5 6d 20 00                          HMV h.m .

0000019c <__c.2851>:
     19c:	42 4d 45 32 38 30 20 68 f5 6d 20 00                 BME280 h.m .

000001a8 <__c.2848>:
     1a8:	0a 00                                               ..

000001aa <__c.2846>:
     1aa:	4d 41 58 31 3a 20 00                                MAX1: .

000001b1 <__c.2838>:
     1b1:	0a 00                                               ..

000001b3 <__c.2836>:
     1b3:	2e 00                                               ..

000001b5 <__c.2834>:
     1b5:	44 48 57 20 74 65 6d 70 65 72 61 74 75 72 65 3a     DHW temperature:
     1c5:	20 00                                                .

000001c7 <__c.2827>:
     1c7:	25 20 0a 00                                         % ..

000001cb <__c.2825>:
     1cb:	42 4d 45 32 38 30 20 48 75 6d 69 64 69 74 79 3a     BME280 Humidity:
     1db:	20 00                                                .

000001dd <__c.2821>:
     1dd:	43 20 0a 00                                         C ..

000001e1 <__c.2819>:
     1e1:	42 4d 45 32 38 30 20 54 65 6d 70 65 72 61 74 75     BME280 Temperatu
     1f1:	72 65 3a 20 00                                      re: .

000001f6 <__c.2477>:
     1f6:	50 57 4d 3a 20 00                                   PWM: .

000001fc <__c.2474>:
     1fc:	52 65 6c e9 20 6b 69 6b 61 70 63 73 6f 6c 76 61     Rel. kikapcsolva
	...

0000020d <__c.2472>:
     20d:	52 65 6c e9 20 62 65 6b 61 70 63 73 6f 6c 76 61     Rel. bekapcsolva
	...

0000021e <__c.2461>:
     21e:	50 57 4d 3a 20 00                                   PWM: .

00000224 <__c.2458>:
     224:	52 65 6c e9 20 6b 69 6b 61 70 63 73 6f 6c 76 61     Rel. kikapcsolva
	...

00000235 <__c.2456>:
     235:	52 65 6c e9 20 62 65 6b 61 70 63 73 6f 6c 76 61     Rel. bekapcsolva
	...

00000246 <__c.2454>:
     246:	48 4d 56 20 70 75 6d 70 61 20 e1 6c 6c 61 70 6f     HMV pumpa .llapo
     256:	74 00                                               t.

00000258 <__c.2447>:
     258:	50 57 4d 3a 20 00                                   PWM: .

0000025e <__c.2444>:
     25e:	52 65 6c e9 20 6b 69 6b 61 70 63 73 6f 6c 76 61     Rel. kikapcsolva
	...

0000026f <__c.2442>:
     26f:	52 65 6c e9 20 62 65 6b 61 70 63 73 6f 6c 76 61     Rel. bekapcsolva
	...

00000280 <__c.2431>:
     280:	50 57 4d 00                                         PWM.

00000284 <__c.2429>:
     284:	52 45 4c e9 00                                      REL..

00000289 <__c.2389>:
     289:	50 57 4d 3a 20 00                                   PWM: .

0000028f <__c.2386>:
     28f:	52 65 6c e9 20 6b 69 6b 61 70 63 73 6f 6c 76 61     Rel. kikapcsolva
	...

000002a0 <__c.2384>:
     2a0:	52 65 6c e9 20 62 65 6b 61 70 63 73 6f 6c 76 61     Rel. bekapcsolva
	...

000002b1 <__c.2382>:
     2b1:	48 4d 56 20 70 75 6d 70 61 20 e1 6c 6c 61 70 6f     HMV pumpa .llapo
     2c1:	74 00                                               t.

000002c3 <__c.2377>:
     2c3:	50 57 4d 00                                         PWM.

000002c7 <__c.2375>:
     2c7:	52 65 6c e9 00                                      Rel..

000002cc <__c.2373>:
     2cc:	48 4d 56 20 70 75 6d 70 61 20 74 ed 70 75 73 00     HMV pumpa t.pus.

000002dc <__c.2368>:
     2dc:	48 4d 56 20 73 7a 65 6e 7a 6f 72 20 49 44 00        HMV szenzor ID.

000002eb <__c.2363>:
     2eb:	48 4d 56 20 6d 69 6e 20 68 f5 6d 00                 HMV min h.m.

000002f7 <__c.2357>:
     2f7:	48 4d 56 20 6b ed 76 e1 6e 74 20 68 f5 6d 00        HMV k.v.nt h.m.

00000306 <__c.2351>:
     306:	48 4d 56 20 61 6b 74 20 68 f5 6d 00                 HMV akt h.m.

00000312 <__c.2324>:
     312:	42 4d 45 32 38 30 20 6b ed 76 61 6e 74 20 68 f5     BME280 k.vant h.
     322:	6d 00                                               m.

00000324 <__c.2318>:
     324:	42 4d 45 32 38 30 20 6d 69 6e 20 68 f5 6d 00        BME280 min h.m.

00000333 <__c.2312>:
     333:	42 4d 45 32 38 30 20 70 e1 72 61 00                 BME280 p.ra.

0000033f <__c.2306>:
     33f:	42 4d 45 32 38 30 20 68 f5 6d 00                    BME280 h.m.

0000034a <__c.2300>:
     34a:	6c 65 68 65 74 20 76 e1 6c 74 6f 7a 74 61 74 6e     lehet v.ltoztatn
     35a:	69 00                                               i.

0000035c <__c.2298>:
     35c:	46 65 6c 20 2f 20 6c 65 20 67 6f 6d 62 6f 6b 6b     Fel / le gombokk
     36c:	61 6c 00 00                                         al..

00000370 <__ctors_end>:
     370:	11 24       	eor	r1, r1
     372:	1f be       	out	0x3f, r1	; 63
     374:	cf ef       	ldi	r28, 0xFF	; 255
     376:	d0 e1       	ldi	r29, 0x10	; 16
     378:	de bf       	out	0x3e, r29	; 62
     37a:	cd bf       	out	0x3d, r28	; 61

0000037c <__do_copy_data>:
     37c:	12 e0       	ldi	r17, 0x02	; 2
     37e:	a0 e0       	ldi	r26, 0x00	; 0
     380:	b1 e0       	ldi	r27, 0x01	; 1
     382:	ea ec       	ldi	r30, 0xCA	; 202
     384:	fa e2       	ldi	r31, 0x2A	; 42
     386:	02 c0       	rjmp	.+4      	; 0x38c <__do_copy_data+0x10>
     388:	05 90       	lpm	r0, Z+
     38a:	0d 92       	st	X+, r0
     38c:	a4 3d       	cpi	r26, 0xD4	; 212
     38e:	b1 07       	cpc	r27, r17
     390:	d9 f7       	brne	.-10     	; 0x388 <__do_copy_data+0xc>

00000392 <__do_clear_bss>:
     392:	23 e0       	ldi	r18, 0x03	; 3
     394:	a4 ed       	ldi	r26, 0xD4	; 212
     396:	b2 e0       	ldi	r27, 0x02	; 2
     398:	01 c0       	rjmp	.+2      	; 0x39c <.do_clear_bss_start>

0000039a <.do_clear_bss_loop>:
     39a:	1d 92       	st	X+, r1

0000039c <.do_clear_bss_start>:
     39c:	a9 3f       	cpi	r26, 0xF9	; 249
     39e:	b2 07       	cpc	r27, r18
     3a0:	e1 f7       	brne	.-8      	; 0x39a <.do_clear_bss_loop>
     3a2:	0e 94 65 0a 	call	0x14ca	; 0x14ca <main>
     3a6:	0c 94 63 15 	jmp	0x2ac6	; 0x2ac6 <_exit>

000003aa <__bad_interrupt>:
     3aa:	0c 94 00 00 	jmp	0	; 0x0 <__vectors>

000003ae <read8>:
	return var2;
	
	p = ((p + var1 + var2) >> 8) + (((int64_t)_bme280_calib.dig_P7)<<4);
	
	return (float)p/256;
}
     3ae:	cf 93       	push	r28
     3b0:	df 93       	push	r29
     3b2:	c8 2f       	mov	r28, r24
     3b4:	8c ee       	ldi	r24, 0xEC	; 236
     3b6:	0e 94 01 07 	call	0xe02	; 0xe02 <i2c_start>
     3ba:	81 11       	cpse	r24, r1
     3bc:	11 c0       	rjmp	.+34     	; 0x3e0 <read8+0x32>
     3be:	8c 2f       	mov	r24, r28
     3c0:	0e 94 26 07 	call	0xe4c	; 0xe4c <i2c_write>
     3c4:	0e 94 4e 07 	call	0xe9c	; 0xe9c <i2c_stop>
     3c8:	8d ee       	ldi	r24, 0xED	; 237
     3ca:	0e 94 01 07 	call	0xe02	; 0xe02 <i2c_start>
     3ce:	81 11       	cpse	r24, r1
     3d0:	0a c0       	rjmp	.+20     	; 0x3e6 <read8+0x38>
     3d2:	0e 94 43 07 	call	0xe86	; 0xe86 <i2c_read_nack>
     3d6:	c8 2f       	mov	r28, r24
     3d8:	d0 e0       	ldi	r29, 0x00	; 0
     3da:	0e 94 4e 07 	call	0xe9c	; 0xe9c <i2c_stop>
     3de:	05 c0       	rjmp	.+10     	; 0x3ea <read8+0x3c>
     3e0:	c0 e0       	ldi	r28, 0x00	; 0
     3e2:	d0 e0       	ldi	r29, 0x00	; 0
     3e4:	02 c0       	rjmp	.+4      	; 0x3ea <read8+0x3c>
     3e6:	c0 e0       	ldi	r28, 0x00	; 0
     3e8:	d0 e0       	ldi	r29, 0x00	; 0
     3ea:	ce 01       	movw	r24, r28
     3ec:	df 91       	pop	r29
     3ee:	cf 91       	pop	r28
     3f0:	08 95       	ret

000003f2 <read16>:
     3f2:	cf 93       	push	r28
     3f4:	df 93       	push	r29
     3f6:	c8 2f       	mov	r28, r24
     3f8:	8c ee       	ldi	r24, 0xEC	; 236
     3fa:	0e 94 01 07 	call	0xe02	; 0xe02 <i2c_start>
     3fe:	81 11       	cpse	r24, r1
     400:	18 c0       	rjmp	.+48     	; 0x432 <__LOCK_REGION_LENGTH__+0x32>
     402:	8c 2f       	mov	r24, r28
     404:	0e 94 26 07 	call	0xe4c	; 0xe4c <i2c_write>
     408:	0e 94 4e 07 	call	0xe9c	; 0xe9c <i2c_stop>
     40c:	8d ee       	ldi	r24, 0xED	; 237
     40e:	0e 94 01 07 	call	0xe02	; 0xe02 <i2c_start>
     412:	81 11       	cpse	r24, r1
     414:	11 c0       	rjmp	.+34     	; 0x438 <__LOCK_REGION_LENGTH__+0x38>
     416:	0e 94 38 07 	call	0xe70	; 0xe70 <i2c_read_ack>
     41a:	c8 2f       	mov	r28, r24
     41c:	d0 e0       	ldi	r29, 0x00	; 0
     41e:	dc 2f       	mov	r29, r28
     420:	cc 27       	eor	r28, r28
     422:	0e 94 43 07 	call	0xe86	; 0xe86 <i2c_read_nack>
     426:	c8 2b       	or	r28, r24
     428:	0e 94 4e 07 	call	0xe9c	; 0xe9c <i2c_stop>
     42c:	8c 2f       	mov	r24, r28
     42e:	9d 2f       	mov	r25, r29
     430:	05 c0       	rjmp	.+10     	; 0x43c <__LOCK_REGION_LENGTH__+0x3c>
     432:	80 e0       	ldi	r24, 0x00	; 0
     434:	90 e0       	ldi	r25, 0x00	; 0
     436:	02 c0       	rjmp	.+4      	; 0x43c <__LOCK_REGION_LENGTH__+0x3c>
     438:	80 e0       	ldi	r24, 0x00	; 0
     43a:	90 e0       	ldi	r25, 0x00	; 0
     43c:	df 91       	pop	r29
     43e:	cf 91       	pop	r28
     440:	08 95       	ret

00000442 <read16_LE>:
     442:	0e 94 f9 01 	call	0x3f2	; 0x3f2 <read16>
     446:	98 27       	eor	r25, r24
     448:	89 27       	eor	r24, r25
     44a:	98 27       	eor	r25, r24
     44c:	08 95       	ret

0000044e <read24>:
     44e:	cf 92       	push	r12
     450:	df 92       	push	r13
     452:	ef 92       	push	r14
     454:	ff 92       	push	r15
     456:	f8 2e       	mov	r15, r24
     458:	8c ee       	ldi	r24, 0xEC	; 236
     45a:	0e 94 01 07 	call	0xe02	; 0xe02 <i2c_start>
     45e:	81 11       	cpse	r24, r1
     460:	2e c0       	rjmp	.+92     	; 0x4be <read24+0x70>
     462:	8f 2d       	mov	r24, r15
     464:	0e 94 26 07 	call	0xe4c	; 0xe4c <i2c_write>
     468:	0e 94 4e 07 	call	0xe9c	; 0xe9c <i2c_stop>
     46c:	8d ee       	ldi	r24, 0xED	; 237
     46e:	0e 94 01 07 	call	0xe02	; 0xe02 <i2c_start>
     472:	81 11       	cpse	r24, r1
     474:	1b c0       	rjmp	.+54     	; 0x4ac <read24+0x5e>
     476:	0e 94 38 07 	call	0xe70	; 0xe70 <i2c_read_ack>
     47a:	c8 2e       	mov	r12, r24
     47c:	d1 2c       	mov	r13, r1
     47e:	e1 2c       	mov	r14, r1
     480:	f1 2c       	mov	r15, r1
     482:	fe 2c       	mov	r15, r14
     484:	ed 2c       	mov	r14, r13
     486:	dc 2c       	mov	r13, r12
     488:	cc 24       	eor	r12, r12
     48a:	0e 94 38 07 	call	0xe70	; 0xe70 <i2c_read_ack>
     48e:	c8 2a       	or	r12, r24
     490:	fe 2c       	mov	r15, r14
     492:	ed 2c       	mov	r14, r13
     494:	dc 2c       	mov	r13, r12
     496:	cc 24       	eor	r12, r12
     498:	0e 94 43 07 	call	0xe86	; 0xe86 <i2c_read_nack>
     49c:	c8 2a       	or	r12, r24
     49e:	0e 94 4e 07 	call	0xe9c	; 0xe9c <i2c_stop>
     4a2:	6c 2d       	mov	r22, r12
     4a4:	7d 2d       	mov	r23, r13
     4a6:	8e 2d       	mov	r24, r14
     4a8:	9f 2d       	mov	r25, r15
     4aa:	0d c0       	rjmp	.+26     	; 0x4c6 <read24+0x78>
     4ac:	84 e0       	ldi	r24, 0x04	; 4
     4ae:	91 e0       	ldi	r25, 0x01	; 1
     4b0:	0e 94 be 11 	call	0x237c	; 0x237c <uart_puts_p>
     4b4:	60 e0       	ldi	r22, 0x00	; 0
     4b6:	70 e0       	ldi	r23, 0x00	; 0
     4b8:	80 e0       	ldi	r24, 0x00	; 0
     4ba:	90 e0       	ldi	r25, 0x00	; 0
     4bc:	04 c0       	rjmp	.+8      	; 0x4c6 <read24+0x78>
     4be:	60 e0       	ldi	r22, 0x00	; 0
     4c0:	70 e0       	ldi	r23, 0x00	; 0
     4c2:	80 e0       	ldi	r24, 0x00	; 0
     4c4:	90 e0       	ldi	r25, 0x00	; 0
     4c6:	ff 90       	pop	r15
     4c8:	ef 90       	pop	r14
     4ca:	df 90       	pop	r13
     4cc:	cf 90       	pop	r12
     4ce:	08 95       	ret

000004d0 <bme280_readCoefficients>:
     4d0:	0f 93       	push	r16
     4d2:	1f 93       	push	r17
     4d4:	cf 93       	push	r28
     4d6:	df 93       	push	r29
     4d8:	88 e8       	ldi	r24, 0x88	; 136
     4da:	0e 94 21 02 	call	0x442	; 0x442 <read16_LE>
     4de:	c1 e6       	ldi	r28, 0x61	; 97
     4e0:	d3 e0       	ldi	r29, 0x03	; 3
     4e2:	99 83       	std	Y+1, r25	; 0x01
     4e4:	88 83       	st	Y, r24
     4e6:	8a e8       	ldi	r24, 0x8A	; 138
     4e8:	0e 94 21 02 	call	0x442	; 0x442 <read16_LE>
     4ec:	9b 83       	std	Y+3, r25	; 0x03
     4ee:	8a 83       	std	Y+2, r24	; 0x02
     4f0:	8c e8       	ldi	r24, 0x8C	; 140
     4f2:	0e 94 21 02 	call	0x442	; 0x442 <read16_LE>
     4f6:	9d 83       	std	Y+5, r25	; 0x05
     4f8:	8c 83       	std	Y+4, r24	; 0x04
     4fa:	8e e8       	ldi	r24, 0x8E	; 142
     4fc:	0e 94 21 02 	call	0x442	; 0x442 <read16_LE>
     500:	9f 83       	std	Y+7, r25	; 0x07
     502:	8e 83       	std	Y+6, r24	; 0x06
     504:	80 e9       	ldi	r24, 0x90	; 144
     506:	0e 94 21 02 	call	0x442	; 0x442 <read16_LE>
     50a:	99 87       	std	Y+9, r25	; 0x09
     50c:	88 87       	std	Y+8, r24	; 0x08
     50e:	82 e9       	ldi	r24, 0x92	; 146
     510:	0e 94 21 02 	call	0x442	; 0x442 <read16_LE>
     514:	9b 87       	std	Y+11, r25	; 0x0b
     516:	8a 87       	std	Y+10, r24	; 0x0a
     518:	84 e9       	ldi	r24, 0x94	; 148
     51a:	0e 94 21 02 	call	0x442	; 0x442 <read16_LE>
     51e:	9d 87       	std	Y+13, r25	; 0x0d
     520:	8c 87       	std	Y+12, r24	; 0x0c
     522:	86 e9       	ldi	r24, 0x96	; 150
     524:	0e 94 21 02 	call	0x442	; 0x442 <read16_LE>
     528:	9f 87       	std	Y+15, r25	; 0x0f
     52a:	8e 87       	std	Y+14, r24	; 0x0e
     52c:	88 e9       	ldi	r24, 0x98	; 152
     52e:	0e 94 21 02 	call	0x442	; 0x442 <read16_LE>
     532:	99 8b       	std	Y+17, r25	; 0x11
     534:	88 8b       	std	Y+16, r24	; 0x10
     536:	8a e9       	ldi	r24, 0x9A	; 154
     538:	0e 94 21 02 	call	0x442	; 0x442 <read16_LE>
     53c:	9b 8b       	std	Y+19, r25	; 0x13
     53e:	8a 8b       	std	Y+18, r24	; 0x12
     540:	8c e9       	ldi	r24, 0x9C	; 156
     542:	0e 94 21 02 	call	0x442	; 0x442 <read16_LE>
     546:	9d 8b       	std	Y+21, r25	; 0x15
     548:	8c 8b       	std	Y+20, r24	; 0x14
     54a:	8e e9       	ldi	r24, 0x9E	; 158
     54c:	0e 94 21 02 	call	0x442	; 0x442 <read16_LE>
     550:	9f 8b       	std	Y+23, r25	; 0x17
     552:	8e 8b       	std	Y+22, r24	; 0x16
     554:	81 ea       	ldi	r24, 0xA1	; 161
     556:	0e 94 d7 01 	call	0x3ae	; 0x3ae <read8>
     55a:	88 8f       	std	Y+24, r24	; 0x18
     55c:	81 ee       	ldi	r24, 0xE1	; 225
     55e:	0e 94 21 02 	call	0x442	; 0x442 <read16_LE>
     562:	9a 8f       	std	Y+26, r25	; 0x1a
     564:	89 8f       	std	Y+25, r24	; 0x19
     566:	83 ee       	ldi	r24, 0xE3	; 227
     568:	0e 94 d7 01 	call	0x3ae	; 0x3ae <read8>
     56c:	8b 8f       	std	Y+27, r24	; 0x1b
     56e:	84 ee       	ldi	r24, 0xE4	; 228
     570:	0e 94 d7 01 	call	0x3ae	; 0x3ae <read8>
     574:	8c 01       	movw	r16, r24
     576:	85 ee       	ldi	r24, 0xE5	; 229
     578:	0e 94 d7 01 	call	0x3ae	; 0x3ae <read8>
     57c:	02 95       	swap	r16
     57e:	12 95       	swap	r17
     580:	10 7f       	andi	r17, 0xF0	; 240
     582:	10 27       	eor	r17, r16
     584:	00 7f       	andi	r16, 0xF0	; 240
     586:	10 27       	eor	r17, r16
     588:	8f 70       	andi	r24, 0x0F	; 15
     58a:	99 27       	eor	r25, r25
     58c:	80 2b       	or	r24, r16
     58e:	91 2b       	or	r25, r17
     590:	9d 8f       	std	Y+29, r25	; 0x1d
     592:	8c 8f       	std	Y+28, r24	; 0x1c
     594:	86 ee       	ldi	r24, 0xE6	; 230
     596:	0e 94 d7 01 	call	0x3ae	; 0x3ae <read8>
     59a:	8c 01       	movw	r16, r24
     59c:	85 ee       	ldi	r24, 0xE5	; 229
     59e:	0e 94 d7 01 	call	0x3ae	; 0x3ae <read8>
     5a2:	02 95       	swap	r16
     5a4:	12 95       	swap	r17
     5a6:	10 7f       	andi	r17, 0xF0	; 240
     5a8:	10 27       	eor	r17, r16
     5aa:	00 7f       	andi	r16, 0xF0	; 240
     5ac:	10 27       	eor	r17, r16
     5ae:	92 95       	swap	r25
     5b0:	82 95       	swap	r24
     5b2:	8f 70       	andi	r24, 0x0F	; 15
     5b4:	89 27       	eor	r24, r25
     5b6:	9f 70       	andi	r25, 0x0F	; 15
     5b8:	89 27       	eor	r24, r25
     5ba:	80 2b       	or	r24, r16
     5bc:	91 2b       	or	r25, r17
     5be:	9f 8f       	std	Y+31, r25	; 0x1f
     5c0:	8e 8f       	std	Y+30, r24	; 0x1e
     5c2:	87 ee       	ldi	r24, 0xE7	; 231
     5c4:	0e 94 d7 01 	call	0x3ae	; 0x3ae <read8>
     5c8:	88 a3       	std	Y+32, r24	; 0x20
     5ca:	df 91       	pop	r29
     5cc:	cf 91       	pop	r28
     5ce:	1f 91       	pop	r17
     5d0:	0f 91       	pop	r16
     5d2:	08 95       	ret

000005d4 <init_BME280>:
     5d4:	8c ee       	ldi	r24, 0xEC	; 236
     5d6:	0e 94 01 07 	call	0xe02	; 0xe02 <i2c_start>
     5da:	81 11       	cpse	r24, r1
     5dc:	1e c0       	rjmp	.+60     	; 0x61a <init_BME280+0x46>
     5de:	82 ef       	ldi	r24, 0xF2	; 242
     5e0:	0e 94 26 07 	call	0xe4c	; 0xe4c <i2c_write>
     5e4:	85 e0       	ldi	r24, 0x05	; 5
     5e6:	0e 94 26 07 	call	0xe4c	; 0xe4c <i2c_write>
     5ea:	84 ef       	ldi	r24, 0xF4	; 244
     5ec:	0e 94 26 07 	call	0xe4c	; 0xe4c <i2c_write>
     5f0:	87 eb       	ldi	r24, 0xB7	; 183
     5f2:	0e 94 26 07 	call	0xe4c	; 0xe4c <i2c_write>
     5f6:	80 ed       	ldi	r24, 0xD0	; 208
     5f8:	0e 94 26 07 	call	0xe4c	; 0xe4c <i2c_write>
     5fc:	0e 94 68 02 	call	0x4d0	; 0x4d0 <bme280_readCoefficients>
     600:	0e 94 4e 07 	call	0xe9c	; 0xe9c <i2c_stop>
     604:	8d ee       	ldi	r24, 0xED	; 237
     606:	0e 94 01 07 	call	0xe02	; 0xe02 <i2c_start>
     60a:	81 11       	cpse	r24, r1
     60c:	06 c0       	rjmp	.+12     	; 0x61a <init_BME280+0x46>
     60e:	0e 94 43 07 	call	0xe86	; 0xe86 <i2c_read_nack>
     612:	0e 94 9e 11 	call	0x233c	; 0x233c <uart_putc>
     616:	0e 94 4e 07 	call	0xe9c	; 0xe9c <i2c_stop>
     61a:	08 95       	ret

0000061c <bme280_readTemperature>:
     61c:	8f 92       	push	r8
     61e:	9f 92       	push	r9
     620:	af 92       	push	r10
     622:	bf 92       	push	r11
     624:	cf 92       	push	r12
     626:	df 92       	push	r13
     628:	ef 92       	push	r14
     62a:	ff 92       	push	r15
     62c:	0f 93       	push	r16
     62e:	1f 93       	push	r17
     630:	8a ef       	ldi	r24, 0xFA	; 250
     632:	0e 94 27 02 	call	0x44e	; 0x44e <read24>
     636:	e1 e6       	ldi	r30, 0x61	; 97
     638:	f3 e0       	ldi	r31, 0x03	; 3
     63a:	00 81       	ld	r16, Z
     63c:	11 81       	ldd	r17, Z+1	; 0x01
     63e:	20 e0       	ldi	r18, 0x00	; 0
     640:	30 e0       	ldi	r19, 0x00	; 0
     642:	c7 2e       	mov	r12, r23
     644:	d8 2e       	mov	r13, r24
     646:	e9 2e       	mov	r14, r25
     648:	ff 24       	eor	r15, r15
     64a:	e7 fc       	sbrc	r14, 7
     64c:	fa 94       	dec	r15
     64e:	c0 1a       	sub	r12, r16
     650:	d1 0a       	sbc	r13, r17
     652:	e2 0a       	sbc	r14, r18
     654:	f3 0a       	sbc	r15, r19
     656:	dc 01       	movw	r26, r24
     658:	cb 01       	movw	r24, r22
     65a:	68 94       	set
     65c:	16 f8       	bld	r1, 6
     65e:	b5 95       	asr	r27
     660:	a7 95       	ror	r26
     662:	97 95       	ror	r25
     664:	87 95       	ror	r24
     666:	16 94       	lsr	r1
     668:	d1 f7       	brne	.-12     	; 0x65e <bme280_readTemperature+0x42>
     66a:	00 0f       	add	r16, r16
     66c:	11 1f       	adc	r17, r17
     66e:	22 1f       	adc	r18, r18
     670:	33 1f       	adc	r19, r19
     672:	4c 01       	movw	r8, r24
     674:	5d 01       	movw	r10, r26
     676:	80 1a       	sub	r8, r16
     678:	91 0a       	sbc	r9, r17
     67a:	a2 0a       	sbc	r10, r18
     67c:	b3 0a       	sbc	r11, r19
     67e:	a5 01       	movw	r20, r10
     680:	94 01       	movw	r18, r8
     682:	a2 81       	ldd	r26, Z+2	; 0x02
     684:	b3 81       	ldd	r27, Z+3	; 0x03
     686:	0e 94 06 15 	call	0x2a0c	; 0x2a0c <__mulshisi3>
     68a:	4b 01       	movw	r8, r22
     68c:	5c 01       	movw	r10, r24
     68e:	07 2e       	mov	r0, r23
     690:	7b e0       	ldi	r23, 0x0B	; 11
     692:	b5 94       	asr	r11
     694:	a7 94       	ror	r10
     696:	97 94       	ror	r9
     698:	87 94       	ror	r8
     69a:	7a 95       	dec	r23
     69c:	d1 f7       	brne	.-12     	; 0x692 <bme280_readTemperature+0x76>
     69e:	70 2d       	mov	r23, r0
     6a0:	a7 01       	movw	r20, r14
     6a2:	96 01       	movw	r18, r12
     6a4:	c7 01       	movw	r24, r14
     6a6:	b6 01       	movw	r22, r12
     6a8:	0e 94 e5 14 	call	0x29ca	; 0x29ca <__mulsi3>
     6ac:	9b 01       	movw	r18, r22
     6ae:	ac 01       	movw	r20, r24
     6b0:	01 2e       	mov	r0, r17
     6b2:	1c e0       	ldi	r17, 0x0C	; 12
     6b4:	55 95       	asr	r21
     6b6:	47 95       	ror	r20
     6b8:	37 95       	ror	r19
     6ba:	27 95       	ror	r18
     6bc:	1a 95       	dec	r17
     6be:	d1 f7       	brne	.-12     	; 0x6b4 <bme280_readTemperature+0x98>
     6c0:	10 2d       	mov	r17, r0
     6c2:	a4 81       	ldd	r26, Z+4	; 0x04
     6c4:	b5 81       	ldd	r27, Z+5	; 0x05
     6c6:	0e 94 06 15 	call	0x2a0c	; 0x2a0c <__mulshisi3>
     6ca:	dc 01       	movw	r26, r24
     6cc:	cb 01       	movw	r24, r22
     6ce:	07 2e       	mov	r0, r23
     6d0:	7e e0       	ldi	r23, 0x0E	; 14
     6d2:	b5 95       	asr	r27
     6d4:	a7 95       	ror	r26
     6d6:	97 95       	ror	r25
     6d8:	87 95       	ror	r24
     6da:	7a 95       	dec	r23
     6dc:	d1 f7       	brne	.-12     	; 0x6d2 <bme280_readTemperature+0xb6>
     6de:	70 2d       	mov	r23, r0
     6e0:	88 0d       	add	r24, r8
     6e2:	99 1d       	adc	r25, r9
     6e4:	aa 1d       	adc	r26, r10
     6e6:	bb 1d       	adc	r27, r11
     6e8:	80 93 82 03 	sts	0x0382, r24	; 0x800382 <t_fine>
     6ec:	90 93 83 03 	sts	0x0383, r25	; 0x800383 <t_fine+0x1>
     6f0:	a0 93 84 03 	sts	0x0384, r26	; 0x800384 <t_fine+0x2>
     6f4:	b0 93 85 03 	sts	0x0385, r27	; 0x800385 <t_fine+0x3>
     6f8:	8c 01       	movw	r16, r24
     6fa:	9d 01       	movw	r18, r26
     6fc:	00 0f       	add	r16, r16
     6fe:	11 1f       	adc	r17, r17
     700:	22 1f       	adc	r18, r18
     702:	33 1f       	adc	r19, r19
     704:	00 0f       	add	r16, r16
     706:	11 1f       	adc	r17, r17
     708:	22 1f       	adc	r18, r18
     70a:	33 1f       	adc	r19, r19
     70c:	80 0f       	add	r24, r16
     70e:	91 1f       	adc	r25, r17
     710:	a2 1f       	adc	r26, r18
     712:	b3 1f       	adc	r27, r19
     714:	80 58       	subi	r24, 0x80	; 128
     716:	9f 4f       	sbci	r25, 0xFF	; 255
     718:	af 4f       	sbci	r26, 0xFF	; 255
     71a:	bf 4f       	sbci	r27, 0xFF	; 255
     71c:	69 2f       	mov	r22, r25
     71e:	7a 2f       	mov	r23, r26
     720:	8b 2f       	mov	r24, r27
     722:	99 27       	eor	r25, r25
     724:	0e 94 ea 13 	call	0x27d4	; 0x27d4 <__floatunsisf>
     728:	20 e0       	ldi	r18, 0x00	; 0
     72a:	30 e0       	ldi	r19, 0x00	; 0
     72c:	48 ec       	ldi	r20, 0xC8	; 200
     72e:	52 e4       	ldi	r21, 0x42	; 66
     730:	0e 94 42 13 	call	0x2684	; 0x2684 <__divsf3>
     734:	1f 91       	pop	r17
     736:	0f 91       	pop	r16
     738:	ff 90       	pop	r15
     73a:	ef 90       	pop	r14
     73c:	df 90       	pop	r13
     73e:	cf 90       	pop	r12
     740:	bf 90       	pop	r11
     742:	af 90       	pop	r10
     744:	9f 90       	pop	r9
     746:	8f 90       	pop	r8
     748:	08 95       	ret

0000074a <bme280_readHumidity>:

float bme280_readHumidity(void)
{
     74a:	4f 92       	push	r4
     74c:	5f 92       	push	r5
     74e:	6f 92       	push	r6
     750:	7f 92       	push	r7
     752:	8f 92       	push	r8
     754:	9f 92       	push	r9
     756:	af 92       	push	r10
     758:	bf 92       	push	r11
     75a:	cf 92       	push	r12
     75c:	df 92       	push	r13
     75e:	ef 92       	push	r14
     760:	ff 92       	push	r15
	
	bme280_readTemperature(); // must be done first to get t_fine
     762:	0e 94 0e 03 	call	0x61c	; 0x61c <bme280_readTemperature>
	
	int32_t adc_H = read16(BME280_REGISTER_HUMIDDATA);
     766:	8d ef       	ldi	r24, 0xFD	; 253
     768:	0e 94 f9 01 	call	0x3f2	; 0x3f2 <read16>
	
	int32_t v_x1_u32r;
	
	v_x1_u32r = (t_fine - ((int32_t)76800));
     76c:	80 90 82 03 	lds	r8, 0x0382	; 0x800382 <t_fine>
     770:	90 90 83 03 	lds	r9, 0x0383	; 0x800383 <t_fine+0x1>
     774:	a0 90 84 03 	lds	r10, 0x0384	; 0x800384 <t_fine+0x2>
     778:	b0 90 85 03 	lds	r11, 0x0385	; 0x800385 <t_fine+0x3>
     77c:	2c e2       	ldi	r18, 0x2C	; 44
     77e:	92 1a       	sub	r9, r18
     780:	21 e0       	ldi	r18, 0x01	; 1
     782:	a2 0a       	sbc	r10, r18
     784:	b1 08       	sbc	r11, r1
	
	v_x1_u32r = (((((adc_H << 14) - (((int32_t)_bme280_calib.dig_H4) << 20) -
	(((int32_t)_bme280_calib.dig_H5) * v_x1_u32r)) + ((int32_t)16384)) >> 15) *
     786:	6c 01       	movw	r12, r24
     788:	e1 2c       	mov	r14, r1
     78a:	f1 2c       	mov	r15, r1
     78c:	0b 2e       	mov	r0, r27
     78e:	be e0       	ldi	r27, 0x0E	; 14
     790:	cc 0c       	add	r12, r12
     792:	dd 1c       	adc	r13, r13
     794:	ee 1c       	adc	r14, r14
     796:	ff 1c       	adc	r15, r15
     798:	ba 95       	dec	r27
     79a:	d1 f7       	brne	.-12     	; 0x790 <bme280_readHumidity+0x46>
     79c:	b0 2d       	mov	r27, r0
	
	int32_t v_x1_u32r;
	
	v_x1_u32r = (t_fine - ((int32_t)76800));
	
	v_x1_u32r = (((((adc_H << 14) - (((int32_t)_bme280_calib.dig_H4) << 20) -
     79e:	e1 e6       	ldi	r30, 0x61	; 97
     7a0:	f3 e0       	ldi	r31, 0x03	; 3
	(((int32_t)_bme280_calib.dig_H5) * v_x1_u32r)) + ((int32_t)16384)) >> 15) *
     7a2:	84 8d       	ldd	r24, Z+28	; 0x1c
     7a4:	95 8d       	ldd	r25, Z+29	; 0x1d
     7a6:	09 2e       	mov	r0, r25
     7a8:	00 0c       	add	r0, r0
     7aa:	aa 0b       	sbc	r26, r26
     7ac:	bb 0b       	sbc	r27, r27
     7ae:	07 2e       	mov	r0, r23
     7b0:	74 e1       	ldi	r23, 0x14	; 20
     7b2:	88 0f       	add	r24, r24
     7b4:	99 1f       	adc	r25, r25
     7b6:	aa 1f       	adc	r26, r26
     7b8:	bb 1f       	adc	r27, r27
     7ba:	7a 95       	dec	r23
     7bc:	d1 f7       	brne	.-12     	; 0x7b2 <bme280_readHumidity+0x68>
     7be:	70 2d       	mov	r23, r0
     7c0:	c8 1a       	sub	r12, r24
     7c2:	d9 0a       	sbc	r13, r25
     7c4:	ea 0a       	sbc	r14, r26
     7c6:	fb 0a       	sbc	r15, r27
     7c8:	a6 8d       	ldd	r26, Z+30	; 0x1e
     7ca:	b7 8d       	ldd	r27, Z+31	; 0x1f
     7cc:	a5 01       	movw	r20, r10
     7ce:	94 01       	movw	r18, r8
     7d0:	0e 94 06 15 	call	0x2a0c	; 0x2a0c <__mulshisi3>
     7d4:	c6 1a       	sub	r12, r22
     7d6:	d7 0a       	sbc	r13, r23
     7d8:	e8 0a       	sbc	r14, r24
     7da:	f9 0a       	sbc	r15, r25
     7dc:	30 e4       	ldi	r19, 0x40	; 64
     7de:	d3 0e       	add	r13, r19
     7e0:	e1 1c       	adc	r14, r1
     7e2:	f1 1c       	adc	r15, r1
     7e4:	0b 2e       	mov	r0, r27
     7e6:	bf e0       	ldi	r27, 0x0F	; 15
     7e8:	f5 94       	asr	r15
     7ea:	e7 94       	ror	r14
     7ec:	d7 94       	ror	r13
     7ee:	c7 94       	ror	r12
     7f0:	ba 95       	dec	r27
     7f2:	d1 f7       	brne	.-12     	; 0x7e8 <bme280_readHumidity+0x9e>
     7f4:	b0 2d       	mov	r27, r0
	(((((((v_x1_u32r * ((int32_t)_bme280_calib.dig_H6)) >> 10) *
	(((v_x1_u32r * ((int32_t)_bme280_calib.dig_H3)) >> 11) + ((int32_t)32768))) >> 10) +
	((int32_t)2097152)) * ((int32_t)_bme280_calib.dig_H2) + 8192) >> 14));
     7f6:	a3 8d       	ldd	r26, Z+27	; 0x1b
     7f8:	b0 e0       	ldi	r27, 0x00	; 0
     7fa:	a5 01       	movw	r20, r10
     7fc:	94 01       	movw	r18, r8
     7fe:	0e 94 fb 14 	call	0x29f6	; 0x29f6 <__muluhisi3>
     802:	2b 01       	movw	r4, r22
     804:	3c 01       	movw	r6, r24
     806:	03 2e       	mov	r0, r19
     808:	3b e0       	ldi	r19, 0x0B	; 11
     80a:	75 94       	asr	r7
     80c:	67 94       	ror	r6
     80e:	57 94       	ror	r5
     810:	47 94       	ror	r4
     812:	3a 95       	dec	r19
     814:	d1 f7       	brne	.-12     	; 0x80a <bme280_readHumidity+0xc0>
     816:	30 2d       	mov	r19, r0
     818:	40 e8       	ldi	r20, 0x80	; 128
     81a:	54 0e       	add	r5, r20
     81c:	61 1c       	adc	r6, r1
     81e:	71 1c       	adc	r7, r1
     820:	a0 a1       	ldd	r26, Z+32	; 0x20
     822:	0a 2e       	mov	r0, r26
     824:	00 0c       	add	r0, r0
     826:	bb 0b       	sbc	r27, r27
     828:	a5 01       	movw	r20, r10
     82a:	94 01       	movw	r18, r8
     82c:	0e 94 06 15 	call	0x2a0c	; 0x2a0c <__mulshisi3>
     830:	05 2e       	mov	r0, r21
     832:	5a e0       	ldi	r21, 0x0A	; 10
     834:	95 95       	asr	r25
     836:	87 95       	ror	r24
     838:	77 95       	ror	r23
     83a:	67 95       	ror	r22
     83c:	5a 95       	dec	r21
     83e:	d1 f7       	brne	.-12     	; 0x834 <bme280_readHumidity+0xea>
     840:	50 2d       	mov	r21, r0
     842:	a3 01       	movw	r20, r6
     844:	92 01       	movw	r18, r4
     846:	0e 94 e5 14 	call	0x29ca	; 0x29ca <__mulsi3>
     84a:	dc 01       	movw	r26, r24
     84c:	cb 01       	movw	r24, r22
     84e:	07 2e       	mov	r0, r23
     850:	7a e0       	ldi	r23, 0x0A	; 10
     852:	b5 95       	asr	r27
     854:	a7 95       	ror	r26
     856:	97 95       	ror	r25
     858:	87 95       	ror	r24
     85a:	7a 95       	dec	r23
     85c:	d1 f7       	brne	.-12     	; 0x852 <bme280_readHumidity+0x108>
     85e:	70 2d       	mov	r23, r0
     860:	9c 01       	movw	r18, r24
     862:	ad 01       	movw	r20, r26
     864:	40 5e       	subi	r20, 0xE0	; 224
     866:	5f 4f       	sbci	r21, 0xFF	; 255
     868:	a1 8d       	ldd	r26, Z+25	; 0x19
     86a:	b2 8d       	ldd	r27, Z+26	; 0x1a
     86c:	0e 94 06 15 	call	0x2a0c	; 0x2a0c <__mulshisi3>
     870:	dc 01       	movw	r26, r24
     872:	cb 01       	movw	r24, r22
     874:	90 5e       	subi	r25, 0xE0	; 224
     876:	af 4f       	sbci	r26, 0xFF	; 255
     878:	bf 4f       	sbci	r27, 0xFF	; 255
     87a:	bc 01       	movw	r22, r24
     87c:	cd 01       	movw	r24, r26
     87e:	05 2e       	mov	r0, r21
     880:	5e e0       	ldi	r21, 0x0E	; 14
     882:	95 95       	asr	r25
     884:	87 95       	ror	r24
     886:	77 95       	ror	r23
     888:	67 95       	ror	r22
     88a:	5a 95       	dec	r21
     88c:	d1 f7       	brne	.-12     	; 0x882 <bme280_readHumidity+0x138>
     88e:	50 2d       	mov	r21, r0
	
	int32_t v_x1_u32r;
	
	v_x1_u32r = (t_fine - ((int32_t)76800));
	
	v_x1_u32r = (((((adc_H << 14) - (((int32_t)_bme280_calib.dig_H4) << 20) -
     890:	a7 01       	movw	r20, r14
     892:	96 01       	movw	r18, r12
     894:	0e 94 e5 14 	call	0x29ca	; 0x29ca <__mulsi3>
     898:	6b 01       	movw	r12, r22
     89a:	7c 01       	movw	r14, r24
	(((int32_t)_bme280_calib.dig_H5) * v_x1_u32r)) + ((int32_t)16384)) >> 15) *
	(((((((v_x1_u32r * ((int32_t)_bme280_calib.dig_H6)) >> 10) *
	(((v_x1_u32r * ((int32_t)_bme280_calib.dig_H3)) >> 11) + ((int32_t)32768))) >> 10) +
	((int32_t)2097152)) * ((int32_t)_bme280_calib.dig_H2) + 8192) >> 14));
	
	v_x1_u32r = (v_x1_u32r - (((((v_x1_u32r >> 15) * (v_x1_u32r >> 15)) >> 7) *
     89c:	05 2e       	mov	r0, r21
     89e:	5f e0       	ldi	r21, 0x0F	; 15
     8a0:	95 95       	asr	r25
     8a2:	87 95       	ror	r24
     8a4:	77 95       	ror	r23
     8a6:	67 95       	ror	r22
     8a8:	5a 95       	dec	r21
     8aa:	d1 f7       	brne	.-12     	; 0x8a0 <bme280_readHumidity+0x156>
     8ac:	50 2d       	mov	r21, r0
     8ae:	9b 01       	movw	r18, r22
     8b0:	ac 01       	movw	r20, r24
     8b2:	0e 94 e5 14 	call	0x29ca	; 0x29ca <__mulsi3>
     8b6:	9b 01       	movw	r18, r22
     8b8:	ac 01       	movw	r20, r24
     8ba:	68 94       	set
     8bc:	16 f8       	bld	r1, 6
     8be:	55 95       	asr	r21
     8c0:	47 95       	ror	r20
     8c2:	37 95       	ror	r19
     8c4:	27 95       	ror	r18
     8c6:	16 94       	lsr	r1
     8c8:	d1 f7       	brne	.-12     	; 0x8be <bme280_readHumidity+0x174>
     8ca:	a0 8d       	ldd	r26, Z+24	; 0x18
     8cc:	b0 e0       	ldi	r27, 0x00	; 0
     8ce:	0e 94 fb 14 	call	0x29f6	; 0x29f6 <__muluhisi3>
     8d2:	dc 01       	movw	r26, r24
     8d4:	cb 01       	movw	r24, r22
     8d6:	68 94       	set
     8d8:	13 f8       	bld	r1, 3
     8da:	b5 95       	asr	r27
     8dc:	a7 95       	ror	r26
     8de:	97 95       	ror	r25
     8e0:	87 95       	ror	r24
     8e2:	16 94       	lsr	r1
     8e4:	d1 f7       	brne	.-12     	; 0x8da <bme280_readHumidity+0x190>
	((int32_t)_bme280_calib.dig_H1)) >> 4));
	
	v_x1_u32r = (v_x1_u32r < 0) ? 0 : v_x1_u32r;
     8e6:	a7 01       	movw	r20, r14
     8e8:	96 01       	movw	r18, r12
     8ea:	28 1b       	sub	r18, r24
     8ec:	39 0b       	sbc	r19, r25
     8ee:	4a 0b       	sbc	r20, r26
     8f0:	5b 0b       	sbc	r21, r27
     8f2:	da 01       	movw	r26, r20
     8f4:	c9 01       	movw	r24, r18
     8f6:	1a f4       	brpl	.+6      	; 0x8fe <bme280_readHumidity+0x1b4>
     8f8:	80 e0       	ldi	r24, 0x00	; 0
     8fa:	90 e0       	ldi	r25, 0x00	; 0
     8fc:	dc 01       	movw	r26, r24
	v_x1_u32r = (v_x1_u32r > 419430400) ? 419430400 : v_x1_u32r;
	float h = (v_x1_u32r>>12);
	return  h / 1024.0;
     8fe:	81 30       	cpi	r24, 0x01	; 1
     900:	91 05       	cpc	r25, r1
     902:	a1 05       	cpc	r26, r1
     904:	39 e1       	ldi	r19, 0x19	; 25
     906:	b3 07       	cpc	r27, r19
     908:	24 f0       	brlt	.+8      	; 0x912 <bme280_readHumidity+0x1c8>
     90a:	80 e0       	ldi	r24, 0x00	; 0
     90c:	90 e0       	ldi	r25, 0x00	; 0
     90e:	a0 e0       	ldi	r26, 0x00	; 0
     910:	b9 e1       	ldi	r27, 0x19	; 25
     912:	bc 01       	movw	r22, r24
     914:	cd 01       	movw	r24, r26
     916:	05 2e       	mov	r0, r21
     918:	5c e0       	ldi	r21, 0x0C	; 12
     91a:	95 95       	asr	r25
     91c:	87 95       	ror	r24
     91e:	77 95       	ror	r23
     920:	67 95       	ror	r22
     922:	5a 95       	dec	r21
     924:	d1 f7       	brne	.-12     	; 0x91a <bme280_readHumidity+0x1d0>
     926:	50 2d       	mov	r21, r0
     928:	0e 94 ec 13 	call	0x27d8	; 0x27d8 <__floatsisf>
     92c:	20 e0       	ldi	r18, 0x00	; 0
     92e:	30 e0       	ldi	r19, 0x00	; 0
     930:	40 e8       	ldi	r20, 0x80	; 128
     932:	5a e3       	ldi	r21, 0x3A	; 58
     934:	0e 94 78 14 	call	0x28f0	; 0x28f0 <__mulsf3>
}
     938:	ff 90       	pop	r15
     93a:	ef 90       	pop	r14
     93c:	df 90       	pop	r13
     93e:	cf 90       	pop	r12
     940:	bf 90       	pop	r11
     942:	af 90       	pop	r10
     944:	9f 90       	pop	r9
     946:	8f 90       	pop	r8
     948:	7f 90       	pop	r7
     94a:	6f 90       	pop	r6
     94c:	5f 90       	pop	r5
     94e:	4f 90       	pop	r4
     950:	08 95       	ret

00000952 <crc8>:
	uint8_t  data;
	uint8_t  feedback_bit;
	
	crc = CRC8INIT;

	for (loop_count = 0; loop_count != number_of_bytes_to_read; loop_count++)
     952:	61 15       	cp	r22, r1
     954:	71 05       	cpc	r23, r1
     956:	a9 f0       	breq	.+42     	; 0x982 <crc8+0x30>
     958:	fc 01       	movw	r30, r24
     95a:	68 0f       	add	r22, r24
     95c:	79 1f       	adc	r23, r25
     95e:	80 e0       	ldi	r24, 0x00	; 0
		bit_counter = 8;
		do {
			feedback_bit = (crc ^ data) & 0x01;
	
			if ( feedback_bit == 0x01 ) {
				crc = crc ^ CRC8POLY;
     960:	48 e1       	ldi	r20, 0x18	; 24
	
	crc = CRC8INIT;

	for (loop_count = 0; loop_count != number_of_bytes_to_read; loop_count++)
	{
		data = data_in[loop_count];
     962:	21 91       	ld	r18, Z+
     964:	98 e0       	ldi	r25, 0x08	; 8
		
		bit_counter = 8;
		do {
			feedback_bit = (crc ^ data) & 0x01;
	
			if ( feedback_bit == 0x01 ) {
     966:	38 2f       	mov	r19, r24
     968:	32 27       	eor	r19, r18
     96a:	30 ff       	sbrs	r19, 0
     96c:	0c c0       	rjmp	.+24     	; 0x986 <crc8+0x34>
				crc = crc ^ CRC8POLY;
     96e:	84 27       	eor	r24, r20
			}
			crc = (crc >> 1) & 0x7F;
     970:	86 95       	lsr	r24
			if ( feedback_bit == 0x01 ) {
				crc = crc | 0x80;
     972:	80 68       	ori	r24, 0x80	; 128
			}
		
			data = data >> 1;
     974:	26 95       	lsr	r18
     976:	91 50       	subi	r25, 0x01	; 1
			bit_counter--;
		
		} while (bit_counter > 0);
     978:	b1 f7       	brne	.-20     	; 0x966 <crc8+0x14>
	uint8_t  data;
	uint8_t  feedback_bit;
	
	crc = CRC8INIT;

	for (loop_count = 0; loop_count != number_of_bytes_to_read; loop_count++)
     97a:	e6 17       	cp	r30, r22
     97c:	f7 07       	cpc	r31, r23
     97e:	89 f7       	brne	.-30     	; 0x962 <crc8+0x10>
     980:	08 95       	ret
	uint16_t loop_count;
	uint8_t  bit_counter;
	uint8_t  data;
	uint8_t  feedback_bit;
	
	crc = CRC8INIT;
     982:	80 e0       	ldi	r24, 0x00	; 0
			bit_counter--;
		
		} while (bit_counter > 0);
	}
	
	return crc;
     984:	08 95       	ret
			feedback_bit = (crc ^ data) & 0x01;
	
			if ( feedback_bit == 0x01 ) {
				crc = crc ^ CRC8POLY;
			}
			crc = (crc >> 1) & 0x7F;
     986:	86 95       	lsr	r24
     988:	f5 cf       	rjmp	.-22     	; 0x974 <crc8+0x22>

0000098a <delayloop32>:

#include "delay.h"

void delayloop32(uint32_t loops) 
{
  __asm__ volatile ( "cp  %A0,__zero_reg__ \n\t"  \
     98a:	dc 01       	movw	r26, r24
     98c:	cb 01       	movw	r24, r22
     98e:	81 15       	cp	r24, r1
     990:	91 05       	cpc	r25, r1
     992:	a1 05       	cpc	r26, r1
     994:	b1 05       	cpc	r27, r1
     996:	29 f0       	breq	.+10     	; 0x9a2 <L_Exit_7>

00000998 <L_LOOP_7>:
     998:	81 50       	subi	r24, 0x01	; 1
     99a:	90 40       	sbci	r25, 0x00	; 0
     99c:	a0 40       	sbci	r26, 0x00	; 0
     99e:	b0 40       	sbci	r27, 0x00	; 0
     9a0:	d9 f7       	brne	.-10     	; 0x998 <L_LOOP_7>

000009a2 <L_Exit_7>:
     9a2:	08 95       	ret

000009a4 <DS18X20_meas_to_cel>:
    ow_reset();
    ow_command(DS18X20_READ_POWER_SUPPLY, id);
    pstat=ow_bit_io(1); // pstat 0=is parasite/ !=0 ext. powered
    ow_reset();
	return (pstat) ? DS18X20_POWER_EXTERN:DS18X20_POWER_PARASITE;
}
     9a4:	0f 93       	push	r16
     9a6:	1f 93       	push	r17
     9a8:	cf 93       	push	r28
     9aa:	df 93       	push	r29
     9ac:	db 01       	movw	r26, r22
     9ae:	ec 91       	ld	r30, X
     9b0:	11 96       	adiw	r26, 0x01	; 1
     9b2:	9c 91       	ld	r25, X
     9b4:	11 97       	sbiw	r26, 0x01	; 1
     9b6:	f0 e0       	ldi	r31, 0x00	; 0
     9b8:	f9 2b       	or	r31, r25
     9ba:	80 31       	cpi	r24, 0x10	; 16
     9bc:	81 f4       	brne	.+32     	; 0x9de <DS18X20_meas_to_cel+0x3a>
     9be:	ee 7f       	andi	r30, 0xFE	; 254
     9c0:	ee 0f       	add	r30, r30
     9c2:	ff 1f       	adc	r31, r31
     9c4:	ee 0f       	add	r30, r30
     9c6:	ff 1f       	adc	r31, r31
     9c8:	ee 0f       	add	r30, r30
     9ca:	ff 1f       	adc	r31, r31
     9cc:	16 96       	adiw	r26, 0x06	; 6
     9ce:	9c 91       	ld	r25, X
     9d0:	16 97       	sbiw	r26, 0x06	; 6
     9d2:	6c e0       	ldi	r22, 0x0C	; 12
     9d4:	70 e0       	ldi	r23, 0x00	; 0
     9d6:	69 1b       	sub	r22, r25
     9d8:	71 09       	sbc	r23, r1
     9da:	e6 0f       	add	r30, r22
     9dc:	f7 1f       	adc	r31, r23
     9de:	ff 23       	and	r31, r31
     9e0:	3c f4       	brge	.+14     	; 0x9f0 <DS18X20_meas_to_cel+0x4c>
     9e2:	91 e0       	ldi	r25, 0x01	; 1
     9e4:	ea 01       	movw	r28, r20
     9e6:	98 83       	st	Y, r25
     9e8:	f1 95       	neg	r31
     9ea:	e1 95       	neg	r30
     9ec:	f1 09       	sbc	r31, r1
     9ee:	02 c0       	rjmp	.+4      	; 0x9f4 <DS18X20_meas_to_cel+0x50>
     9f0:	ea 01       	movw	r28, r20
     9f2:	18 82       	st	Y, r1
     9f4:	88 32       	cpi	r24, 0x28	; 40
     9f6:	79 f4       	brne	.+30     	; 0xa16 <DS18X20_meas_to_cel+0x72>
     9f8:	14 96       	adiw	r26, 0x04	; 4
     9fa:	8c 91       	ld	r24, X
     9fc:	98 2f       	mov	r25, r24
     9fe:	90 76       	andi	r25, 0x60	; 96
     a00:	90 36       	cpi	r25, 0x60	; 96
     a02:	49 f0       	breq	.+18     	; 0xa16 <DS18X20_meas_to_cel+0x72>
     a04:	86 ff       	sbrs	r24, 6
     a06:	02 c0       	rjmp	.+4      	; 0xa0c <DS18X20_meas_to_cel+0x68>
     a08:	ee 7f       	andi	r30, 0xFE	; 254
     a0a:	05 c0       	rjmp	.+10     	; 0xa16 <DS18X20_meas_to_cel+0x72>
     a0c:	85 ff       	sbrs	r24, 5
     a0e:	02 c0       	rjmp	.+4      	; 0xa14 <DS18X20_meas_to_cel+0x70>
     a10:	ec 7f       	andi	r30, 0xFC	; 252
     a12:	01 c0       	rjmp	.+2      	; 0xa16 <DS18X20_meas_to_cel+0x72>
     a14:	e8 7f       	andi	r30, 0xF8	; 248
     a16:	cf 01       	movw	r24, r30
     a18:	92 95       	swap	r25
     a1a:	82 95       	swap	r24
     a1c:	8f 70       	andi	r24, 0x0F	; 15
     a1e:	89 27       	eor	r24, r25
     a20:	9f 70       	andi	r25, 0x0F	; 15
     a22:	89 27       	eor	r24, r25
     a24:	d9 01       	movw	r26, r18
     a26:	8c 93       	st	X, r24
     a28:	ef 70       	andi	r30, 0x0F	; 15
     a2a:	e8 01       	movw	r28, r16
     a2c:	e8 83       	st	Y, r30
     a2e:	80 e0       	ldi	r24, 0x00	; 0
     a30:	df 91       	pop	r29
     a32:	cf 91       	pop	r28
     a34:	1f 91       	pop	r17
     a36:	0f 91       	pop	r16
     a38:	08 95       	ret

00000a3a <DS18X20_find_sensor>:
     a3a:	0f 93       	push	r16
     a3c:	1f 93       	push	r17
     a3e:	cf 93       	push	r28
     a40:	df 93       	push	r29
     a42:	ec 01       	movw	r28, r24
     a44:	8b 01       	movw	r16, r22
     a46:	b8 01       	movw	r22, r16
     a48:	88 81       	ld	r24, Y
     a4a:	0e 94 7f 06 	call	0xcfe	; 0xcfe <ow_rom_search>
     a4e:	88 83       	st	Y, r24
     a50:	81 50       	subi	r24, 0x01	; 1
     a52:	8d 3f       	cpi	r24, 0xFD	; 253
     a54:	30 f4       	brcc	.+12     	; 0xa62 <DS18X20_find_sensor+0x28>
     a56:	f8 01       	movw	r30, r16
     a58:	80 81       	ld	r24, Z
     a5a:	88 32       	cpi	r24, 0x28	; 40
     a5c:	11 f0       	breq	.+4      	; 0xa62 <DS18X20_find_sensor+0x28>
     a5e:	80 31       	cpi	r24, 0x10	; 16
     a60:	91 f7       	brne	.-28     	; 0xa46 <DS18X20_find_sensor+0xc>
     a62:	df 91       	pop	r29
     a64:	cf 91       	pop	r28
     a66:	1f 91       	pop	r17
     a68:	0f 91       	pop	r16
     a6a:	08 95       	ret

00000a6c <DS18X20_start_meas>:

/* start measurement (CONVERT_T) for all sensors if input id==NULL 
   or for single sensor. then id is the rom-code */
uint8_t DS18X20_start_meas( uint8_t with_power_extern, uint8_t id[])
{
     a6c:	0f 93       	push	r16
     a6e:	1f 93       	push	r17
     a70:	cf 93       	push	r28
     a72:	c8 2f       	mov	r28, r24
     a74:	8b 01       	movw	r16, r22
	ow_reset(); //**
     a76:	0e 94 cb 05 	call	0xb96	; 0xb96 <ow_reset>
	if( ow_input_pin_state() ) { // only send if bus is "idle" = high
     a7a:	0e 94 af 05 	call	0xb5e	; 0xb5e <ow_input_pin_state>
     a7e:	88 23       	and	r24, r24
     a80:	51 f0       	breq	.+20     	; 0xa96 <DS18X20_start_meas+0x2a>
		ow_command( DS18X20_CONVERT_T, id );
     a82:	b8 01       	movw	r22, r16
     a84:	84 e4       	ldi	r24, 0x44	; 68
     a86:	0e 94 d9 06 	call	0xdb2	; 0xdb2 <ow_command>
		if (with_power_extern != DS18X20_POWER_EXTERN)
     a8a:	c1 30       	cpi	r28, 0x01	; 1
     a8c:	31 f0       	breq	.+12     	; 0xa9a <DS18X20_start_meas+0x2e>
			ow_parasite_enable();
     a8e:	0e 94 b8 05 	call	0xb70	; 0xb70 <ow_parasite_enable>
		return DS18X20_OK;
     a92:	80 e0       	ldi	r24, 0x00	; 0
     a94:	03 c0       	rjmp	.+6      	; 0xa9c <DS18X20_start_meas+0x30>
	} 
	else { 
		#ifdef DS18X20_VERBOSE
		#endif
		return DS18X20_START_FAIL;
     a96:	82 e0       	ldi	r24, 0x02	; 2
     a98:	01 c0       	rjmp	.+2      	; 0xa9c <DS18X20_start_meas+0x30>
	ow_reset(); //**
	if( ow_input_pin_state() ) { // only send if bus is "idle" = high
		ow_command( DS18X20_CONVERT_T, id );
		if (with_power_extern != DS18X20_POWER_EXTERN)
			ow_parasite_enable();
		return DS18X20_OK;
     a9a:	80 e0       	ldi	r24, 0x00	; 0
	else { 
		#ifdef DS18X20_VERBOSE
		#endif
		return DS18X20_START_FAIL;
	}
}
     a9c:	cf 91       	pop	r28
     a9e:	1f 91       	pop	r17
     aa0:	0f 91       	pop	r16
     aa2:	08 95       	ret

00000aa4 <DS18X20_read_meas>:
   output: subzero==1 if temp.<0, cel: full celsius, mcel: frac 
   in millicelsius*0.1
   i.e.: subzero=1, cel=18, millicel=5000 = -18,5000C */
uint8_t DS18X20_read_meas(uint8_t id[], uint8_t *subzero, 
	uint8_t *cel, uint8_t *cel_frac_bits)
{
     aa4:	6f 92       	push	r6
     aa6:	7f 92       	push	r7
     aa8:	8f 92       	push	r8
     aaa:	9f 92       	push	r9
     aac:	af 92       	push	r10
     aae:	bf 92       	push	r11
     ab0:	cf 92       	push	r12
     ab2:	df 92       	push	r13
     ab4:	ef 92       	push	r14
     ab6:	ff 92       	push	r15
     ab8:	0f 93       	push	r16
     aba:	1f 93       	push	r17
     abc:	cf 93       	push	r28
     abe:	df 93       	push	r29
     ac0:	cd b7       	in	r28, 0x3d	; 61
     ac2:	de b7       	in	r29, 0x3e	; 62
     ac4:	29 97       	sbiw	r28, 0x09	; 9
     ac6:	0f b6       	in	r0, 0x3f	; 63
     ac8:	f8 94       	cli
     aca:	de bf       	out	0x3e, r29	; 62
     acc:	0f be       	out	0x3f, r0	; 63
     ace:	cd bf       	out	0x3d, r28	; 61
     ad0:	6c 01       	movw	r12, r24
     ad2:	5b 01       	movw	r10, r22
     ad4:	3a 01       	movw	r6, r20
     ad6:	49 01       	movw	r8, r18
	uint8_t i;
	uint8_t sp[DS18X20_SP_SIZE];
	
	ow_reset(); //**
     ad8:	0e 94 cb 05 	call	0xb96	; 0xb96 <ow_reset>
	ow_command(DS18X20_READ, id);
     adc:	b6 01       	movw	r22, r12
     ade:	8e eb       	ldi	r24, 0xBE	; 190
     ae0:	0e 94 d9 06 	call	0xdb2	; 0xdb2 <ow_command>
     ae4:	8e 01       	movw	r16, r28
     ae6:	0f 5f       	subi	r16, 0xFF	; 255
     ae8:	1f 4f       	sbci	r17, 0xFF	; 255
     aea:	7e 01       	movw	r14, r28
     aec:	8a e0       	ldi	r24, 0x0A	; 10
     aee:	e8 0e       	add	r14, r24
     af0:	f1 1c       	adc	r15, r1
	for ( i=0 ; i< DS18X20_SP_SIZE; i++ ) sp[i]=ow_byte_rd();
     af2:	0e 94 7b 06 	call	0xcf6	; 0xcf6 <ow_byte_rd>
     af6:	f8 01       	movw	r30, r16
     af8:	81 93       	st	Z+, r24
     afa:	8f 01       	movw	r16, r30
     afc:	ee 15       	cp	r30, r14
     afe:	ff 05       	cpc	r31, r15
     b00:	c1 f7       	brne	.-16     	; 0xaf2 <DS18X20_read_meas+0x4e>
	if ( crc8( &sp[0], DS18X20_SP_SIZE ) ) 
     b02:	69 e0       	ldi	r22, 0x09	; 9
     b04:	70 e0       	ldi	r23, 0x00	; 0
     b06:	ce 01       	movw	r24, r28
     b08:	01 96       	adiw	r24, 0x01	; 1
     b0a:	0e 94 a9 04 	call	0x952	; 0x952 <crc8>
     b0e:	f8 2e       	mov	r15, r24
     b10:	81 11       	cpse	r24, r1
     b12:	0b c0       	rjmp	.+22     	; 0xb2a <DS18X20_read_meas+0x86>
		return DS18X20_ERROR_CRC;
	DS18X20_meas_to_cel(id[0], sp, subzero, cel, cel_frac_bits);
     b14:	84 01       	movw	r16, r8
     b16:	93 01       	movw	r18, r6
     b18:	a5 01       	movw	r20, r10
     b1a:	be 01       	movw	r22, r28
     b1c:	6f 5f       	subi	r22, 0xFF	; 255
     b1e:	7f 4f       	sbci	r23, 0xFF	; 255
     b20:	f6 01       	movw	r30, r12
     b22:	80 81       	ld	r24, Z
     b24:	0e 94 d2 04 	call	0x9a4	; 0x9a4 <DS18X20_meas_to_cel>
	return DS18X20_OK;
     b28:	04 c0       	rjmp	.+8      	; 0xb32 <DS18X20_read_meas+0x8e>
	
	ow_reset(); //**
	ow_command(DS18X20_READ, id);
	for ( i=0 ; i< DS18X20_SP_SIZE; i++ ) sp[i]=ow_byte_rd();
	if ( crc8( &sp[0], DS18X20_SP_SIZE ) ) 
		return DS18X20_ERROR_CRC;
     b2a:	0f 2e       	mov	r0, r31
     b2c:	f3 e0       	ldi	r31, 0x03	; 3
     b2e:	ff 2e       	mov	r15, r31
     b30:	f0 2d       	mov	r31, r0
	DS18X20_meas_to_cel(id[0], sp, subzero, cel, cel_frac_bits);
	return DS18X20_OK;
}
     b32:	8f 2d       	mov	r24, r15
     b34:	29 96       	adiw	r28, 0x09	; 9
     b36:	0f b6       	in	r0, 0x3f	; 63
     b38:	f8 94       	cli
     b3a:	de bf       	out	0x3e, r29	; 62
     b3c:	0f be       	out	0x3f, r0	; 63
     b3e:	cd bf       	out	0x3d, r28	; 61
     b40:	df 91       	pop	r29
     b42:	cf 91       	pop	r28
     b44:	1f 91       	pop	r17
     b46:	0f 91       	pop	r16
     b48:	ff 90       	pop	r15
     b4a:	ef 90       	pop	r14
     b4c:	df 90       	pop	r13
     b4e:	cf 90       	pop	r12
     b50:	bf 90       	pop	r11
     b52:	af 90       	pop	r10
     b54:	9f 90       	pop	r9
     b56:	8f 90       	pop	r8
     b58:	7f 90       	pop	r7
     b5a:	6f 90       	pop	r6
     b5c:	08 95       	ret

00000b5e <ow_input_pin_state>:
}

void ow_parasite_disable(void)
{
    OW_OUT_LOW();
	OW_DIR_IN();
     b5e:	e0 91 89 03 	lds	r30, 0x0389	; 0x800389 <OW_IN>
     b62:	f0 91 8a 03 	lds	r31, 0x038A	; 0x80038a <OW_IN+0x1>
     b66:	90 81       	ld	r25, Z
     b68:	80 91 88 03 	lds	r24, 0x0388	; 0x800388 <OW_PIN_MASK>
     b6c:	89 23       	and	r24, r25
     b6e:	08 95       	ret

00000b70 <ow_parasite_enable>:
     b70:	e0 91 86 03 	lds	r30, 0x0386	; 0x800386 <OW_OUT>
     b74:	f0 91 87 03 	lds	r31, 0x0387	; 0x800387 <OW_OUT+0x1>
     b78:	90 81       	ld	r25, Z
     b7a:	80 91 88 03 	lds	r24, 0x0388	; 0x800388 <OW_PIN_MASK>
     b7e:	89 2b       	or	r24, r25
     b80:	80 83       	st	Z, r24
     b82:	e0 91 8b 03 	lds	r30, 0x038B	; 0x80038b <OW_DDR>
     b86:	f0 91 8c 03 	lds	r31, 0x038C	; 0x80038c <OW_DDR+0x1>
     b8a:	90 81       	ld	r25, Z
     b8c:	80 91 88 03 	lds	r24, 0x0388	; 0x800388 <OW_PIN_MASK>
     b90:	89 2b       	or	r24, r25
     b92:	80 83       	st	Z, r24
     b94:	08 95       	ret

00000b96 <ow_reset>:
uint8_t ow_reset(void)
{
	uint8_t err;
	uint8_t sreg;
	
	OW_OUT_LOW(); // disable internal pull-up (maybe on from parasite)
     b96:	e0 91 86 03 	lds	r30, 0x0386	; 0x800386 <OW_OUT>
     b9a:	f0 91 87 03 	lds	r31, 0x0387	; 0x800387 <OW_OUT+0x1>
     b9e:	90 81       	ld	r25, Z
     ba0:	80 91 88 03 	lds	r24, 0x0388	; 0x800388 <OW_PIN_MASK>
     ba4:	80 95       	com	r24
     ba6:	89 23       	and	r24, r25
     ba8:	80 83       	st	Z, r24
	OW_DIR_OUT(); // pull OW-Pin low for 480us
     baa:	e0 91 8b 03 	lds	r30, 0x038B	; 0x80038b <OW_DDR>
     bae:	f0 91 8c 03 	lds	r31, 0x038C	; 0x80038c <OW_DDR+0x1>
     bb2:	90 81       	ld	r25, Z
     bb4:	80 91 88 03 	lds	r24, 0x0388	; 0x800388 <OW_PIN_MASK>
     bb8:	89 2b       	or	r24, r25
     bba:	80 83       	st	Z, r24
/* delay function for microsec
   4 cpu cycles per loop + 1 cycles(?) overhead 
   when a constant is passed. */
static inline void delayloop16(uint16_t count)
{
	asm volatile (  "cp  %A0,__zero_reg__ \n\t"  \
     bbc:	8f e8       	ldi	r24, 0x8F	; 143
     bbe:	97 e0       	ldi	r25, 0x07	; 7
     bc0:	81 15       	cp	r24, r1
     bc2:	91 05       	cpc	r25, r1
     bc4:	11 f0       	breq	.+4      	; 0xbca <L_Exit_69>

00000bc6 <L_LOOP_69>:
     bc6:	01 97       	sbiw	r24, 0x01	; 1
     bc8:	f1 f7       	brne	.-4      	; 0xbc6 <L_LOOP_69>

00000bca <L_Exit_69>:
	
	delay_us(480);
	
	sreg=SREG;
     bca:	2f b7       	in	r18, 0x3f	; 63
	cli();
     bcc:	f8 94       	cli
	
	// set Pin as input - wait for clients to pull low
	OW_DIR_IN(); // input
     bce:	e0 91 8b 03 	lds	r30, 0x038B	; 0x80038b <OW_DDR>
     bd2:	f0 91 8c 03 	lds	r31, 0x038C	; 0x80038c <OW_DDR+0x1>
     bd6:	90 81       	ld	r25, Z
     bd8:	80 91 88 03 	lds	r24, 0x0388	; 0x800388 <OW_PIN_MASK>
     bdc:	80 95       	com	r24
     bde:	89 23       	and	r24, r25
     be0:	80 83       	st	Z, r24
     be2:	89 e0       	ldi	r24, 0x09	; 9
     be4:	91 e0       	ldi	r25, 0x01	; 1
     be6:	81 15       	cp	r24, r1
     be8:	91 05       	cpc	r25, r1
     bea:	11 f0       	breq	.+4      	; 0xbf0 <L_Exit_86>

00000bec <L_LOOP_86>:
     bec:	01 97       	sbiw	r24, 0x01	; 1
     bee:	f1 f7       	brne	.-4      	; 0xbec <L_LOOP_86>

00000bf0 <L_Exit_86>:
	
	delay_us(66);
	err = OW_GET_IN();		// no presence detect
     bf0:	e0 91 89 03 	lds	r30, 0x0389	; 0x800389 <OW_IN>
     bf4:	f0 91 8a 03 	lds	r31, 0x038A	; 0x80038a <OW_IN+0x1>
     bf8:	30 81       	ld	r19, Z
     bfa:	80 91 88 03 	lds	r24, 0x0388	; 0x800388 <OW_PIN_MASK>
	// nobody pulled to low, still high
	
	SREG=sreg; // sei()
     bfe:	2f bf       	out	0x3f, r18	; 63
     c00:	e5 e8       	ldi	r30, 0x85	; 133
     c02:	f6 e0       	ldi	r31, 0x06	; 6
     c04:	e1 15       	cp	r30, r1
     c06:	f1 05       	cpc	r31, r1
     c08:	11 f0       	breq	.+4      	; 0xc0e <L_Exit_99>

00000c0a <L_LOOP_99>:
     c0a:	31 97       	sbiw	r30, 0x01	; 1
     c0c:	f1 f7       	brne	.-4      	; 0xc0a <L_LOOP_99>

00000c0e <L_Exit_99>:
	
	// after a delay the clients should release the line
	// and input-pin gets back to high due to pull-up-resistor
	delay_us(480-66);
	if( OW_GET_IN() == 0 )		// short circuit
     c0e:	e0 91 89 03 	lds	r30, 0x0389	; 0x800389 <OW_IN>
     c12:	f0 91 8a 03 	lds	r31, 0x038A	; 0x80038a <OW_IN+0x1>
     c16:	20 81       	ld	r18, Z
     c18:	90 91 88 03 	lds	r25, 0x0388	; 0x800388 <OW_PIN_MASK>
     c1c:	92 23       	and	r25, r18
     c1e:	11 f0       	breq	.+4      	; 0xc24 <L_Exit_99+0x16>
	
	// set Pin as input - wait for clients to pull low
	OW_DIR_IN(); // input
	
	delay_us(66);
	err = OW_GET_IN();		// no presence detect
     c20:	83 23       	and	r24, r19
     c22:	08 95       	ret
	
	// after a delay the clients should release the line
	// and input-pin gets back to high due to pull-up-resistor
	delay_us(480-66);
	if( OW_GET_IN() == 0 )		// short circuit
		err = 1;
     c24:	81 e0       	ldi	r24, 0x01	; 1
	
	return err;
}
     c26:	08 95       	ret

00000c28 <ow_set_bus>:
void ow_set_bus(volatile uint8_t* in,
	volatile uint8_t* out,
	volatile uint8_t* ddr,
	uint8_t pin)
{
	OW_DDR=ddr;
     c28:	50 93 8c 03 	sts	0x038C, r21	; 0x80038c <OW_DDR+0x1>
     c2c:	40 93 8b 03 	sts	0x038B, r20	; 0x80038b <OW_DDR>
	OW_OUT=out;
     c30:	70 93 87 03 	sts	0x0387, r23	; 0x800387 <OW_OUT+0x1>
     c34:	60 93 86 03 	sts	0x0386, r22	; 0x800386 <OW_OUT>
	OW_IN=in;
     c38:	90 93 8a 03 	sts	0x038A, r25	; 0x80038a <OW_IN+0x1>
     c3c:	80 93 89 03 	sts	0x0389, r24	; 0x800389 <OW_IN>
	OW_PIN_MASK=(1<<pin);
     c40:	81 e0       	ldi	r24, 0x01	; 1
     c42:	01 c0       	rjmp	.+2      	; 0xc46 <ow_set_bus+0x1e>
     c44:	88 0f       	add	r24, r24
     c46:	2a 95       	dec	r18
     c48:	ea f7       	brpl	.-6      	; 0xc44 <ow_set_bus+0x1c>
     c4a:	80 93 88 03 	sts	0x0388, r24	; 0x800388 <OW_PIN_MASK>
	ow_reset();
     c4e:	0e 94 cb 05 	call	0xb96	; 0xb96 <ow_reset>
     c52:	08 95       	ret

00000c54 <ow_bit_io>:
   but around 14 cyles in configureable bus (us-Delay is 4 cyles per uS) */
uint8_t ow_bit_io( uint8_t b )
{
	uint8_t sreg;
	
	sreg=SREG;
     c54:	3f b7       	in	r19, 0x3f	; 63
	cli();
     c56:	f8 94       	cli
	
	OW_DIR_OUT(); // drive bus low
     c58:	e0 91 8b 03 	lds	r30, 0x038B	; 0x80038b <OW_DDR>
     c5c:	f0 91 8c 03 	lds	r31, 0x038C	; 0x80038c <OW_DDR+0x1>
     c60:	20 81       	ld	r18, Z
     c62:	90 91 88 03 	lds	r25, 0x0388	; 0x800388 <OW_PIN_MASK>
     c66:	92 2b       	or	r25, r18
     c68:	90 83       	st	Z, r25
     c6a:	e3 e0       	ldi	r30, 0x03	; 3
     c6c:	f0 e0       	ldi	r31, 0x00	; 0
     c6e:	e1 15       	cp	r30, r1
     c70:	f1 05       	cpc	r31, r1
     c72:	11 f0       	breq	.+4      	; 0xc78 <L_Exit_169>

00000c74 <L_LOOP_169>:
     c74:	31 97       	sbiw	r30, 0x01	; 1
     c76:	f1 f7       	brne	.-4      	; 0xc74 <L_LOOP_169>

00000c78 <L_Exit_169>:
	
	delay_us(1); // Recovery-Time wuffwuff was 1
	if ( b ) OW_DIR_IN(); // if bit is 1 set bus high (by ext. pull-up)
     c78:	88 23       	and	r24, r24
     c7a:	51 f0       	breq	.+20     	; 0xc90 <L_Exit_169+0x18>
     c7c:	e0 91 8b 03 	lds	r30, 0x038B	; 0x80038b <OW_DDR>
     c80:	f0 91 8c 03 	lds	r31, 0x038C	; 0x80038c <OW_DDR+0x1>
     c84:	20 81       	ld	r18, Z
     c86:	90 91 88 03 	lds	r25, 0x0388	; 0x800388 <OW_PIN_MASK>
     c8a:	90 95       	com	r25
     c8c:	92 23       	and	r25, r18
     c8e:	90 83       	st	Z, r25
     c90:	e8 e3       	ldi	r30, 0x38	; 56
     c92:	f0 e0       	ldi	r31, 0x00	; 0
     c94:	e1 15       	cp	r30, r1
     c96:	f1 05       	cpc	r31, r1
     c98:	11 f0       	breq	.+4      	; 0xc9e <L_Exit_188>

00000c9a <L_LOOP_188>:
     c9a:	31 97       	sbiw	r30, 0x01	; 1
     c9c:	f1 f7       	brne	.-4      	; 0xc9a <L_LOOP_188>

00000c9e <L_Exit_188>:
		
	// wuffwuff delay was 15uS-1 see comment above
	delay_us(15-1-OW_CONF_DELAYOFFSET);
		
	if( OW_GET_IN() == 0 ) b = 0;  // sample at end of read-timeslot
     c9e:	e0 91 89 03 	lds	r30, 0x0389	; 0x800389 <OW_IN>
     ca2:	f0 91 8a 03 	lds	r31, 0x038A	; 0x80038a <OW_IN+0x1>
     ca6:	20 81       	ld	r18, Z
     ca8:	90 91 88 03 	lds	r25, 0x0388	; 0x800388 <OW_PIN_MASK>
     cac:	29 23       	and	r18, r25
     cae:	09 f4       	brne	.+2      	; 0xcb2 <L_Exit_188+0x14>
     cb0:	80 e0       	ldi	r24, 0x00	; 0
     cb2:	e5 eb       	ldi	r30, 0xB5	; 181
     cb4:	f0 e0       	ldi	r31, 0x00	; 0
     cb6:	e1 15       	cp	r30, r1
     cb8:	f1 05       	cpc	r31, r1
     cba:	11 f0       	breq	.+4      	; 0xcc0 <L_Exit_208>

00000cbc <L_LOOP_208>:
     cbc:	31 97       	sbiw	r30, 0x01	; 1
     cbe:	f1 f7       	brne	.-4      	; 0xcbc <L_LOOP_208>

00000cc0 <L_Exit_208>:
	
	delay_us(60-15);
	OW_DIR_IN();
     cc0:	e0 91 8b 03 	lds	r30, 0x038B	; 0x80038b <OW_DDR>
     cc4:	f0 91 8c 03 	lds	r31, 0x038C	; 0x80038c <OW_DDR+0x1>
     cc8:	20 81       	ld	r18, Z
     cca:	90 95       	com	r25
     ccc:	92 23       	and	r25, r18
     cce:	90 83       	st	Z, r25
	
	SREG=sreg; // sei();
     cd0:	3f bf       	out	0x3f, r19	; 63
	
	return b;
}
     cd2:	08 95       	ret

00000cd4 <ow_byte_wr>:


uint8_t ow_byte_wr( uint8_t b )
{
     cd4:	cf 93       	push	r28
     cd6:	df 93       	push	r29
     cd8:	c8 2f       	mov	r28, r24
     cda:	d8 e0       	ldi	r29, 0x08	; 8
	uint8_t i = 8, j;
	
	do {
		j = ow_bit_io( b & 1 );
     cdc:	8c 2f       	mov	r24, r28
     cde:	81 70       	andi	r24, 0x01	; 1
     ce0:	0e 94 2a 06 	call	0xc54	; 0xc54 <ow_bit_io>
		b >>= 1;
     ce4:	c6 95       	lsr	r28
		if( j ) b |= 0x80;
     ce6:	81 11       	cpse	r24, r1
     ce8:	c0 68       	ori	r28, 0x80	; 128
     cea:	d1 50       	subi	r29, 0x01	; 1
	} while( --i );
     cec:	b9 f7       	brne	.-18     	; 0xcdc <ow_byte_wr+0x8>
	
	return b;
}
     cee:	8c 2f       	mov	r24, r28
     cf0:	df 91       	pop	r29
     cf2:	cf 91       	pop	r28
     cf4:	08 95       	ret

00000cf6 <ow_byte_rd>:


uint8_t ow_byte_rd( void )
{
  // read by sending 0xff (a dontcare?)
  return ow_byte_wr( 0xFF ); 
     cf6:	8f ef       	ldi	r24, 0xFF	; 255
     cf8:	0e 94 6a 06 	call	0xcd4	; 0xcd4 <ow_byte_wr>
}
     cfc:	08 95       	ret

00000cfe <ow_rom_search>:


uint8_t ow_rom_search( uint8_t diff, uint8_t *id )
{
     cfe:	df 92       	push	r13
     d00:	ef 92       	push	r14
     d02:	ff 92       	push	r15
     d04:	0f 93       	push	r16
     d06:	1f 93       	push	r17
     d08:	cf 93       	push	r28
     d0a:	df 93       	push	r29
     d0c:	d8 2e       	mov	r13, r24
     d0e:	8b 01       	movw	r16, r22
	uint8_t i, j, next_diff;
	uint8_t b;
	
	if( ow_reset() ) return OW_PRESENCE_ERR;	// error, no device found
     d10:	0e 94 cb 05 	call	0xb96	; 0xb96 <ow_reset>
     d14:	81 11       	cpse	r24, r1
     d16:	2b c0       	rjmp	.+86     	; 0xd6e <ow_rom_search+0x70>
	
	ow_byte_wr( OW_SEARCH_ROM );			// ROM search command
     d18:	80 ef       	ldi	r24, 0xF0	; 240
     d1a:	0e 94 6a 06 	call	0xcd4	; 0xcd4 <ow_byte_wr>
	next_diff = OW_LAST_DEVICE;			// unchanged on last device
     d1e:	e1 2c       	mov	r14, r1
	
	i = OW_ROMCODE_SIZE * 8;					// 8 bytes
     d20:	c0 e4       	ldi	r28, 0x40	; 64
     d22:	0f 2e       	mov	r0, r31
     d24:	f8 ef       	ldi	r31, 0xF8	; 248
     d26:	ff 2e       	mov	r15, r31
     d28:	f0 2d       	mov	r31, r0
     d2a:	fc 0e       	add	r15, r28
	
	do {
		j = 8;					// 8 bits
		do {
			b = ow_bit_io( 1 );			// read bit
     d2c:	81 e0       	ldi	r24, 0x01	; 1
     d2e:	0e 94 2a 06 	call	0xc54	; 0xc54 <ow_bit_io>
     d32:	d8 2f       	mov	r29, r24
			if( ow_bit_io( 1 ) ) {			// read complement bit
     d34:	81 e0       	ldi	r24, 0x01	; 1
     d36:	0e 94 2a 06 	call	0xc54	; 0xc54 <ow_bit_io>
     d3a:	88 23       	and	r24, r24
     d3c:	19 f0       	breq	.+6      	; 0xd44 <ow_rom_search+0x46>
				if( b )					// 11
     d3e:	dd 23       	and	r29, r29
     d40:	d1 f0       	breq	.+52     	; 0xd76 <ow_rom_search+0x78>
     d42:	17 c0       	rjmp	.+46     	; 0xd72 <ow_rom_search+0x74>
				return OW_DATA_ERR;			// data error
			}
			else {
				if( !b ) {				// 00 = 2 devices
     d44:	d1 11       	cpse	r29, r1
     d46:	24 c0       	rjmp	.+72     	; 0xd90 <ow_rom_search+0x92>
					if( diff > i || ((*id & 1) && diff != i) ) {
     d48:	cd 15       	cp	r28, r13
     d4a:	e8 f0       	brcs	.+58     	; 0xd86 <ow_rom_search+0x88>
     d4c:	f8 01       	movw	r30, r16
     d4e:	80 81       	ld	r24, Z
     d50:	80 ff       	sbrs	r24, 0
     d52:	11 c0       	rjmp	.+34     	; 0xd76 <ow_rom_search+0x78>
     d54:	cd 11       	cpse	r28, r13
     d56:	1a c0       	rjmp	.+52     	; 0xd8c <ow_rom_search+0x8e>
     d58:	0e c0       	rjmp	.+28     	; 0xd76 <ow_rom_search+0x78>
			}
			ow_bit_io( b );     			// write bit
			*id >>= 1;
			if( b ) *id |= 0x80;			// store bit
			
			i--;
     d5a:	c1 50       	subi	r28, 0x01	; 1
			
		} while( --j );
     d5c:	fc 12       	cpse	r15, r28
     d5e:	e6 cf       	rjmp	.-52     	; 0xd2c <ow_rom_search+0x2e>
		
		id++;					// next byte
     d60:	0f 5f       	subi	r16, 0xFF	; 255
     d62:	1f 4f       	sbci	r17, 0xFF	; 255
			}
			ow_bit_io( b );     			// write bit
			*id >>= 1;
			if( b ) *id |= 0x80;			// store bit
			
			i--;
     d64:	cf 2d       	mov	r28, r15
			
		} while( --j );
		
		id++;					// next byte
	
	} while( i );
     d66:	f1 10       	cpse	r15, r1
     d68:	dc cf       	rjmp	.-72     	; 0xd22 <ow_rom_search+0x24>
     d6a:	8e 2d       	mov	r24, r14
     d6c:	1a c0       	rjmp	.+52     	; 0xda2 <ow_rom_search+0xa4>
uint8_t ow_rom_search( uint8_t diff, uint8_t *id )
{
	uint8_t i, j, next_diff;
	uint8_t b;
	
	if( ow_reset() ) return OW_PRESENCE_ERR;	// error, no device found
     d6e:	8f ef       	ldi	r24, 0xFF	; 255
     d70:	18 c0       	rjmp	.+48     	; 0xda2 <ow_rom_search+0xa4>
		j = 8;					// 8 bits
		do {
			b = ow_bit_io( 1 );			// read bit
			if( ow_bit_io( 1 ) ) {			// read complement bit
				if( b )					// 11
				return OW_DATA_ERR;			// data error
     d72:	8e ef       	ldi	r24, 0xFE	; 254
     d74:	16 c0       	rjmp	.+44     	; 0xda2 <ow_rom_search+0xa4>
					b = 1;				// now 1
					next_diff = i;			// next pass 0
					}
				}
			}
			ow_bit_io( b );     			// write bit
     d76:	80 e0       	ldi	r24, 0x00	; 0
     d78:	0e 94 2a 06 	call	0xc54	; 0xc54 <ow_bit_io>
			*id >>= 1;
     d7c:	f8 01       	movw	r30, r16
     d7e:	90 81       	ld	r25, Z
     d80:	96 95       	lsr	r25
     d82:	90 83       	st	Z, r25
     d84:	ea cf       	rjmp	.-44     	; 0xd5a <ow_rom_search+0x5c>
			}
			else {
				if( !b ) {				// 00 = 2 devices
					if( diff > i || ((*id & 1) && diff != i) ) {
					b = 1;				// now 1
					next_diff = i;			// next pass 0
     d86:	ec 2e       	mov	r14, r28
				return OW_DATA_ERR;			// data error
			}
			else {
				if( !b ) {				// 00 = 2 devices
					if( diff > i || ((*id & 1) && diff != i) ) {
					b = 1;				// now 1
     d88:	d1 e0       	ldi	r29, 0x01	; 1
     d8a:	02 c0       	rjmp	.+4      	; 0xd90 <ow_rom_search+0x92>
					next_diff = i;			// next pass 0
     d8c:	ec 2e       	mov	r14, r28
				return OW_DATA_ERR;			// data error
			}
			else {
				if( !b ) {				// 00 = 2 devices
					if( diff > i || ((*id & 1) && diff != i) ) {
					b = 1;				// now 1
     d8e:	d1 e0       	ldi	r29, 0x01	; 1
					next_diff = i;			// next pass 0
					}
				}
			}
			ow_bit_io( b );     			// write bit
     d90:	8d 2f       	mov	r24, r29
     d92:	0e 94 2a 06 	call	0xc54	; 0xc54 <ow_bit_io>
			*id >>= 1;
			if( b ) *id |= 0x80;			// store bit
     d96:	f8 01       	movw	r30, r16
     d98:	90 81       	ld	r25, Z
     d9a:	96 95       	lsr	r25
     d9c:	90 68       	ori	r25, 0x80	; 128
     d9e:	90 83       	st	Z, r25
     da0:	dc cf       	rjmp	.-72     	; 0xd5a <ow_rom_search+0x5c>
		id++;					// next byte
	
	} while( i );
	
	return next_diff;				// to continue search
}
     da2:	df 91       	pop	r29
     da4:	cf 91       	pop	r28
     da6:	1f 91       	pop	r17
     da8:	0f 91       	pop	r16
     daa:	ff 90       	pop	r15
     dac:	ef 90       	pop	r14
     dae:	df 90       	pop	r13
     db0:	08 95       	ret

00000db2 <ow_command>:


void ow_command( uint8_t command, uint8_t *id )
{
     db2:	ff 92       	push	r15
     db4:	0f 93       	push	r16
     db6:	1f 93       	push	r17
     db8:	cf 93       	push	r28
     dba:	df 93       	push	r29
     dbc:	f8 2e       	mov	r15, r24
     dbe:	eb 01       	movw	r28, r22
	uint8_t i;

	ow_reset();
     dc0:	0e 94 cb 05 	call	0xb96	; 0xb96 <ow_reset>

	if( id ) {
     dc4:	20 97       	sbiw	r28, 0x00	; 0
     dc6:	69 f0       	breq	.+26     	; 0xde2 <ow_command+0x30>
		ow_byte_wr( OW_MATCH_ROM );			// to a single device
     dc8:	85 e5       	ldi	r24, 0x55	; 85
     dca:	0e 94 6a 06 	call	0xcd4	; 0xcd4 <ow_byte_wr>
     dce:	8e 01       	movw	r16, r28
     dd0:	08 5f       	subi	r16, 0xF8	; 248
     dd2:	1f 4f       	sbci	r17, 0xFF	; 255
		i = OW_ROMCODE_SIZE;
		do {
			ow_byte_wr( *id );
     dd4:	89 91       	ld	r24, Y+
     dd6:	0e 94 6a 06 	call	0xcd4	; 0xcd4 <ow_byte_wr>
			id++;
		} while( --i );
     dda:	c0 17       	cp	r28, r16
     ddc:	d1 07       	cpc	r29, r17
     dde:	d1 f7       	brne	.-12     	; 0xdd4 <ow_command+0x22>
     de0:	03 c0       	rjmp	.+6      	; 0xde8 <ow_command+0x36>
	} 
	else {
		ow_byte_wr( OW_SKIP_ROM );			// to all devices
     de2:	8c ec       	ldi	r24, 0xCC	; 204
     de4:	0e 94 6a 06 	call	0xcd4	; 0xcd4 <ow_byte_wr>
	}
	
	ow_byte_wr( command );
     de8:	8f 2d       	mov	r24, r15
     dea:	0e 94 6a 06 	call	0xcd4	; 0xcd4 <ow_byte_wr>
}
     dee:	df 91       	pop	r29
     df0:	cf 91       	pop	r28
     df2:	1f 91       	pop	r17
     df4:	0f 91       	pop	r16
     df6:	ff 90       	pop	r15
     df8:	08 95       	ret

00000dfa <i2c_init>:
	data[(length-1)] = i2c_read_nack();

	i2c_stop();

	return 0;
}
     dfa:	8e e2       	ldi	r24, 0x2E	; 46
     dfc:	80 93 70 00 	sts	0x0070, r24	; 0x800070 <__TEXT_REGION_LENGTH__+0x7e0070>
     e00:	08 95       	ret

00000e02 <i2c_start>:
     e02:	e4 e7       	ldi	r30, 0x74	; 116
     e04:	f0 e0       	ldi	r31, 0x00	; 0
     e06:	10 82       	st	Z, r1
     e08:	94 ea       	ldi	r25, 0xA4	; 164
     e0a:	90 83       	st	Z, r25
     e0c:	90 81       	ld	r25, Z
     e0e:	99 23       	and	r25, r25
     e10:	ec f7       	brge	.-6      	; 0xe0c <i2c_start+0xa>
     e12:	90 91 71 00 	lds	r25, 0x0071	; 0x800071 <__TEXT_REGION_LENGTH__+0x7e0071>
     e16:	98 7f       	andi	r25, 0xF8	; 248
     e18:	98 30       	cpi	r25, 0x08	; 8
     e1a:	a1 f4       	brne	.+40     	; 0xe44 <i2c_start+0x42>
     e1c:	80 93 73 00 	sts	0x0073, r24	; 0x800073 <__TEXT_REGION_LENGTH__+0x7e0073>
     e20:	84 e8       	ldi	r24, 0x84	; 132
     e22:	80 93 74 00 	sts	0x0074, r24	; 0x800074 <__TEXT_REGION_LENGTH__+0x7e0074>
     e26:	e4 e7       	ldi	r30, 0x74	; 116
     e28:	f0 e0       	ldi	r31, 0x00	; 0
     e2a:	80 81       	ld	r24, Z
     e2c:	88 23       	and	r24, r24
     e2e:	ec f7       	brge	.-6      	; 0xe2a <i2c_start+0x28>
     e30:	90 91 71 00 	lds	r25, 0x0071	; 0x800071 <__TEXT_REGION_LENGTH__+0x7e0071>
     e34:	98 7f       	andi	r25, 0xF8	; 248
     e36:	98 31       	cpi	r25, 0x18	; 24
     e38:	39 f0       	breq	.+14     	; 0xe48 <i2c_start+0x46>
     e3a:	81 e0       	ldi	r24, 0x01	; 1
     e3c:	90 34       	cpi	r25, 0x40	; 64
     e3e:	29 f4       	brne	.+10     	; 0xe4a <i2c_start+0x48>
     e40:	80 e0       	ldi	r24, 0x00	; 0
     e42:	08 95       	ret
     e44:	81 e0       	ldi	r24, 0x01	; 1
     e46:	08 95       	ret
     e48:	80 e0       	ldi	r24, 0x00	; 0
     e4a:	08 95       	ret

00000e4c <i2c_write>:
     e4c:	80 93 73 00 	sts	0x0073, r24	; 0x800073 <__TEXT_REGION_LENGTH__+0x7e0073>
     e50:	84 e8       	ldi	r24, 0x84	; 132
     e52:	80 93 74 00 	sts	0x0074, r24	; 0x800074 <__TEXT_REGION_LENGTH__+0x7e0074>
     e56:	e4 e7       	ldi	r30, 0x74	; 116
     e58:	f0 e0       	ldi	r31, 0x00	; 0
     e5a:	80 81       	ld	r24, Z
     e5c:	88 23       	and	r24, r24
     e5e:	ec f7       	brge	.-6      	; 0xe5a <i2c_write+0xe>
     e60:	90 91 71 00 	lds	r25, 0x0071	; 0x800071 <__TEXT_REGION_LENGTH__+0x7e0071>
     e64:	98 7f       	andi	r25, 0xF8	; 248
     e66:	81 e0       	ldi	r24, 0x01	; 1
     e68:	98 32       	cpi	r25, 0x28	; 40
     e6a:	09 f4       	brne	.+2      	; 0xe6e <i2c_write+0x22>
     e6c:	80 e0       	ldi	r24, 0x00	; 0
     e6e:	08 95       	ret

00000e70 <i2c_read_ack>:
     e70:	84 ec       	ldi	r24, 0xC4	; 196
     e72:	80 93 74 00 	sts	0x0074, r24	; 0x800074 <__TEXT_REGION_LENGTH__+0x7e0074>
     e76:	e4 e7       	ldi	r30, 0x74	; 116
     e78:	f0 e0       	ldi	r31, 0x00	; 0
     e7a:	80 81       	ld	r24, Z
     e7c:	88 23       	and	r24, r24
     e7e:	ec f7       	brge	.-6      	; 0xe7a <i2c_read_ack+0xa>
     e80:	80 91 73 00 	lds	r24, 0x0073	; 0x800073 <__TEXT_REGION_LENGTH__+0x7e0073>
     e84:	08 95       	ret

00000e86 <i2c_read_nack>:
     e86:	84 e8       	ldi	r24, 0x84	; 132
     e88:	80 93 74 00 	sts	0x0074, r24	; 0x800074 <__TEXT_REGION_LENGTH__+0x7e0074>
     e8c:	e4 e7       	ldi	r30, 0x74	; 116
     e8e:	f0 e0       	ldi	r31, 0x00	; 0
     e90:	80 81       	ld	r24, Z
     e92:	88 23       	and	r24, r24
     e94:	ec f7       	brge	.-6      	; 0xe90 <i2c_read_nack+0xa>
     e96:	80 91 73 00 	lds	r24, 0x0073	; 0x800073 <__TEXT_REGION_LENGTH__+0x7e0073>
     e9a:	08 95       	ret

00000e9c <i2c_stop>:

void i2c_stop(void)
{
	// transmit STOP condition
	TWCR = (1<<TWINT) | (1<<TWEN) | (1<<TWSTO);
     e9c:	84 e9       	ldi	r24, 0x94	; 148
     e9e:	80 93 74 00 	sts	0x0074, r24	; 0x800074 <__TEXT_REGION_LENGTH__+0x7e0074>
     ea2:	08 95       	ret

00000ea4 <toggle_e>:

void lcd_putbyte_hex( unsigned char c)                       // 1 byte kiirasa hexadecimalisan
{
	lcd_putc_hex( c >> 4);
	lcd_putc_hex( c);
}
     ea4:	ad 9a       	sbi	0x15, 5	; 21
     ea6:	00 c0       	rjmp	.+0      	; 0xea8 <toggle_e+0x4>
     ea8:	00 c0       	rjmp	.+0      	; 0xeaa <toggle_e+0x6>
     eaa:	ad 98       	cbi	0x15, 5	; 21
     eac:	08 95       	ret

00000eae <lcd_write>:
     eae:	cf 93       	push	r28
     eb0:	c8 2f       	mov	r28, r24
     eb2:	66 23       	and	r22, r22
     eb4:	11 f0       	breq	.+4      	; 0xeba <lcd_write+0xc>
     eb6:	af 9a       	sbi	0x15, 7	; 21
     eb8:	01 c0       	rjmp	.+2      	; 0xebc <lcd_write+0xe>
     eba:	af 98       	cbi	0x15, 7	; 21
     ebc:	ae 98       	cbi	0x15, 6	; 21
     ebe:	a4 9a       	sbi	0x14, 4	; 20
     ec0:	a3 9a       	sbi	0x14, 3	; 20
     ec2:	a2 9a       	sbi	0x14, 2	; 20
     ec4:	a1 9a       	sbi	0x14, 1	; 20
     ec6:	a9 98       	cbi	0x15, 1	; 21
     ec8:	aa 98       	cbi	0x15, 2	; 21
     eca:	ab 98       	cbi	0x15, 3	; 21
     ecc:	ac 98       	cbi	0x15, 4	; 21
     ece:	cc 23       	and	r28, r28
     ed0:	0c f4       	brge	.+2      	; 0xed4 <lcd_write+0x26>
     ed2:	a9 9a       	sbi	0x15, 1	; 21
     ed4:	c6 fd       	sbrc	r28, 6
     ed6:	aa 9a       	sbi	0x15, 2	; 21
     ed8:	c5 fd       	sbrc	r28, 5
     eda:	ab 9a       	sbi	0x15, 3	; 21
     edc:	c4 fd       	sbrc	r28, 4
     ede:	ac 9a       	sbi	0x15, 4	; 21
     ee0:	0e 94 52 07 	call	0xea4	; 0xea4 <toggle_e>
     ee4:	a9 98       	cbi	0x15, 1	; 21
     ee6:	aa 98       	cbi	0x15, 2	; 21
     ee8:	ab 98       	cbi	0x15, 3	; 21
     eea:	ac 98       	cbi	0x15, 4	; 21
     eec:	c3 fd       	sbrc	r28, 3
     eee:	a9 9a       	sbi	0x15, 1	; 21
     ef0:	c2 fd       	sbrc	r28, 2
     ef2:	aa 9a       	sbi	0x15, 2	; 21
     ef4:	c1 fd       	sbrc	r28, 1
     ef6:	ab 9a       	sbi	0x15, 3	; 21
     ef8:	c0 fd       	sbrc	r28, 0
     efa:	ac 9a       	sbi	0x15, 4	; 21
     efc:	0e 94 52 07 	call	0xea4	; 0xea4 <toggle_e>
     f00:	ac 9a       	sbi	0x15, 4	; 21
     f02:	ab 9a       	sbi	0x15, 3	; 21
     f04:	aa 9a       	sbi	0x15, 2	; 21
     f06:	a9 9a       	sbi	0x15, 1	; 21
     f08:	cf 91       	pop	r28
     f0a:	08 95       	ret

00000f0c <lcd_read>:
     f0c:	88 23       	and	r24, r24
     f0e:	11 f0       	breq	.+4      	; 0xf14 <lcd_read+0x8>
     f10:	af 9a       	sbi	0x15, 7	; 21
     f12:	01 c0       	rjmp	.+2      	; 0xf16 <lcd_read+0xa>
     f14:	af 98       	cbi	0x15, 7	; 21
     f16:	ae 9a       	sbi	0x15, 6	; 21
     f18:	a4 98       	cbi	0x14, 4	; 20
     f1a:	a3 98       	cbi	0x14, 3	; 20
     f1c:	a2 98       	cbi	0x14, 2	; 20
     f1e:	a1 98       	cbi	0x14, 1	; 20
     f20:	ad 9a       	sbi	0x15, 5	; 21
     f22:	00 c0       	rjmp	.+0      	; 0xf24 <lcd_read+0x18>
     f24:	00 c0       	rjmp	.+0      	; 0xf26 <lcd_read+0x1a>
     f26:	9c 9b       	sbis	0x13, 4	; 19
     f28:	02 c0       	rjmp	.+4      	; 0xf2e <lcd_read+0x22>
     f2a:	80 e1       	ldi	r24, 0x10	; 16
     f2c:	01 c0       	rjmp	.+2      	; 0xf30 <lcd_read+0x24>
     f2e:	80 e0       	ldi	r24, 0x00	; 0
     f30:	9b 99       	sbic	0x13, 3	; 19
     f32:	80 62       	ori	r24, 0x20	; 32
     f34:	9a 99       	sbic	0x13, 2	; 19
     f36:	80 64       	ori	r24, 0x40	; 64
     f38:	99 99       	sbic	0x13, 1	; 19
     f3a:	80 68       	ori	r24, 0x80	; 128
     f3c:	ad 98       	cbi	0x15, 5	; 21
     f3e:	00 c0       	rjmp	.+0      	; 0xf40 <lcd_read+0x34>
     f40:	00 c0       	rjmp	.+0      	; 0xf42 <lcd_read+0x36>
     f42:	ad 9a       	sbi	0x15, 5	; 21
     f44:	00 c0       	rjmp	.+0      	; 0xf46 <lcd_read+0x3a>
     f46:	00 c0       	rjmp	.+0      	; 0xf48 <lcd_read+0x3c>
     f48:	9c 99       	sbic	0x13, 4	; 19
     f4a:	81 60       	ori	r24, 0x01	; 1
     f4c:	9b 99       	sbic	0x13, 3	; 19
     f4e:	82 60       	ori	r24, 0x02	; 2
     f50:	9a 99       	sbic	0x13, 2	; 19
     f52:	84 60       	ori	r24, 0x04	; 4
     f54:	99 99       	sbic	0x13, 1	; 19
     f56:	88 60       	ori	r24, 0x08	; 8
     f58:	ad 98       	cbi	0x15, 5	; 21
     f5a:	08 95       	ret

00000f5c <lcd_waitbusy>:
     f5c:	80 e0       	ldi	r24, 0x00	; 0
     f5e:	0e 94 86 07 	call	0xf0c	; 0xf0c <lcd_read>
     f62:	88 23       	and	r24, r24
     f64:	dc f3       	brlt	.-10     	; 0xf5c <lcd_waitbusy>
     f66:	88 e0       	ldi	r24, 0x08	; 8
     f68:	90 e0       	ldi	r25, 0x00	; 0
     f6a:	01 97       	sbiw	r24, 0x01	; 1
     f6c:	f1 f7       	brne	.-4      	; 0xf6a <lcd_waitbusy+0xe>
     f6e:	80 e0       	ldi	r24, 0x00	; 0
     f70:	0e 94 86 07 	call	0xf0c	; 0xf0c <lcd_read>
     f74:	08 95       	ret

00000f76 <lcd_command>:
     f76:	cf 93       	push	r28
     f78:	c8 2f       	mov	r28, r24
     f7a:	0e 94 ae 07 	call	0xf5c	; 0xf5c <lcd_waitbusy>
     f7e:	60 e0       	ldi	r22, 0x00	; 0
     f80:	8c 2f       	mov	r24, r28
     f82:	0e 94 57 07 	call	0xeae	; 0xeae <lcd_write>
     f86:	cf 91       	pop	r28
     f88:	08 95       	ret

00000f8a <lcd_gotoxy>:
     f8a:	61 11       	cpse	r22, r1
     f8c:	04 c0       	rjmp	.+8      	; 0xf96 <lcd_gotoxy+0xc>
     f8e:	80 58       	subi	r24, 0x80	; 128
     f90:	0e 94 bb 07 	call	0xf76	; 0xf76 <lcd_command>
     f94:	08 95       	ret
     f96:	61 30       	cpi	r22, 0x01	; 1
     f98:	21 f4       	brne	.+8      	; 0xfa2 <lcd_gotoxy+0x18>
     f9a:	80 54       	subi	r24, 0x40	; 64
     f9c:	0e 94 bb 07 	call	0xf76	; 0xf76 <lcd_command>
     fa0:	08 95       	ret
     fa2:	62 30       	cpi	r22, 0x02	; 2
     fa4:	21 f4       	brne	.+8      	; 0xfae <lcd_gotoxy+0x24>
     fa6:	8c 56       	subi	r24, 0x6C	; 108
     fa8:	0e 94 bb 07 	call	0xf76	; 0xf76 <lcd_command>
     fac:	08 95       	ret
     fae:	8c 52       	subi	r24, 0x2C	; 44
     fb0:	0e 94 bb 07 	call	0xf76	; 0xf76 <lcd_command>
     fb4:	08 95       	ret

00000fb6 <lcd_clrscr>:
     fb6:	81 e0       	ldi	r24, 0x01	; 1
     fb8:	0e 94 bb 07 	call	0xf76	; 0xf76 <lcd_command>
     fbc:	08 95       	ret

00000fbe <lcd_putc>:
     fbe:	cf 93       	push	r28
     fc0:	c8 2f       	mov	r28, r24
     fc2:	0e 94 ae 07 	call	0xf5c	; 0xf5c <lcd_waitbusy>
     fc6:	ca 30       	cpi	r28, 0x0A	; 10
     fc8:	a1 f4       	brne	.+40     	; 0xff2 <lcd_putc+0x34>
     fca:	84 31       	cpi	r24, 0x14	; 20
     fcc:	48 f0       	brcs	.+18     	; 0xfe0 <lcd_putc+0x22>
     fce:	90 ec       	ldi	r25, 0xC0	; 192
     fd0:	98 0f       	add	r25, r24
     fd2:	94 31       	cpi	r25, 0x14	; 20
     fd4:	38 f0       	brcs	.+14     	; 0xfe4 <lcd_putc+0x26>
     fd6:	84 51       	subi	r24, 0x14	; 20
     fd8:	8c 32       	cpi	r24, 0x2C	; 44
     fda:	30 f0       	brcs	.+12     	; 0xfe8 <lcd_putc+0x2a>
     fdc:	80 e0       	ldi	r24, 0x00	; 0
     fde:	05 c0       	rjmp	.+10     	; 0xfea <lcd_putc+0x2c>
     fe0:	80 e4       	ldi	r24, 0x40	; 64
     fe2:	03 c0       	rjmp	.+6      	; 0xfea <lcd_putc+0x2c>
     fe4:	84 e1       	ldi	r24, 0x14	; 20
     fe6:	01 c0       	rjmp	.+2      	; 0xfea <lcd_putc+0x2c>
     fe8:	84 e5       	ldi	r24, 0x54	; 84
     fea:	80 58       	subi	r24, 0x80	; 128
     fec:	0e 94 bb 07 	call	0xf76	; 0xf76 <lcd_command>
     ff0:	04 c0       	rjmp	.+8      	; 0xffa <lcd_putc+0x3c>
     ff2:	61 e0       	ldi	r22, 0x01	; 1
     ff4:	8c 2f       	mov	r24, r28
     ff6:	0e 94 57 07 	call	0xeae	; 0xeae <lcd_write>
     ffa:	cf 91       	pop	r28
     ffc:	08 95       	ret

00000ffe <lcd_puts>:
     ffe:	cf 93       	push	r28
    1000:	df 93       	push	r29
    1002:	ec 01       	movw	r28, r24
    1004:	21 96       	adiw	r28, 0x01	; 1
    1006:	fc 01       	movw	r30, r24
    1008:	80 81       	ld	r24, Z
    100a:	88 23       	and	r24, r24
    100c:	29 f0       	breq	.+10     	; 0x1018 <lcd_puts+0x1a>
    100e:	0e 94 df 07 	call	0xfbe	; 0xfbe <lcd_putc>
    1012:	89 91       	ld	r24, Y+
    1014:	81 11       	cpse	r24, r1
    1016:	fb cf       	rjmp	.-10     	; 0x100e <lcd_puts+0x10>
    1018:	df 91       	pop	r29
    101a:	cf 91       	pop	r28
    101c:	08 95       	ret

0000101e <lcd_puts_p>:
    101e:	cf 93       	push	r28
    1020:	df 93       	push	r29
    1022:	ec 01       	movw	r28, r24
    1024:	21 96       	adiw	r28, 0x01	; 1
    1026:	fc 01       	movw	r30, r24
    1028:	84 91       	lpm	r24, Z
    102a:	88 23       	and	r24, r24
    102c:	39 f0       	breq	.+14     	; 0x103c <lcd_puts_p+0x1e>
    102e:	0e 94 df 07 	call	0xfbe	; 0xfbe <lcd_putc>
    1032:	fe 01       	movw	r30, r28
    1034:	84 91       	lpm	r24, Z
    1036:	21 96       	adiw	r28, 0x01	; 1
    1038:	81 11       	cpse	r24, r1
    103a:	f9 cf       	rjmp	.-14     	; 0x102e <lcd_puts_p+0x10>
    103c:	df 91       	pop	r29
    103e:	cf 91       	pop	r28
    1040:	08 95       	ret

00001042 <lcd_init>:
    1042:	1f 93       	push	r17
    1044:	cf 93       	push	r28
    1046:	df 93       	push	r29
    1048:	18 2f       	mov	r17, r24
    104a:	a7 9a       	sbi	0x14, 7	; 20
    104c:	a6 9a       	sbi	0x14, 6	; 20
    104e:	a5 9a       	sbi	0x14, 5	; 20
    1050:	a4 9a       	sbi	0x14, 4	; 20
    1052:	a3 9a       	sbi	0x14, 3	; 20
    1054:	a2 9a       	sbi	0x14, 2	; 20
    1056:	a1 9a       	sbi	0x14, 1	; 20
    1058:	80 e0       	ldi	r24, 0x00	; 0
    105a:	9a ef       	ldi	r25, 0xFA	; 250
    105c:	01 97       	sbiw	r24, 0x01	; 1
    105e:	f1 f7       	brne	.-4      	; 0x105c <lcd_init+0x1a>
    1060:	ab 9a       	sbi	0x15, 3	; 21
    1062:	ac 9a       	sbi	0x15, 4	; 21
    1064:	0e 94 52 07 	call	0xea4	; 0xea4 <toggle_e>
    1068:	80 e0       	ldi	r24, 0x00	; 0
    106a:	9e e4       	ldi	r25, 0x4E	; 78
    106c:	01 97       	sbiw	r24, 0x01	; 1
    106e:	f1 f7       	brne	.-4      	; 0x106c <lcd_init+0x2a>
    1070:	0e 94 52 07 	call	0xea4	; 0xea4 <toggle_e>
    1074:	c0 e0       	ldi	r28, 0x00	; 0
    1076:	d1 e0       	ldi	r29, 0x01	; 1
    1078:	ce 01       	movw	r24, r28
    107a:	01 97       	sbiw	r24, 0x01	; 1
    107c:	f1 f7       	brne	.-4      	; 0x107a <lcd_init+0x38>
    107e:	0e 94 52 07 	call	0xea4	; 0xea4 <toggle_e>
    1082:	ce 01       	movw	r24, r28
    1084:	01 97       	sbiw	r24, 0x01	; 1
    1086:	f1 f7       	brne	.-4      	; 0x1084 <lcd_init+0x42>
    1088:	ac 98       	cbi	0x15, 4	; 21
    108a:	0e 94 52 07 	call	0xea4	; 0xea4 <toggle_e>
    108e:	21 97       	sbiw	r28, 0x01	; 1
    1090:	f1 f7       	brne	.-4      	; 0x108e <lcd_init+0x4c>
    1092:	88 e2       	ldi	r24, 0x28	; 40
    1094:	0e 94 bb 07 	call	0xf76	; 0xf76 <lcd_command>
    1098:	88 e0       	ldi	r24, 0x08	; 8
    109a:	0e 94 bb 07 	call	0xf76	; 0xf76 <lcd_command>
    109e:	0e 94 db 07 	call	0xfb6	; 0xfb6 <lcd_clrscr>
    10a2:	86 e0       	ldi	r24, 0x06	; 6
    10a4:	0e 94 bb 07 	call	0xf76	; 0xf76 <lcd_command>
    10a8:	81 2f       	mov	r24, r17
    10aa:	0e 94 bb 07 	call	0xf76	; 0xf76 <lcd_command>
    10ae:	df 91       	pop	r29
    10b0:	cf 91       	pop	r28
    10b2:	1f 91       	pop	r17
    10b4:	08 95       	ret

000010b6 <lcd_putc_hu>:

void lcd_putc_hu( unsigned char c)                          // magyar betu kiirasa LCD-re
{
	switch( c)
    10b6:	48 2f       	mov	r20, r24
    10b8:	50 e0       	ldi	r21, 0x00	; 0
    10ba:	fa 01       	movw	r30, r20
    10bc:	e1 5c       	subi	r30, 0xC1	; 193
    10be:	f1 09       	sbc	r31, r1
    10c0:	ec 33       	cpi	r30, 0x3C	; 60
    10c2:	f1 05       	cpc	r31, r1
    10c4:	a8 f4       	brcc	.+42     	; 0x10f0 <lcd_putc_hu+0x3a>
    10c6:	ea 5b       	subi	r30, 0xBA	; 186
    10c8:	ff 4f       	sbci	r31, 0xFF	; 255
    10ca:	0c 94 f5 14 	jmp	0x29ea	; 0x29ea <__tablejump2__>
	{
		case 0xD6:                                 // 
		case 0xF6:                                 // 
		c= 0xEF;
    10ce:	8f ee       	ldi	r24, 0xEF	; 239
    10d0:	0f c0       	rjmp	.+30     	; 0x10f0 <lcd_putc_hu+0x3a>
		goto kiir;
		case 0xDC:                                 // 
		case 0xFC:                                 // 
		c= 0xF5;
    10d2:	85 ef       	ldi	r24, 0xF5	; 245
		goto kiir;
    10d4:	0d c0       	rjmp	.+26     	; 0x10f0 <lcd_putc_hu+0x3a>
		case 0xC1:                                 // 
		case 0xE1:                                 // 
		c= 0;
    10d6:	80 e0       	ldi	r24, 0x00	; 0
		goto kiir;
    10d8:	0b c0       	rjmp	.+22     	; 0x10f0 <lcd_putc_hu+0x3a>
		case 0xC9:                                 // 
		case 0xE9:                                 // 
		c= 1;
    10da:	81 e0       	ldi	r24, 0x01	; 1
		goto kiir;
    10dc:	09 c0       	rjmp	.+18     	; 0x10f0 <lcd_putc_hu+0x3a>
		case 0xCD:                                 // 
		case 0xED:                                 // 
		c= 2;
    10de:	82 e0       	ldi	r24, 0x02	; 2
		goto kiir;
    10e0:	07 c0       	rjmp	.+14     	; 0x10f0 <lcd_putc_hu+0x3a>
		case 0xD3:                                 // 
		case 0xF3:                                 // 
		c= 3;
    10e2:	83 e0       	ldi	r24, 0x03	; 3
		goto kiir;
    10e4:	05 c0       	rjmp	.+10     	; 0x10f0 <lcd_putc_hu+0x3a>
		case 0xD5:                                 // ?
		case 0xF5:                                 // ?
		c= 4;
    10e6:	84 e0       	ldi	r24, 0x04	; 4
		goto kiir;
    10e8:	03 c0       	rjmp	.+6      	; 0x10f0 <lcd_putc_hu+0x3a>
		case 0xDA:                                 // 
		case 0xFA:                                 // 
		c= 5;
    10ea:	85 e0       	ldi	r24, 0x05	; 5
		goto kiir;
    10ec:	01 c0       	rjmp	.+2      	; 0x10f0 <lcd_putc_hu+0x3a>
		case 0xDB:                                 // ?
		case 0xFB:                                 // ?
		c= 6;
    10ee:	86 e0       	ldi	r24, 0x06	; 6
		goto kiir;
		default:;
	}
	kiir:
	lcd_putc( c);
    10f0:	0e 94 df 07 	call	0xfbe	; 0xfbe <lcd_putc>
    10f4:	08 95       	ret

000010f6 <lcd_puts_hu>:
}


void lcd_puts_hu( const char *s)                 // string kiiras, magyar betuk is
{
    10f6:	cf 93       	push	r28
    10f8:	df 93       	push	r29
	register unsigned char c;
	while ( ( c= pgm_read_byte( s++))) lcd_putc_hu( c);
    10fa:	ec 01       	movw	r28, r24
    10fc:	21 96       	adiw	r28, 0x01	; 1
    10fe:	fc 01       	movw	r30, r24
    1100:	84 91       	lpm	r24, Z
    1102:	88 23       	and	r24, r24
    1104:	39 f0       	breq	.+14     	; 0x1114 <__stack+0x15>
    1106:	0e 94 5b 08 	call	0x10b6	; 0x10b6 <lcd_putc_hu>
    110a:	fe 01       	movw	r30, r28
    110c:	84 91       	lpm	r24, Z
    110e:	21 96       	adiw	r28, 0x01	; 1
    1110:	81 11       	cpse	r24, r1
    1112:	f9 cf       	rjmp	.-14     	; 0x1106 <__stack+0x7>
    1114:	df 91       	pop	r29
    1116:	cf 91       	pop	r28
    1118:	08 95       	ret

0000111a <__vector_21>:
	SPIClose();
}

void read_from_eeprom()
{
	DHW_sensor_ID = eeprom_read_byte(&eeDHW_sensor_ID);
    111a:	1f 92       	push	r1
    111c:	0f 92       	push	r0
    111e:	0f b6       	in	r0, 0x3f	; 63
    1120:	0f 92       	push	r0
    1122:	11 24       	eor	r1, r1
    1124:	8f 93       	push	r24
    1126:	9f 93       	push	r25
    1128:	84 b1       	in	r24, 0x04	; 4
    112a:	95 b1       	in	r25, 0x05	; 5
    112c:	0a 97       	sbiw	r24, 0x0a	; 10
    112e:	38 f4       	brcc	.+14     	; 0x113e <__vector_21+0x24>
    1130:	8a e0       	ldi	r24, 0x0A	; 10
    1132:	90 e0       	ldi	r25, 0x00	; 0
    1134:	90 93 83 00 	sts	0x0083, r25	; 0x800083 <__TEXT_REGION_LENGTH__+0x7e0083>
    1138:	80 93 82 00 	sts	0x0082, r24	; 0x800082 <__TEXT_REGION_LENGTH__+0x7e0082>
    113c:	06 c0       	rjmp	.+12     	; 0x114a <__vector_21+0x30>
    113e:	84 b1       	in	r24, 0x04	; 4
    1140:	95 b1       	in	r25, 0x05	; 5
    1142:	90 93 83 00 	sts	0x0083, r25	; 0x800083 <__TEXT_REGION_LENGTH__+0x7e0083>
    1146:	80 93 82 00 	sts	0x0082, r24	; 0x800082 <__TEXT_REGION_LENGTH__+0x7e0082>
    114a:	9f 91       	pop	r25
    114c:	8f 91       	pop	r24
    114e:	0f 90       	pop	r0
    1150:	0f be       	out	0x3f, r0	; 63
    1152:	0f 90       	pop	r0
    1154:	1f 90       	pop	r1
    1156:	18 95       	reti

00001158 <sensor_read>:
    1158:	0f 93       	push	r16
    115a:	1f 93       	push	r17
    115c:	cf 93       	push	r28
    115e:	df 93       	push	r29
    1160:	00 d0       	rcall	.+0      	; 0x1162 <sensor_read+0xa>
    1162:	1f 92       	push	r1
    1164:	cd b7       	in	r28, 0x3d	; 61
    1166:	de b7       	in	r29, 0x3e	; 62
    1168:	80 91 d4 02 	lds	r24, 0x02D4	; 0x8002d4 <__data_end>
    116c:	82 30       	cpi	r24, 0x02	; 2
    116e:	09 f4       	brne	.+2      	; 0x1172 <sensor_read+0x1a>
    1170:	61 c0       	rjmp	.+194    	; 0x1234 <sensor_read+0xdc>
    1172:	28 f4       	brcc	.+10     	; 0x117e <sensor_read+0x26>
    1174:	88 23       	and	r24, r24
    1176:	51 f0       	breq	.+20     	; 0x118c <sensor_read+0x34>
    1178:	81 30       	cpi	r24, 0x01	; 1
    117a:	91 f1       	breq	.+100    	; 0x11e0 <sensor_read+0x88>
    117c:	f1 c0       	rjmp	.+482    	; 0x1360 <sensor_read+0x208>
    117e:	83 30       	cpi	r24, 0x03	; 3
    1180:	09 f4       	brne	.+2      	; 0x1184 <sensor_read+0x2c>
    1182:	7e c0       	rjmp	.+252    	; 0x1280 <sensor_read+0x128>
    1184:	84 30       	cpi	r24, 0x04	; 4
    1186:	09 f4       	brne	.+2      	; 0x118a <sensor_read+0x32>
    1188:	cc c0       	rjmp	.+408    	; 0x1322 <sensor_read+0x1ca>
    118a:	ea c0       	rjmp	.+468    	; 0x1360 <sensor_read+0x208>
    118c:	0e 94 0e 03 	call	0x61c	; 0x61c <bme280_readTemperature>
    1190:	60 93 a8 03 	sts	0x03A8, r22	; 0x8003a8 <BME280_temp>
    1194:	70 93 a9 03 	sts	0x03A9, r23	; 0x8003a9 <BME280_temp+0x1>
    1198:	80 93 aa 03 	sts	0x03AA, r24	; 0x8003aa <BME280_temp+0x2>
    119c:	90 93 ab 03 	sts	0x03AB, r25	; 0x8003ab <BME280_temp+0x3>
    11a0:	40 91 a8 03 	lds	r20, 0x03A8	; 0x8003a8 <BME280_temp>
    11a4:	50 91 a9 03 	lds	r21, 0x03A9	; 0x8003a9 <BME280_temp+0x1>
    11a8:	60 91 aa 03 	lds	r22, 0x03AA	; 0x8003aa <BME280_temp+0x2>
    11ac:	70 91 ab 03 	lds	r23, 0x03AB	; 0x8003ab <BME280_temp+0x3>
    11b0:	22 e0       	ldi	r18, 0x02	; 2
    11b2:	30 e0       	ldi	r19, 0x00	; 0
    11b4:	8a e9       	ldi	r24, 0x9A	; 154
    11b6:	93 e0       	ldi	r25, 0x03	; 3
    11b8:	0e 94 4c 12 	call	0x2498	; 0x2498 <ftoa>
    11bc:	81 ee       	ldi	r24, 0xE1	; 225
    11be:	91 e0       	ldi	r25, 0x01	; 1
    11c0:	0e 94 be 11 	call	0x237c	; 0x237c <uart_puts_p>
    11c4:	8a e9       	ldi	r24, 0x9A	; 154
    11c6:	93 e0       	ldi	r25, 0x03	; 3
    11c8:	0e 94 af 11 	call	0x235e	; 0x235e <uart_puts>
    11cc:	8d ed       	ldi	r24, 0xDD	; 221
    11ce:	91 e0       	ldi	r25, 0x01	; 1
    11d0:	0e 94 be 11 	call	0x237c	; 0x237c <uart_puts_p>
    11d4:	80 91 d4 02 	lds	r24, 0x02D4	; 0x8002d4 <__data_end>
    11d8:	8f 5f       	subi	r24, 0xFF	; 255
    11da:	80 93 d4 02 	sts	0x02D4, r24	; 0x8002d4 <__data_end>
    11de:	c2 c0       	rjmp	.+388    	; 0x1364 <sensor_read+0x20c>
    11e0:	0e 94 a5 03 	call	0x74a	; 0x74a <bme280_readHumidity>
    11e4:	60 93 ed 03 	sts	0x03ED, r22	; 0x8003ed <BME280_humid>
    11e8:	70 93 ee 03 	sts	0x03EE, r23	; 0x8003ee <BME280_humid+0x1>
    11ec:	80 93 ef 03 	sts	0x03EF, r24	; 0x8003ef <BME280_humid+0x2>
    11f0:	90 93 f0 03 	sts	0x03F0, r25	; 0x8003f0 <BME280_humid+0x3>
    11f4:	40 91 ed 03 	lds	r20, 0x03ED	; 0x8003ed <BME280_humid>
    11f8:	50 91 ee 03 	lds	r21, 0x03EE	; 0x8003ee <BME280_humid+0x1>
    11fc:	60 91 ef 03 	lds	r22, 0x03EF	; 0x8003ef <BME280_humid+0x2>
    1200:	70 91 f0 03 	lds	r23, 0x03F0	; 0x8003f0 <BME280_humid+0x3>
    1204:	22 e0       	ldi	r18, 0x02	; 2
    1206:	30 e0       	ldi	r19, 0x00	; 0
    1208:	81 ef       	ldi	r24, 0xF1	; 241
    120a:	93 e0       	ldi	r25, 0x03	; 3
    120c:	0e 94 4c 12 	call	0x2498	; 0x2498 <ftoa>
    1210:	8b ec       	ldi	r24, 0xCB	; 203
    1212:	91 e0       	ldi	r25, 0x01	; 1
    1214:	0e 94 be 11 	call	0x237c	; 0x237c <uart_puts_p>
    1218:	81 ef       	ldi	r24, 0xF1	; 241
    121a:	93 e0       	ldi	r25, 0x03	; 3
    121c:	0e 94 af 11 	call	0x235e	; 0x235e <uart_puts>
    1220:	87 ec       	ldi	r24, 0xC7	; 199
    1222:	91 e0       	ldi	r25, 0x01	; 1
    1224:	0e 94 be 11 	call	0x237c	; 0x237c <uart_puts_p>
    1228:	80 91 d4 02 	lds	r24, 0x02D4	; 0x8002d4 <__data_end>
    122c:	8f 5f       	subi	r24, 0xFF	; 255
    122e:	80 93 d4 02 	sts	0x02D4, r24	; 0x8002d4 <__data_end>
    1232:	98 c0       	rjmp	.+304    	; 0x1364 <sensor_read+0x20c>
    1234:	20 e0       	ldi	r18, 0x00	; 0
    1236:	47 e3       	ldi	r20, 0x37	; 55
    1238:	50 e0       	ldi	r21, 0x00	; 0
    123a:	68 e3       	ldi	r22, 0x38	; 56
    123c:	70 e0       	ldi	r23, 0x00	; 0
    123e:	86 e3       	ldi	r24, 0x36	; 54
    1240:	90 e0       	ldi	r25, 0x00	; 0
    1242:	0e 94 14 06 	call	0xc28	; 0xc28 <ow_set_bus>
    1246:	80 91 97 03 	lds	r24, 0x0397	; 0x800397 <nSensors>
    124a:	88 23       	and	r24, r24
    124c:	99 f0       	breq	.+38     	; 0x1274 <sensor_read+0x11c>
    124e:	10 e0       	ldi	r17, 0x00	; 0
    1250:	61 2f       	mov	r22, r17
    1252:	70 e0       	ldi	r23, 0x00	; 0
    1254:	66 0f       	add	r22, r22
    1256:	77 1f       	adc	r23, r23
    1258:	66 0f       	add	r22, r22
    125a:	77 1f       	adc	r23, r23
    125c:	66 0f       	add	r22, r22
    125e:	77 1f       	adc	r23, r23
    1260:	65 54       	subi	r22, 0x45	; 69
    1262:	7c 4f       	sbci	r23, 0xFC	; 252
    1264:	81 e0       	ldi	r24, 0x01	; 1
    1266:	0e 94 36 05 	call	0xa6c	; 0xa6c <DS18X20_start_meas>
    126a:	1f 5f       	subi	r17, 0xFF	; 255
    126c:	80 91 97 03 	lds	r24, 0x0397	; 0x800397 <nSensors>
    1270:	18 17       	cp	r17, r24
    1272:	70 f3       	brcs	.-36     	; 0x1250 <sensor_read+0xf8>
    1274:	80 91 d4 02 	lds	r24, 0x02D4	; 0x8002d4 <__data_end>
    1278:	8f 5f       	subi	r24, 0xFF	; 255
    127a:	80 93 d4 02 	sts	0x02D4, r24	; 0x8002d4 <__data_end>
    127e:	72 c0       	rjmp	.+228    	; 0x1364 <sensor_read+0x20c>
    1280:	20 e0       	ldi	r18, 0x00	; 0
    1282:	47 e3       	ldi	r20, 0x37	; 55
    1284:	50 e0       	ldi	r21, 0x00	; 0
    1286:	68 e3       	ldi	r22, 0x38	; 56
    1288:	70 e0       	ldi	r23, 0x00	; 0
    128a:	86 e3       	ldi	r24, 0x36	; 54
    128c:	90 e0       	ldi	r25, 0x00	; 0
    128e:	0e 94 14 06 	call	0xc28	; 0xc28 <ow_set_bus>
    1292:	80 91 97 03 	lds	r24, 0x0397	; 0x800397 <nSensors>
    1296:	88 23       	and	r24, r24
    1298:	f1 f1       	breq	.+124    	; 0x1316 <sensor_read+0x1be>
    129a:	10 e0       	ldi	r17, 0x00	; 0
    129c:	81 2f       	mov	r24, r17
    129e:	90 e0       	ldi	r25, 0x00	; 0
    12a0:	88 0f       	add	r24, r24
    12a2:	99 1f       	adc	r25, r25
    12a4:	88 0f       	add	r24, r24
    12a6:	99 1f       	adc	r25, r25
    12a8:	88 0f       	add	r24, r24
    12aa:	99 1f       	adc	r25, r25
    12ac:	9e 01       	movw	r18, r28
    12ae:	2d 5f       	subi	r18, 0xFD	; 253
    12b0:	3f 4f       	sbci	r19, 0xFF	; 255
    12b2:	ae 01       	movw	r20, r28
    12b4:	4e 5f       	subi	r20, 0xFE	; 254
    12b6:	5f 4f       	sbci	r21, 0xFF	; 255
    12b8:	be 01       	movw	r22, r28
    12ba:	6f 5f       	subi	r22, 0xFF	; 255
    12bc:	7f 4f       	sbci	r23, 0xFF	; 255
    12be:	85 54       	subi	r24, 0x45	; 69
    12c0:	9c 4f       	sbci	r25, 0xFC	; 252
    12c2:	0e 94 52 05 	call	0xaa4	; 0xaa4 <DS18X20_read_meas>
    12c6:	81 11       	cpse	r24, r1
    12c8:	21 c0       	rjmp	.+66     	; 0x130c <sensor_read+0x1b4>
    12ca:	81 2f       	mov	r24, r17
    12cc:	90 e0       	ldi	r25, 0x00	; 0
    12ce:	20 91 d5 02 	lds	r18, 0x02D5	; 0x8002d5 <DHW_sensor_ID>
    12d2:	30 91 d6 02 	lds	r19, 0x02D6	; 0x8002d6 <DHW_sensor_ID+0x1>
    12d6:	82 17       	cp	r24, r18
    12d8:	93 07       	cpc	r25, r19
    12da:	21 f4       	brne	.+8      	; 0x12e4 <sensor_read+0x18c>
    12dc:	85 eb       	ldi	r24, 0xB5	; 181
    12de:	91 e0       	ldi	r25, 0x01	; 1
    12e0:	0e 94 be 11 	call	0x237c	; 0x237c <uart_puts_p>
    12e4:	89 81       	ldd	r24, Y+1	; 0x01
    12e6:	90 e0       	ldi	r25, 0x00	; 0
    12e8:	0e 94 31 12 	call	0x2462	; 0x2462 <uart_puti>
    12ec:	8a 81       	ldd	r24, Y+2	; 0x02
    12ee:	90 e0       	ldi	r25, 0x00	; 0
    12f0:	0e 94 31 12 	call	0x2462	; 0x2462 <uart_puti>
    12f4:	83 eb       	ldi	r24, 0xB3	; 179
    12f6:	91 e0       	ldi	r25, 0x01	; 1
    12f8:	0e 94 be 11 	call	0x237c	; 0x237c <uart_puts_p>
    12fc:	8b 81       	ldd	r24, Y+3	; 0x03
    12fe:	90 e0       	ldi	r25, 0x00	; 0
    1300:	0e 94 31 12 	call	0x2462	; 0x2462 <uart_puti>
    1304:	81 eb       	ldi	r24, 0xB1	; 177
    1306:	91 e0       	ldi	r25, 0x01	; 1
    1308:	0e 94 be 11 	call	0x237c	; 0x237c <uart_puts_p>
    130c:	1f 5f       	subi	r17, 0xFF	; 255
    130e:	80 91 97 03 	lds	r24, 0x0397	; 0x800397 <nSensors>
    1312:	18 17       	cp	r17, r24
    1314:	18 f2       	brcs	.-122    	; 0x129c <sensor_read+0x144>
    1316:	80 91 d4 02 	lds	r24, 0x02D4	; 0x8002d4 <__data_end>
    131a:	8f 5f       	subi	r24, 0xFF	; 255
    131c:	80 93 d4 02 	sts	0x02D4, r24	; 0x8002d4 <__data_end>
    1320:	21 c0       	rjmp	.+66     	; 0x1364 <sensor_read+0x20c>
    1322:	0e 94 0d 11 	call	0x221a	; 0x221a <SPIInit>
    1326:	62 e0       	ldi	r22, 0x02	; 2
    1328:	87 e0       	ldi	r24, 0x07	; 7
    132a:	0e 94 21 11 	call	0x2242	; 0x2242 <SPIWrite>
    132e:	08 2f       	mov	r16, r24
    1330:	6f ef       	ldi	r22, 0xFF	; 255
    1332:	87 e0       	ldi	r24, 0x07	; 7
    1334:	0e 94 21 11 	call	0x2242	; 0x2242 <SPIWrite>
    1338:	18 2f       	mov	r17, r24
    133a:	8a ea       	ldi	r24, 0xAA	; 170
    133c:	91 e0       	ldi	r25, 0x01	; 1
    133e:	0e 94 be 11 	call	0x237c	; 0x237c <uart_puts_p>
    1342:	80 2f       	mov	r24, r16
    1344:	0e 94 28 12 	call	0x2450	; 0x2450 <uart_puthex_nibble>
    1348:	81 2f       	mov	r24, r17
    134a:	0e 94 28 12 	call	0x2450	; 0x2450 <uart_puthex_nibble>
    134e:	88 ea       	ldi	r24, 0xA8	; 168
    1350:	91 e0       	ldi	r25, 0x01	; 1
    1352:	0e 94 be 11 	call	0x237c	; 0x237c <uart_puts_p>
    1356:	0e 94 1c 11 	call	0x2238	; 0x2238 <SPIClose>
    135a:	10 92 d4 02 	sts	0x02D4, r1	; 0x8002d4 <__data_end>
    135e:	02 c0       	rjmp	.+4      	; 0x1364 <sensor_read+0x20c>
    1360:	10 92 d4 02 	sts	0x02D4, r1	; 0x8002d4 <__data_end>
    1364:	80 91 08 01 	lds	r24, 0x0108	; 0x800108 <menutimer>
    1368:	81 11       	cpse	r24, r1
    136a:	17 c0       	rjmp	.+46     	; 0x139a <sensor_read+0x242>
    136c:	0e 94 db 07 	call	0xfb6	; 0xfb6 <lcd_clrscr>
    1370:	8c e9       	ldi	r24, 0x9C	; 156
    1372:	91 e0       	ldi	r25, 0x01	; 1
    1374:	0e 94 7b 08 	call	0x10f6	; 0x10f6 <lcd_puts_hu>
    1378:	8a e9       	ldi	r24, 0x9A	; 154
    137a:	93 e0       	ldi	r25, 0x03	; 3
    137c:	0e 94 ff 07 	call	0xffe	; 0xffe <lcd_puts>
    1380:	61 e0       	ldi	r22, 0x01	; 1
    1382:	80 e0       	ldi	r24, 0x00	; 0
    1384:	0e 94 c5 07 	call	0xf8a	; 0xf8a <lcd_gotoxy>
    1388:	83 e9       	ldi	r24, 0x93	; 147
    138a:	91 e0       	ldi	r25, 0x01	; 1
    138c:	0e 94 7b 08 	call	0x10f6	; 0x10f6 <lcd_puts_hu>
    1390:	81 ea       	ldi	r24, 0xA1	; 161
    1392:	93 e0       	ldi	r25, 0x03	; 3
    1394:	0e 94 ff 07 	call	0xffe	; 0xffe <lcd_puts>
    1398:	05 c0       	rjmp	.+10     	; 0x13a4 <sensor_read+0x24c>
    139a:	80 91 08 01 	lds	r24, 0x0108	; 0x800108 <menutimer>
    139e:	81 50       	subi	r24, 0x01	; 1
    13a0:	80 93 08 01 	sts	0x0108, r24	; 0x800108 <menutimer>
    13a4:	36 9a       	sbi	0x06, 6	; 6
    13a6:	0f 90       	pop	r0
    13a8:	0f 90       	pop	r0
    13aa:	0f 90       	pop	r0
    13ac:	df 91       	pop	r29
    13ae:	cf 91       	pop	r28
    13b0:	1f 91       	pop	r17
    13b2:	0f 91       	pop	r16
    13b4:	08 95       	ret

000013b6 <__vector_12>:
    13b6:	1f 92       	push	r1
    13b8:	0f 92       	push	r0
    13ba:	0f b6       	in	r0, 0x3f	; 63
    13bc:	0f 92       	push	r0
    13be:	11 24       	eor	r1, r1
    13c0:	2f 93       	push	r18
    13c2:	3f 93       	push	r19
    13c4:	4f 93       	push	r20
    13c6:	5f 93       	push	r21
    13c8:	6f 93       	push	r22
    13ca:	7f 93       	push	r23
    13cc:	8f 93       	push	r24
    13ce:	9f 93       	push	r25
    13d0:	af 93       	push	r26
    13d2:	bf 93       	push	r27
    13d4:	ef 93       	push	r30
    13d6:	ff 93       	push	r31
    13d8:	0e 94 ac 08 	call	0x1158	; 0x1158 <sensor_read>
    13dc:	ff 91       	pop	r31
    13de:	ef 91       	pop	r30
    13e0:	bf 91       	pop	r27
    13e2:	af 91       	pop	r26
    13e4:	9f 91       	pop	r25
    13e6:	8f 91       	pop	r24
    13e8:	7f 91       	pop	r23
    13ea:	6f 91       	pop	r22
    13ec:	5f 91       	pop	r21
    13ee:	4f 91       	pop	r20
    13f0:	3f 91       	pop	r19
    13f2:	2f 91       	pop	r18
    13f4:	0f 90       	pop	r0
    13f6:	0f be       	out	0x3f, r0	; 63
    13f8:	0f 90       	pop	r0
    13fa:	1f 90       	pop	r1
    13fc:	18 95       	reti

000013fe <search_sensors>:
    13fe:	df 92       	push	r13
    1400:	ef 92       	push	r14
    1402:	ff 92       	push	r15
    1404:	0f 93       	push	r16
    1406:	1f 93       	push	r17
    1408:	cf 93       	push	r28
    140a:	df 93       	push	r29
    140c:	cd b7       	in	r28, 0x3d	; 61
    140e:	de b7       	in	r29, 0x3e	; 62
    1410:	29 97       	sbiw	r28, 0x09	; 9
    1412:	0f b6       	in	r0, 0x3f	; 63
    1414:	f8 94       	cli
    1416:	de bf       	out	0x3e, r29	; 62
    1418:	0f be       	out	0x3f, r0	; 63
    141a:	cd bf       	out	0x3d, r28	; 61
    141c:	81 e8       	ldi	r24, 0x81	; 129
    141e:	91 e0       	ldi	r25, 0x01	; 1
    1420:	0e 94 be 11 	call	0x237c	; 0x237c <uart_puts_p>
    1424:	8f ef       	ldi	r24, 0xFF	; 255
    1426:	89 87       	std	Y+9, r24	; 0x09
    1428:	0f 2e       	mov	r0, r31
    142a:	fb eb       	ldi	r31, 0xBB	; 187
    142c:	ef 2e       	mov	r14, r31
    142e:	f3 e0       	ldi	r31, 0x03	; 3
    1430:	ff 2e       	mov	r15, r31
    1432:	f0 2d       	mov	r31, r0
    1434:	d1 2c       	mov	r13, r1
    1436:	8e 01       	movw	r16, r28
    1438:	07 5f       	subi	r16, 0xF7	; 247
    143a:	1f 4f       	sbci	r17, 0xFF	; 255
    143c:	be 01       	movw	r22, r28
    143e:	6f 5f       	subi	r22, 0xFF	; 255
    1440:	7f 4f       	sbci	r23, 0xFF	; 255
    1442:	c8 01       	movw	r24, r16
    1444:	0e 94 1d 05 	call	0xa3a	; 0xa3a <DS18X20_find_sensor>
    1448:	99 85       	ldd	r25, Y+9	; 0x09
    144a:	9f 3f       	cpi	r25, 0xFF	; 255
    144c:	29 f4       	brne	.+10     	; 0x1458 <search_sensors+0x5a>
    144e:	80 e7       	ldi	r24, 0x70	; 112
    1450:	91 e0       	ldi	r25, 0x01	; 1
    1452:	0e 94 be 11 	call	0x237c	; 0x237c <uart_puts_p>
    1456:	18 c0       	rjmp	.+48     	; 0x1488 <search_sensors+0x8a>
    1458:	9e 3f       	cpi	r25, 0xFE	; 254
    145a:	29 f4       	brne	.+10     	; 0x1466 <search_sensors+0x68>
    145c:	85 e6       	ldi	r24, 0x65	; 101
    145e:	91 e0       	ldi	r25, 0x01	; 1
    1460:	0e 94 be 11 	call	0x237c	; 0x237c <uart_puts_p>
    1464:	11 c0       	rjmp	.+34     	; 0x1488 <search_sensors+0x8a>
    1466:	fe 01       	movw	r30, r28
    1468:	31 96       	adiw	r30, 0x01	; 1
    146a:	d7 01       	movw	r26, r14
    146c:	81 91       	ld	r24, Z+
    146e:	8d 93       	st	X+, r24
    1470:	e0 17       	cp	r30, r16
    1472:	f1 07       	cpc	r31, r17
    1474:	d9 f7       	brne	.-10     	; 0x146c <search_sensors+0x6e>
    1476:	d3 94       	inc	r13
    1478:	99 23       	and	r25, r25
    147a:	31 f0       	breq	.+12     	; 0x1488 <search_sensors+0x8a>
    147c:	88 e0       	ldi	r24, 0x08	; 8
    147e:	e8 0e       	add	r14, r24
    1480:	f1 1c       	adc	r15, r1
    1482:	86 e0       	ldi	r24, 0x06	; 6
    1484:	d8 12       	cpse	r13, r24
    1486:	da cf       	rjmp	.-76     	; 0x143c <search_sensors+0x3e>
    1488:	60 e1       	ldi	r22, 0x10	; 16
    148a:	7e ea       	ldi	r23, 0xAE	; 174
    148c:	88 e2       	ldi	r24, 0x28	; 40
    148e:	90 e0       	ldi	r25, 0x00	; 0
    1490:	0e 94 c5 04 	call	0x98a	; 0x98a <delayloop32>
    1494:	8d 2d       	mov	r24, r13
    1496:	29 96       	adiw	r28, 0x09	; 9
    1498:	0f b6       	in	r0, 0x3f	; 63
    149a:	f8 94       	cli
    149c:	de bf       	out	0x3e, r29	; 62
    149e:	0f be       	out	0x3f, r0	; 63
    14a0:	cd bf       	out	0x3d, r28	; 61
    14a2:	df 91       	pop	r29
    14a4:	cf 91       	pop	r28
    14a6:	1f 91       	pop	r17
    14a8:	0f 91       	pop	r16
    14aa:	ff 90       	pop	r15
    14ac:	ef 90       	pop	r14
    14ae:	df 90       	pop	r13
    14b0:	08 95       	ret

000014b2 <switch_on_PWM_for_DHW_pump>:
    14b2:	08 95       	ret

000014b4 <switch_off_PWM_for_DHW_pump>:
    14b4:	08 95       	ret

000014b6 <SwitchPump>:
    14b6:	0e 94 0d 11 	call	0x221a	; 0x221a <SPIInit>
    14ba:	60 91 ac 03 	lds	r22, 0x03AC	; 0x8003ac <Pump_relays>
    14be:	82 e0       	ldi	r24, 0x02	; 2
    14c0:	0e 94 21 11 	call	0x2242	; 0x2242 <SPIWrite>
    14c4:	0e 94 1c 11 	call	0x2238	; 0x2238 <SPIClose>
    14c8:	08 95       	ret

000014ca <main>:
}

int main(void)
{
	lcd_init(LCD_DISP_ON);
    14ca:	8c e0       	ldi	r24, 0x0C	; 12
    14cc:	0e 94 21 08 	call	0x1042	; 0x1042 <lcd_init>
	menuInit();
    14d0:	0e 94 78 0b 	call	0x16f0	; 0x16f0 <menuInit>
	uart_init( UART_BAUD_SELECT(UART_BAUD_RATE,F_CPU) );
    14d4:	87 e6       	ldi	r24, 0x67	; 103
    14d6:	90 e0       	ldi	r25, 0x00	; 0
    14d8:	0e 94 88 11 	call	0x2310	; 0x2310 <uart_init>

	DDRF &= ~(1 << PINF0); //ADC input
    14dc:	a1 e6       	ldi	r26, 0x61	; 97
    14de:	b0 e0       	ldi	r27, 0x00	; 0
    14e0:	8c 91       	ld	r24, X
    14e2:	8e 7f       	andi	r24, 0xFE	; 254
    14e4:	8c 93       	st	X, r24
	PORTF &= ~(1 << PINF0);
    14e6:	e2 e6       	ldi	r30, 0x62	; 98
    14e8:	f0 e0       	ldi	r31, 0x00	; 0
    14ea:	80 81       	ld	r24, Z
    14ec:	8e 7f       	andi	r24, 0xFE	; 254
    14ee:	80 83       	st	Z, r24
	
	BUZZER_DDR |= (1 << BUZZER_PIN);
    14f0:	a0 9a       	sbi	0x14, 0	; 20
	
	THERMOSTAT_DDR &= ~(1 << FIRST_THERMO_PIN)|(1 << SECOND_THERMO_PIN);
    14f2:	8c 91       	ld	r24, X
    14f4:	8d 7f       	andi	r24, 0xFD	; 253
    14f6:	8c 93       	st	X, r24
	THERMOSTAT_PORT |= (1 << FIRST_THERMO_PIN)|(1 << SECOND_THERMO_PIN);
    14f8:	80 81       	ld	r24, Z
    14fa:	86 60       	ori	r24, 0x06	; 6
    14fc:	80 83       	st	Z, r24
	
	i2c_init();
    14fe:	0e 94 fd 06 	call	0xdfa	; 0xdfa <i2c_init>
	init_BME280(); //BMP 280
    1502:	0e 94 ea 02 	call	0x5d4	; 0x5d4 <init_BME280>

	uart_puts_p(PSTR("Timer initiated\n"));
    1506:	84 e5       	ldi	r24, 0x54	; 84
    1508:	91 e0       	ldi	r25, 0x01	; 1
    150a:	0e 94 be 11 	call	0x237c	; 0x237c <uart_puts_p>
	sei();
    150e:	78 94       	sei
	uart_puts_p(PSTR("Interrupt enabled\n"));
    1510:	81 e4       	ldi	r24, 0x41	; 65
    1512:	91 e0       	ldi	r25, 0x01	; 1
    1514:	0e 94 be 11 	call	0x237c	; 0x237c <uart_puts_p>
	//reset watchdog
	//wdt_reset();
	//WDTCR = (1<<WDE);
	//WDTCR = (1<<WDP2)|(1<<WDP1)|(1<<WDP0);
	
	ow_set_bus(&PINB,&PORTB,&DDRB,PINB0);
    1518:	20 e0       	ldi	r18, 0x00	; 0
    151a:	47 e3       	ldi	r20, 0x37	; 55
    151c:	50 e0       	ldi	r21, 0x00	; 0
    151e:	68 e3       	ldi	r22, 0x38	; 56
    1520:	70 e0       	ldi	r23, 0x00	; 0
    1522:	86 e3       	ldi	r24, 0x36	; 54
    1524:	90 e0       	ldi	r25, 0x00	; 0
    1526:	0e 94 14 06 	call	0xc28	; 0xc28 <ow_set_bus>
	nSensors = search_sensors();
    152a:	0e 94 ff 09 	call	0x13fe	; 0x13fe <search_sensors>
    152e:	80 93 97 03 	sts	0x0397, r24	; 0x800397 <nSensors>
		
	uart_puts_P("Found "); uart_puti(nSensors); uart_puts_P(" DS18B20 sensors\n");
    1532:	8a e3       	ldi	r24, 0x3A	; 58
    1534:	91 e0       	ldi	r25, 0x01	; 1
    1536:	0e 94 be 11 	call	0x237c	; 0x237c <uart_puts_p>
    153a:	80 91 97 03 	lds	r24, 0x0397	; 0x800397 <nSensors>
    153e:	90 e0       	ldi	r25, 0x00	; 0
    1540:	0e 94 31 12 	call	0x2462	; 0x2462 <uart_puti>
    1544:	88 e2       	ldi	r24, 0x28	; 40
    1546:	91 e0       	ldi	r25, 0x01	; 1
    1548:	0e 94 be 11 	call	0x237c	; 0x237c <uart_puts_p>

	SPIInit();
    154c:	0e 94 0d 11 	call	0x221a	; 0x221a <SPIInit>
	
	DDRA |= (1 << MAX31865_1_CS_PIN);
    1550:	d7 9a       	sbi	0x1a, 7	; 26
	SPIWrite(MAX31865_1_CS_PIN, WRITE_CONFIG);
    1552:	60 e8       	ldi	r22, 0x80	; 128
    1554:	87 e0       	ldi	r24, 0x07	; 7
    1556:	0e 94 21 11 	call	0x2242	; 0x2242 <SPIWrite>
	SPIWrite(MAX31865_1_CS_PIN, 0xD1);
    155a:	61 ed       	ldi	r22, 0xD1	; 209
    155c:	87 e0       	ldi	r24, 0x07	; 7
    155e:	0e 94 21 11 	call	0x2242	; 0x2242 <SPIWrite>
	#else
		//round up by default
		__ticks_dc = (uint32_t)(ceil(fabs(__tmp)));
	#endif

	__builtin_avr_delay_cycles(__ticks_dc);
    1562:	8f e8       	ldi	r24, 0x8F	; 143
    1564:	91 e0       	ldi	r25, 0x01	; 1
    1566:	01 97       	sbiw	r24, 0x01	; 1
    1568:	f1 f7       	brne	.-4      	; 0x1566 <main+0x9c>
    156a:	00 c0       	rjmp	.+0      	; 0x156c <main+0xa2>
    156c:	00 00       	nop
	
	_delay_us(100);
	char temp1;
	char temp2;
	temp1 = SPIWrite(MAX31865_1_CS_PIN, READ_CONFIG);
    156e:	60 e0       	ldi	r22, 0x00	; 0
    1570:	87 e0       	ldi	r24, 0x07	; 7
    1572:	0e 94 21 11 	call	0x2242	; 0x2242 <SPIWrite>
    1576:	d8 2f       	mov	r29, r24
	temp2 = SPIWrite(MAX31865_1_CS_PIN, 0xFF);
    1578:	6f ef       	ldi	r22, 0xFF	; 255
    157a:	87 e0       	ldi	r24, 0x07	; 7
    157c:	0e 94 21 11 	call	0x2242	; 0x2242 <SPIWrite>
    1580:	c8 2f       	mov	r28, r24
	
	uart_puts_P("MAX: ");
    1582:	82 e2       	ldi	r24, 0x22	; 34
    1584:	91 e0       	ldi	r25, 0x01	; 1
    1586:	0e 94 be 11 	call	0x237c	; 0x237c <uart_puts_p>
	uart_puthex_nibble(temp1); uart_puthex_nibble(temp2);
    158a:	8d 2f       	mov	r24, r29
    158c:	0e 94 28 12 	call	0x2450	; 0x2450 <uart_puthex_nibble>
    1590:	8c 2f       	mov	r24, r28
    1592:	0e 94 28 12 	call	0x2450	; 0x2450 <uart_puthex_nibble>
	uart_puts_P("\n");	
    1596:	80 e2       	ldi	r24, 0x20	; 32
    1598:	91 e0       	ldi	r25, 0x01	; 1
    159a:	0e 94 be 11 	call	0x237c	; 0x237c <uart_puts_p>
	
	
	DDRA |= (1 << PINA2);
    159e:	d2 9a       	sbi	0x1a, 2	; 26
    15a0:	95 e0       	ldi	r25, 0x05	; 5
    15a2:	9a 95       	dec	r25
    15a4:	f1 f7       	brne	.-4      	; 0x15a2 <main+0xd8>
    15a6:	00 00       	nop
	_delay_us(1);
	SPIWrite(2, 0x55);
    15a8:	65 e5       	ldi	r22, 0x55	; 85
    15aa:	82 e0       	ldi	r24, 0x02	; 2
    15ac:	0e 94 21 11 	call	0x2242	; 0x2242 <SPIWrite>
	
	SPIClose();
    15b0:	0e 94 1c 11 	call	0x2238	; 0x2238 <SPIClose>
	

	TCCR3A |= (1 << WGM30)|(1<<COM3C1);
    15b4:	eb e8       	ldi	r30, 0x8B	; 139
    15b6:	f0 e0       	ldi	r31, 0x00	; 0
    15b8:	80 81       	ld	r24, Z
    15ba:	89 60       	ori	r24, 0x09	; 9
    15bc:	80 83       	st	Z, r24
	TCCR3B |= (1 << WGM32)|(1 << CS30)|(1 << CS31);
    15be:	ea e8       	ldi	r30, 0x8A	; 138
    15c0:	f0 e0       	ldi	r31, 0x00	; 0
    15c2:	80 81       	ld	r24, Z
    15c4:	8b 60       	ori	r24, 0x0B	; 11
    15c6:	80 83       	st	Z, r24
	OCR3C = 128;
    15c8:	80 e8       	ldi	r24, 0x80	; 128
    15ca:	90 e0       	ldi	r25, 0x00	; 0
    15cc:	90 93 83 00 	sts	0x0083, r25	; 0x800083 <__TEXT_REGION_LENGTH__+0x7e0083>
    15d0:	80 93 82 00 	sts	0x0082, r24	; 0x800082 <__TEXT_REGION_LENGTH__+0x7e0082>
	DDRE |= (1 << PINE5);	//LCD led PWM
    15d4:	15 9a       	sbi	0x02, 5	; 2
	PORTE |= (1 << PINE5);	//LCD led PWM
    15d6:	1d 9a       	sbi	0x03, 5	; 3
	
	TCCR1B |= (1 << CS12);
    15d8:	8e b5       	in	r24, 0x2e	; 46
    15da:	84 60       	ori	r24, 0x04	; 4
    15dc:	8e bd       	out	0x2e, r24	; 46
	TCNT1 = 0;
    15de:	1d bc       	out	0x2d, r1	; 45
    15e0:	1c bc       	out	0x2c, r1	; 44
	OCR1A = 62500;//14400; // 1000ms
    15e2:	84 e2       	ldi	r24, 0x24	; 36
    15e4:	94 ef       	ldi	r25, 0xF4	; 244
    15e6:	9b bd       	out	0x2b, r25	; 43
    15e8:	8a bd       	out	0x2a, r24	; 42
	TIMSK |= (1 << OCIE1A);
    15ea:	87 b7       	in	r24, 0x37	; 55
    15ec:	80 61       	ori	r24, 0x10	; 16
    15ee:	87 bf       	out	0x37, r24	; 55

	//ADMUX |= (1<<REFS0) | (1<< REFS1);
	ADCSRA |= (1 << ADEN)|(1<<ADIE)|(1<<ADSC)|(1<<ADPS0)|(1<<ADPS1)|(1<<ADPS2);
    15f0:	86 b1       	in	r24, 0x06	; 6
    15f2:	8f 6c       	ori	r24, 0xCF	; 207
    15f4:	86 b9       	out	0x06, r24	; 6
	
	while(1)
	{
		menuPollButtons();
    15f6:	0e 94 7d 0b 	call	0x16fa	; 0x16fa <menuPollButtons>
    15fa:	fd cf       	rjmp	.-6      	; 0x15f6 <main+0x12c>

000015fc <renderMenu>:
}

/*************************************************************************
 Basic render menu function, responsible for rendering the menu
*************************************************************************/
static void renderMenu(){
    15fc:	ef 92       	push	r14
    15fe:	ff 92       	push	r15
    1600:	0f 93       	push	r16
    1602:	1f 93       	push	r17
    1604:	cf 93       	push	r28
    1606:	df 93       	push	r29
	lcd_clrscr();
    1608:	0e 94 db 07 	call	0xfb6	; 0xfb6 <lcd_clrscr>

	MENU_ITEM *items = menuItemsGetHomeMenu();
    160c:	0e 94 01 11 	call	0x2202	; 0x2202 <menuItemsGetHomeMenu>
    1610:	ec 01       	movw	r28, r24
	uint8_t max_options = menuItemsGetHomeMenuSize();
    1612:	0e 94 04 11 	call	0x2208	; 0x2208 <menuItemsGetHomeMenuSize>

	if(current_state->level != MENU_LEVEL_1){
    1616:	e0 91 1d 01 	lds	r30, 0x011D	; 0x80011d <current_state>
    161a:	f0 91 1e 01 	lds	r31, 0x011E	; 0x80011e <current_state+0x1>
    161e:	96 81       	ldd	r25, Z+6	; 0x06
    1620:	99 23       	and	r25, r25
    1622:	a1 f0       	breq	.+40     	; 0x164c <renderMenu+0x50>
		MENU_ITEM *previous_item = menu_states[current_state->prev_state->level].current_item;
    1624:	a0 81       	ld	r26, Z
    1626:	b1 81       	ldd	r27, Z+1	; 0x01
    1628:	16 96       	adiw	r26, 0x06	; 6
    162a:	ac 91       	ld	r26, X
    162c:	87 e0       	ldi	r24, 0x07	; 7
    162e:	a8 9f       	mul	r26, r24
    1630:	d0 01       	movw	r26, r0
    1632:	11 24       	eor	r1, r1
    1634:	a1 5e       	subi	r26, 0xE1	; 225
    1636:	be 4f       	sbci	r27, 0xFE	; 254
    1638:	12 96       	adiw	r26, 0x02	; 2
    163a:	0d 90       	ld	r0, X+
    163c:	bc 91       	ld	r27, X
    163e:	a0 2d       	mov	r26, r0
		items = previous_item->submenu;
    1640:	17 96       	adiw	r26, 0x07	; 7
    1642:	cd 91       	ld	r28, X+
    1644:	dc 91       	ld	r29, X
    1646:	18 97       	sbiw	r26, 0x08	; 8
		max_options = previous_item->submenu_length;
    1648:	16 96       	adiw	r26, 0x06	; 6
    164a:	8c 91       	ld	r24, X
	}

	uint8_t first_item = current_state->current_item_idx - current_state->cursor_line;
    164c:	24 81       	ldd	r18, Z+4	; 0x04
    164e:	95 81       	ldd	r25, Z+5	; 0x05
    1650:	29 1b       	sub	r18, r25

	for(int i=0; i<max_options && i<LCD_LINES; i++){
    1652:	e8 2e       	mov	r14, r24
    1654:	f1 2c       	mov	r15, r1
    1656:	1e 14       	cp	r1, r14
    1658:	1f 04       	cpc	r1, r15
    165a:	a4 f5       	brge	.+104    	; 0x16c4 <renderMenu+0xc8>
    165c:	30 e0       	ldi	r19, 0x00	; 0
    165e:	89 01       	movw	r16, r18
    1660:	00 0f       	add	r16, r16
    1662:	11 1f       	adc	r17, r17
    1664:	00 0f       	add	r16, r16
    1666:	11 1f       	adc	r17, r17
    1668:	00 0f       	add	r16, r16
    166a:	11 1f       	adc	r17, r17
    166c:	20 0f       	add	r18, r16
    166e:	31 1f       	adc	r19, r17
    1670:	8e 01       	movw	r16, r28
    1672:	02 0f       	add	r16, r18
    1674:	13 1f       	adc	r17, r19
    1676:	c0 e0       	ldi	r28, 0x00	; 0
    1678:	d0 e0       	ldi	r29, 0x00	; 0
		lcd_gotoxy(0, i);
    167a:	6c 2f       	mov	r22, r28
    167c:	80 e0       	ldi	r24, 0x00	; 0
    167e:	0e 94 c5 07 	call	0xf8a	; 0xf8a <lcd_gotoxy>
		if(i==current_state->cursor_line) lcd_putc('>');
    1682:	e0 91 1d 01 	lds	r30, 0x011D	; 0x80011d <current_state>
    1686:	f0 91 1e 01 	lds	r31, 0x011E	; 0x80011e <current_state+0x1>
    168a:	85 81       	ldd	r24, Z+5	; 0x05
    168c:	90 e0       	ldi	r25, 0x00	; 0
    168e:	8c 17       	cp	r24, r28
    1690:	9d 07       	cpc	r25, r29
    1692:	21 f4       	brne	.+8      	; 0x169c <renderMenu+0xa0>
    1694:	8e e3       	ldi	r24, 0x3E	; 62
    1696:	0e 94 df 07 	call	0xfbe	; 0xfbe <lcd_putc>
    169a:	03 c0       	rjmp	.+6      	; 0x16a2 <renderMenu+0xa6>
		else lcd_putc(' ');
    169c:	80 e2       	ldi	r24, 0x20	; 32
    169e:	0e 94 df 07 	call	0xfbe	; 0xfbe <lcd_putc>
		lcd_putc(' ');
    16a2:	80 e2       	ldi	r24, 0x20	; 32
    16a4:	0e 94 df 07 	call	0xfbe	; 0xfbe <lcd_putc>
		lcd_puts(items[first_item+i].title);
    16a8:	f8 01       	movw	r30, r16
    16aa:	80 81       	ld	r24, Z
    16ac:	91 81       	ldd	r25, Z+1	; 0x01
    16ae:	0e 94 ff 07 	call	0xffe	; 0xffe <lcd_puts>
		max_options = previous_item->submenu_length;
	}

	uint8_t first_item = current_state->current_item_idx - current_state->cursor_line;

	for(int i=0; i<max_options && i<LCD_LINES; i++){
    16b2:	21 96       	adiw	r28, 0x01	; 1
    16b4:	ce 15       	cp	r28, r14
    16b6:	df 05       	cpc	r29, r15
    16b8:	29 f0       	breq	.+10     	; 0x16c4 <renderMenu+0xc8>
    16ba:	07 5f       	subi	r16, 0xF7	; 247
    16bc:	1f 4f       	sbci	r17, 0xFF	; 255
    16be:	c4 30       	cpi	r28, 0x04	; 4
    16c0:	d1 05       	cpc	r29, r1
    16c2:	d9 f6       	brne	.-74     	; 0x167a <renderMenu+0x7e>
		if(i==current_state->cursor_line) lcd_putc('>');
		else lcd_putc(' ');
		lcd_putc(' ');
		lcd_puts(items[first_item+i].title);
	}
}
    16c4:	df 91       	pop	r29
    16c6:	cf 91       	pop	r28
    16c8:	1f 91       	pop	r17
    16ca:	0f 91       	pop	r16
    16cc:	ff 90       	pop	r15
    16ce:	ef 90       	pop	r14
    16d0:	08 95       	ret

000016d2 <menuReset>:
/*
** Public functions accessible from .h file
*/

void menuReset(){
	current_state = &menu_states[MENU_LEVEL_1];
    16d2:	ef e1       	ldi	r30, 0x1F	; 31
    16d4:	f1 e0       	ldi	r31, 0x01	; 1
    16d6:	f0 93 1e 01 	sts	0x011E, r31	; 0x80011e <current_state+0x1>
    16da:	e0 93 1d 01 	sts	0x011D, r30	; 0x80011d <current_state>
*/
/*************************************************************************
 Helpers for setting the state properties
*************************************************************************/
static void setState(MENU_STATE *state, MENU_STATE *new_prev_state, MENU_ITEM *new_current_item, uint8_t new_current_item_idx, uint8_t new_cursor_line){
	state->prev_state = new_prev_state;
    16de:	11 82       	std	Z+1, r1	; 0x01
    16e0:	10 82       	st	Z, r1
	state->current_item = new_current_item;
    16e2:	13 82       	std	Z+3, r1	; 0x03
    16e4:	12 82       	std	Z+2, r1	; 0x02
	state->current_item_idx = new_current_item_idx;
    16e6:	14 82       	std	Z+4, r1	; 0x04
	state->cursor_line = new_cursor_line;
    16e8:	15 82       	std	Z+5, r1	; 0x05
*/

void menuReset(){
	current_state = &menu_states[MENU_LEVEL_1];
	resetState(current_state);
	renderMenu();
    16ea:	0e 94 fe 0a 	call	0x15fc	; 0x15fc <renderMenu>
    16ee:	08 95       	ret

000016f0 <menuInit>:
}

void menuInit(){
	menuPortsioInit();
    16f0:	0e 94 06 11 	call	0x220c	; 0x220c <menuPortsioInit>
	menuReset();
    16f4:	0e 94 69 0b 	call	0x16d2	; 0x16d2 <menuReset>
    16f8:	08 95       	ret

000016fa <menuPollButtons>:
}

void menuPollButtons(){
    16fa:	6f 92       	push	r6
    16fc:	7f 92       	push	r7
    16fe:	8f 92       	push	r8
    1700:	9f 92       	push	r9
    1702:	af 92       	push	r10
    1704:	bf 92       	push	r11
    1706:	cf 92       	push	r12
    1708:	df 92       	push	r13
    170a:	ef 92       	push	r14
    170c:	ff 92       	push	r15
    170e:	0f 93       	push	r16
    1710:	1f 93       	push	r17
    1712:	cf 93       	push	r28
    1714:	df 93       	push	r29
    1716:	c9 e0       	ldi	r28, 0x09	; 9
    1718:	d1 e0       	ldi	r29, 0x01	; 1
    171a:	0d e1       	ldi	r16, 0x1D	; 29
    171c:	11 e0       	ldi	r17, 0x01	; 1
	for(uint8_t i=0; i<MENU_BUTTON_ROLE_COUNT; i++){
		MENU_BUTTON *b = &menu_buttons[i];

		b->state = (b->state << 1) | !((MENU_PORTSIO_PIN) & (1<<(b->button_PIN))) | 0XE000;
    171e:	aa 24       	eor	r10, r10
    1720:	a3 94       	inc	r10
    1722:	b1 2c       	mov	r11, r1
    1724:	81 2c       	mov	r8, r1
    1726:	91 2c       	mov	r9, r1
		
		if(b->state == 0xF000){
			b->pressed = true;
    1728:	66 24       	eor	r6, r6
    172a:	63 94       	inc	r6
			menutimer = 10;
    172c:	0f 2e       	mov	r0, r31
    172e:	fa e0       	ldi	r31, 0x0A	; 10
    1730:	7f 2e       	mov	r7, r31
    1732:	f0 2d       	mov	r31, r0

			MENU_ITEM *item = &items[current_state->current_item_idx];
			MENU_STATE *prev_state = current_state;
			if(item->render_callback){
				prev_state->current_item = item;
				current_state = &menu_states[MENU_CALLBACK];
    1734:	0f 2e       	mov	r0, r31
    1736:	fb e3       	ldi	r31, 0x3B	; 59
    1738:	cf 2e       	mov	r12, r31
    173a:	f1 e0       	ldi	r31, 0x01	; 1
    173c:	df 2e       	mov	r13, r31
    173e:	f0 2d       	mov	r31, r0
*/
/*************************************************************************
 Helpers for setting the state properties
*************************************************************************/
static void setState(MENU_STATE *state, MENU_STATE *new_prev_state, MENU_ITEM *new_current_item, uint8_t new_current_item_idx, uint8_t new_cursor_line){
	state->prev_state = new_prev_state;
    1740:	0f 2e       	mov	r0, r31
    1742:	ff e1       	ldi	r31, 0x1F	; 31
    1744:	ef 2e       	mov	r14, r31
    1746:	f1 e0       	ldi	r31, 0x01	; 1
    1748:	ff 2e       	mov	r15, r31
    174a:	f0 2d       	mov	r31, r0
    174c:	de 01       	movw	r26, r28

void menuPollButtons(){
	for(uint8_t i=0; i<MENU_BUTTON_ROLE_COUNT; i++){
		MENU_BUTTON *b = &menu_buttons[i];

		b->state = (b->state << 1) | !((MENU_PORTSIO_PIN) & (1<<(b->button_PIN))) | 0XE000;
    174e:	20 b3       	in	r18, 0x10	; 16
    1750:	30 e0       	ldi	r19, 0x00	; 0
    1752:	09 80       	ldd	r0, Y+1	; 0x01
    1754:	02 c0       	rjmp	.+4      	; 0x175a <menuPollButtons+0x60>
    1756:	35 95       	asr	r19
    1758:	27 95       	ror	r18
    175a:	0a 94       	dec	r0
    175c:	e2 f7       	brpl	.-8      	; 0x1756 <menuPollButtons+0x5c>
    175e:	8a 2d       	mov	r24, r10
    1760:	9b 2d       	mov	r25, r11
    1762:	20 ff       	sbrs	r18, 0
    1764:	02 c0       	rjmp	.+4      	; 0x176a <menuPollButtons+0x70>
    1766:	88 2d       	mov	r24, r8
    1768:	99 2d       	mov	r25, r9
    176a:	12 96       	adiw	r26, 0x02	; 2
    176c:	2d 91       	ld	r18, X+
    176e:	3c 91       	ld	r19, X
    1770:	13 97       	sbiw	r26, 0x03	; 3
    1772:	22 0f       	add	r18, r18
    1774:	33 1f       	adc	r19, r19
    1776:	30 6e       	ori	r19, 0xE0	; 224
    1778:	28 2b       	or	r18, r24
    177a:	39 2b       	or	r19, r25
    177c:	13 96       	adiw	r26, 0x03	; 3
    177e:	3c 93       	st	X, r19
    1780:	2e 93       	st	-X, r18
    1782:	12 97       	sbiw	r26, 0x02	; 2
		
		if(b->state == 0xF000){
    1784:	21 15       	cp	r18, r1
    1786:	30 4f       	sbci	r19, 0xF0	; 240
    1788:	09 f0       	breq	.+2      	; 0x178c <menuPollButtons+0x92>
    178a:	07 c1       	rjmp	.+526    	; 0x199a <menuPollButtons+0x2a0>
			b->pressed = true;
    178c:	14 96       	adiw	r26, 0x04	; 4
    178e:	6c 92       	st	X, r6
    1790:	14 97       	sbiw	r26, 0x04	; 4
			menutimer = 10;
    1792:	70 92 08 01 	sts	0x0108, r7	; 0x800108 <menutimer>
			BUZZER_PORT |= (1 << BUZZER_PIN);
    1796:	a8 9a       	sbi	0x15, 0	; 21
			if(current_state->level != MENU_CALLBACK){
    1798:	40 91 1d 01 	lds	r20, 0x011D	; 0x80011d <current_state>
    179c:	50 91 1e 01 	lds	r21, 0x011E	; 0x80011e <current_state+0x1>
    17a0:	fa 01       	movw	r30, r20
    17a2:	96 81       	ldd	r25, Z+6	; 0x06
    17a4:	94 30       	cpi	r25, 0x04	; 4
    17a6:	09 f4       	brne	.+2      	; 0x17aa <menuPollButtons+0xb0>
    17a8:	d3 c0       	rjmp	.+422    	; 0x1950 <menuPollButtons+0x256>

/***************************************************************************************
 Function to handle basic btn clicks (Executed when menu is not in CALLBACK state)
***************************************************************************************/
static void scrollMenu(MENU_BUTTON *button){
	switch(button->role){
    17aa:	8c 91       	ld	r24, X
    17ac:	81 30       	cpi	r24, 0x01	; 1
    17ae:	c1 f0       	breq	.+48     	; 0x17e0 <menuPollButtons+0xe6>
    17b0:	38 f0       	brcs	.+14     	; 0x17c0 <menuPollButtons+0xc6>
    17b2:	82 30       	cpi	r24, 0x02	; 2
    17b4:	09 f4       	brne	.+2      	; 0x17b8 <menuPollButtons+0xbe>
    17b6:	42 c0       	rjmp	.+132    	; 0x183c <menuPollButtons+0x142>
    17b8:	83 30       	cpi	r24, 0x03	; 3
    17ba:	09 f4       	brne	.+2      	; 0x17be <menuPollButtons+0xc4>
    17bc:	a0 c0       	rjmp	.+320    	; 0x18fe <menuPollButtons+0x204>
    17be:	af c0       	rjmp	.+350    	; 0x191e <menuPollButtons+0x224>
		case MENU_UP:
			if(current_state->current_item_idx != 0){
    17c0:	84 81       	ldd	r24, Z+4	; 0x04
    17c2:	88 23       	and	r24, r24
    17c4:	09 f4       	brne	.+2      	; 0x17c8 <menuPollButtons+0xce>
    17c6:	b4 c0       	rjmp	.+360    	; 0x1930 <menuPollButtons+0x236>
				if(current_state->cursor_line == 0){
    17c8:	95 81       	ldd	r25, Z+5	; 0x05
    17ca:	91 11       	cpse	r25, r1
    17cc:	03 c0       	rjmp	.+6      	; 0x17d4 <menuPollButtons+0xda>
					// Move screen
					current_state->current_item_idx -= 1;
    17ce:	81 50       	subi	r24, 0x01	; 1
    17d0:	84 83       	std	Z+4, r24	; 0x04
    17d2:	ae c0       	rjmp	.+348    	; 0x1930 <menuPollButtons+0x236>
				}else{
					// Move cursor
					current_state->cursor_line -= 1;
    17d4:	91 50       	subi	r25, 0x01	; 1
    17d6:	fa 01       	movw	r30, r20
    17d8:	95 83       	std	Z+5, r25	; 0x05
					current_state->current_item_idx -= 1;
    17da:	81 50       	subi	r24, 0x01	; 1
    17dc:	84 83       	std	Z+4, r24	; 0x04
    17de:	a8 c0       	rjmp	.+336    	; 0x1930 <menuPollButtons+0x236>
				}
			}
			break;
		case MENU_DOWN: {
			uint8_t max_options = menuItemsGetHomeMenuSize();
    17e0:	0e 94 04 11 	call	0x2208	; 0x2208 <menuItemsGetHomeMenuSize>
			if(current_state->level != MENU_LEVEL_1){
    17e4:	e0 91 1d 01 	lds	r30, 0x011D	; 0x80011d <current_state>
    17e8:	f0 91 1e 01 	lds	r31, 0x011E	; 0x80011e <current_state+0x1>
    17ec:	96 81       	ldd	r25, Z+6	; 0x06
    17ee:	99 23       	and	r25, r25
    17f0:	09 f4       	brne	.+2      	; 0x17f4 <menuPollButtons+0xfa>
    17f2:	dc c0       	rjmp	.+440    	; 0x19ac <menuPollButtons+0x2b2>
				MENU_ITEM *previous_item = menu_states[current_state->prev_state->level].current_item;
				max_options = previous_item->submenu_length;
			}

			if(current_state->current_item_idx < max_options-1){
    17f4:	44 81       	ldd	r20, Z+4	; 0x04
    17f6:	24 2f       	mov	r18, r20
    17f8:	30 e0       	ldi	r19, 0x00	; 0
			}
			break;
		case MENU_DOWN: {
			uint8_t max_options = menuItemsGetHomeMenuSize();
			if(current_state->level != MENU_LEVEL_1){
				MENU_ITEM *previous_item = menu_states[current_state->prev_state->level].current_item;
    17fa:	a0 81       	ld	r26, Z
    17fc:	b1 81       	ldd	r27, Z+1	; 0x01
    17fe:	16 96       	adiw	r26, 0x06	; 6
    1800:	ac 91       	ld	r26, X
    1802:	87 e0       	ldi	r24, 0x07	; 7
    1804:	a8 9f       	mul	r26, r24
    1806:	d0 01       	movw	r26, r0
    1808:	11 24       	eor	r1, r1
    180a:	a1 5e       	subi	r26, 0xE1	; 225
    180c:	be 4f       	sbci	r27, 0xFE	; 254
				max_options = previous_item->submenu_length;
    180e:	12 96       	adiw	r26, 0x02	; 2
    1810:	0d 90       	ld	r0, X+
    1812:	bc 91       	ld	r27, X
    1814:	a0 2d       	mov	r26, r0
			}

			if(current_state->current_item_idx < max_options-1){
    1816:	16 96       	adiw	r26, 0x06	; 6
    1818:	8c 91       	ld	r24, X
    181a:	90 e0       	ldi	r25, 0x00	; 0
    181c:	01 97       	sbiw	r24, 0x01	; 1
    181e:	28 17       	cp	r18, r24
    1820:	39 07       	cpc	r19, r25
    1822:	0c f0       	brlt	.+2      	; 0x1826 <menuPollButtons+0x12c>
    1824:	7c c0       	rjmp	.+248    	; 0x191e <menuPollButtons+0x224>
				if(current_state->cursor_line == LCD_LINES - 1){
    1826:	85 81       	ldd	r24, Z+5	; 0x05
    1828:	83 30       	cpi	r24, 0x03	; 3
    182a:	19 f4       	brne	.+6      	; 0x1832 <menuPollButtons+0x138>
					// Move screen
					current_state->current_item_idx += 1;
    182c:	4f 5f       	subi	r20, 0xFF	; 255
    182e:	44 83       	std	Z+4, r20	; 0x04
    1830:	76 c0       	rjmp	.+236    	; 0x191e <menuPollButtons+0x224>
				}else{
					// Move cursor
					current_state->cursor_line += 1;
    1832:	8f 5f       	subi	r24, 0xFF	; 255
    1834:	85 83       	std	Z+5, r24	; 0x05
					current_state->current_item_idx += 1;
    1836:	4f 5f       	subi	r20, 0xFF	; 255
    1838:	44 83       	std	Z+4, r20	; 0x04
    183a:	71 c0       	rjmp	.+226    	; 0x191e <menuPollButtons+0x224>
				}
			}
			break;
		}
		case MENU_CONFIRM:;
			MENU_ITEM *items = menuItemsGetHomeMenu();
    183c:	0e 94 01 11 	call	0x2202	; 0x2202 <menuItemsGetHomeMenu>
			if(current_state->level != MENU_LEVEL_1){
    1840:	a0 91 1d 01 	lds	r26, 0x011D	; 0x80011d <current_state>
    1844:	b0 91 1e 01 	lds	r27, 0x011E	; 0x80011e <current_state+0x1>
    1848:	16 96       	adiw	r26, 0x06	; 6
    184a:	4c 91       	ld	r20, X
    184c:	16 97       	sbiw	r26, 0x06	; 6
    184e:	44 23       	and	r20, r20
    1850:	79 f0       	breq	.+30     	; 0x1870 <menuPollButtons+0x176>
				MENU_ITEM *previous_item = menu_states[current_state->prev_state->level].current_item;
    1852:	ed 91       	ld	r30, X+
    1854:	fc 91       	ld	r31, X
    1856:	11 97       	sbiw	r26, 0x01	; 1
    1858:	e6 81       	ldd	r30, Z+6	; 0x06
    185a:	27 e0       	ldi	r18, 0x07	; 7
    185c:	e2 9f       	mul	r30, r18
    185e:	f0 01       	movw	r30, r0
    1860:	11 24       	eor	r1, r1
    1862:	e1 5e       	subi	r30, 0xE1	; 225
    1864:	fe 4f       	sbci	r31, 0xFE	; 254
				items = previous_item->submenu;
    1866:	02 80       	ldd	r0, Z+2	; 0x02
    1868:	f3 81       	ldd	r31, Z+3	; 0x03
    186a:	e0 2d       	mov	r30, r0
    186c:	87 81       	ldd	r24, Z+7	; 0x07
    186e:	90 85       	ldd	r25, Z+8	; 0x08
			}

			MENU_ITEM *item = &items[current_state->current_item_idx];
    1870:	14 96       	adiw	r26, 0x04	; 4
    1872:	5c 91       	ld	r21, X
    1874:	14 97       	sbiw	r26, 0x04	; 4
    1876:	25 2f       	mov	r18, r21
    1878:	30 e0       	ldi	r19, 0x00	; 0
    187a:	f9 01       	movw	r30, r18
    187c:	ee 0f       	add	r30, r30
    187e:	ff 1f       	adc	r31, r31
    1880:	ee 0f       	add	r30, r30
    1882:	ff 1f       	adc	r31, r31
    1884:	ee 0f       	add	r30, r30
    1886:	ff 1f       	adc	r31, r31
    1888:	2e 0f       	add	r18, r30
    188a:	3f 1f       	adc	r19, r31
    188c:	28 0f       	add	r18, r24
    188e:	39 1f       	adc	r19, r25
			MENU_STATE *prev_state = current_state;
			if(item->render_callback){
    1890:	f9 01       	movw	r30, r18
    1892:	82 81       	ldd	r24, Z+2	; 0x02
    1894:	93 81       	ldd	r25, Z+3	; 0x03
    1896:	89 2b       	or	r24, r25
    1898:	81 f0       	breq	.+32     	; 0x18ba <menuPollButtons+0x1c0>
				prev_state->current_item = item;
    189a:	13 96       	adiw	r26, 0x03	; 3
    189c:	3c 93       	st	X, r19
    189e:	2e 93       	st	-X, r18
    18a0:	12 97       	sbiw	r26, 0x02	; 2
				current_state = &menu_states[MENU_CALLBACK];
    18a2:	d0 92 1e 01 	sts	0x011E, r13	; 0x80011e <current_state+0x1>
    18a6:	c0 92 1d 01 	sts	0x011D, r12	; 0x80011d <current_state>
*/
/*************************************************************************
 Helpers for setting the state properties
*************************************************************************/
static void setState(MENU_STATE *state, MENU_STATE *new_prev_state, MENU_ITEM *new_current_item, uint8_t new_current_item_idx, uint8_t new_cursor_line){
	state->prev_state = new_prev_state;
    18aa:	f7 01       	movw	r30, r14
    18ac:	b5 8f       	std	Z+29, r27	; 0x1d
    18ae:	a4 8f       	std	Z+28, r26	; 0x1c
	state->current_item = new_current_item;
    18b0:	37 8f       	std	Z+31, r19	; 0x1f
    18b2:	26 8f       	std	Z+30, r18	; 0x1e
	state->current_item_idx = new_current_item_idx;
    18b4:	50 a3       	std	Z+32, r21	; 0x20
	state->cursor_line = new_cursor_line;
    18b6:	11 a2       	std	Z+33, r1	; 0x21
    18b8:	32 c0       	rjmp	.+100    	; 0x191e <menuPollButtons+0x224>
			MENU_STATE *prev_state = current_state;
			if(item->render_callback){
				prev_state->current_item = item;
				current_state = &menu_states[MENU_CALLBACK];
				setState(current_state, prev_state, prev_state->current_item, prev_state->current_item_idx, 0);
			}else if(item->submenu){
    18ba:	f9 01       	movw	r30, r18
    18bc:	87 81       	ldd	r24, Z+7	; 0x07
    18be:	90 85       	ldd	r25, Z+8	; 0x08
    18c0:	89 2b       	or	r24, r25
    18c2:	69 f1       	breq	.+90     	; 0x191e <menuPollButtons+0x224>
				prev_state->current_item = item;
    18c4:	13 96       	adiw	r26, 0x03	; 3
    18c6:	3c 93       	st	X, r19
    18c8:	2e 93       	st	-X, r18
    18ca:	12 97       	sbiw	r26, 0x02	; 2
				current_state = &menu_states[current_state->level + 1];
    18cc:	84 2f       	mov	r24, r20
    18ce:	90 e0       	ldi	r25, 0x00	; 0
    18d0:	01 96       	adiw	r24, 0x01	; 1
    18d2:	fc 01       	movw	r30, r24
    18d4:	ee 0f       	add	r30, r30
    18d6:	ff 1f       	adc	r31, r31
    18d8:	ee 0f       	add	r30, r30
    18da:	ff 1f       	adc	r31, r31
    18dc:	ee 0f       	add	r30, r30
    18de:	ff 1f       	adc	r31, r31
    18e0:	e8 1b       	sub	r30, r24
    18e2:	f9 0b       	sbc	r31, r25
    18e4:	e1 5e       	subi	r30, 0xE1	; 225
    18e6:	fe 4f       	sbci	r31, 0xFE	; 254
    18e8:	f0 93 1e 01 	sts	0x011E, r31	; 0x80011e <current_state+0x1>
    18ec:	e0 93 1d 01 	sts	0x011D, r30	; 0x80011d <current_state>
*/
/*************************************************************************
 Helpers for setting the state properties
*************************************************************************/
static void setState(MENU_STATE *state, MENU_STATE *new_prev_state, MENU_ITEM *new_current_item, uint8_t new_current_item_idx, uint8_t new_cursor_line){
	state->prev_state = new_prev_state;
    18f0:	b1 83       	std	Z+1, r27	; 0x01
    18f2:	a0 83       	st	Z, r26
	state->current_item = new_current_item;
    18f4:	13 82       	std	Z+3, r1	; 0x03
    18f6:	12 82       	std	Z+2, r1	; 0x02
	state->current_item_idx = new_current_item_idx;
    18f8:	14 82       	std	Z+4, r1	; 0x04
	state->cursor_line = new_cursor_line;
    18fa:	15 82       	std	Z+5, r1	; 0x05
    18fc:	10 c0       	rjmp	.+32     	; 0x191e <menuPollButtons+0x224>
				current_state = &menu_states[current_state->level + 1];
				setState(current_state, prev_state, NULL, 0, 0);
			}
			break;
		case MENU_CANCEL:
			if(current_state->level != MENU_LEVEL_1){
    18fe:	99 23       	and	r25, r25
    1900:	b9 f0       	breq	.+46     	; 0x1930 <menuPollButtons+0x236>
				current_state = &menu_states[current_state->prev_state->level];
    1902:	01 90       	ld	r0, Z+
    1904:	f0 81       	ld	r31, Z
    1906:	e0 2d       	mov	r30, r0
    1908:	86 81       	ldd	r24, Z+6	; 0x06
    190a:	b7 e0       	ldi	r27, 0x07	; 7
    190c:	8b 9f       	mul	r24, r27
    190e:	c0 01       	movw	r24, r0
    1910:	11 24       	eor	r1, r1
    1912:	81 5e       	subi	r24, 0xE1	; 225
    1914:	9e 4f       	sbci	r25, 0xFE	; 254
    1916:	90 93 1e 01 	sts	0x011E, r25	; 0x80011e <current_state+0x1>
    191a:	80 93 1d 01 	sts	0x011D, r24	; 0x80011d <current_state>
			}
			break;
	}
	if(current_state->level != MENU_CALLBACK){
    191e:	a0 91 1d 01 	lds	r26, 0x011D	; 0x80011d <current_state>
    1922:	b0 91 1e 01 	lds	r27, 0x011E	; 0x80011e <current_state+0x1>
    1926:	16 96       	adiw	r26, 0x06	; 6
    1928:	8c 91       	ld	r24, X
    192a:	16 97       	sbiw	r26, 0x06	; 6
    192c:	84 30       	cpi	r24, 0x04	; 4
    192e:	19 f0       	breq	.+6      	; 0x1936 <menuPollButtons+0x23c>
		renderMenu();
    1930:	0e 94 fe 0a 	call	0x15fc	; 0x15fc <renderMenu>
    1934:	35 c0       	rjmp	.+106    	; 0x19a0 <menuPollButtons+0x2a6>
	}else{
		current_state->prev_state->current_item->render_callback(current_state->current_item_idx);
    1936:	ed 91       	ld	r30, X+
    1938:	fc 91       	ld	r31, X
    193a:	11 97       	sbiw	r26, 0x01	; 1
    193c:	02 80       	ldd	r0, Z+2	; 0x02
    193e:	f3 81       	ldd	r31, Z+3	; 0x03
    1940:	e0 2d       	mov	r30, r0
    1942:	02 80       	ldd	r0, Z+2	; 0x02
    1944:	f3 81       	ldd	r31, Z+3	; 0x03
    1946:	e0 2d       	mov	r30, r0
    1948:	14 96       	adiw	r26, 0x04	; 4
    194a:	8c 91       	ld	r24, X
    194c:	09 95       	icall
    194e:	28 c0       	rjmp	.+80     	; 0x19a0 <menuPollButtons+0x2a6>
			menutimer = 10;
			BUZZER_PORT |= (1 << BUZZER_PIN);
			if(current_state->level != MENU_CALLBACK){
				scrollMenu(b);
			}else{
				bool exited = current_state->prev_state->current_item->btn_handle_callback(b, current_state->current_item_idx);
    1950:	fa 01       	movw	r30, r20
    1952:	80 81       	ld	r24, Z
    1954:	91 81       	ldd	r25, Z+1	; 0x01
    1956:	fc 01       	movw	r30, r24
    1958:	82 81       	ldd	r24, Z+2	; 0x02
    195a:	93 81       	ldd	r25, Z+3	; 0x03
    195c:	fc 01       	movw	r30, r24
    195e:	24 81       	ldd	r18, Z+4	; 0x04
    1960:	35 81       	ldd	r19, Z+5	; 0x05
    1962:	fa 01       	movw	r30, r20
    1964:	64 81       	ldd	r22, Z+4	; 0x04
    1966:	cd 01       	movw	r24, r26
    1968:	f9 01       	movw	r30, r18
    196a:	09 95       	icall
				if(exited){
    196c:	88 23       	and	r24, r24
    196e:	c1 f0       	breq	.+48     	; 0x19a0 <menuPollButtons+0x2a6>
					current_state = &menu_states[current_state->prev_state->level];
    1970:	e0 91 1d 01 	lds	r30, 0x011D	; 0x80011d <current_state>
    1974:	f0 91 1e 01 	lds	r31, 0x011E	; 0x80011e <current_state+0x1>
    1978:	01 90       	ld	r0, Z+
    197a:	f0 81       	ld	r31, Z
    197c:	e0 2d       	mov	r30, r0
    197e:	86 81       	ldd	r24, Z+6	; 0x06
    1980:	f7 e0       	ldi	r31, 0x07	; 7
    1982:	8f 9f       	mul	r24, r31
    1984:	c0 01       	movw	r24, r0
    1986:	11 24       	eor	r1, r1
    1988:	81 5e       	subi	r24, 0xE1	; 225
    198a:	9e 4f       	sbci	r25, 0xFE	; 254
    198c:	90 93 1e 01 	sts	0x011E, r25	; 0x80011e <current_state+0x1>
    1990:	80 93 1d 01 	sts	0x011D, r24	; 0x80011d <current_state>
					renderMenu();
    1994:	0e 94 fe 0a 	call	0x15fc	; 0x15fc <renderMenu>
    1998:	03 c0       	rjmp	.+6      	; 0x19a0 <menuPollButtons+0x2a6>
				}
			}
		}else{
			b->pressed = false;
    199a:	14 96       	adiw	r26, 0x04	; 4
    199c:	1c 92       	st	X, r1
			BUZZER_PORT &= ~(1 << BUZZER_PIN);
    199e:	a8 98       	cbi	0x15, 0	; 21
    19a0:	25 96       	adiw	r28, 0x05	; 5
	menuPortsioInit();
	menuReset();
}

void menuPollButtons(){
	for(uint8_t i=0; i<MENU_BUTTON_ROLE_COUNT; i++){
    19a2:	c0 17       	cp	r28, r16
    19a4:	d1 07       	cpc	r29, r17
    19a6:	09 f0       	breq	.+2      	; 0x19aa <menuPollButtons+0x2b0>
    19a8:	d1 ce       	rjmp	.-606    	; 0x174c <menuPollButtons+0x52>
    19aa:	0a c0       	rjmp	.+20     	; 0x19c0 <menuPollButtons+0x2c6>
			if(current_state->level != MENU_LEVEL_1){
				MENU_ITEM *previous_item = menu_states[current_state->prev_state->level].current_item;
				max_options = previous_item->submenu_length;
			}

			if(current_state->current_item_idx < max_options-1){
    19ac:	44 81       	ldd	r20, Z+4	; 0x04
    19ae:	24 2f       	mov	r18, r20
    19b0:	30 e0       	ldi	r19, 0x00	; 0
    19b2:	90 e0       	ldi	r25, 0x00	; 0
    19b4:	01 97       	sbiw	r24, 0x01	; 1
    19b6:	28 17       	cp	r18, r24
    19b8:	39 07       	cpc	r19, r25
    19ba:	0c f4       	brge	.+2      	; 0x19be <menuPollButtons+0x2c4>
    19bc:	34 cf       	rjmp	.-408    	; 0x1826 <menuPollButtons+0x12c>
    19be:	b8 cf       	rjmp	.-144    	; 0x1930 <menuPollButtons+0x236>
		}else{
			b->pressed = false;
			BUZZER_PORT &= ~(1 << BUZZER_PIN);
		}
	}
}
    19c0:	df 91       	pop	r29
    19c2:	cf 91       	pop	r28
    19c4:	1f 91       	pop	r17
    19c6:	0f 91       	pop	r16
    19c8:	ff 90       	pop	r15
    19ca:	ef 90       	pop	r14
    19cc:	df 90       	pop	r13
    19ce:	cf 90       	pop	r12
    19d0:	bf 90       	pop	r11
    19d2:	af 90       	pop	r10
    19d4:	9f 90       	pop	r9
    19d6:	8f 90       	pop	r8
    19d8:	7f 90       	pop	r7
    19da:	6f 90       	pop	r6
    19dc:	08 95       	ret

000019de <DHW_PWM_CallbackRender>:
	lcd_gotoxy(0,1);
	lcd_puts(DHW_sensor_ID);
}

void DHW_PWM_CallbackRender(uint8_t which){
	lcd_clrscr();
    19de:	0e 94 db 07 	call	0xfb6	; 0xfb6 <lcd_clrscr>
	lcd_puts_hu(PSTR("HMV pumpa tpus"));
    19e2:	8c ec       	ldi	r24, 0xCC	; 204
    19e4:	92 e0       	ldi	r25, 0x02	; 2
    19e6:	0e 94 7b 08 	call	0x10f6	; 0x10f6 <lcd_puts_hu>
	lcd_gotoxy(0,1);
    19ea:	61 e0       	ldi	r22, 0x01	; 1
    19ec:	80 e0       	ldi	r24, 0x00	; 0
    19ee:	0e 94 c5 07 	call	0xf8a	; 0xf8a <lcd_gotoxy>
	if (DHW_PWM == 0)
    19f2:	80 91 f7 03 	lds	r24, 0x03F7	; 0x8003f7 <DHW_PWM>
    19f6:	81 11       	cpse	r24, r1
    19f8:	05 c0       	rjmp	.+10     	; 0x1a04 <DHW_PWM_CallbackRender+0x26>
		lcd_puts_hu(PSTR("Rel"));
    19fa:	87 ec       	ldi	r24, 0xC7	; 199
    19fc:	92 e0       	ldi	r25, 0x02	; 2
    19fe:	0e 94 7b 08 	call	0x10f6	; 0x10f6 <lcd_puts_hu>
    1a02:	08 95       	ret
	else
		lcd_puts_P("PWM");
    1a04:	83 ec       	ldi	r24, 0xC3	; 195
    1a06:	92 e0       	ldi	r25, 0x02	; 2
    1a08:	0e 94 0f 08 	call	0x101e	; 0x101e <lcd_puts_p>
    1a0c:	08 95       	ret

00001a0e <BME280_temp_CallbackRender>:
	lcd_puts_hu(PSTR("lehet vltoztatni"));
	lcd_gotoxy(0,2);
	return;
}

void BME280_temp_CallbackRender(uint8_t which){
    1a0e:	cf 93       	push	r28
    1a10:	df 93       	push	r29
    1a12:	cd b7       	in	r28, 0x3d	; 61
    1a14:	de b7       	in	r29, 0x3e	; 62
    1a16:	27 97       	sbiw	r28, 0x07	; 7
    1a18:	0f b6       	in	r0, 0x3f	; 63
    1a1a:	f8 94       	cli
    1a1c:	de bf       	out	0x3e, r29	; 62
    1a1e:	0f be       	out	0x3f, r0	; 63
    1a20:	cd bf       	out	0x3d, r28	; 61
	char buf[7];
	ftoa(buf, BME280_temp, 2);
    1a22:	40 91 a8 03 	lds	r20, 0x03A8	; 0x8003a8 <BME280_temp>
    1a26:	50 91 a9 03 	lds	r21, 0x03A9	; 0x8003a9 <BME280_temp+0x1>
    1a2a:	60 91 aa 03 	lds	r22, 0x03AA	; 0x8003aa <BME280_temp+0x2>
    1a2e:	70 91 ab 03 	lds	r23, 0x03AB	; 0x8003ab <BME280_temp+0x3>
    1a32:	22 e0       	ldi	r18, 0x02	; 2
    1a34:	30 e0       	ldi	r19, 0x00	; 0
    1a36:	ce 01       	movw	r24, r28
    1a38:	01 96       	adiw	r24, 0x01	; 1
    1a3a:	0e 94 4c 12 	call	0x2498	; 0x2498 <ftoa>
	lcd_clrscr();
    1a3e:	0e 94 db 07 	call	0xfb6	; 0xfb6 <lcd_clrscr>
	lcd_puts_hu(PSTR("BME280 hm"));
    1a42:	8f e3       	ldi	r24, 0x3F	; 63
    1a44:	93 e0       	ldi	r25, 0x03	; 3
    1a46:	0e 94 7b 08 	call	0x10f6	; 0x10f6 <lcd_puts_hu>
	lcd_gotoxy(0,1);
    1a4a:	61 e0       	ldi	r22, 0x01	; 1
    1a4c:	80 e0       	ldi	r24, 0x00	; 0
    1a4e:	0e 94 c5 07 	call	0xf8a	; 0xf8a <lcd_gotoxy>
	lcd_puts(buf);
    1a52:	ce 01       	movw	r24, r28
    1a54:	01 96       	adiw	r24, 0x01	; 1
    1a56:	0e 94 ff 07 	call	0xffe	; 0xffe <lcd_puts>
}
    1a5a:	27 96       	adiw	r28, 0x07	; 7
    1a5c:	0f b6       	in	r0, 0x3f	; 63
    1a5e:	f8 94       	cli
    1a60:	de bf       	out	0x3e, r29	; 62
    1a62:	0f be       	out	0x3f, r0	; 63
    1a64:	cd bf       	out	0x3d, r28	; 61
    1a66:	df 91       	pop	r29
    1a68:	cf 91       	pop	r28
    1a6a:	08 95       	ret

00001a6c <BME280_humidity_CallbackRender>:

void BME280_humidity_CallbackRender(uint8_t which){
    1a6c:	cf 93       	push	r28
    1a6e:	df 93       	push	r29
    1a70:	00 d0       	rcall	.+0      	; 0x1a72 <BME280_humidity_CallbackRender+0x6>
    1a72:	00 d0       	rcall	.+0      	; 0x1a74 <BME280_humidity_CallbackRender+0x8>
    1a74:	1f 92       	push	r1
    1a76:	cd b7       	in	r28, 0x3d	; 61
    1a78:	de b7       	in	r29, 0x3e	; 62
	char buf[5];
	ftoa(buf, BME280_humid, 2);
    1a7a:	40 91 ed 03 	lds	r20, 0x03ED	; 0x8003ed <BME280_humid>
    1a7e:	50 91 ee 03 	lds	r21, 0x03EE	; 0x8003ee <BME280_humid+0x1>
    1a82:	60 91 ef 03 	lds	r22, 0x03EF	; 0x8003ef <BME280_humid+0x2>
    1a86:	70 91 f0 03 	lds	r23, 0x03F0	; 0x8003f0 <BME280_humid+0x3>
    1a8a:	22 e0       	ldi	r18, 0x02	; 2
    1a8c:	30 e0       	ldi	r19, 0x00	; 0
    1a8e:	ce 01       	movw	r24, r28
    1a90:	01 96       	adiw	r24, 0x01	; 1
    1a92:	0e 94 4c 12 	call	0x2498	; 0x2498 <ftoa>
	lcd_clrscr();
    1a96:	0e 94 db 07 	call	0xfb6	; 0xfb6 <lcd_clrscr>
	lcd_puts_hu(PSTR("BME280 pra"));
    1a9a:	83 e3       	ldi	r24, 0x33	; 51
    1a9c:	93 e0       	ldi	r25, 0x03	; 3
    1a9e:	0e 94 7b 08 	call	0x10f6	; 0x10f6 <lcd_puts_hu>
	lcd_gotoxy(0,1);
    1aa2:	61 e0       	ldi	r22, 0x01	; 1
    1aa4:	80 e0       	ldi	r24, 0x00	; 0
    1aa6:	0e 94 c5 07 	call	0xf8a	; 0xf8a <lcd_gotoxy>
	lcd_puts(buf);
    1aaa:	ce 01       	movw	r24, r28
    1aac:	01 96       	adiw	r24, 0x01	; 1
    1aae:	0e 94 ff 07 	call	0xffe	; 0xffe <lcd_puts>
}
    1ab2:	0f 90       	pop	r0
    1ab4:	0f 90       	pop	r0
    1ab6:	0f 90       	pop	r0
    1ab8:	0f 90       	pop	r0
    1aba:	0f 90       	pop	r0
    1abc:	df 91       	pop	r29
    1abe:	cf 91       	pop	r28
    1ac0:	08 95       	ret

00001ac2 <DHW_sensor_CallbackRender>:
	lcd_gotoxy(0,1);
	lcd_puts(buf);
}

void DHW_sensor_CallbackRender(uint8_t which){
	lcd_clrscr();
    1ac2:	0e 94 db 07 	call	0xfb6	; 0xfb6 <lcd_clrscr>
	lcd_puts_hu(PSTR("HMV szenzor ID"));
    1ac6:	8c ed       	ldi	r24, 0xDC	; 220
    1ac8:	92 e0       	ldi	r25, 0x02	; 2
    1aca:	0e 94 7b 08 	call	0x10f6	; 0x10f6 <lcd_puts_hu>
	lcd_gotoxy(0,1);
    1ace:	61 e0       	ldi	r22, 0x01	; 1
    1ad0:	80 e0       	ldi	r24, 0x00	; 0
    1ad2:	0e 94 c5 07 	call	0xf8a	; 0xf8a <lcd_gotoxy>
	lcd_puts(DHW_sensor_ID);
    1ad6:	80 91 d5 02 	lds	r24, 0x02D5	; 0x8002d5 <DHW_sensor_ID>
    1ada:	90 e0       	ldi	r25, 0x00	; 0
    1adc:	0e 94 ff 07 	call	0xffe	; 0xffe <lcd_puts>
    1ae0:	08 95       	ret

00001ae2 <DHW_switch_CallbackRender>:
		lcd_puts_hu(PSTR("Rel"));
	else
		lcd_puts_P("PWM");
}

void DHW_switch_CallbackRender(uint8_t which){
    1ae2:	cf 93       	push	r28
    1ae4:	df 93       	push	r29
    1ae6:	00 d0       	rcall	.+0      	; 0x1ae8 <DHW_switch_CallbackRender+0x6>
    1ae8:	00 d0       	rcall	.+0      	; 0x1aea <DHW_switch_CallbackRender+0x8>
    1aea:	00 d0       	rcall	.+0      	; 0x1aec <DHW_switch_CallbackRender+0xa>
    1aec:	cd b7       	in	r28, 0x3d	; 61
    1aee:	de b7       	in	r29, 0x3e	; 62
	lcd_clrscr();
    1af0:	0e 94 db 07 	call	0xfb6	; 0xfb6 <lcd_clrscr>
	lcd_puts_hu(PSTR("HMV pumpa llapot"));
    1af4:	81 eb       	ldi	r24, 0xB1	; 177
    1af6:	92 e0       	ldi	r25, 0x02	; 2
    1af8:	0e 94 7b 08 	call	0x10f6	; 0x10f6 <lcd_puts_hu>
	lcd_gotoxy(0,1);
    1afc:	61 e0       	ldi	r22, 0x01	; 1
    1afe:	80 e0       	ldi	r24, 0x00	; 0
    1b00:	0e 94 c5 07 	call	0xf8a	; 0xf8a <lcd_gotoxy>
	if (DHW_PWM == 0)
    1b04:	80 91 f7 03 	lds	r24, 0x03F7	; 0x8003f7 <DHW_PWM>
    1b08:	81 11       	cpse	r24, r1
    1b0a:	0e c0       	rjmp	.+28     	; 0x1b28 <DHW_switch_CallbackRender+0x46>
	{	if (Pump_relays & DHW_RELAY)
    1b0c:	80 91 ac 03 	lds	r24, 0x03AC	; 0x8003ac <Pump_relays>
    1b10:	80 ff       	sbrs	r24, 0
    1b12:	05 c0       	rjmp	.+10     	; 0x1b1e <DHW_switch_CallbackRender+0x3c>
			lcd_puts_hu(PSTR("Rel bekapcsolva"));
    1b14:	80 ea       	ldi	r24, 0xA0	; 160
    1b16:	92 e0       	ldi	r25, 0x02	; 2
    1b18:	0e 94 7b 08 	call	0x10f6	; 0x10f6 <lcd_puts_hu>
    1b1c:	11 c0       	rjmp	.+34     	; 0x1b40 <DHW_switch_CallbackRender+0x5e>
		else
			lcd_puts_hu(PSTR("Rel kikapcsolva"));
    1b1e:	8f e8       	ldi	r24, 0x8F	; 143
    1b20:	92 e0       	ldi	r25, 0x02	; 2
    1b22:	0e 94 7b 08 	call	0x10f6	; 0x10f6 <lcd_puts_hu>
    1b26:	0c c0       	rjmp	.+24     	; 0x1b40 <DHW_switch_CallbackRender+0x5e>
	}
	else
	{
		char buf[6];
		lcd_puts_P("PWM: "); itoa(DHW_PWM_OCR, buf, 10);
    1b28:	89 e8       	ldi	r24, 0x89	; 137
    1b2a:	92 e0       	ldi	r25, 0x02	; 2
    1b2c:	0e 94 0f 08 	call	0x101e	; 0x101e <lcd_puts_p>
    1b30:	83 b5       	in	r24, 0x23	; 35
    } else if (__radix < 2 || __radix > 36) {
	*__s = 0;
	return __s;
    } else {
	extern char *__itoa_ncheck (int, char *, unsigned char);
	return __itoa_ncheck (__val, __s, __radix);
    1b32:	4a e0       	ldi	r20, 0x0A	; 10
    1b34:	be 01       	movw	r22, r28
    1b36:	6f 5f       	subi	r22, 0xFF	; 255
    1b38:	7f 4f       	sbci	r23, 0xFF	; 255
    1b3a:	90 e0       	ldi	r25, 0x00	; 0
    1b3c:	0e 94 1d 15 	call	0x2a3a	; 0x2a3a <__itoa_ncheck>
	}
}
    1b40:	26 96       	adiw	r28, 0x06	; 6
    1b42:	0f b6       	in	r0, 0x3f	; 63
    1b44:	f8 94       	cli
    1b46:	de bf       	out	0x3e, r29	; 62
    1b48:	0f be       	out	0x3f, r0	; 63
    1b4a:	cd bf       	out	0x3d, r28	; 61
    1b4c:	df 91       	pop	r29
    1b4e:	cf 91       	pop	r28
    1b50:	08 95       	ret

00001b52 <ZoneValve1_CallbackRender>:
	{"HMV min hm",			DHW_temp_min_CallbackRender,  		DHW_temp_min_ActionCallback, 		0, 				NULL},
	{"HMV szenzor",			DHW_sensor_CallbackRender, 			DHW_sensor_ActionCallback, 			0, 				NULL},
	{"HMV pumpa",			NULL,								NULL,					 			DHW_PUMP_ITEMS, DHW_pump_submenu},
};

void ZoneValve1_CallbackRender(uint8_t which){
    1b52:	cf 93       	push	r28
    1b54:	df 93       	push	r29
    1b56:	00 d0       	rcall	.+0      	; 0x1b58 <ZoneValve1_CallbackRender+0x6>
    1b58:	00 d0       	rcall	.+0      	; 0x1b5a <ZoneValve1_CallbackRender+0x8>
    1b5a:	00 d0       	rcall	.+0      	; 0x1b5c <ZoneValve1_CallbackRender+0xa>
    1b5c:	cd b7       	in	r28, 0x3d	; 61
    1b5e:	de b7       	in	r29, 0x3e	; 62
	lcd_clrscr();
    1b60:	0e 94 db 07 	call	0xfb6	; 0xfb6 <lcd_clrscr>
	lcd_puts_hu(PSTR("HMV pumpa llapot"));
    1b64:	86 e4       	ldi	r24, 0x46	; 70
    1b66:	92 e0       	ldi	r25, 0x02	; 2
    1b68:	0e 94 7b 08 	call	0x10f6	; 0x10f6 <lcd_puts_hu>
	lcd_gotoxy(0,1);
    1b6c:	61 e0       	ldi	r22, 0x01	; 1
    1b6e:	80 e0       	ldi	r24, 0x00	; 0
    1b70:	0e 94 c5 07 	call	0xf8a	; 0xf8a <lcd_gotoxy>
	if (DHW_PWM == 0)
    1b74:	80 91 f7 03 	lds	r24, 0x03F7	; 0x8003f7 <DHW_PWM>
    1b78:	81 11       	cpse	r24, r1
    1b7a:	0e c0       	rjmp	.+28     	; 0x1b98 <ZoneValve1_CallbackRender+0x46>
	{	if (Pump_relays & DHW_RELAY)
    1b7c:	80 91 ac 03 	lds	r24, 0x03AC	; 0x8003ac <Pump_relays>
    1b80:	80 ff       	sbrs	r24, 0
    1b82:	05 c0       	rjmp	.+10     	; 0x1b8e <ZoneValve1_CallbackRender+0x3c>
			lcd_puts_hu(PSTR("Rel bekapcsolva"));
    1b84:	85 e3       	ldi	r24, 0x35	; 53
    1b86:	92 e0       	ldi	r25, 0x02	; 2
    1b88:	0e 94 7b 08 	call	0x10f6	; 0x10f6 <lcd_puts_hu>
    1b8c:	11 c0       	rjmp	.+34     	; 0x1bb0 <ZoneValve1_CallbackRender+0x5e>
		else
			lcd_puts_hu(PSTR("Rel kikapcsolva"));
    1b8e:	84 e2       	ldi	r24, 0x24	; 36
    1b90:	92 e0       	ldi	r25, 0x02	; 2
    1b92:	0e 94 7b 08 	call	0x10f6	; 0x10f6 <lcd_puts_hu>
    1b96:	0c c0       	rjmp	.+24     	; 0x1bb0 <ZoneValve1_CallbackRender+0x5e>
	}
	else
	{
		char buf[6];
		lcd_puts_P("PWM: "); itoa(DHW_PWM_OCR, buf, 10);
    1b98:	8e e1       	ldi	r24, 0x1E	; 30
    1b9a:	92 e0       	ldi	r25, 0x02	; 2
    1b9c:	0e 94 0f 08 	call	0x101e	; 0x101e <lcd_puts_p>
    1ba0:	83 b5       	in	r24, 0x23	; 35
    1ba2:	4a e0       	ldi	r20, 0x0A	; 10
    1ba4:	be 01       	movw	r22, r28
    1ba6:	6f 5f       	subi	r22, 0xFF	; 255
    1ba8:	7f 4f       	sbci	r23, 0xFF	; 255
    1baa:	90 e0       	ldi	r25, 0x00	; 0
    1bac:	0e 94 1d 15 	call	0x2a3a	; 0x2a3a <__itoa_ncheck>
	}
}
    1bb0:	26 96       	adiw	r28, 0x06	; 6
    1bb2:	0f b6       	in	r0, 0x3f	; 63
    1bb4:	f8 94       	cli
    1bb6:	de bf       	out	0x3e, r29	; 62
    1bb8:	0f be       	out	0x3f, r0	; 63
    1bba:	cd bf       	out	0x3d, r28	; 61
    1bbc:	df 91       	pop	r29
    1bbe:	cf 91       	pop	r28
    1bc0:	08 95       	ret

00001bc2 <BME280_min_CallbackRender>:
	lcd_puts_hu(PSTR("BME280 pra"));
	lcd_gotoxy(0,1);
	lcd_puts(buf);
}

void BME280_min_CallbackRender(uint8_t which){
    1bc2:	cf 93       	push	r28
    1bc4:	df 93       	push	r29
    1bc6:	cd b7       	in	r28, 0x3d	; 61
    1bc8:	de b7       	in	r29, 0x3e	; 62
    1bca:	2a 97       	sbiw	r28, 0x0a	; 10
    1bcc:	0f b6       	in	r0, 0x3f	; 63
    1bce:	f8 94       	cli
    1bd0:	de bf       	out	0x3e, r29	; 62
    1bd2:	0f be       	out	0x3f, r0	; 63
    1bd4:	cd bf       	out	0x3d, r28	; 61
	char buf[10];
	itoa(BME280_temp_min, buf, 10);
    1bd6:	80 91 06 01 	lds	r24, 0x0106	; 0x800106 <BME280_temp_min>
    1bda:	90 91 07 01 	lds	r25, 0x0107	; 0x800107 <BME280_temp_min+0x1>
    1bde:	4a e0       	ldi	r20, 0x0A	; 10
    1be0:	be 01       	movw	r22, r28
    1be2:	6f 5f       	subi	r22, 0xFF	; 255
    1be4:	7f 4f       	sbci	r23, 0xFF	; 255
    1be6:	0e 94 1d 15 	call	0x2a3a	; 0x2a3a <__itoa_ncheck>
	lcd_clrscr();
    1bea:	0e 94 db 07 	call	0xfb6	; 0xfb6 <lcd_clrscr>
	lcd_puts_hu(PSTR("BME280 min hm"));
    1bee:	84 e2       	ldi	r24, 0x24	; 36
    1bf0:	93 e0       	ldi	r25, 0x03	; 3
    1bf2:	0e 94 7b 08 	call	0x10f6	; 0x10f6 <lcd_puts_hu>
	lcd_gotoxy(0,1);
    1bf6:	61 e0       	ldi	r22, 0x01	; 1
    1bf8:	80 e0       	ldi	r24, 0x00	; 0
    1bfa:	0e 94 c5 07 	call	0xf8a	; 0xf8a <lcd_gotoxy>
	lcd_puts(buf);
    1bfe:	ce 01       	movw	r24, r28
    1c00:	01 96       	adiw	r24, 0x01	; 1
    1c02:	0e 94 ff 07 	call	0xffe	; 0xffe <lcd_puts>
}
    1c06:	2a 96       	adiw	r28, 0x0a	; 10
    1c08:	0f b6       	in	r0, 0x3f	; 63
    1c0a:	f8 94       	cli
    1c0c:	de bf       	out	0x3e, r29	; 62
    1c0e:	0f be       	out	0x3f, r0	; 63
    1c10:	cd bf       	out	0x3d, r28	; 61
    1c12:	df 91       	pop	r29
    1c14:	cf 91       	pop	r28
    1c16:	08 95       	ret

00001c18 <BME280_desired_CallbackRender>:

void BME280_desired_CallbackRender(uint8_t which){
    1c18:	cf 93       	push	r28
    1c1a:	df 93       	push	r29
    1c1c:	cd b7       	in	r28, 0x3d	; 61
    1c1e:	de b7       	in	r29, 0x3e	; 62
    1c20:	2a 97       	sbiw	r28, 0x0a	; 10
    1c22:	0f b6       	in	r0, 0x3f	; 63
    1c24:	f8 94       	cli
    1c26:	de bf       	out	0x3e, r29	; 62
    1c28:	0f be       	out	0x3f, r0	; 63
    1c2a:	cd bf       	out	0x3d, r28	; 61
	char buf[10];
	itoa(BME280_temp_desired, buf, 10);
    1c2c:	80 91 04 01 	lds	r24, 0x0104	; 0x800104 <BME280_temp_desired>
    1c30:	90 91 05 01 	lds	r25, 0x0105	; 0x800105 <BME280_temp_desired+0x1>
    1c34:	4a e0       	ldi	r20, 0x0A	; 10
    1c36:	be 01       	movw	r22, r28
    1c38:	6f 5f       	subi	r22, 0xFF	; 255
    1c3a:	7f 4f       	sbci	r23, 0xFF	; 255
    1c3c:	0e 94 1d 15 	call	0x2a3a	; 0x2a3a <__itoa_ncheck>
	lcd_clrscr();
    1c40:	0e 94 db 07 	call	0xfb6	; 0xfb6 <lcd_clrscr>
	lcd_puts_hu(PSTR("BME280 kvant hm"));
    1c44:	82 e1       	ldi	r24, 0x12	; 18
    1c46:	93 e0       	ldi	r25, 0x03	; 3
    1c48:	0e 94 7b 08 	call	0x10f6	; 0x10f6 <lcd_puts_hu>
	lcd_gotoxy(0,1);
    1c4c:	61 e0       	ldi	r22, 0x01	; 1
    1c4e:	80 e0       	ldi	r24, 0x00	; 0
    1c50:	0e 94 c5 07 	call	0xf8a	; 0xf8a <lcd_gotoxy>
	lcd_puts(buf);
    1c54:	ce 01       	movw	r24, r28
    1c56:	01 96       	adiw	r24, 0x01	; 1
    1c58:	0e 94 ff 07 	call	0xffe	; 0xffe <lcd_puts>
}
    1c5c:	2a 96       	adiw	r28, 0x0a	; 10
    1c5e:	0f b6       	in	r0, 0x3f	; 63
    1c60:	f8 94       	cli
    1c62:	de bf       	out	0x3e, r29	; 62
    1c64:	0f be       	out	0x3f, r0	; 63
    1c66:	cd bf       	out	0x3d, r28	; 61
    1c68:	df 91       	pop	r29
    1c6a:	cf 91       	pop	r28
    1c6c:	08 95       	ret

00001c6e <DHW_temp_actual_CallbackRender>:


/*************************************************************************
 Menu DHW, submenu definition
*************************************************************************/
void DHW_temp_actual_CallbackRender(uint8_t which){
    1c6e:	cf 93       	push	r28
    1c70:	df 93       	push	r29
    1c72:	cd b7       	in	r28, 0x3d	; 61
    1c74:	de b7       	in	r29, 0x3e	; 62
    1c76:	27 97       	sbiw	r28, 0x07	; 7
    1c78:	0f b6       	in	r0, 0x3f	; 63
    1c7a:	f8 94       	cli
    1c7c:	de bf       	out	0x3e, r29	; 62
    1c7e:	0f be       	out	0x3f, r0	; 63
    1c80:	cd bf       	out	0x3d, r28	; 61
	char buf[7];
	itoa(DHW_temp_actual, buf, 10);
    1c82:	80 91 a6 03 	lds	r24, 0x03A6	; 0x8003a6 <DHW_temp_actual>
    1c86:	90 91 a7 03 	lds	r25, 0x03A7	; 0x8003a7 <DHW_temp_actual+0x1>
    1c8a:	4a e0       	ldi	r20, 0x0A	; 10
    1c8c:	be 01       	movw	r22, r28
    1c8e:	6f 5f       	subi	r22, 0xFF	; 255
    1c90:	7f 4f       	sbci	r23, 0xFF	; 255
    1c92:	0e 94 1d 15 	call	0x2a3a	; 0x2a3a <__itoa_ncheck>
	lcd_clrscr();
    1c96:	0e 94 db 07 	call	0xfb6	; 0xfb6 <lcd_clrscr>
	lcd_puts_hu(PSTR("HMV akt hm"));
    1c9a:	86 e0       	ldi	r24, 0x06	; 6
    1c9c:	93 e0       	ldi	r25, 0x03	; 3
    1c9e:	0e 94 7b 08 	call	0x10f6	; 0x10f6 <lcd_puts_hu>
	lcd_gotoxy(0,1);
    1ca2:	61 e0       	ldi	r22, 0x01	; 1
    1ca4:	80 e0       	ldi	r24, 0x00	; 0
    1ca6:	0e 94 c5 07 	call	0xf8a	; 0xf8a <lcd_gotoxy>
	lcd_puts(buf);
    1caa:	ce 01       	movw	r24, r28
    1cac:	01 96       	adiw	r24, 0x01	; 1
    1cae:	0e 94 ff 07 	call	0xffe	; 0xffe <lcd_puts>
}
    1cb2:	27 96       	adiw	r28, 0x07	; 7
    1cb4:	0f b6       	in	r0, 0x3f	; 63
    1cb6:	f8 94       	cli
    1cb8:	de bf       	out	0x3e, r29	; 62
    1cba:	0f be       	out	0x3f, r0	; 63
    1cbc:	cd bf       	out	0x3d, r28	; 61
    1cbe:	df 91       	pop	r29
    1cc0:	cf 91       	pop	r28
    1cc2:	08 95       	ret

00001cc4 <DHW_temp_desired_CallbackRender>:

void DHW_temp_desired_CallbackRender(uint8_t which){
    1cc4:	cf 93       	push	r28
    1cc6:	df 93       	push	r29
    1cc8:	cd b7       	in	r28, 0x3d	; 61
    1cca:	de b7       	in	r29, 0x3e	; 62
    1ccc:	27 97       	sbiw	r28, 0x07	; 7
    1cce:	0f b6       	in	r0, 0x3f	; 63
    1cd0:	f8 94       	cli
    1cd2:	de bf       	out	0x3e, r29	; 62
    1cd4:	0f be       	out	0x3f, r0	; 63
    1cd6:	cd bf       	out	0x3d, r28	; 61
	char buf[7];
	itoa(DHW_temp_desired, buf, 10);
    1cd8:	80 91 8e 03 	lds	r24, 0x038E	; 0x80038e <DHW_temp_desired>
    1cdc:	90 91 8f 03 	lds	r25, 0x038F	; 0x80038f <DHW_temp_desired+0x1>
    1ce0:	4a e0       	ldi	r20, 0x0A	; 10
    1ce2:	be 01       	movw	r22, r28
    1ce4:	6f 5f       	subi	r22, 0xFF	; 255
    1ce6:	7f 4f       	sbci	r23, 0xFF	; 255
    1ce8:	0e 94 1d 15 	call	0x2a3a	; 0x2a3a <__itoa_ncheck>
	lcd_clrscr();
    1cec:	0e 94 db 07 	call	0xfb6	; 0xfb6 <lcd_clrscr>
	lcd_puts_hu(PSTR("HMV kvnt hm"));
    1cf0:	87 ef       	ldi	r24, 0xF7	; 247
    1cf2:	92 e0       	ldi	r25, 0x02	; 2
    1cf4:	0e 94 7b 08 	call	0x10f6	; 0x10f6 <lcd_puts_hu>
	lcd_gotoxy(0,1);
    1cf8:	61 e0       	ldi	r22, 0x01	; 1
    1cfa:	80 e0       	ldi	r24, 0x00	; 0
    1cfc:	0e 94 c5 07 	call	0xf8a	; 0xf8a <lcd_gotoxy>
	lcd_puts(buf);
    1d00:	ce 01       	movw	r24, r28
    1d02:	01 96       	adiw	r24, 0x01	; 1
    1d04:	0e 94 ff 07 	call	0xffe	; 0xffe <lcd_puts>
}
    1d08:	27 96       	adiw	r28, 0x07	; 7
    1d0a:	0f b6       	in	r0, 0x3f	; 63
    1d0c:	f8 94       	cli
    1d0e:	de bf       	out	0x3e, r29	; 62
    1d10:	0f be       	out	0x3f, r0	; 63
    1d12:	cd bf       	out	0x3d, r28	; 61
    1d14:	df 91       	pop	r29
    1d16:	cf 91       	pop	r28
    1d18:	08 95       	ret

00001d1a <DHW_temp_min_CallbackRender>:

void DHW_temp_min_CallbackRender(uint8_t which){
    1d1a:	cf 93       	push	r28
    1d1c:	df 93       	push	r29
    1d1e:	cd b7       	in	r28, 0x3d	; 61
    1d20:	de b7       	in	r29, 0x3e	; 62
    1d22:	2a 97       	sbiw	r28, 0x0a	; 10
    1d24:	0f b6       	in	r0, 0x3f	; 63
    1d26:	f8 94       	cli
    1d28:	de bf       	out	0x3e, r29	; 62
    1d2a:	0f be       	out	0x3f, r0	; 63
    1d2c:	cd bf       	out	0x3d, r28	; 61
	char buf[10];
	itoa(DHW_temp_min, buf, 10);
    1d2e:	80 91 af 03 	lds	r24, 0x03AF	; 0x8003af <DHW_temp_min>
    1d32:	90 91 b0 03 	lds	r25, 0x03B0	; 0x8003b0 <DHW_temp_min+0x1>
    1d36:	4a e0       	ldi	r20, 0x0A	; 10
    1d38:	be 01       	movw	r22, r28
    1d3a:	6f 5f       	subi	r22, 0xFF	; 255
    1d3c:	7f 4f       	sbci	r23, 0xFF	; 255
    1d3e:	0e 94 1d 15 	call	0x2a3a	; 0x2a3a <__itoa_ncheck>
	lcd_clrscr();
    1d42:	0e 94 db 07 	call	0xfb6	; 0xfb6 <lcd_clrscr>
	lcd_puts_hu(PSTR("HMV min hm"));
    1d46:	8b ee       	ldi	r24, 0xEB	; 235
    1d48:	92 e0       	ldi	r25, 0x02	; 2
    1d4a:	0e 94 7b 08 	call	0x10f6	; 0x10f6 <lcd_puts_hu>
	lcd_gotoxy(0,1);
    1d4e:	61 e0       	ldi	r22, 0x01	; 1
    1d50:	80 e0       	ldi	r24, 0x00	; 0
    1d52:	0e 94 c5 07 	call	0xf8a	; 0xf8a <lcd_gotoxy>
	lcd_puts(buf);
    1d56:	ce 01       	movw	r24, r28
    1d58:	01 96       	adiw	r24, 0x01	; 1
    1d5a:	0e 94 ff 07 	call	0xffe	; 0xffe <lcd_puts>
}
    1d5e:	2a 96       	adiw	r28, 0x0a	; 10
    1d60:	0f b6       	in	r0, 0x3f	; 63
    1d62:	f8 94       	cli
    1d64:	de bf       	out	0x3e, r29	; 62
    1d66:	0f be       	out	0x3f, r0	; 63
    1d68:	cd bf       	out	0x3d, r28	; 61
    1d6a:	df 91       	pop	r29
    1d6c:	cf 91       	pop	r28
    1d6e:	08 95       	ret

00001d70 <ChangeMsg>:
extern void SwitchValve();


void ChangeMsg()
{
	lcd_clrscr();
    1d70:	0e 94 db 07 	call	0xfb6	; 0xfb6 <lcd_clrscr>
	lcd_puts_P("Fel / le gombokkal");
    1d74:	8c e5       	ldi	r24, 0x5C	; 92
    1d76:	93 e0       	ldi	r25, 0x03	; 3
    1d78:	0e 94 0f 08 	call	0x101e	; 0x101e <lcd_puts_p>
	lcd_gotoxy(0,1);
    1d7c:	61 e0       	ldi	r22, 0x01	; 1
    1d7e:	80 e0       	ldi	r24, 0x00	; 0
    1d80:	0e 94 c5 07 	call	0xf8a	; 0xf8a <lcd_gotoxy>
	lcd_puts_hu(PSTR("lehet vltoztatni"));
    1d84:	8a e4       	ldi	r24, 0x4A	; 74
    1d86:	93 e0       	ldi	r25, 0x03	; 3
    1d88:	0e 94 7b 08 	call	0x10f6	; 0x10f6 <lcd_puts_hu>
	lcd_gotoxy(0,2);
    1d8c:	62 e0       	ldi	r22, 0x02	; 2
    1d8e:	80 e0       	ldi	r24, 0x00	; 0
    1d90:	0e 94 c5 07 	call	0xf8a	; 0xf8a <lcd_gotoxy>
    1d94:	08 95       	ret

00001d96 <BME280_min_ActionCallback>:
	lcd_puts_hu(PSTR("BME280 kvant hm"));
	lcd_gotoxy(0,1);
	lcd_puts(buf);
}

bool BME280_min_ActionCallback(MENU_BUTTON *button, uint8_t column){
    1d96:	cf 93       	push	r28
    1d98:	df 93       	push	r29
    1d9a:	00 d0       	rcall	.+0      	; 0x1d9c <BME280_min_ActionCallback+0x6>
    1d9c:	00 d0       	rcall	.+0      	; 0x1d9e <BME280_min_ActionCallback+0x8>
    1d9e:	1f 92       	push	r1
    1da0:	cd b7       	in	r28, 0x3d	; 61
    1da2:	de b7       	in	r29, 0x3e	; 62
	switch(button->role){
    1da4:	fc 01       	movw	r30, r24
    1da6:	80 81       	ld	r24, Z
    1da8:	81 30       	cpi	r24, 0x01	; 1
    1daa:	81 f0       	breq	.+32     	; 0x1dcc <BME280_min_ActionCallback+0x36>
    1dac:	28 f0       	brcs	.+10     	; 0x1db8 <BME280_min_ActionCallback+0x22>
    1dae:	82 30       	cpi	r24, 0x02	; 2
    1db0:	b9 f0       	breq	.+46     	; 0x1de0 <BME280_min_ActionCallback+0x4a>
    1db2:	83 30       	cpi	r24, 0x03	; 3
    1db4:	89 f1       	breq	.+98     	; 0x1e18 <BME280_min_ActionCallback+0x82>
    1db6:	1e c0       	rjmp	.+60     	; 0x1df4 <BME280_min_ActionCallback+0x5e>
		case MENU_UP:
			++BME280_temp_min;
    1db8:	80 91 06 01 	lds	r24, 0x0106	; 0x800106 <BME280_temp_min>
    1dbc:	90 91 07 01 	lds	r25, 0x0107	; 0x800107 <BME280_temp_min+0x1>
    1dc0:	01 96       	adiw	r24, 0x01	; 1
    1dc2:	90 93 07 01 	sts	0x0107, r25	; 0x800107 <BME280_temp_min+0x1>
    1dc6:	80 93 06 01 	sts	0x0106, r24	; 0x800106 <BME280_temp_min>
			break;
    1dca:	14 c0       	rjmp	.+40     	; 0x1df4 <BME280_min_ActionCallback+0x5e>
		case MENU_DOWN:
			--BME280_temp_min;
    1dcc:	80 91 06 01 	lds	r24, 0x0106	; 0x800106 <BME280_temp_min>
    1dd0:	90 91 07 01 	lds	r25, 0x0107	; 0x800107 <BME280_temp_min+0x1>
    1dd4:	01 97       	sbiw	r24, 0x01	; 1
    1dd6:	90 93 07 01 	sts	0x0107, r25	; 0x800107 <BME280_temp_min+0x1>
    1dda:	80 93 06 01 	sts	0x0106, r24	; 0x800106 <BME280_temp_min>
			break;
    1dde:	0a c0       	rjmp	.+20     	; 0x1df4 <BME280_min_ActionCallback+0x5e>
		case MENU_CONFIRM:
			eeprom_update_byte(&eeBME280_temp_min, BME280_temp_min);
    1de0:	60 91 06 01 	lds	r22, 0x0106	; 0x800106 <BME280_temp_min>
    1de4:	70 91 07 01 	lds	r23, 0x0107	; 0x800107 <BME280_temp_min+0x1>
    1de8:	82 e0       	ldi	r24, 0x02	; 2
    1dea:	91 e0       	ldi	r25, 0x01	; 1
    1dec:	0e 94 52 15 	call	0x2aa4	; 0x2aa4 <eeprom_update_byte>
			return true;
    1df0:	81 e0       	ldi	r24, 0x01	; 1
    1df2:	13 c0       	rjmp	.+38     	; 0x1e1a <BME280_min_ActionCallback+0x84>
		case MENU_CANCEL:
			return true;
	}

	char buf[5];
	ChangeMsg();
    1df4:	0e 94 b8 0e 	call	0x1d70	; 0x1d70 <ChangeMsg>
	itoa(BME280_temp_min, buf, 10);
    1df8:	80 91 06 01 	lds	r24, 0x0106	; 0x800106 <BME280_temp_min>
    1dfc:	90 91 07 01 	lds	r25, 0x0107	; 0x800107 <BME280_temp_min+0x1>
    1e00:	4a e0       	ldi	r20, 0x0A	; 10
    1e02:	be 01       	movw	r22, r28
    1e04:	6f 5f       	subi	r22, 0xFF	; 255
    1e06:	7f 4f       	sbci	r23, 0xFF	; 255
    1e08:	0e 94 1d 15 	call	0x2a3a	; 0x2a3a <__itoa_ncheck>
	lcd_puts(buf);
    1e0c:	ce 01       	movw	r24, r28
    1e0e:	01 96       	adiw	r24, 0x01	; 1
    1e10:	0e 94 ff 07 	call	0xffe	; 0xffe <lcd_puts>

	return false;
    1e14:	80 e0       	ldi	r24, 0x00	; 0
    1e16:	01 c0       	rjmp	.+2      	; 0x1e1a <BME280_min_ActionCallback+0x84>
			break;
		case MENU_CONFIRM:
			eeprom_update_byte(&eeBME280_temp_min, BME280_temp_min);
			return true;
		case MENU_CANCEL:
			return true;
    1e18:	81 e0       	ldi	r24, 0x01	; 1
	ChangeMsg();
	itoa(BME280_temp_min, buf, 10);
	lcd_puts(buf);

	return false;
}
    1e1a:	0f 90       	pop	r0
    1e1c:	0f 90       	pop	r0
    1e1e:	0f 90       	pop	r0
    1e20:	0f 90       	pop	r0
    1e22:	0f 90       	pop	r0
    1e24:	df 91       	pop	r29
    1e26:	cf 91       	pop	r28
    1e28:	08 95       	ret

00001e2a <BME280_desired_ActionCallback>:

bool BME280_desired_ActionCallback(MENU_BUTTON *button, uint8_t column){
    1e2a:	cf 93       	push	r28
    1e2c:	df 93       	push	r29
    1e2e:	00 d0       	rcall	.+0      	; 0x1e30 <BME280_desired_ActionCallback+0x6>
    1e30:	00 d0       	rcall	.+0      	; 0x1e32 <BME280_desired_ActionCallback+0x8>
    1e32:	1f 92       	push	r1
    1e34:	cd b7       	in	r28, 0x3d	; 61
    1e36:	de b7       	in	r29, 0x3e	; 62
	switch(button->role){
    1e38:	fc 01       	movw	r30, r24
    1e3a:	80 81       	ld	r24, Z
    1e3c:	81 30       	cpi	r24, 0x01	; 1
    1e3e:	81 f0       	breq	.+32     	; 0x1e60 <BME280_desired_ActionCallback+0x36>
    1e40:	28 f0       	brcs	.+10     	; 0x1e4c <BME280_desired_ActionCallback+0x22>
    1e42:	82 30       	cpi	r24, 0x02	; 2
    1e44:	b9 f0       	breq	.+46     	; 0x1e74 <BME280_desired_ActionCallback+0x4a>
    1e46:	83 30       	cpi	r24, 0x03	; 3
    1e48:	89 f1       	breq	.+98     	; 0x1eac <BME280_desired_ActionCallback+0x82>
    1e4a:	1e c0       	rjmp	.+60     	; 0x1e88 <BME280_desired_ActionCallback+0x5e>
		case MENU_UP:
			++BME280_temp_desired;
    1e4c:	80 91 04 01 	lds	r24, 0x0104	; 0x800104 <BME280_temp_desired>
    1e50:	90 91 05 01 	lds	r25, 0x0105	; 0x800105 <BME280_temp_desired+0x1>
    1e54:	01 96       	adiw	r24, 0x01	; 1
    1e56:	90 93 05 01 	sts	0x0105, r25	; 0x800105 <BME280_temp_desired+0x1>
    1e5a:	80 93 04 01 	sts	0x0104, r24	; 0x800104 <BME280_temp_desired>
			break;
    1e5e:	14 c0       	rjmp	.+40     	; 0x1e88 <BME280_desired_ActionCallback+0x5e>
		case MENU_DOWN:
			--BME280_temp_desired;
    1e60:	80 91 04 01 	lds	r24, 0x0104	; 0x800104 <BME280_temp_desired>
    1e64:	90 91 05 01 	lds	r25, 0x0105	; 0x800105 <BME280_temp_desired+0x1>
    1e68:	01 97       	sbiw	r24, 0x01	; 1
    1e6a:	90 93 05 01 	sts	0x0105, r25	; 0x800105 <BME280_temp_desired+0x1>
    1e6e:	80 93 04 01 	sts	0x0104, r24	; 0x800104 <BME280_temp_desired>
			break;
    1e72:	0a c0       	rjmp	.+20     	; 0x1e88 <BME280_desired_ActionCallback+0x5e>
		case MENU_CONFIRM:
			eeprom_update_byte(&eeBME280_temp_desired, BME280_temp_desired);
    1e74:	60 91 04 01 	lds	r22, 0x0104	; 0x800104 <BME280_temp_desired>
    1e78:	70 91 05 01 	lds	r23, 0x0105	; 0x800105 <BME280_temp_desired+0x1>
    1e7c:	80 e0       	ldi	r24, 0x00	; 0
    1e7e:	91 e0       	ldi	r25, 0x01	; 1
    1e80:	0e 94 52 15 	call	0x2aa4	; 0x2aa4 <eeprom_update_byte>
			return true;
    1e84:	81 e0       	ldi	r24, 0x01	; 1
    1e86:	13 c0       	rjmp	.+38     	; 0x1eae <BME280_desired_ActionCallback+0x84>
		case MENU_CANCEL:
			return true;
	}

	char buf[5];
	ChangeMsg();
    1e88:	0e 94 b8 0e 	call	0x1d70	; 0x1d70 <ChangeMsg>
	itoa(BME280_temp_desired, buf, 10);
    1e8c:	80 91 04 01 	lds	r24, 0x0104	; 0x800104 <BME280_temp_desired>
    1e90:	90 91 05 01 	lds	r25, 0x0105	; 0x800105 <BME280_temp_desired+0x1>
    1e94:	4a e0       	ldi	r20, 0x0A	; 10
    1e96:	be 01       	movw	r22, r28
    1e98:	6f 5f       	subi	r22, 0xFF	; 255
    1e9a:	7f 4f       	sbci	r23, 0xFF	; 255
    1e9c:	0e 94 1d 15 	call	0x2a3a	; 0x2a3a <__itoa_ncheck>
	lcd_puts(buf);
    1ea0:	ce 01       	movw	r24, r28
    1ea2:	01 96       	adiw	r24, 0x01	; 1
    1ea4:	0e 94 ff 07 	call	0xffe	; 0xffe <lcd_puts>

	return false;
    1ea8:	80 e0       	ldi	r24, 0x00	; 0
    1eaa:	01 c0       	rjmp	.+2      	; 0x1eae <BME280_desired_ActionCallback+0x84>
			break;
		case MENU_CONFIRM:
			eeprom_update_byte(&eeBME280_temp_desired, BME280_temp_desired);
			return true;
		case MENU_CANCEL:
			return true;
    1eac:	81 e0       	ldi	r24, 0x01	; 1
	ChangeMsg();
	itoa(BME280_temp_desired, buf, 10);
	lcd_puts(buf);

	return false;
}
    1eae:	0f 90       	pop	r0
    1eb0:	0f 90       	pop	r0
    1eb2:	0f 90       	pop	r0
    1eb4:	0f 90       	pop	r0
    1eb6:	0f 90       	pop	r0
    1eb8:	df 91       	pop	r29
    1eba:	cf 91       	pop	r28
    1ebc:	08 95       	ret

00001ebe <DHW_temp_desired_ActionCallback>:
		lcd_puts_P("PWM: "); itoa(DHW_PWM_OCR, buf, 10);
	}
}


bool DHW_temp_desired_ActionCallback(MENU_BUTTON *button, uint8_t column){
    1ebe:	cf 93       	push	r28
    1ec0:	df 93       	push	r29
    1ec2:	00 d0       	rcall	.+0      	; 0x1ec4 <DHW_temp_desired_ActionCallback+0x6>
    1ec4:	00 d0       	rcall	.+0      	; 0x1ec6 <DHW_temp_desired_ActionCallback+0x8>
    1ec6:	1f 92       	push	r1
    1ec8:	cd b7       	in	r28, 0x3d	; 61
    1eca:	de b7       	in	r29, 0x3e	; 62
	switch(button->role){
    1ecc:	fc 01       	movw	r30, r24
    1ece:	80 81       	ld	r24, Z
    1ed0:	81 30       	cpi	r24, 0x01	; 1
    1ed2:	81 f0       	breq	.+32     	; 0x1ef4 <DHW_temp_desired_ActionCallback+0x36>
    1ed4:	28 f0       	brcs	.+10     	; 0x1ee0 <DHW_temp_desired_ActionCallback+0x22>
    1ed6:	82 30       	cpi	r24, 0x02	; 2
    1ed8:	b9 f0       	breq	.+46     	; 0x1f08 <DHW_temp_desired_ActionCallback+0x4a>
    1eda:	83 30       	cpi	r24, 0x03	; 3
    1edc:	89 f1       	breq	.+98     	; 0x1f40 <DHW_temp_desired_ActionCallback+0x82>
    1ede:	1e c0       	rjmp	.+60     	; 0x1f1c <DHW_temp_desired_ActionCallback+0x5e>
		case MENU_UP:
			++DHW_temp_desired;
    1ee0:	80 91 8e 03 	lds	r24, 0x038E	; 0x80038e <DHW_temp_desired>
    1ee4:	90 91 8f 03 	lds	r25, 0x038F	; 0x80038f <DHW_temp_desired+0x1>
    1ee8:	01 96       	adiw	r24, 0x01	; 1
    1eea:	90 93 8f 03 	sts	0x038F, r25	; 0x80038f <DHW_temp_desired+0x1>
    1eee:	80 93 8e 03 	sts	0x038E, r24	; 0x80038e <DHW_temp_desired>
			break;
    1ef2:	14 c0       	rjmp	.+40     	; 0x1f1c <DHW_temp_desired_ActionCallback+0x5e>
		case MENU_DOWN:
			--DHW_temp_desired;
    1ef4:	80 91 8e 03 	lds	r24, 0x038E	; 0x80038e <DHW_temp_desired>
    1ef8:	90 91 8f 03 	lds	r25, 0x038F	; 0x80038f <DHW_temp_desired+0x1>
    1efc:	01 97       	sbiw	r24, 0x01	; 1
    1efe:	90 93 8f 03 	sts	0x038F, r25	; 0x80038f <DHW_temp_desired+0x1>
    1f02:	80 93 8e 03 	sts	0x038E, r24	; 0x80038e <DHW_temp_desired>
			break;
    1f06:	0a c0       	rjmp	.+20     	; 0x1f1c <DHW_temp_desired_ActionCallback+0x5e>
		case MENU_CONFIRM:
			eeprom_update_byte(&eeDHW_temp_desired, DHW_temp_desired);
    1f08:	60 91 8e 03 	lds	r22, 0x038E	; 0x80038e <DHW_temp_desired>
    1f0c:	70 91 8f 03 	lds	r23, 0x038F	; 0x80038f <DHW_temp_desired+0x1>
    1f10:	85 e9       	ldi	r24, 0x95	; 149
    1f12:	93 e0       	ldi	r25, 0x03	; 3
    1f14:	0e 94 52 15 	call	0x2aa4	; 0x2aa4 <eeprom_update_byte>
			return true;
    1f18:	81 e0       	ldi	r24, 0x01	; 1
    1f1a:	13 c0       	rjmp	.+38     	; 0x1f42 <DHW_temp_desired_ActionCallback+0x84>
		case MENU_CANCEL:
			return true;
	}

	char buf[5];
	ChangeMsg();
    1f1c:	0e 94 b8 0e 	call	0x1d70	; 0x1d70 <ChangeMsg>
	itoa(DHW_temp_desired, buf, 10);
    1f20:	80 91 8e 03 	lds	r24, 0x038E	; 0x80038e <DHW_temp_desired>
    1f24:	90 91 8f 03 	lds	r25, 0x038F	; 0x80038f <DHW_temp_desired+0x1>
    1f28:	4a e0       	ldi	r20, 0x0A	; 10
    1f2a:	be 01       	movw	r22, r28
    1f2c:	6f 5f       	subi	r22, 0xFF	; 255
    1f2e:	7f 4f       	sbci	r23, 0xFF	; 255
    1f30:	0e 94 1d 15 	call	0x2a3a	; 0x2a3a <__itoa_ncheck>
	lcd_puts(buf);
    1f34:	ce 01       	movw	r24, r28
    1f36:	01 96       	adiw	r24, 0x01	; 1
    1f38:	0e 94 ff 07 	call	0xffe	; 0xffe <lcd_puts>

	return false;
    1f3c:	80 e0       	ldi	r24, 0x00	; 0
    1f3e:	01 c0       	rjmp	.+2      	; 0x1f42 <DHW_temp_desired_ActionCallback+0x84>
			break;
		case MENU_CONFIRM:
			eeprom_update_byte(&eeDHW_temp_desired, DHW_temp_desired);
			return true;
		case MENU_CANCEL:
			return true;
    1f40:	81 e0       	ldi	r24, 0x01	; 1
	ChangeMsg();
	itoa(DHW_temp_desired, buf, 10);
	lcd_puts(buf);

	return false;
}
    1f42:	0f 90       	pop	r0
    1f44:	0f 90       	pop	r0
    1f46:	0f 90       	pop	r0
    1f48:	0f 90       	pop	r0
    1f4a:	0f 90       	pop	r0
    1f4c:	df 91       	pop	r29
    1f4e:	cf 91       	pop	r28
    1f50:	08 95       	ret

00001f52 <DHW_temp_min_ActionCallback>:

bool DHW_temp_min_ActionCallback(MENU_BUTTON *button, uint8_t column){
    1f52:	cf 93       	push	r28
    1f54:	df 93       	push	r29
    1f56:	00 d0       	rcall	.+0      	; 0x1f58 <DHW_temp_min_ActionCallback+0x6>
    1f58:	00 d0       	rcall	.+0      	; 0x1f5a <DHW_temp_min_ActionCallback+0x8>
    1f5a:	1f 92       	push	r1
    1f5c:	cd b7       	in	r28, 0x3d	; 61
    1f5e:	de b7       	in	r29, 0x3e	; 62
	switch(button->role){
    1f60:	fc 01       	movw	r30, r24
    1f62:	80 81       	ld	r24, Z
    1f64:	81 30       	cpi	r24, 0x01	; 1
    1f66:	81 f0       	breq	.+32     	; 0x1f88 <DHW_temp_min_ActionCallback+0x36>
    1f68:	28 f0       	brcs	.+10     	; 0x1f74 <DHW_temp_min_ActionCallback+0x22>
    1f6a:	82 30       	cpi	r24, 0x02	; 2
    1f6c:	b9 f0       	breq	.+46     	; 0x1f9c <DHW_temp_min_ActionCallback+0x4a>
    1f6e:	83 30       	cpi	r24, 0x03	; 3
    1f70:	89 f1       	breq	.+98     	; 0x1fd4 <DHW_temp_min_ActionCallback+0x82>
    1f72:	1e c0       	rjmp	.+60     	; 0x1fb0 <DHW_temp_min_ActionCallback+0x5e>
		case MENU_UP:
			++DHW_temp_min;
    1f74:	80 91 af 03 	lds	r24, 0x03AF	; 0x8003af <DHW_temp_min>
    1f78:	90 91 b0 03 	lds	r25, 0x03B0	; 0x8003b0 <DHW_temp_min+0x1>
    1f7c:	01 96       	adiw	r24, 0x01	; 1
    1f7e:	90 93 b0 03 	sts	0x03B0, r25	; 0x8003b0 <DHW_temp_min+0x1>
    1f82:	80 93 af 03 	sts	0x03AF, r24	; 0x8003af <DHW_temp_min>
			break;
    1f86:	14 c0       	rjmp	.+40     	; 0x1fb0 <DHW_temp_min_ActionCallback+0x5e>
		case MENU_DOWN:
			--DHW_temp_min;
    1f88:	80 91 af 03 	lds	r24, 0x03AF	; 0x8003af <DHW_temp_min>
    1f8c:	90 91 b0 03 	lds	r25, 0x03B0	; 0x8003b0 <DHW_temp_min+0x1>
    1f90:	01 97       	sbiw	r24, 0x01	; 1
    1f92:	90 93 b0 03 	sts	0x03B0, r25	; 0x8003b0 <DHW_temp_min+0x1>
    1f96:	80 93 af 03 	sts	0x03AF, r24	; 0x8003af <DHW_temp_min>
			break;
    1f9a:	0a c0       	rjmp	.+20     	; 0x1fb0 <DHW_temp_min_ActionCallback+0x5e>
		case MENU_CONFIRM:
			eeprom_update_byte(&eeDHW_temp_min, DHW_temp_min);
    1f9c:	60 91 af 03 	lds	r22, 0x03AF	; 0x8003af <DHW_temp_min>
    1fa0:	70 91 b0 03 	lds	r23, 0x03B0	; 0x8003b0 <DHW_temp_min+0x1>
    1fa4:	88 e9       	ldi	r24, 0x98	; 152
    1fa6:	93 e0       	ldi	r25, 0x03	; 3
    1fa8:	0e 94 52 15 	call	0x2aa4	; 0x2aa4 <eeprom_update_byte>
			return true;
    1fac:	81 e0       	ldi	r24, 0x01	; 1
    1fae:	13 c0       	rjmp	.+38     	; 0x1fd6 <DHW_temp_min_ActionCallback+0x84>
		case MENU_CANCEL:
			return true;
	}

	char buf[5];
	ChangeMsg();
    1fb0:	0e 94 b8 0e 	call	0x1d70	; 0x1d70 <ChangeMsg>
	itoa(DHW_temp_min, buf, 10);
    1fb4:	80 91 af 03 	lds	r24, 0x03AF	; 0x8003af <DHW_temp_min>
    1fb8:	90 91 b0 03 	lds	r25, 0x03B0	; 0x8003b0 <DHW_temp_min+0x1>
    1fbc:	4a e0       	ldi	r20, 0x0A	; 10
    1fbe:	be 01       	movw	r22, r28
    1fc0:	6f 5f       	subi	r22, 0xFF	; 255
    1fc2:	7f 4f       	sbci	r23, 0xFF	; 255
    1fc4:	0e 94 1d 15 	call	0x2a3a	; 0x2a3a <__itoa_ncheck>
	lcd_puts(buf);
    1fc8:	ce 01       	movw	r24, r28
    1fca:	01 96       	adiw	r24, 0x01	; 1
    1fcc:	0e 94 ff 07 	call	0xffe	; 0xffe <lcd_puts>

	return false;
    1fd0:	80 e0       	ldi	r24, 0x00	; 0
    1fd2:	01 c0       	rjmp	.+2      	; 0x1fd6 <DHW_temp_min_ActionCallback+0x84>
			break;
		case MENU_CONFIRM:
			eeprom_update_byte(&eeDHW_temp_min, DHW_temp_min);
			return true;
		case MENU_CANCEL:
			return true;
    1fd4:	81 e0       	ldi	r24, 0x01	; 1
	ChangeMsg();
	itoa(DHW_temp_min, buf, 10);
	lcd_puts(buf);

	return false;
}
    1fd6:	0f 90       	pop	r0
    1fd8:	0f 90       	pop	r0
    1fda:	0f 90       	pop	r0
    1fdc:	0f 90       	pop	r0
    1fde:	0f 90       	pop	r0
    1fe0:	df 91       	pop	r29
    1fe2:	cf 91       	pop	r28
    1fe4:	08 95       	ret

00001fe6 <DHW_sensor_ActionCallback>:

bool DHW_sensor_ActionCallback(MENU_BUTTON *button, uint8_t column){
	switch(button->role){
    1fe6:	fc 01       	movw	r30, r24
    1fe8:	80 81       	ld	r24, Z
    1fea:	81 30       	cpi	r24, 0x01	; 1
    1fec:	71 f0       	breq	.+28     	; 0x200a <DHW_sensor_ActionCallback+0x24>
    1fee:	28 f0       	brcs	.+10     	; 0x1ffa <DHW_sensor_ActionCallback+0x14>
    1ff0:	82 30       	cpi	r24, 0x02	; 2
    1ff2:	a9 f0       	breq	.+42     	; 0x201e <DHW_sensor_ActionCallback+0x38>
    1ff4:	83 30       	cpi	r24, 0x03	; 3
    1ff6:	21 f1       	breq	.+72     	; 0x2040 <DHW_sensor_ActionCallback+0x5a>
    1ff8:	1a c0       	rjmp	.+52     	; 0x202e <DHW_sensor_ActionCallback+0x48>
		case MENU_UP:
			if (++DHW_sensor_ID > nSensors);
    1ffa:	80 91 d5 02 	lds	r24, 0x02D5	; 0x8002d5 <DHW_sensor_ID>
    1ffe:	8f 5f       	subi	r24, 0xFF	; 255
    2000:	80 93 d5 02 	sts	0x02D5, r24	; 0x8002d5 <DHW_sensor_ID>
				DHW_sensor_ID = 0;
    2004:	10 92 d5 02 	sts	0x02D5, r1	; 0x8002d5 <DHW_sensor_ID>
			break;
    2008:	12 c0       	rjmp	.+36     	; 0x202e <DHW_sensor_ActionCallback+0x48>
		case MENU_DOWN:
			if (--DHW_sensor_ID == 255);
    200a:	80 91 d5 02 	lds	r24, 0x02D5	; 0x8002d5 <DHW_sensor_ID>
    200e:	81 50       	subi	r24, 0x01	; 1
    2010:	80 93 d5 02 	sts	0x02D5, r24	; 0x8002d5 <DHW_sensor_ID>
				DHW_sensor_ID = nSensors;
    2014:	80 91 97 03 	lds	r24, 0x0397	; 0x800397 <nSensors>
    2018:	80 93 d5 02 	sts	0x02D5, r24	; 0x8002d5 <DHW_sensor_ID>
			break;
    201c:	08 c0       	rjmp	.+16     	; 0x202e <DHW_sensor_ActionCallback+0x48>
		case MENU_CONFIRM:
			eeprom_update_byte(&eeDHW_sensor_ID, DHW_sensor_ID);
    201e:	60 91 d5 02 	lds	r22, 0x02D5	; 0x8002d5 <DHW_sensor_ID>
    2022:	80 e0       	ldi	r24, 0x00	; 0
    2024:	90 e0       	ldi	r25, 0x00	; 0
    2026:	0e 94 52 15 	call	0x2aa4	; 0x2aa4 <eeprom_update_byte>
			return true;
    202a:	81 e0       	ldi	r24, 0x01	; 1
    202c:	08 95       	ret
		case MENU_CANCEL:
			return true;
	}

	ChangeMsg();
    202e:	0e 94 b8 0e 	call	0x1d70	; 0x1d70 <ChangeMsg>
	lcd_puts(DHW_sensor_ID);
    2032:	80 91 d5 02 	lds	r24, 0x02D5	; 0x8002d5 <DHW_sensor_ID>
    2036:	90 e0       	ldi	r25, 0x00	; 0
    2038:	0e 94 ff 07 	call	0xffe	; 0xffe <lcd_puts>

	return false;
    203c:	80 e0       	ldi	r24, 0x00	; 0
    203e:	08 95       	ret
			break;
		case MENU_CONFIRM:
			eeprom_update_byte(&eeDHW_sensor_ID, DHW_sensor_ID);
			return true;
		case MENU_CANCEL:
			return true;
    2040:	81 e0       	ldi	r24, 0x01	; 1

	ChangeMsg();
	lcd_puts(DHW_sensor_ID);

	return false;
}
    2042:	08 95       	ret

00002044 <DHW_PWM_ActionCallback>:

bool DHW_PWM_ActionCallback(MENU_BUTTON *button, uint8_t column){
	switch(button->role){
    2044:	fc 01       	movw	r30, r24
    2046:	80 81       	ld	r24, Z
    2048:	82 30       	cpi	r24, 0x02	; 2
    204a:	99 f0       	breq	.+38     	; 0x2072 <DHW_PWM_ActionCallback+0x2e>
    204c:	18 f0       	brcs	.+6      	; 0x2054 <DHW_PWM_ActionCallback+0x10>
    204e:	83 30       	cpi	r24, 0x03	; 3
    2050:	51 f1       	breq	.+84     	; 0x20a6 <DHW_PWM_ActionCallback+0x62>
    2052:	17 c0       	rjmp	.+46     	; 0x2082 <DHW_PWM_ActionCallback+0x3e>
		case MENU_UP:
		case MENU_DOWN:
			DHW_PWM ^= (1 << DHW_PWM);
    2054:	30 91 f7 03 	lds	r19, 0x03F7	; 0x8003f7 <DHW_PWM>
    2058:	20 91 f7 03 	lds	r18, 0x03F7	; 0x8003f7 <DHW_PWM>
    205c:	81 e0       	ldi	r24, 0x01	; 1
    205e:	90 e0       	ldi	r25, 0x00	; 0
    2060:	02 c0       	rjmp	.+4      	; 0x2066 <DHW_PWM_ActionCallback+0x22>
    2062:	88 0f       	add	r24, r24
    2064:	99 1f       	adc	r25, r25
    2066:	3a 95       	dec	r19
    2068:	e2 f7       	brpl	.-8      	; 0x2062 <DHW_PWM_ActionCallback+0x1e>
    206a:	82 27       	eor	r24, r18
    206c:	80 93 f7 03 	sts	0x03F7, r24	; 0x8003f7 <DHW_PWM>
			break;
    2070:	08 c0       	rjmp	.+16     	; 0x2082 <DHW_PWM_ActionCallback+0x3e>
		case MENU_CONFIRM:
			eeprom_update_byte(&eeDHW_PWM, DHW_PWM);
    2072:	60 91 f7 03 	lds	r22, 0x03F7	; 0x8003f7 <DHW_PWM>
    2076:	88 ef       	ldi	r24, 0xF8	; 248
    2078:	93 e0       	ldi	r25, 0x03	; 3
    207a:	0e 94 52 15 	call	0x2aa4	; 0x2aa4 <eeprom_update_byte>
			return true;
    207e:	81 e0       	ldi	r24, 0x01	; 1
    2080:	08 95       	ret
		case MENU_CANCEL:
			return true;
	}

	ChangeMsg();
    2082:	0e 94 b8 0e 	call	0x1d70	; 0x1d70 <ChangeMsg>
	if (DHW_PWM == 0)
    2086:	80 91 f7 03 	lds	r24, 0x03F7	; 0x8003f7 <DHW_PWM>
    208a:	81 11       	cpse	r24, r1
    208c:	06 c0       	rjmp	.+12     	; 0x209a <DHW_PWM_ActionCallback+0x56>
		lcd_puts_hu(PSTR("REL"));
    208e:	84 e8       	ldi	r24, 0x84	; 132
    2090:	92 e0       	ldi	r25, 0x02	; 2
    2092:	0e 94 7b 08 	call	0x10f6	; 0x10f6 <lcd_puts_hu>
	else
		lcd_puts_P("PWM");

	return false;
    2096:	80 e0       	ldi	r24, 0x00	; 0
    2098:	08 95       	ret

	ChangeMsg();
	if (DHW_PWM == 0)
		lcd_puts_hu(PSTR("REL"));
	else
		lcd_puts_P("PWM");
    209a:	80 e8       	ldi	r24, 0x80	; 128
    209c:	92 e0       	ldi	r25, 0x02	; 2
    209e:	0e 94 0f 08 	call	0x101e	; 0x101e <lcd_puts_p>

	return false;
    20a2:	80 e0       	ldi	r24, 0x00	; 0
    20a4:	08 95       	ret
			break;
		case MENU_CONFIRM:
			eeprom_update_byte(&eeDHW_PWM, DHW_PWM);
			return true;
		case MENU_CANCEL:
			return true;
    20a6:	81 e0       	ldi	r24, 0x01	; 1
		lcd_puts_hu(PSTR("REL"));
	else
		lcd_puts_P("PWM");

	return false;
}
    20a8:	08 95       	ret

000020aa <DHW_switch_ActionCallback>:

bool DHW_switch_ActionCallback(MENU_BUTTON *button, uint8_t column){
    20aa:	cf 93       	push	r28
    20ac:	df 93       	push	r29
    20ae:	00 d0       	rcall	.+0      	; 0x20b0 <DHW_switch_ActionCallback+0x6>
    20b0:	00 d0       	rcall	.+0      	; 0x20b2 <DHW_switch_ActionCallback+0x8>
    20b2:	00 d0       	rcall	.+0      	; 0x20b4 <DHW_switch_ActionCallback+0xa>
    20b4:	cd b7       	in	r28, 0x3d	; 61
    20b6:	de b7       	in	r29, 0x3e	; 62
	switch(button->role){
    20b8:	fc 01       	movw	r30, r24
    20ba:	80 81       	ld	r24, Z
    20bc:	82 30       	cpi	r24, 0x02	; 2
    20be:	18 f0       	brcs	.+6      	; 0x20c6 <DHW_switch_ActionCallback+0x1c>
    20c0:	84 30       	cpi	r24, 0x04	; 4
    20c2:	d8 f4       	brcc	.+54     	; 0x20fa <DHW_switch_ActionCallback+0x50>
    20c4:	3e c0       	rjmp	.+124    	; 0x2142 <DHW_switch_ActionCallback+0x98>
		case MENU_UP:
		case MENU_DOWN:
		{
			if (DHW_PWM == 0)
    20c6:	80 91 f7 03 	lds	r24, 0x03F7	; 0x8003f7 <DHW_PWM>
    20ca:	81 11       	cpse	r24, r1
    20cc:	0e c0       	rjmp	.+28     	; 0x20ea <DHW_switch_ActionCallback+0x40>
			{
				if (Pump_relays & DHW_RELAY)
    20ce:	80 91 ac 03 	lds	r24, 0x03AC	; 0x8003ac <Pump_relays>
    20d2:	80 ff       	sbrs	r24, 0
    20d4:	04 c0       	rjmp	.+8      	; 0x20de <DHW_switch_ActionCallback+0x34>
					Pump_relays &= ~(1 << DHW_RELAY);
    20d6:	8d 7f       	andi	r24, 0xFD	; 253
    20d8:	80 93 ac 03 	sts	0x03AC, r24	; 0x8003ac <Pump_relays>
    20dc:	03 c0       	rjmp	.+6      	; 0x20e4 <DHW_switch_ActionCallback+0x3a>
				else
					Pump_relays |= (1 << DHW_RELAY);
    20de:	82 60       	ori	r24, 0x02	; 2
    20e0:	80 93 ac 03 	sts	0x03AC, r24	; 0x8003ac <Pump_relays>
				SwitchPump();
    20e4:	0e 94 5b 0a 	call	0x14b6	; 0x14b6 <SwitchPump>
    20e8:	08 c0       	rjmp	.+16     	; 0x20fa <DHW_switch_ActionCallback+0x50>
			}
			else
			{
				if (DHW_PWM_OCR > 10)
    20ea:	83 b5       	in	r24, 0x23	; 35
    20ec:	8b 30       	cpi	r24, 0x0B	; 11
    20ee:	18 f0       	brcs	.+6      	; 0x20f6 <DHW_switch_ActionCallback+0x4c>
					switch_on_PWM_for_DHW_pump();
    20f0:	0e 94 59 0a 	call	0x14b2	; 0x14b2 <switch_on_PWM_for_DHW_pump>
    20f4:	02 c0       	rjmp	.+4      	; 0x20fa <DHW_switch_ActionCallback+0x50>
				else
					switch_off_PWM_for_DHW_pump();
    20f6:	0e 94 5a 0a 	call	0x14b4	; 0x14b4 <switch_off_PWM_for_DHW_pump>
			return true;
		case MENU_CANCEL:
			return true;
	}

	ChangeMsg();
    20fa:	0e 94 b8 0e 	call	0x1d70	; 0x1d70 <ChangeMsg>
	if (DHW_PWM == 0)
    20fe:	80 91 f7 03 	lds	r24, 0x03F7	; 0x8003f7 <DHW_PWM>
    2102:	81 11       	cpse	r24, r1
    2104:	10 c0       	rjmp	.+32     	; 0x2126 <DHW_switch_ActionCallback+0x7c>
	{	
		if (Pump_relays & DHW_RELAY)
    2106:	80 91 ac 03 	lds	r24, 0x03AC	; 0x8003ac <Pump_relays>
    210a:	80 ff       	sbrs	r24, 0
    210c:	06 c0       	rjmp	.+12     	; 0x211a <DHW_switch_ActionCallback+0x70>
			lcd_puts_hu(PSTR("Rel bekapcsolva"));
    210e:	8f e6       	ldi	r24, 0x6F	; 111
    2110:	92 e0       	ldi	r25, 0x02	; 2
    2112:	0e 94 7b 08 	call	0x10f6	; 0x10f6 <lcd_puts_hu>
	{
		char buf[6];
		lcd_puts_P("PWM: "); itoa(DHW_PWM_OCR, buf, 10);
	}

	return false;
    2116:	80 e0       	ldi	r24, 0x00	; 0
    2118:	15 c0       	rjmp	.+42     	; 0x2144 <DHW_switch_ActionCallback+0x9a>
	if (DHW_PWM == 0)
	{	
		if (Pump_relays & DHW_RELAY)
			lcd_puts_hu(PSTR("Rel bekapcsolva"));
		else
			lcd_puts_hu(PSTR("Rel kikapcsolva"));
    211a:	8e e5       	ldi	r24, 0x5E	; 94
    211c:	92 e0       	ldi	r25, 0x02	; 2
    211e:	0e 94 7b 08 	call	0x10f6	; 0x10f6 <lcd_puts_hu>
	{
		char buf[6];
		lcd_puts_P("PWM: "); itoa(DHW_PWM_OCR, buf, 10);
	}

	return false;
    2122:	80 e0       	ldi	r24, 0x00	; 0
    2124:	0f c0       	rjmp	.+30     	; 0x2144 <DHW_switch_ActionCallback+0x9a>
			lcd_puts_hu(PSTR("Rel kikapcsolva"));
	}
	else
	{
		char buf[6];
		lcd_puts_P("PWM: "); itoa(DHW_PWM_OCR, buf, 10);
    2126:	88 e5       	ldi	r24, 0x58	; 88
    2128:	92 e0       	ldi	r25, 0x02	; 2
    212a:	0e 94 0f 08 	call	0x101e	; 0x101e <lcd_puts_p>
    212e:	83 b5       	in	r24, 0x23	; 35
    2130:	4a e0       	ldi	r20, 0x0A	; 10
    2132:	be 01       	movw	r22, r28
    2134:	6f 5f       	subi	r22, 0xFF	; 255
    2136:	7f 4f       	sbci	r23, 0xFF	; 255
    2138:	90 e0       	ldi	r25, 0x00	; 0
    213a:	0e 94 1d 15 	call	0x2a3a	; 0x2a3a <__itoa_ncheck>
	}

	return false;
    213e:	80 e0       	ldi	r24, 0x00	; 0
    2140:	01 c0       	rjmp	.+2      	; 0x2144 <DHW_switch_ActionCallback+0x9a>
					switch_off_PWM_for_DHW_pump();
			}
			break;
		}
		case MENU_CONFIRM:
			return true;
    2142:	81 e0       	ldi	r24, 0x01	; 1
		char buf[6];
		lcd_puts_P("PWM: "); itoa(DHW_PWM_OCR, buf, 10);
	}

	return false;
}
    2144:	26 96       	adiw	r28, 0x06	; 6
    2146:	0f b6       	in	r0, 0x3f	; 63
    2148:	f8 94       	cli
    214a:	de bf       	out	0x3e, r29	; 62
    214c:	0f be       	out	0x3f, r0	; 63
    214e:	cd bf       	out	0x3d, r28	; 61
    2150:	df 91       	pop	r29
    2152:	cf 91       	pop	r28
    2154:	08 95       	ret

00002156 <ZoneValve1_ActionCallback>:
		char buf[6];
		lcd_puts_P("PWM: "); itoa(DHW_PWM_OCR, buf, 10);
	}
}

bool ZoneValve1_ActionCallback(MENU_BUTTON *button, uint8_t column){
    2156:	cf 93       	push	r28
    2158:	df 93       	push	r29
    215a:	00 d0       	rcall	.+0      	; 0x215c <ZoneValve1_ActionCallback+0x6>
    215c:	00 d0       	rcall	.+0      	; 0x215e <ZoneValve1_ActionCallback+0x8>
    215e:	00 d0       	rcall	.+0      	; 0x2160 <ZoneValve1_ActionCallback+0xa>
    2160:	cd b7       	in	r28, 0x3d	; 61
    2162:	de b7       	in	r29, 0x3e	; 62
	switch(button->role){
    2164:	fc 01       	movw	r30, r24
    2166:	80 81       	ld	r24, Z
    2168:	82 30       	cpi	r24, 0x02	; 2
    216a:	18 f0       	brcs	.+6      	; 0x2172 <ZoneValve1_ActionCallback+0x1c>
    216c:	84 30       	cpi	r24, 0x04	; 4
    216e:	d8 f4       	brcc	.+54     	; 0x21a6 <ZoneValve1_ActionCallback+0x50>
    2170:	3e c0       	rjmp	.+124    	; 0x21ee <ZoneValve1_ActionCallback+0x98>
		case MENU_UP:
		case MENU_DOWN:
		{
			if (DHW_PWM == 0)
    2172:	80 91 f7 03 	lds	r24, 0x03F7	; 0x8003f7 <DHW_PWM>
    2176:	81 11       	cpse	r24, r1
    2178:	0e c0       	rjmp	.+28     	; 0x2196 <ZoneValve1_ActionCallback+0x40>
			{
				if (Pump_relays & DHW_RELAY)
    217a:	80 91 ac 03 	lds	r24, 0x03AC	; 0x8003ac <Pump_relays>
    217e:	80 ff       	sbrs	r24, 0
    2180:	04 c0       	rjmp	.+8      	; 0x218a <ZoneValve1_ActionCallback+0x34>
				Pump_relays &= ~(1 << DHW_RELAY);
    2182:	8d 7f       	andi	r24, 0xFD	; 253
    2184:	80 93 ac 03 	sts	0x03AC, r24	; 0x8003ac <Pump_relays>
    2188:	03 c0       	rjmp	.+6      	; 0x2190 <ZoneValve1_ActionCallback+0x3a>
				else
				Pump_relays |= (1 << DHW_RELAY);
    218a:	82 60       	ori	r24, 0x02	; 2
    218c:	80 93 ac 03 	sts	0x03AC, r24	; 0x8003ac <Pump_relays>
				SwitchPump();
    2190:	0e 94 5b 0a 	call	0x14b6	; 0x14b6 <SwitchPump>
    2194:	08 c0       	rjmp	.+16     	; 0x21a6 <ZoneValve1_ActionCallback+0x50>
			}
			else
			{
				if (DHW_PWM_OCR > 10)
    2196:	83 b5       	in	r24, 0x23	; 35
    2198:	8b 30       	cpi	r24, 0x0B	; 11
    219a:	18 f0       	brcs	.+6      	; 0x21a2 <ZoneValve1_ActionCallback+0x4c>
				switch_on_PWM_for_DHW_pump();
    219c:	0e 94 59 0a 	call	0x14b2	; 0x14b2 <switch_on_PWM_for_DHW_pump>
    21a0:	02 c0       	rjmp	.+4      	; 0x21a6 <ZoneValve1_ActionCallback+0x50>
				else
				switch_off_PWM_for_DHW_pump();
    21a2:	0e 94 5a 0a 	call	0x14b4	; 0x14b4 <switch_off_PWM_for_DHW_pump>
		return true;
		case MENU_CANCEL:
		return true;
	}

	ChangeMsg();
    21a6:	0e 94 b8 0e 	call	0x1d70	; 0x1d70 <ChangeMsg>
	if (DHW_PWM == 0)
    21aa:	80 91 f7 03 	lds	r24, 0x03F7	; 0x8003f7 <DHW_PWM>
    21ae:	81 11       	cpse	r24, r1
    21b0:	10 c0       	rjmp	.+32     	; 0x21d2 <ZoneValve1_ActionCallback+0x7c>
	{
		if (Pump_relays & DHW_RELAY)
    21b2:	80 91 ac 03 	lds	r24, 0x03AC	; 0x8003ac <Pump_relays>
    21b6:	80 ff       	sbrs	r24, 0
    21b8:	06 c0       	rjmp	.+12     	; 0x21c6 <ZoneValve1_ActionCallback+0x70>
		lcd_puts_hu(PSTR("Rel bekapcsolva"));
    21ba:	8d e0       	ldi	r24, 0x0D	; 13
    21bc:	92 e0       	ldi	r25, 0x02	; 2
    21be:	0e 94 7b 08 	call	0x10f6	; 0x10f6 <lcd_puts_hu>
	{
		char buf[6];
		lcd_puts_P("PWM: "); itoa(DHW_PWM_OCR, buf, 10);
	}

	return false;
    21c2:	80 e0       	ldi	r24, 0x00	; 0
    21c4:	15 c0       	rjmp	.+42     	; 0x21f0 <ZoneValve1_ActionCallback+0x9a>
	if (DHW_PWM == 0)
	{
		if (Pump_relays & DHW_RELAY)
		lcd_puts_hu(PSTR("Rel bekapcsolva"));
		else
		lcd_puts_hu(PSTR("Rel kikapcsolva"));
    21c6:	8c ef       	ldi	r24, 0xFC	; 252
    21c8:	91 e0       	ldi	r25, 0x01	; 1
    21ca:	0e 94 7b 08 	call	0x10f6	; 0x10f6 <lcd_puts_hu>
	{
		char buf[6];
		lcd_puts_P("PWM: "); itoa(DHW_PWM_OCR, buf, 10);
	}

	return false;
    21ce:	80 e0       	ldi	r24, 0x00	; 0
    21d0:	0f c0       	rjmp	.+30     	; 0x21f0 <ZoneValve1_ActionCallback+0x9a>
		lcd_puts_hu(PSTR("Rel kikapcsolva"));
	}
	else
	{
		char buf[6];
		lcd_puts_P("PWM: "); itoa(DHW_PWM_OCR, buf, 10);
    21d2:	86 ef       	ldi	r24, 0xF6	; 246
    21d4:	91 e0       	ldi	r25, 0x01	; 1
    21d6:	0e 94 0f 08 	call	0x101e	; 0x101e <lcd_puts_p>
    21da:	83 b5       	in	r24, 0x23	; 35
    21dc:	4a e0       	ldi	r20, 0x0A	; 10
    21de:	be 01       	movw	r22, r28
    21e0:	6f 5f       	subi	r22, 0xFF	; 255
    21e2:	7f 4f       	sbci	r23, 0xFF	; 255
    21e4:	90 e0       	ldi	r25, 0x00	; 0
    21e6:	0e 94 1d 15 	call	0x2a3a	; 0x2a3a <__itoa_ncheck>
	}

	return false;
    21ea:	80 e0       	ldi	r24, 0x00	; 0
    21ec:	01 c0       	rjmp	.+2      	; 0x21f0 <ZoneValve1_ActionCallback+0x9a>
				switch_off_PWM_for_DHW_pump();
			}
			break;
		}
		case MENU_CONFIRM:
		return true;
    21ee:	81 e0       	ldi	r24, 0x01	; 1
		char buf[6];
		lcd_puts_P("PWM: "); itoa(DHW_PWM_OCR, buf, 10);
	}

	return false;
}
    21f0:	26 96       	adiw	r28, 0x06	; 6
    21f2:	0f b6       	in	r0, 0x3f	; 63
    21f4:	f8 94       	cli
    21f6:	de bf       	out	0x3e, r29	; 62
    21f8:	0f be       	out	0x3f, r0	; 63
    21fa:	cd bf       	out	0x3d, r28	; 61
    21fc:	df 91       	pop	r29
    21fe:	cf 91       	pop	r28
    2200:	08 95       	ret

00002202 <menuItemsGetHomeMenu>:
** Public methods to access home view and home view size
*/

MENU_ITEM *menuItemsGetHomeMenu(){
	return home_items;
}
    2202:	82 e4       	ldi	r24, 0x42	; 66
    2204:	91 e0       	ldi	r25, 0x01	; 1
    2206:	08 95       	ret

00002208 <menuItemsGetHomeMenuSize>:

uint8_t menuItemsGetHomeMenuSize(){
	return MENU_HOME_ITEMS;
    2208:	83 e0       	ldi	r24, 0x03	; 3
    220a:	08 95       	ret

0000220c <menuPortsioInit>:
#include "menu_portsio.h"


static void setupPortsForControlButtons(){
	// Set buttons as input
	MENU_PORTSIO_DDR &= ~(_BV(MENU_PORTSIO_BTN_UP)     |
    220c:	81 b3       	in	r24, 0x11	; 17
    220e:	8f 70       	andi	r24, 0x0F	; 15
    2210:	81 bb       	out	0x11, r24	; 17
					     _BV(MENU_PORTSIO_BTN_DOWN)    |
					     _BV(MENU_PORTSIO_BTN_CONFIRM) |
					     _BV(MENU_PORTSIO_BTN_CANCEL));

	// with active low
	MENU_PORTSIO_PORT |= _BV(MENU_PORTSIO_BTN_UP)      |
    2212:	82 b3       	in	r24, 0x12	; 18
    2214:	80 6f       	ori	r24, 0xF0	; 240
    2216:	82 bb       	out	0x12, r24	; 18
    2218:	08 95       	ret

0000221a <SPIInit>:
#include "spi.h"

void SPIInit()
{
	//Set up SPI I/O Ports
	SPI_DDR |= (1<<MOSI_POS)|(1<<SCK_POS)|(1<<SS_POS);
    221a:	87 b3       	in	r24, 0x17	; 23
    221c:	87 60       	ori	r24, 0x07	; 7
    221e:	87 bb       	out	0x17, r24	; 23
	
	SPI_PORT |= (1<<SS_POS)|(1 << MISO_POS);
    2220:	88 b3       	in	r24, 0x18	; 24
    2222:	89 60       	ori	r24, 0x09	; 9
    2224:	88 bb       	out	0x18, r24	; 24

	SPI_CS_PORT |= 0xFF;
    2226:	8b b3       	in	r24, 0x1b	; 27
    2228:	8f ef       	ldi	r24, 0xFF	; 255
    222a:	8b bb       	out	0x1b, r24	; 27
	SPI_CS_DDR |= 0xFF;
    222c:	9a b3       	in	r25, 0x1a	; 26
    222e:	8a bb       	out	0x1a, r24	; 26

	SPCR |= (1 << SPE)|(1 << MSTR)|(1 << SPR0)|(1 << SPR1);
    2230:	8d b1       	in	r24, 0x0d	; 13
    2232:	83 65       	ori	r24, 0x53	; 83
    2234:	8d b9       	out	0x0d, r24	; 13
    2236:	08 95       	ret

00002238 <SPIClose>:
}

void SPIClose()
{
	SPCR&=(~(1<<SPE));
    2238:	6e 98       	cbi	0x0d, 6	; 13
	SPI_DDR&=(~((1<<MOSI_POS)|(1<<SCK_POS)));
    223a:	87 b3       	in	r24, 0x17	; 23
    223c:	89 7f       	andi	r24, 0xF9	; 249
    223e:	87 bb       	out	0x17, r24	; 23
    2240:	08 95       	ret

00002242 <SPIWrite>:
}

unsigned char SPIWrite(unsigned char address, unsigned char data)
{
	SPI_CS_PORT &= ~(1 << address);
    2242:	4b b3       	in	r20, 0x1b	; 27
    2244:	21 e0       	ldi	r18, 0x01	; 1
    2246:	30 e0       	ldi	r19, 0x00	; 0
    2248:	f9 01       	movw	r30, r18
    224a:	02 c0       	rjmp	.+4      	; 0x2250 <SPIWrite+0xe>
    224c:	ee 0f       	add	r30, r30
    224e:	ff 1f       	adc	r31, r31
    2250:	8a 95       	dec	r24
    2252:	e2 f7       	brpl	.-8      	; 0x224c <SPIWrite+0xa>
    2254:	cf 01       	movw	r24, r30
    2256:	2e 2f       	mov	r18, r30
    2258:	20 95       	com	r18
    225a:	42 23       	and	r20, r18
    225c:	4b bb       	out	0x1b, r20	; 27
	SPDR = data;
    225e:	6f b9       	out	0x0f, r22	; 15
	while(!(SPSR & (1 << SPIF)));
    2260:	77 9b       	sbis	0x0e, 7	; 14
    2262:	fe cf       	rjmp	.-4      	; 0x2260 <SPIWrite+0x1e>
	SPI_CS_PORT |= (1 << address);
    2264:	9b b3       	in	r25, 0x1b	; 27
    2266:	89 2b       	or	r24, r25
    2268:	8b bb       	out	0x1b, r24	; 27
	return SPDR;
    226a:	8f b1       	in	r24, 0x0f	; 15
}
    226c:	08 95       	ret

0000226e <__vector_18>:
**************************************************************************/
void uart_puthex_byte(const unsigned char  b)
{
	uart_puthex_nibble(b>>4);
	uart_puthex_nibble(b);
} /* uart_puthex_byte */
    226e:	1f 92       	push	r1
    2270:	0f 92       	push	r0
    2272:	0f b6       	in	r0, 0x3f	; 63
    2274:	0f 92       	push	r0
    2276:	11 24       	eor	r1, r1
    2278:	2f 93       	push	r18
    227a:	8f 93       	push	r24
    227c:	9f 93       	push	r25
    227e:	ef 93       	push	r30
    2280:	ff 93       	push	r31
    2282:	8b b1       	in	r24, 0x0b	; 11
    2284:	2c b1       	in	r18, 0x0c	; 12
    2286:	8c 71       	andi	r24, 0x1C	; 28
    2288:	e0 91 1e 03 	lds	r30, 0x031E	; 0x80031e <UART_RxHead>
    228c:	ef 5f       	subi	r30, 0xFF	; 255
    228e:	ef 71       	andi	r30, 0x1F	; 31
    2290:	90 91 1d 03 	lds	r25, 0x031D	; 0x80031d <UART_RxTail>
    2294:	e9 17       	cp	r30, r25
    2296:	39 f0       	breq	.+14     	; 0x22a6 <__vector_18+0x38>
    2298:	e0 93 1e 03 	sts	0x031E, r30	; 0x80031e <UART_RxHead>
    229c:	f0 e0       	ldi	r31, 0x00	; 0
    229e:	ef 5d       	subi	r30, 0xDF	; 223
    22a0:	fc 4f       	sbci	r31, 0xFC	; 252
    22a2:	20 83       	st	Z, r18
    22a4:	01 c0       	rjmp	.+2      	; 0x22a8 <__vector_18+0x3a>
    22a6:	82 e0       	ldi	r24, 0x02	; 2
    22a8:	90 91 1c 03 	lds	r25, 0x031C	; 0x80031c <UART_LastRxError>
    22ac:	89 2b       	or	r24, r25
    22ae:	80 93 1c 03 	sts	0x031C, r24	; 0x80031c <UART_LastRxError>
    22b2:	ff 91       	pop	r31
    22b4:	ef 91       	pop	r30
    22b6:	9f 91       	pop	r25
    22b8:	8f 91       	pop	r24
    22ba:	2f 91       	pop	r18
    22bc:	0f 90       	pop	r0
    22be:	0f be       	out	0x3f, r0	; 63
    22c0:	0f 90       	pop	r0
    22c2:	1f 90       	pop	r1
    22c4:	18 95       	reti

000022c6 <__vector_19>:
    22c6:	1f 92       	push	r1
    22c8:	0f 92       	push	r0
    22ca:	0f b6       	in	r0, 0x3f	; 63
    22cc:	0f 92       	push	r0
    22ce:	11 24       	eor	r1, r1
    22d0:	8f 93       	push	r24
    22d2:	9f 93       	push	r25
    22d4:	ef 93       	push	r30
    22d6:	ff 93       	push	r31
    22d8:	90 91 20 03 	lds	r25, 0x0320	; 0x800320 <UART_TxHead>
    22dc:	80 91 1f 03 	lds	r24, 0x031F	; 0x80031f <UART_TxTail>
    22e0:	98 17       	cp	r25, r24
    22e2:	61 f0       	breq	.+24     	; 0x22fc <__vector_19+0x36>
    22e4:	e0 91 1f 03 	lds	r30, 0x031F	; 0x80031f <UART_TxTail>
    22e8:	ef 5f       	subi	r30, 0xFF	; 255
    22ea:	ef 71       	andi	r30, 0x1F	; 31
    22ec:	e0 93 1f 03 	sts	0x031F, r30	; 0x80031f <UART_TxTail>
    22f0:	f0 e0       	ldi	r31, 0x00	; 0
    22f2:	ef 5b       	subi	r30, 0xBF	; 191
    22f4:	fc 4f       	sbci	r31, 0xFC	; 252
    22f6:	80 81       	ld	r24, Z
    22f8:	8c b9       	out	0x0c, r24	; 12
    22fa:	01 c0       	rjmp	.+2      	; 0x22fe <__vector_19+0x38>
    22fc:	55 98       	cbi	0x0a, 5	; 10
    22fe:	ff 91       	pop	r31
    2300:	ef 91       	pop	r30
    2302:	9f 91       	pop	r25
    2304:	8f 91       	pop	r24
    2306:	0f 90       	pop	r0
    2308:	0f be       	out	0x3f, r0	; 63
    230a:	0f 90       	pop	r0
    230c:	1f 90       	pop	r1
    230e:	18 95       	reti

00002310 <uart_init>:
    2310:	10 92 20 03 	sts	0x0320, r1	; 0x800320 <UART_TxHead>
    2314:	10 92 1f 03 	sts	0x031F, r1	; 0x80031f <UART_TxTail>
    2318:	10 92 1e 03 	sts	0x031E, r1	; 0x80031e <UART_RxHead>
    231c:	10 92 1d 03 	sts	0x031D, r1	; 0x80031d <UART_RxTail>
    2320:	99 23       	and	r25, r25
    2322:	14 f4       	brge	.+4      	; 0x2328 <uart_init+0x18>
    2324:	22 e0       	ldi	r18, 0x02	; 2
    2326:	2b b9       	out	0x0b, r18	; 11
    2328:	90 78       	andi	r25, 0x80	; 128
    232a:	90 93 90 00 	sts	0x0090, r25	; 0x800090 <__TEXT_REGION_LENGTH__+0x7e0090>
    232e:	89 b9       	out	0x09, r24	; 9
    2330:	88 e9       	ldi	r24, 0x98	; 152
    2332:	8a b9       	out	0x0a, r24	; 10
    2334:	86 e0       	ldi	r24, 0x06	; 6
    2336:	80 93 95 00 	sts	0x0095, r24	; 0x800095 <__TEXT_REGION_LENGTH__+0x7e0095>
    233a:	08 95       	ret

0000233c <uart_putc>:
    233c:	20 91 20 03 	lds	r18, 0x0320	; 0x800320 <UART_TxHead>
    2340:	2f 5f       	subi	r18, 0xFF	; 255
    2342:	2f 71       	andi	r18, 0x1F	; 31
    2344:	90 91 1f 03 	lds	r25, 0x031F	; 0x80031f <UART_TxTail>
    2348:	29 17       	cp	r18, r25
    234a:	e1 f3       	breq	.-8      	; 0x2344 <uart_putc+0x8>
    234c:	e2 2f       	mov	r30, r18
    234e:	f0 e0       	ldi	r31, 0x00	; 0
    2350:	ef 5b       	subi	r30, 0xBF	; 191
    2352:	fc 4f       	sbci	r31, 0xFC	; 252
    2354:	80 83       	st	Z, r24
    2356:	20 93 20 03 	sts	0x0320, r18	; 0x800320 <UART_TxHead>
    235a:	55 9a       	sbi	0x0a, 5	; 10
    235c:	08 95       	ret

0000235e <uart_puts>:
    235e:	cf 93       	push	r28
    2360:	df 93       	push	r29
    2362:	ec 01       	movw	r28, r24
    2364:	88 81       	ld	r24, Y
    2366:	88 23       	and	r24, r24
    2368:	31 f0       	breq	.+12     	; 0x2376 <uart_puts+0x18>
    236a:	21 96       	adiw	r28, 0x01	; 1
    236c:	0e 94 9e 11 	call	0x233c	; 0x233c <uart_putc>
    2370:	89 91       	ld	r24, Y+
    2372:	81 11       	cpse	r24, r1
    2374:	fb cf       	rjmp	.-10     	; 0x236c <uart_puts+0xe>
    2376:	df 91       	pop	r29
    2378:	cf 91       	pop	r28
    237a:	08 95       	ret

0000237c <uart_puts_p>:
    237c:	cf 93       	push	r28
    237e:	df 93       	push	r29
    2380:	ec 01       	movw	r28, r24
    2382:	21 96       	adiw	r28, 0x01	; 1
    2384:	fc 01       	movw	r30, r24
    2386:	84 91       	lpm	r24, Z
    2388:	88 23       	and	r24, r24
    238a:	39 f0       	breq	.+14     	; 0x239a <uart_puts_p+0x1e>
    238c:	0e 94 9e 11 	call	0x233c	; 0x233c <uart_putc>
    2390:	fe 01       	movw	r30, r28
    2392:	84 91       	lpm	r24, Z
    2394:	21 96       	adiw	r28, 0x01	; 1
    2396:	81 11       	cpse	r24, r1
    2398:	f9 cf       	rjmp	.-14     	; 0x238c <uart_puts_p+0x10>
    239a:	df 91       	pop	r29
    239c:	cf 91       	pop	r28
    239e:	08 95       	ret

000023a0 <__vector_30>:
    23a0:	1f 92       	push	r1
    23a2:	0f 92       	push	r0
    23a4:	0f b6       	in	r0, 0x3f	; 63
    23a6:	0f 92       	push	r0
    23a8:	11 24       	eor	r1, r1
    23aa:	2f 93       	push	r18
    23ac:	8f 93       	push	r24
    23ae:	9f 93       	push	r25
    23b0:	ef 93       	push	r30
    23b2:	ff 93       	push	r31
    23b4:	80 91 9b 00 	lds	r24, 0x009B	; 0x80009b <__TEXT_REGION_LENGTH__+0x7e009b>
    23b8:	20 91 9c 00 	lds	r18, 0x009C	; 0x80009c <__TEXT_REGION_LENGTH__+0x7e009c>
    23bc:	8c 71       	andi	r24, 0x1C	; 28
    23be:	e0 91 d9 02 	lds	r30, 0x02D9	; 0x8002d9 <UART1_RxHead>
    23c2:	ef 5f       	subi	r30, 0xFF	; 255
    23c4:	ef 71       	andi	r30, 0x1F	; 31
    23c6:	90 91 d8 02 	lds	r25, 0x02D8	; 0x8002d8 <UART1_RxTail>
    23ca:	e9 17       	cp	r30, r25
    23cc:	39 f0       	breq	.+14     	; 0x23dc <__vector_30+0x3c>
    23ce:	e0 93 d9 02 	sts	0x02D9, r30	; 0x8002d9 <UART1_RxHead>
    23d2:	f0 e0       	ldi	r31, 0x00	; 0
    23d4:	e4 52       	subi	r30, 0x24	; 36
    23d6:	fd 4f       	sbci	r31, 0xFD	; 253
    23d8:	20 83       	st	Z, r18
    23da:	01 c0       	rjmp	.+2      	; 0x23de <__vector_30+0x3e>
    23dc:	82 e0       	ldi	r24, 0x02	; 2
    23de:	90 91 d7 02 	lds	r25, 0x02D7	; 0x8002d7 <UART1_LastRxError>
    23e2:	89 2b       	or	r24, r25
    23e4:	80 93 d7 02 	sts	0x02D7, r24	; 0x8002d7 <UART1_LastRxError>
    23e8:	ff 91       	pop	r31
    23ea:	ef 91       	pop	r30
    23ec:	9f 91       	pop	r25
    23ee:	8f 91       	pop	r24
    23f0:	2f 91       	pop	r18
    23f2:	0f 90       	pop	r0
    23f4:	0f be       	out	0x3f, r0	; 63
    23f6:	0f 90       	pop	r0
    23f8:	1f 90       	pop	r1
    23fa:	18 95       	reti

000023fc <__vector_31>:
    23fc:	1f 92       	push	r1
    23fe:	0f 92       	push	r0
    2400:	0f b6       	in	r0, 0x3f	; 63
    2402:	0f 92       	push	r0
    2404:	11 24       	eor	r1, r1
    2406:	8f 93       	push	r24
    2408:	9f 93       	push	r25
    240a:	ef 93       	push	r30
    240c:	ff 93       	push	r31
    240e:	90 91 db 02 	lds	r25, 0x02DB	; 0x8002db <UART1_TxHead>
    2412:	80 91 da 02 	lds	r24, 0x02DA	; 0x8002da <UART1_TxTail>
    2416:	98 17       	cp	r25, r24
    2418:	69 f0       	breq	.+26     	; 0x2434 <__vector_31+0x38>
    241a:	e0 91 da 02 	lds	r30, 0x02DA	; 0x8002da <UART1_TxTail>
    241e:	ef 5f       	subi	r30, 0xFF	; 255
    2420:	ef 71       	andi	r30, 0x1F	; 31
    2422:	e0 93 da 02 	sts	0x02DA, r30	; 0x8002da <UART1_TxTail>
    2426:	f0 e0       	ldi	r31, 0x00	; 0
    2428:	e4 50       	subi	r30, 0x04	; 4
    242a:	fd 4f       	sbci	r31, 0xFD	; 253
    242c:	80 81       	ld	r24, Z
    242e:	80 93 9c 00 	sts	0x009C, r24	; 0x80009c <__TEXT_REGION_LENGTH__+0x7e009c>
    2432:	05 c0       	rjmp	.+10     	; 0x243e <__vector_31+0x42>
    2434:	ea e9       	ldi	r30, 0x9A	; 154
    2436:	f0 e0       	ldi	r31, 0x00	; 0
    2438:	80 81       	ld	r24, Z
    243a:	8f 7d       	andi	r24, 0xDF	; 223
    243c:	80 83       	st	Z, r24
    243e:	ff 91       	pop	r31
    2440:	ef 91       	pop	r30
    2442:	9f 91       	pop	r25
    2444:	8f 91       	pop	r24
    2446:	0f 90       	pop	r0
    2448:	0f be       	out	0x3f, r0	; 63
    244a:	0f 90       	pop	r0
    244c:	1f 90       	pop	r1
    244e:	18 95       	reti

00002450 <uart_puthex_nibble>:
    2450:	8f 70       	andi	r24, 0x0F	; 15
    2452:	8a 30       	cpi	r24, 0x0A	; 10
    2454:	10 f0       	brcs	.+4      	; 0x245a <uart_puthex_nibble+0xa>
    2456:	89 5c       	subi	r24, 0xC9	; 201
    2458:	01 c0       	rjmp	.+2      	; 0x245c <uart_puthex_nibble+0xc>
    245a:	80 5d       	subi	r24, 0xD0	; 208
    245c:	0e 94 9e 11 	call	0x233c	; 0x233c <uart_putc>
    2460:	08 95       	ret

00002462 <uart_puti>:
Returns:  none
This functions has been added by Martin Thomas <eversmith@heizung-thomas.de>
Don't blame P. Fleury if it doesn't work ;-)
**************************************************************************/
void uart_puti( const int val )
{
    2462:	cf 93       	push	r28
    2464:	df 93       	push	r29
    2466:	cd b7       	in	r28, 0x3d	; 61
    2468:	de b7       	in	r29, 0x3e	; 62
    246a:	61 97       	sbiw	r28, 0x11	; 17
    246c:	0f b6       	in	r0, 0x3f	; 63
    246e:	f8 94       	cli
    2470:	de bf       	out	0x3e, r29	; 62
    2472:	0f be       	out	0x3f, r0	; 63
    2474:	cd bf       	out	0x3d, r28	; 61
    2476:	4a e0       	ldi	r20, 0x0A	; 10
    2478:	be 01       	movw	r22, r28
    247a:	6f 5f       	subi	r22, 0xFF	; 255
    247c:	7f 4f       	sbci	r23, 0xFF	; 255
    247e:	0e 94 1d 15 	call	0x2a3a	; 0x2a3a <__itoa_ncheck>
	char buffer[sizeof(int)*8+1];
	
	uart_puts( itoa(val, buffer, 10) );
    2482:	0e 94 af 11 	call	0x235e	; 0x235e <uart_puts>

}/* uart_puti */
    2486:	61 96       	adiw	r28, 0x11	; 17
    2488:	0f b6       	in	r0, 0x3f	; 63
    248a:	f8 94       	cli
    248c:	de bf       	out	0x3e, r29	; 62
    248e:	0f be       	out	0x3f, r0	; 63
    2490:	cd bf       	out	0x3d, r28	; 61
    2492:	df 91       	pop	r29
    2494:	cf 91       	pop	r28
    2496:	08 95       	ret

00002498 <ftoa>:
#include "ftoa.h"


char *ftoa(char *a, double f, int precision)
{
    2498:	2f 92       	push	r2
    249a:	3f 92       	push	r3
    249c:	4f 92       	push	r4
    249e:	5f 92       	push	r5
    24a0:	6f 92       	push	r6
    24a2:	7f 92       	push	r7
    24a4:	8f 92       	push	r8
    24a6:	9f 92       	push	r9
    24a8:	af 92       	push	r10
    24aa:	bf 92       	push	r11
    24ac:	cf 92       	push	r12
    24ae:	df 92       	push	r13
    24b0:	ef 92       	push	r14
    24b2:	ff 92       	push	r15
    24b4:	0f 93       	push	r16
    24b6:	1f 93       	push	r17
    24b8:	cf 93       	push	r28
    24ba:	df 93       	push	r29
    24bc:	cd b7       	in	r28, 0x3d	; 61
    24be:	de b7       	in	r29, 0x3e	; 62
    24c0:	a4 97       	sbiw	r28, 0x24	; 36
    24c2:	0f b6       	in	r0, 0x3f	; 63
    24c4:	f8 94       	cli
    24c6:	de bf       	out	0x3e, r29	; 62
    24c8:	0f be       	out	0x3f, r0	; 63
    24ca:	cd bf       	out	0x3d, r28	; 61
    24cc:	8c 01       	movw	r16, r24
    24ce:	6a 01       	movw	r12, r20
    24d0:	7b 01       	movw	r14, r22
    24d2:	39 01       	movw	r6, r18
	long p[] = {0,10,100,1000,10000,100000,1000000,10000000,100000000};
    24d4:	84 e2       	ldi	r24, 0x24	; 36
    24d6:	e4 ee       	ldi	r30, 0xE4	; 228
    24d8:	f1 e0       	ldi	r31, 0x01	; 1
    24da:	de 01       	movw	r26, r28
    24dc:	11 96       	adiw	r26, 0x01	; 1
    24de:	01 90       	ld	r0, Z+
    24e0:	0d 92       	st	X+, r0
    24e2:	8a 95       	dec	r24
    24e4:	e1 f7       	brne	.-8      	; 0x24de <ftoa+0x46>
	
	char *ret = a;
	long heiltal = (long)f;
    24e6:	cb 01       	movw	r24, r22
    24e8:	ba 01       	movw	r22, r20
    24ea:	0e 94 b4 13 	call	0x2768	; 0x2768 <__fixsfsi>
    24ee:	4b 01       	movw	r8, r22
    24f0:	5c 01       	movw	r10, r24
    24f2:	4a e0       	ldi	r20, 0x0A	; 10
    24f4:	b8 01       	movw	r22, r16
    24f6:	c4 01       	movw	r24, r8
    24f8:	0e 94 1d 15 	call	0x2a3a	; 0x2a3a <__itoa_ncheck>
	itoa(heiltal, a, 10);
	while (*a != '\0') a++;
    24fc:	f8 01       	movw	r30, r16
    24fe:	80 81       	ld	r24, Z
    2500:	88 23       	and	r24, r24
    2502:	41 f0       	breq	.+16     	; 0x2514 <ftoa+0x7c>
    2504:	c8 01       	movw	r24, r16
    2506:	01 96       	adiw	r24, 0x01	; 1
    2508:	fc 01       	movw	r30, r24
    250a:	01 96       	adiw	r24, 0x01	; 1
    250c:	20 81       	ld	r18, Z
    250e:	21 11       	cpse	r18, r1
    2510:	fb cf       	rjmp	.-10     	; 0x2508 <ftoa+0x70>
    2512:	01 c0       	rjmp	.+2      	; 0x2516 <ftoa+0x7e>
    2514:	f8 01       	movw	r30, r16
	*a++ = '.';
    2516:	8e e2       	ldi	r24, 0x2E	; 46
    2518:	81 93       	st	Z+, r24
    251a:	1f 01       	movw	r2, r30
	long desimal = abs((long)((f - heiltal) * p[precision]));
    251c:	66 0c       	add	r6, r6
    251e:	77 1c       	adc	r7, r7
    2520:	66 0c       	add	r6, r6
    2522:	77 1c       	adc	r7, r7
    2524:	fe 01       	movw	r30, r28
    2526:	e6 0d       	add	r30, r6
    2528:	f7 1d       	adc	r31, r7
    252a:	61 81       	ldd	r22, Z+1	; 0x01
    252c:	72 81       	ldd	r23, Z+2	; 0x02
    252e:	83 81       	ldd	r24, Z+3	; 0x03
    2530:	94 81       	ldd	r25, Z+4	; 0x04
    2532:	0e 94 ec 13 	call	0x27d8	; 0x27d8 <__floatsisf>
    2536:	2b 01       	movw	r4, r22
    2538:	3c 01       	movw	r6, r24
    253a:	c5 01       	movw	r24, r10
    253c:	b4 01       	movw	r22, r8
    253e:	0e 94 ec 13 	call	0x27d8	; 0x27d8 <__floatsisf>
    2542:	9b 01       	movw	r18, r22
    2544:	ac 01       	movw	r20, r24
    2546:	c7 01       	movw	r24, r14
    2548:	b6 01       	movw	r22, r12
    254a:	0e 94 d5 12 	call	0x25aa	; 0x25aa <__subsf3>
    254e:	9b 01       	movw	r18, r22
    2550:	ac 01       	movw	r20, r24
    2552:	c3 01       	movw	r24, r6
    2554:	b2 01       	movw	r22, r4
    2556:	0e 94 78 14 	call	0x28f0	; 0x28f0 <__mulsf3>
    255a:	0e 94 b4 13 	call	0x2768	; 0x2768 <__fixsfsi>
    255e:	9b 01       	movw	r18, r22
    2560:	77 23       	and	r23, r23
    2562:	24 f4       	brge	.+8      	; 0x256c <ftoa+0xd4>
    2564:	22 27       	eor	r18, r18
    2566:	33 27       	eor	r19, r19
    2568:	26 1b       	sub	r18, r22
    256a:	37 0b       	sbc	r19, r23
    256c:	4a e0       	ldi	r20, 0x0A	; 10
    256e:	b1 01       	movw	r22, r2
    2570:	c9 01       	movw	r24, r18
    2572:	0e 94 1d 15 	call	0x2a3a	; 0x2a3a <__itoa_ncheck>
	itoa(desimal, a, 10);
	return ret;
    2576:	c8 01       	movw	r24, r16
    2578:	a4 96       	adiw	r28, 0x24	; 36
    257a:	0f b6       	in	r0, 0x3f	; 63
    257c:	f8 94       	cli
    257e:	de bf       	out	0x3e, r29	; 62
    2580:	0f be       	out	0x3f, r0	; 63
    2582:	cd bf       	out	0x3d, r28	; 61
    2584:	df 91       	pop	r29
    2586:	cf 91       	pop	r28
    2588:	1f 91       	pop	r17
    258a:	0f 91       	pop	r16
    258c:	ff 90       	pop	r15
    258e:	ef 90       	pop	r14
    2590:	df 90       	pop	r13
    2592:	cf 90       	pop	r12
    2594:	bf 90       	pop	r11
    2596:	af 90       	pop	r10
    2598:	9f 90       	pop	r9
    259a:	8f 90       	pop	r8
    259c:	7f 90       	pop	r7
    259e:	6f 90       	pop	r6
    25a0:	5f 90       	pop	r5
    25a2:	4f 90       	pop	r4
    25a4:	3f 90       	pop	r3
    25a6:	2f 90       	pop	r2
    25a8:	08 95       	ret

000025aa <__subsf3>:
    25aa:	50 58       	subi	r21, 0x80	; 128

000025ac <__addsf3>:
    25ac:	bb 27       	eor	r27, r27
    25ae:	aa 27       	eor	r26, r26
    25b0:	0e 94 ed 12 	call	0x25da	; 0x25da <__addsf3x>
    25b4:	0c 94 3e 14 	jmp	0x287c	; 0x287c <__fp_round>
    25b8:	0e 94 30 14 	call	0x2860	; 0x2860 <__fp_pscA>
    25bc:	38 f0       	brcs	.+14     	; 0x25cc <__addsf3+0x20>
    25be:	0e 94 37 14 	call	0x286e	; 0x286e <__fp_pscB>
    25c2:	20 f0       	brcs	.+8      	; 0x25cc <__addsf3+0x20>
    25c4:	39 f4       	brne	.+14     	; 0x25d4 <__addsf3+0x28>
    25c6:	9f 3f       	cpi	r25, 0xFF	; 255
    25c8:	19 f4       	brne	.+6      	; 0x25d0 <__addsf3+0x24>
    25ca:	26 f4       	brtc	.+8      	; 0x25d4 <__addsf3+0x28>
    25cc:	0c 94 2d 14 	jmp	0x285a	; 0x285a <__fp_nan>
    25d0:	0e f4       	brtc	.+2      	; 0x25d4 <__addsf3+0x28>
    25d2:	e0 95       	com	r30
    25d4:	e7 fb       	bst	r30, 7
    25d6:	0c 94 27 14 	jmp	0x284e	; 0x284e <__fp_inf>

000025da <__addsf3x>:
    25da:	e9 2f       	mov	r30, r25
    25dc:	0e 94 4f 14 	call	0x289e	; 0x289e <__fp_split3>
    25e0:	58 f3       	brcs	.-42     	; 0x25b8 <__addsf3+0xc>
    25e2:	ba 17       	cp	r27, r26
    25e4:	62 07       	cpc	r22, r18
    25e6:	73 07       	cpc	r23, r19
    25e8:	84 07       	cpc	r24, r20
    25ea:	95 07       	cpc	r25, r21
    25ec:	20 f0       	brcs	.+8      	; 0x25f6 <__addsf3x+0x1c>
    25ee:	79 f4       	brne	.+30     	; 0x260e <__addsf3x+0x34>
    25f0:	a6 f5       	brtc	.+104    	; 0x265a <__addsf3x+0x80>
    25f2:	0c 94 71 14 	jmp	0x28e2	; 0x28e2 <__fp_zero>
    25f6:	0e f4       	brtc	.+2      	; 0x25fa <__addsf3x+0x20>
    25f8:	e0 95       	com	r30
    25fa:	0b 2e       	mov	r0, r27
    25fc:	ba 2f       	mov	r27, r26
    25fe:	a0 2d       	mov	r26, r0
    2600:	0b 01       	movw	r0, r22
    2602:	b9 01       	movw	r22, r18
    2604:	90 01       	movw	r18, r0
    2606:	0c 01       	movw	r0, r24
    2608:	ca 01       	movw	r24, r20
    260a:	a0 01       	movw	r20, r0
    260c:	11 24       	eor	r1, r1
    260e:	ff 27       	eor	r31, r31
    2610:	59 1b       	sub	r21, r25
    2612:	99 f0       	breq	.+38     	; 0x263a <__addsf3x+0x60>
    2614:	59 3f       	cpi	r21, 0xF9	; 249
    2616:	50 f4       	brcc	.+20     	; 0x262c <__addsf3x+0x52>
    2618:	50 3e       	cpi	r21, 0xE0	; 224
    261a:	68 f1       	brcs	.+90     	; 0x2676 <__addsf3x+0x9c>
    261c:	1a 16       	cp	r1, r26
    261e:	f0 40       	sbci	r31, 0x00	; 0
    2620:	a2 2f       	mov	r26, r18
    2622:	23 2f       	mov	r18, r19
    2624:	34 2f       	mov	r19, r20
    2626:	44 27       	eor	r20, r20
    2628:	58 5f       	subi	r21, 0xF8	; 248
    262a:	f3 cf       	rjmp	.-26     	; 0x2612 <__addsf3x+0x38>
    262c:	46 95       	lsr	r20
    262e:	37 95       	ror	r19
    2630:	27 95       	ror	r18
    2632:	a7 95       	ror	r26
    2634:	f0 40       	sbci	r31, 0x00	; 0
    2636:	53 95       	inc	r21
    2638:	c9 f7       	brne	.-14     	; 0x262c <__addsf3x+0x52>
    263a:	7e f4       	brtc	.+30     	; 0x265a <__addsf3x+0x80>
    263c:	1f 16       	cp	r1, r31
    263e:	ba 0b       	sbc	r27, r26
    2640:	62 0b       	sbc	r22, r18
    2642:	73 0b       	sbc	r23, r19
    2644:	84 0b       	sbc	r24, r20
    2646:	ba f0       	brmi	.+46     	; 0x2676 <__addsf3x+0x9c>
    2648:	91 50       	subi	r25, 0x01	; 1
    264a:	a1 f0       	breq	.+40     	; 0x2674 <__addsf3x+0x9a>
    264c:	ff 0f       	add	r31, r31
    264e:	bb 1f       	adc	r27, r27
    2650:	66 1f       	adc	r22, r22
    2652:	77 1f       	adc	r23, r23
    2654:	88 1f       	adc	r24, r24
    2656:	c2 f7       	brpl	.-16     	; 0x2648 <__addsf3x+0x6e>
    2658:	0e c0       	rjmp	.+28     	; 0x2676 <__addsf3x+0x9c>
    265a:	ba 0f       	add	r27, r26
    265c:	62 1f       	adc	r22, r18
    265e:	73 1f       	adc	r23, r19
    2660:	84 1f       	adc	r24, r20
    2662:	48 f4       	brcc	.+18     	; 0x2676 <__addsf3x+0x9c>
    2664:	87 95       	ror	r24
    2666:	77 95       	ror	r23
    2668:	67 95       	ror	r22
    266a:	b7 95       	ror	r27
    266c:	f7 95       	ror	r31
    266e:	9e 3f       	cpi	r25, 0xFE	; 254
    2670:	08 f0       	brcs	.+2      	; 0x2674 <__addsf3x+0x9a>
    2672:	b0 cf       	rjmp	.-160    	; 0x25d4 <__addsf3+0x28>
    2674:	93 95       	inc	r25
    2676:	88 0f       	add	r24, r24
    2678:	08 f0       	brcs	.+2      	; 0x267c <__addsf3x+0xa2>
    267a:	99 27       	eor	r25, r25
    267c:	ee 0f       	add	r30, r30
    267e:	97 95       	ror	r25
    2680:	87 95       	ror	r24
    2682:	08 95       	ret

00002684 <__divsf3>:
    2684:	0e 94 56 13 	call	0x26ac	; 0x26ac <__divsf3x>
    2688:	0c 94 3e 14 	jmp	0x287c	; 0x287c <__fp_round>
    268c:	0e 94 37 14 	call	0x286e	; 0x286e <__fp_pscB>
    2690:	58 f0       	brcs	.+22     	; 0x26a8 <__divsf3+0x24>
    2692:	0e 94 30 14 	call	0x2860	; 0x2860 <__fp_pscA>
    2696:	40 f0       	brcs	.+16     	; 0x26a8 <__divsf3+0x24>
    2698:	29 f4       	brne	.+10     	; 0x26a4 <__divsf3+0x20>
    269a:	5f 3f       	cpi	r21, 0xFF	; 255
    269c:	29 f0       	breq	.+10     	; 0x26a8 <__divsf3+0x24>
    269e:	0c 94 27 14 	jmp	0x284e	; 0x284e <__fp_inf>
    26a2:	51 11       	cpse	r21, r1
    26a4:	0c 94 72 14 	jmp	0x28e4	; 0x28e4 <__fp_szero>
    26a8:	0c 94 2d 14 	jmp	0x285a	; 0x285a <__fp_nan>

000026ac <__divsf3x>:
    26ac:	0e 94 4f 14 	call	0x289e	; 0x289e <__fp_split3>
    26b0:	68 f3       	brcs	.-38     	; 0x268c <__divsf3+0x8>

000026b2 <__divsf3_pse>:
    26b2:	99 23       	and	r25, r25
    26b4:	b1 f3       	breq	.-20     	; 0x26a2 <__divsf3+0x1e>
    26b6:	55 23       	and	r21, r21
    26b8:	91 f3       	breq	.-28     	; 0x269e <__divsf3+0x1a>
    26ba:	95 1b       	sub	r25, r21
    26bc:	55 0b       	sbc	r21, r21
    26be:	bb 27       	eor	r27, r27
    26c0:	aa 27       	eor	r26, r26
    26c2:	62 17       	cp	r22, r18
    26c4:	73 07       	cpc	r23, r19
    26c6:	84 07       	cpc	r24, r20
    26c8:	38 f0       	brcs	.+14     	; 0x26d8 <__divsf3_pse+0x26>
    26ca:	9f 5f       	subi	r25, 0xFF	; 255
    26cc:	5f 4f       	sbci	r21, 0xFF	; 255
    26ce:	22 0f       	add	r18, r18
    26d0:	33 1f       	adc	r19, r19
    26d2:	44 1f       	adc	r20, r20
    26d4:	aa 1f       	adc	r26, r26
    26d6:	a9 f3       	breq	.-22     	; 0x26c2 <__divsf3_pse+0x10>
    26d8:	35 d0       	rcall	.+106    	; 0x2744 <__divsf3_pse+0x92>
    26da:	0e 2e       	mov	r0, r30
    26dc:	3a f0       	brmi	.+14     	; 0x26ec <__divsf3_pse+0x3a>
    26de:	e0 e8       	ldi	r30, 0x80	; 128
    26e0:	32 d0       	rcall	.+100    	; 0x2746 <__divsf3_pse+0x94>
    26e2:	91 50       	subi	r25, 0x01	; 1
    26e4:	50 40       	sbci	r21, 0x00	; 0
    26e6:	e6 95       	lsr	r30
    26e8:	00 1c       	adc	r0, r0
    26ea:	ca f7       	brpl	.-14     	; 0x26de <__divsf3_pse+0x2c>
    26ec:	2b d0       	rcall	.+86     	; 0x2744 <__divsf3_pse+0x92>
    26ee:	fe 2f       	mov	r31, r30
    26f0:	29 d0       	rcall	.+82     	; 0x2744 <__divsf3_pse+0x92>
    26f2:	66 0f       	add	r22, r22
    26f4:	77 1f       	adc	r23, r23
    26f6:	88 1f       	adc	r24, r24
    26f8:	bb 1f       	adc	r27, r27
    26fa:	26 17       	cp	r18, r22
    26fc:	37 07       	cpc	r19, r23
    26fe:	48 07       	cpc	r20, r24
    2700:	ab 07       	cpc	r26, r27
    2702:	b0 e8       	ldi	r27, 0x80	; 128
    2704:	09 f0       	breq	.+2      	; 0x2708 <__divsf3_pse+0x56>
    2706:	bb 0b       	sbc	r27, r27
    2708:	80 2d       	mov	r24, r0
    270a:	bf 01       	movw	r22, r30
    270c:	ff 27       	eor	r31, r31
    270e:	93 58       	subi	r25, 0x83	; 131
    2710:	5f 4f       	sbci	r21, 0xFF	; 255
    2712:	3a f0       	brmi	.+14     	; 0x2722 <__divsf3_pse+0x70>
    2714:	9e 3f       	cpi	r25, 0xFE	; 254
    2716:	51 05       	cpc	r21, r1
    2718:	78 f0       	brcs	.+30     	; 0x2738 <__divsf3_pse+0x86>
    271a:	0c 94 27 14 	jmp	0x284e	; 0x284e <__fp_inf>
    271e:	0c 94 72 14 	jmp	0x28e4	; 0x28e4 <__fp_szero>
    2722:	5f 3f       	cpi	r21, 0xFF	; 255
    2724:	e4 f3       	brlt	.-8      	; 0x271e <__divsf3_pse+0x6c>
    2726:	98 3e       	cpi	r25, 0xE8	; 232
    2728:	d4 f3       	brlt	.-12     	; 0x271e <__divsf3_pse+0x6c>
    272a:	86 95       	lsr	r24
    272c:	77 95       	ror	r23
    272e:	67 95       	ror	r22
    2730:	b7 95       	ror	r27
    2732:	f7 95       	ror	r31
    2734:	9f 5f       	subi	r25, 0xFF	; 255
    2736:	c9 f7       	brne	.-14     	; 0x272a <__divsf3_pse+0x78>
    2738:	88 0f       	add	r24, r24
    273a:	91 1d       	adc	r25, r1
    273c:	96 95       	lsr	r25
    273e:	87 95       	ror	r24
    2740:	97 f9       	bld	r25, 7
    2742:	08 95       	ret
    2744:	e1 e0       	ldi	r30, 0x01	; 1
    2746:	66 0f       	add	r22, r22
    2748:	77 1f       	adc	r23, r23
    274a:	88 1f       	adc	r24, r24
    274c:	bb 1f       	adc	r27, r27
    274e:	62 17       	cp	r22, r18
    2750:	73 07       	cpc	r23, r19
    2752:	84 07       	cpc	r24, r20
    2754:	ba 07       	cpc	r27, r26
    2756:	20 f0       	brcs	.+8      	; 0x2760 <__divsf3_pse+0xae>
    2758:	62 1b       	sub	r22, r18
    275a:	73 0b       	sbc	r23, r19
    275c:	84 0b       	sbc	r24, r20
    275e:	ba 0b       	sbc	r27, r26
    2760:	ee 1f       	adc	r30, r30
    2762:	88 f7       	brcc	.-30     	; 0x2746 <__divsf3_pse+0x94>
    2764:	e0 95       	com	r30
    2766:	08 95       	ret

00002768 <__fixsfsi>:
    2768:	0e 94 bb 13 	call	0x2776	; 0x2776 <__fixunssfsi>
    276c:	68 94       	set
    276e:	b1 11       	cpse	r27, r1
    2770:	0c 94 72 14 	jmp	0x28e4	; 0x28e4 <__fp_szero>
    2774:	08 95       	ret

00002776 <__fixunssfsi>:
    2776:	0e 94 57 14 	call	0x28ae	; 0x28ae <__fp_splitA>
    277a:	88 f0       	brcs	.+34     	; 0x279e <__fixunssfsi+0x28>
    277c:	9f 57       	subi	r25, 0x7F	; 127
    277e:	98 f0       	brcs	.+38     	; 0x27a6 <__fixunssfsi+0x30>
    2780:	b9 2f       	mov	r27, r25
    2782:	99 27       	eor	r25, r25
    2784:	b7 51       	subi	r27, 0x17	; 23
    2786:	b0 f0       	brcs	.+44     	; 0x27b4 <__fixunssfsi+0x3e>
    2788:	e1 f0       	breq	.+56     	; 0x27c2 <__fixunssfsi+0x4c>
    278a:	66 0f       	add	r22, r22
    278c:	77 1f       	adc	r23, r23
    278e:	88 1f       	adc	r24, r24
    2790:	99 1f       	adc	r25, r25
    2792:	1a f0       	brmi	.+6      	; 0x279a <__fixunssfsi+0x24>
    2794:	ba 95       	dec	r27
    2796:	c9 f7       	brne	.-14     	; 0x278a <__fixunssfsi+0x14>
    2798:	14 c0       	rjmp	.+40     	; 0x27c2 <__fixunssfsi+0x4c>
    279a:	b1 30       	cpi	r27, 0x01	; 1
    279c:	91 f0       	breq	.+36     	; 0x27c2 <__fixunssfsi+0x4c>
    279e:	0e 94 71 14 	call	0x28e2	; 0x28e2 <__fp_zero>
    27a2:	b1 e0       	ldi	r27, 0x01	; 1
    27a4:	08 95       	ret
    27a6:	0c 94 71 14 	jmp	0x28e2	; 0x28e2 <__fp_zero>
    27aa:	67 2f       	mov	r22, r23
    27ac:	78 2f       	mov	r23, r24
    27ae:	88 27       	eor	r24, r24
    27b0:	b8 5f       	subi	r27, 0xF8	; 248
    27b2:	39 f0       	breq	.+14     	; 0x27c2 <__fixunssfsi+0x4c>
    27b4:	b9 3f       	cpi	r27, 0xF9	; 249
    27b6:	cc f3       	brlt	.-14     	; 0x27aa <__fixunssfsi+0x34>
    27b8:	86 95       	lsr	r24
    27ba:	77 95       	ror	r23
    27bc:	67 95       	ror	r22
    27be:	b3 95       	inc	r27
    27c0:	d9 f7       	brne	.-10     	; 0x27b8 <__fixunssfsi+0x42>
    27c2:	3e f4       	brtc	.+14     	; 0x27d2 <__fixunssfsi+0x5c>
    27c4:	90 95       	com	r25
    27c6:	80 95       	com	r24
    27c8:	70 95       	com	r23
    27ca:	61 95       	neg	r22
    27cc:	7f 4f       	sbci	r23, 0xFF	; 255
    27ce:	8f 4f       	sbci	r24, 0xFF	; 255
    27d0:	9f 4f       	sbci	r25, 0xFF	; 255
    27d2:	08 95       	ret

000027d4 <__floatunsisf>:
    27d4:	e8 94       	clt
    27d6:	09 c0       	rjmp	.+18     	; 0x27ea <__floatsisf+0x12>

000027d8 <__floatsisf>:
    27d8:	97 fb       	bst	r25, 7
    27da:	3e f4       	brtc	.+14     	; 0x27ea <__floatsisf+0x12>
    27dc:	90 95       	com	r25
    27de:	80 95       	com	r24
    27e0:	70 95       	com	r23
    27e2:	61 95       	neg	r22
    27e4:	7f 4f       	sbci	r23, 0xFF	; 255
    27e6:	8f 4f       	sbci	r24, 0xFF	; 255
    27e8:	9f 4f       	sbci	r25, 0xFF	; 255
    27ea:	99 23       	and	r25, r25
    27ec:	a9 f0       	breq	.+42     	; 0x2818 <__floatsisf+0x40>
    27ee:	f9 2f       	mov	r31, r25
    27f0:	96 e9       	ldi	r25, 0x96	; 150
    27f2:	bb 27       	eor	r27, r27
    27f4:	93 95       	inc	r25
    27f6:	f6 95       	lsr	r31
    27f8:	87 95       	ror	r24
    27fa:	77 95       	ror	r23
    27fc:	67 95       	ror	r22
    27fe:	b7 95       	ror	r27
    2800:	f1 11       	cpse	r31, r1
    2802:	f8 cf       	rjmp	.-16     	; 0x27f4 <__floatsisf+0x1c>
    2804:	fa f4       	brpl	.+62     	; 0x2844 <__floatsisf+0x6c>
    2806:	bb 0f       	add	r27, r27
    2808:	11 f4       	brne	.+4      	; 0x280e <__floatsisf+0x36>
    280a:	60 ff       	sbrs	r22, 0
    280c:	1b c0       	rjmp	.+54     	; 0x2844 <__floatsisf+0x6c>
    280e:	6f 5f       	subi	r22, 0xFF	; 255
    2810:	7f 4f       	sbci	r23, 0xFF	; 255
    2812:	8f 4f       	sbci	r24, 0xFF	; 255
    2814:	9f 4f       	sbci	r25, 0xFF	; 255
    2816:	16 c0       	rjmp	.+44     	; 0x2844 <__floatsisf+0x6c>
    2818:	88 23       	and	r24, r24
    281a:	11 f0       	breq	.+4      	; 0x2820 <__floatsisf+0x48>
    281c:	96 e9       	ldi	r25, 0x96	; 150
    281e:	11 c0       	rjmp	.+34     	; 0x2842 <__floatsisf+0x6a>
    2820:	77 23       	and	r23, r23
    2822:	21 f0       	breq	.+8      	; 0x282c <__floatsisf+0x54>
    2824:	9e e8       	ldi	r25, 0x8E	; 142
    2826:	87 2f       	mov	r24, r23
    2828:	76 2f       	mov	r23, r22
    282a:	05 c0       	rjmp	.+10     	; 0x2836 <__floatsisf+0x5e>
    282c:	66 23       	and	r22, r22
    282e:	71 f0       	breq	.+28     	; 0x284c <__floatsisf+0x74>
    2830:	96 e8       	ldi	r25, 0x86	; 134
    2832:	86 2f       	mov	r24, r22
    2834:	70 e0       	ldi	r23, 0x00	; 0
    2836:	60 e0       	ldi	r22, 0x00	; 0
    2838:	2a f0       	brmi	.+10     	; 0x2844 <__floatsisf+0x6c>
    283a:	9a 95       	dec	r25
    283c:	66 0f       	add	r22, r22
    283e:	77 1f       	adc	r23, r23
    2840:	88 1f       	adc	r24, r24
    2842:	da f7       	brpl	.-10     	; 0x283a <__floatsisf+0x62>
    2844:	88 0f       	add	r24, r24
    2846:	96 95       	lsr	r25
    2848:	87 95       	ror	r24
    284a:	97 f9       	bld	r25, 7
    284c:	08 95       	ret

0000284e <__fp_inf>:
    284e:	97 f9       	bld	r25, 7
    2850:	9f 67       	ori	r25, 0x7F	; 127
    2852:	80 e8       	ldi	r24, 0x80	; 128
    2854:	70 e0       	ldi	r23, 0x00	; 0
    2856:	60 e0       	ldi	r22, 0x00	; 0
    2858:	08 95       	ret

0000285a <__fp_nan>:
    285a:	9f ef       	ldi	r25, 0xFF	; 255
    285c:	80 ec       	ldi	r24, 0xC0	; 192
    285e:	08 95       	ret

00002860 <__fp_pscA>:
    2860:	00 24       	eor	r0, r0
    2862:	0a 94       	dec	r0
    2864:	16 16       	cp	r1, r22
    2866:	17 06       	cpc	r1, r23
    2868:	18 06       	cpc	r1, r24
    286a:	09 06       	cpc	r0, r25
    286c:	08 95       	ret

0000286e <__fp_pscB>:
    286e:	00 24       	eor	r0, r0
    2870:	0a 94       	dec	r0
    2872:	12 16       	cp	r1, r18
    2874:	13 06       	cpc	r1, r19
    2876:	14 06       	cpc	r1, r20
    2878:	05 06       	cpc	r0, r21
    287a:	08 95       	ret

0000287c <__fp_round>:
    287c:	09 2e       	mov	r0, r25
    287e:	03 94       	inc	r0
    2880:	00 0c       	add	r0, r0
    2882:	11 f4       	brne	.+4      	; 0x2888 <__fp_round+0xc>
    2884:	88 23       	and	r24, r24
    2886:	52 f0       	brmi	.+20     	; 0x289c <__fp_round+0x20>
    2888:	bb 0f       	add	r27, r27
    288a:	40 f4       	brcc	.+16     	; 0x289c <__fp_round+0x20>
    288c:	bf 2b       	or	r27, r31
    288e:	11 f4       	brne	.+4      	; 0x2894 <__fp_round+0x18>
    2890:	60 ff       	sbrs	r22, 0
    2892:	04 c0       	rjmp	.+8      	; 0x289c <__fp_round+0x20>
    2894:	6f 5f       	subi	r22, 0xFF	; 255
    2896:	7f 4f       	sbci	r23, 0xFF	; 255
    2898:	8f 4f       	sbci	r24, 0xFF	; 255
    289a:	9f 4f       	sbci	r25, 0xFF	; 255
    289c:	08 95       	ret

0000289e <__fp_split3>:
    289e:	57 fd       	sbrc	r21, 7
    28a0:	90 58       	subi	r25, 0x80	; 128
    28a2:	44 0f       	add	r20, r20
    28a4:	55 1f       	adc	r21, r21
    28a6:	59 f0       	breq	.+22     	; 0x28be <__fp_splitA+0x10>
    28a8:	5f 3f       	cpi	r21, 0xFF	; 255
    28aa:	71 f0       	breq	.+28     	; 0x28c8 <__fp_splitA+0x1a>
    28ac:	47 95       	ror	r20

000028ae <__fp_splitA>:
    28ae:	88 0f       	add	r24, r24
    28b0:	97 fb       	bst	r25, 7
    28b2:	99 1f       	adc	r25, r25
    28b4:	61 f0       	breq	.+24     	; 0x28ce <__fp_splitA+0x20>
    28b6:	9f 3f       	cpi	r25, 0xFF	; 255
    28b8:	79 f0       	breq	.+30     	; 0x28d8 <__fp_splitA+0x2a>
    28ba:	87 95       	ror	r24
    28bc:	08 95       	ret
    28be:	12 16       	cp	r1, r18
    28c0:	13 06       	cpc	r1, r19
    28c2:	14 06       	cpc	r1, r20
    28c4:	55 1f       	adc	r21, r21
    28c6:	f2 cf       	rjmp	.-28     	; 0x28ac <__fp_split3+0xe>
    28c8:	46 95       	lsr	r20
    28ca:	f1 df       	rcall	.-30     	; 0x28ae <__fp_splitA>
    28cc:	08 c0       	rjmp	.+16     	; 0x28de <__fp_splitA+0x30>
    28ce:	16 16       	cp	r1, r22
    28d0:	17 06       	cpc	r1, r23
    28d2:	18 06       	cpc	r1, r24
    28d4:	99 1f       	adc	r25, r25
    28d6:	f1 cf       	rjmp	.-30     	; 0x28ba <__fp_splitA+0xc>
    28d8:	86 95       	lsr	r24
    28da:	71 05       	cpc	r23, r1
    28dc:	61 05       	cpc	r22, r1
    28de:	08 94       	sec
    28e0:	08 95       	ret

000028e2 <__fp_zero>:
    28e2:	e8 94       	clt

000028e4 <__fp_szero>:
    28e4:	bb 27       	eor	r27, r27
    28e6:	66 27       	eor	r22, r22
    28e8:	77 27       	eor	r23, r23
    28ea:	cb 01       	movw	r24, r22
    28ec:	97 f9       	bld	r25, 7
    28ee:	08 95       	ret

000028f0 <__mulsf3>:
    28f0:	0e 94 8b 14 	call	0x2916	; 0x2916 <__mulsf3x>
    28f4:	0c 94 3e 14 	jmp	0x287c	; 0x287c <__fp_round>
    28f8:	0e 94 30 14 	call	0x2860	; 0x2860 <__fp_pscA>
    28fc:	38 f0       	brcs	.+14     	; 0x290c <__mulsf3+0x1c>
    28fe:	0e 94 37 14 	call	0x286e	; 0x286e <__fp_pscB>
    2902:	20 f0       	brcs	.+8      	; 0x290c <__mulsf3+0x1c>
    2904:	95 23       	and	r25, r21
    2906:	11 f0       	breq	.+4      	; 0x290c <__mulsf3+0x1c>
    2908:	0c 94 27 14 	jmp	0x284e	; 0x284e <__fp_inf>
    290c:	0c 94 2d 14 	jmp	0x285a	; 0x285a <__fp_nan>
    2910:	11 24       	eor	r1, r1
    2912:	0c 94 72 14 	jmp	0x28e4	; 0x28e4 <__fp_szero>

00002916 <__mulsf3x>:
    2916:	0e 94 4f 14 	call	0x289e	; 0x289e <__fp_split3>
    291a:	70 f3       	brcs	.-36     	; 0x28f8 <__mulsf3+0x8>

0000291c <__mulsf3_pse>:
    291c:	95 9f       	mul	r25, r21
    291e:	c1 f3       	breq	.-16     	; 0x2910 <__mulsf3+0x20>
    2920:	95 0f       	add	r25, r21
    2922:	50 e0       	ldi	r21, 0x00	; 0
    2924:	55 1f       	adc	r21, r21
    2926:	62 9f       	mul	r22, r18
    2928:	f0 01       	movw	r30, r0
    292a:	72 9f       	mul	r23, r18
    292c:	bb 27       	eor	r27, r27
    292e:	f0 0d       	add	r31, r0
    2930:	b1 1d       	adc	r27, r1
    2932:	63 9f       	mul	r22, r19
    2934:	aa 27       	eor	r26, r26
    2936:	f0 0d       	add	r31, r0
    2938:	b1 1d       	adc	r27, r1
    293a:	aa 1f       	adc	r26, r26
    293c:	64 9f       	mul	r22, r20
    293e:	66 27       	eor	r22, r22
    2940:	b0 0d       	add	r27, r0
    2942:	a1 1d       	adc	r26, r1
    2944:	66 1f       	adc	r22, r22
    2946:	82 9f       	mul	r24, r18
    2948:	22 27       	eor	r18, r18
    294a:	b0 0d       	add	r27, r0
    294c:	a1 1d       	adc	r26, r1
    294e:	62 1f       	adc	r22, r18
    2950:	73 9f       	mul	r23, r19
    2952:	b0 0d       	add	r27, r0
    2954:	a1 1d       	adc	r26, r1
    2956:	62 1f       	adc	r22, r18
    2958:	83 9f       	mul	r24, r19
    295a:	a0 0d       	add	r26, r0
    295c:	61 1d       	adc	r22, r1
    295e:	22 1f       	adc	r18, r18
    2960:	74 9f       	mul	r23, r20
    2962:	33 27       	eor	r19, r19
    2964:	a0 0d       	add	r26, r0
    2966:	61 1d       	adc	r22, r1
    2968:	23 1f       	adc	r18, r19
    296a:	84 9f       	mul	r24, r20
    296c:	60 0d       	add	r22, r0
    296e:	21 1d       	adc	r18, r1
    2970:	82 2f       	mov	r24, r18
    2972:	76 2f       	mov	r23, r22
    2974:	6a 2f       	mov	r22, r26
    2976:	11 24       	eor	r1, r1
    2978:	9f 57       	subi	r25, 0x7F	; 127
    297a:	50 40       	sbci	r21, 0x00	; 0
    297c:	9a f0       	brmi	.+38     	; 0x29a4 <__mulsf3_pse+0x88>
    297e:	f1 f0       	breq	.+60     	; 0x29bc <__mulsf3_pse+0xa0>
    2980:	88 23       	and	r24, r24
    2982:	4a f0       	brmi	.+18     	; 0x2996 <__mulsf3_pse+0x7a>
    2984:	ee 0f       	add	r30, r30
    2986:	ff 1f       	adc	r31, r31
    2988:	bb 1f       	adc	r27, r27
    298a:	66 1f       	adc	r22, r22
    298c:	77 1f       	adc	r23, r23
    298e:	88 1f       	adc	r24, r24
    2990:	91 50       	subi	r25, 0x01	; 1
    2992:	50 40       	sbci	r21, 0x00	; 0
    2994:	a9 f7       	brne	.-22     	; 0x2980 <__mulsf3_pse+0x64>
    2996:	9e 3f       	cpi	r25, 0xFE	; 254
    2998:	51 05       	cpc	r21, r1
    299a:	80 f0       	brcs	.+32     	; 0x29bc <__mulsf3_pse+0xa0>
    299c:	0c 94 27 14 	jmp	0x284e	; 0x284e <__fp_inf>
    29a0:	0c 94 72 14 	jmp	0x28e4	; 0x28e4 <__fp_szero>
    29a4:	5f 3f       	cpi	r21, 0xFF	; 255
    29a6:	e4 f3       	brlt	.-8      	; 0x29a0 <__mulsf3_pse+0x84>
    29a8:	98 3e       	cpi	r25, 0xE8	; 232
    29aa:	d4 f3       	brlt	.-12     	; 0x29a0 <__mulsf3_pse+0x84>
    29ac:	86 95       	lsr	r24
    29ae:	77 95       	ror	r23
    29b0:	67 95       	ror	r22
    29b2:	b7 95       	ror	r27
    29b4:	f7 95       	ror	r31
    29b6:	e7 95       	ror	r30
    29b8:	9f 5f       	subi	r25, 0xFF	; 255
    29ba:	c1 f7       	brne	.-16     	; 0x29ac <__mulsf3_pse+0x90>
    29bc:	fe 2b       	or	r31, r30
    29be:	88 0f       	add	r24, r24
    29c0:	91 1d       	adc	r25, r1
    29c2:	96 95       	lsr	r25
    29c4:	87 95       	ror	r24
    29c6:	97 f9       	bld	r25, 7
    29c8:	08 95       	ret

000029ca <__mulsi3>:
    29ca:	db 01       	movw	r26, r22
    29cc:	8f 93       	push	r24
    29ce:	9f 93       	push	r25
    29d0:	0e 94 fb 14 	call	0x29f6	; 0x29f6 <__muluhisi3>
    29d4:	bf 91       	pop	r27
    29d6:	af 91       	pop	r26
    29d8:	a2 9f       	mul	r26, r18
    29da:	80 0d       	add	r24, r0
    29dc:	91 1d       	adc	r25, r1
    29de:	a3 9f       	mul	r26, r19
    29e0:	90 0d       	add	r25, r0
    29e2:	b2 9f       	mul	r27, r18
    29e4:	90 0d       	add	r25, r0
    29e6:	11 24       	eor	r1, r1
    29e8:	08 95       	ret

000029ea <__tablejump2__>:
    29ea:	ee 0f       	add	r30, r30
    29ec:	ff 1f       	adc	r31, r31
    29ee:	05 90       	lpm	r0, Z+
    29f0:	f4 91       	lpm	r31, Z
    29f2:	e0 2d       	mov	r30, r0
    29f4:	09 94       	ijmp

000029f6 <__muluhisi3>:
    29f6:	0e 94 0e 15 	call	0x2a1c	; 0x2a1c <__umulhisi3>
    29fa:	a5 9f       	mul	r26, r21
    29fc:	90 0d       	add	r25, r0
    29fe:	b4 9f       	mul	r27, r20
    2a00:	90 0d       	add	r25, r0
    2a02:	a4 9f       	mul	r26, r20
    2a04:	80 0d       	add	r24, r0
    2a06:	91 1d       	adc	r25, r1
    2a08:	11 24       	eor	r1, r1
    2a0a:	08 95       	ret

00002a0c <__mulshisi3>:
    2a0c:	b7 ff       	sbrs	r27, 7
    2a0e:	0c 94 fb 14 	jmp	0x29f6	; 0x29f6 <__muluhisi3>

00002a12 <__mulohisi3>:
    2a12:	0e 94 fb 14 	call	0x29f6	; 0x29f6 <__muluhisi3>
    2a16:	82 1b       	sub	r24, r18
    2a18:	93 0b       	sbc	r25, r19
    2a1a:	08 95       	ret

00002a1c <__umulhisi3>:
    2a1c:	a2 9f       	mul	r26, r18
    2a1e:	b0 01       	movw	r22, r0
    2a20:	b3 9f       	mul	r27, r19
    2a22:	c0 01       	movw	r24, r0
    2a24:	a3 9f       	mul	r26, r19
    2a26:	70 0d       	add	r23, r0
    2a28:	81 1d       	adc	r24, r1
    2a2a:	11 24       	eor	r1, r1
    2a2c:	91 1d       	adc	r25, r1
    2a2e:	b2 9f       	mul	r27, r18
    2a30:	70 0d       	add	r23, r0
    2a32:	81 1d       	adc	r24, r1
    2a34:	11 24       	eor	r1, r1
    2a36:	91 1d       	adc	r25, r1
    2a38:	08 95       	ret

00002a3a <__itoa_ncheck>:
    2a3a:	bb 27       	eor	r27, r27
    2a3c:	4a 30       	cpi	r20, 0x0A	; 10
    2a3e:	31 f4       	brne	.+12     	; 0x2a4c <__itoa_ncheck+0x12>
    2a40:	99 23       	and	r25, r25
    2a42:	22 f4       	brpl	.+8      	; 0x2a4c <__itoa_ncheck+0x12>
    2a44:	bd e2       	ldi	r27, 0x2D	; 45
    2a46:	90 95       	com	r25
    2a48:	81 95       	neg	r24
    2a4a:	9f 4f       	sbci	r25, 0xFF	; 255
    2a4c:	0c 94 29 15 	jmp	0x2a52	; 0x2a52 <__utoa_common>

00002a50 <__utoa_ncheck>:
    2a50:	bb 27       	eor	r27, r27

00002a52 <__utoa_common>:
    2a52:	fb 01       	movw	r30, r22
    2a54:	55 27       	eor	r21, r21
    2a56:	aa 27       	eor	r26, r26
    2a58:	88 0f       	add	r24, r24
    2a5a:	99 1f       	adc	r25, r25
    2a5c:	aa 1f       	adc	r26, r26
    2a5e:	a4 17       	cp	r26, r20
    2a60:	10 f0       	brcs	.+4      	; 0x2a66 <__utoa_common+0x14>
    2a62:	a4 1b       	sub	r26, r20
    2a64:	83 95       	inc	r24
    2a66:	50 51       	subi	r21, 0x10	; 16
    2a68:	b9 f7       	brne	.-18     	; 0x2a58 <__utoa_common+0x6>
    2a6a:	a0 5d       	subi	r26, 0xD0	; 208
    2a6c:	aa 33       	cpi	r26, 0x3A	; 58
    2a6e:	08 f0       	brcs	.+2      	; 0x2a72 <__utoa_common+0x20>
    2a70:	a9 5d       	subi	r26, 0xD9	; 217
    2a72:	a1 93       	st	Z+, r26
    2a74:	00 97       	sbiw	r24, 0x00	; 0
    2a76:	79 f7       	brne	.-34     	; 0x2a56 <__utoa_common+0x4>
    2a78:	b1 11       	cpse	r27, r1
    2a7a:	b1 93       	st	Z+, r27
    2a7c:	11 92       	st	Z+, r1
    2a7e:	cb 01       	movw	r24, r22
    2a80:	0c 94 42 15 	jmp	0x2a84	; 0x2a84 <strrev>

00002a84 <strrev>:
    2a84:	dc 01       	movw	r26, r24
    2a86:	fc 01       	movw	r30, r24
    2a88:	67 2f       	mov	r22, r23
    2a8a:	71 91       	ld	r23, Z+
    2a8c:	77 23       	and	r23, r23
    2a8e:	e1 f7       	brne	.-8      	; 0x2a88 <strrev+0x4>
    2a90:	32 97       	sbiw	r30, 0x02	; 2
    2a92:	04 c0       	rjmp	.+8      	; 0x2a9c <strrev+0x18>
    2a94:	7c 91       	ld	r23, X
    2a96:	6d 93       	st	X+, r22
    2a98:	70 83       	st	Z, r23
    2a9a:	62 91       	ld	r22, -Z
    2a9c:	ae 17       	cp	r26, r30
    2a9e:	bf 07       	cpc	r27, r31
    2aa0:	c8 f3       	brcs	.-14     	; 0x2a94 <strrev+0x10>
    2aa2:	08 95       	ret

00002aa4 <eeprom_update_byte>:
    2aa4:	26 2f       	mov	r18, r22

00002aa6 <eeprom_update_r18>:
    2aa6:	e1 99       	sbic	0x1c, 1	; 28
    2aa8:	fe cf       	rjmp	.-4      	; 0x2aa6 <eeprom_update_r18>
    2aaa:	9f bb       	out	0x1f, r25	; 31
    2aac:	8e bb       	out	0x1e, r24	; 30
    2aae:	e0 9a       	sbi	0x1c, 0	; 28
    2ab0:	01 97       	sbiw	r24, 0x01	; 1
    2ab2:	0d b2       	in	r0, 0x1d	; 29
    2ab4:	02 16       	cp	r0, r18
    2ab6:	31 f0       	breq	.+12     	; 0x2ac4 <eeprom_update_r18+0x1e>
    2ab8:	2d bb       	out	0x1d, r18	; 29
    2aba:	0f b6       	in	r0, 0x3f	; 63
    2abc:	f8 94       	cli
    2abe:	e2 9a       	sbi	0x1c, 2	; 28
    2ac0:	e1 9a       	sbi	0x1c, 1	; 28
    2ac2:	0f be       	out	0x3f, r0	; 63
    2ac4:	08 95       	ret

00002ac6 <_exit>:
    2ac6:	f8 94       	cli

00002ac8 <__stop_program>:
    2ac8:	ff cf       	rjmp	.-2      	; 0x2ac8 <__stop_program>
